Chart: 11360, Current Edition: 44, Print Date: Oct. /2010, Cape St. George to Mississippi Passes
Chart	Action	Item Name	Charting Label	Latitude	Longitude	LatDD	LongDD	Published Document	Kapp	RNC Panel	RNC Posted
11360	Delete	TEXACO-SP-54-A RACON	RACON (-..-)     Chart No. 1: S3.1	N 28 51' 58.000"	W 089 15' 39.000"	28.86611	-89.26083	LNM 26/17, 8th Dist	48	11360_1	Not Yet
11360	Delete	Platform (Energy Resources-160-2)	Chart No. 1: L10	N 29 47' 12.055"	W 088 20' 57.082"	29.78668	-88.34919	LNM 20/17, 8th Dist	48	11360_1	6/1/2017
11360	Delete	Platform (Chevron-184-6)	Chart No. 1: L10	N 29 23' 30.000"	W 088 38' 44.000"	29.39167	-88.64555	LNM 17/17, 8th Dist	48	11360_1	5/4/2017
11360	Delete	Platform (Chevron-216-1)	Chart No. 1: L10	N 29 51' 11.638"	W 088 23' 45.224"	29.85323	-88.3959	LNM 17/17, 8th Dist	48	11360_1	5/4/2017
11360	Add	NOAA Lighted Data Buoy 42012	Y ODAS "42012" Fl (4) Y 20s	N 30 03' 50.964"	W 087 33' 05.197"	30.06416	-87.55145	LNM 15/17, 8th Dist	48	11360_1	4/20/2017
11360	Relocate	NOAA Lighted Buoy 42039	Y ODAS "42039" Fl (4) Y 20s PA	N 28 47' 17.565"	W 086 00' 30.589"	28.78821	-86.0085	LNM 14/17, 8th Dist	48	11360_1	4/13/2017
11360	Delete	Platform (Chevron-147-5)	Chart No. 1: L10	N 29 56' 24.318"	W 088 22' 36.665"	29.94009	-88.37685	LNM 14/17, 8th Dist	48	11360_1	4/13/2017
11360	Relocate	NOAA Lighted Buoy 42040 (ODAS)	Y ODAS "42040" Fl (4) Y 20s PA	N 29 12' 30.280"	W 088 13' 32.462"	29.20841	-88.22569	LNM 13/17, 8th Dist	48	11360_1	4/6/2017
11360	Delete	Well	Well (cov 19fms)     Chart No. 1: L20	N 29 39' 50.275"	W 088 28' 22.935"	29.66397	-88.47304	LNM 09/17, 8th Dist	48	11360_1	3/9/2017
11360	Add	Platform:  (Destin Pipeline-100-01)	Chart No. 1: L10	N 29 20' 34.857"	W 088 04' 01.624"	29.34302	-88.06712	LNM 04/17, 8th Dist	48	11360_1	2/9/2017
11360	Add	Minimum Size (2mm sq.) Dotted Fish Haven and Label	Obstn Fish Haven (auth min 6 1/4 fms), Chart No. 1 K46.2	N 30 21' 08.500"	W 086 36' 52.500"	30.35236	-86.61459	LNM 04/17, 8th Dist	48	11360_1	1/19/2017
11360	Add	Minimum Size (2mm sq.) Dotted Fish Haven and Label	Obstn Fish Haven (auth min 5 1/2 fms), Chart No. 1 K46.2	N 30 21' 23.400"	W 086 32' 52.600"	30.3565	-86.54794	LNM 04/17, 8th Dist	48	11360_1	1/19/2017
11360	Add	Legend:  RACON (.._)	RACON (.._)     Chart No. 1: S3.1	N 28 31' 14.500"	W 088 17' 19.800"	28.52069	-88.28883	LNM 51/16, 8th Dist	48	11360_1	1/12/2017
11360	Add	Platform	Chart No. 1: L10	N 28 41' 51.300"	W 089 23' 46.000"	28.69758	-89.39611	LNM 45/16, 8th Dist	48	11360_1	11/3/2016
11360	Delete	Platform:  (Fieldwood-107-2)	Chart No. 1: L10	N 29 19' 13.624"	W 087 48' 45.128"	29.32045	-87.81254	LNM 40/16, 8th Dist	48	11360_1	10/13/2016
11360	Relocate	Energy XXI-102-10 (Lighted Horn Buoy)	G Q G HORN Priv	N 29 14' 20.408"	W 088 52' 59.480"	29.239	-88.88319	LNM 34/16, 8th Dist	48	11360_1	9/1/2016
11360	Add	Submarine Pipeline  PT 1 OF 2	Chart No. 1: L40.1	N 28 12' 20.140"	W 088 33' 50.730"	28.2056	-88.56409	LNM 36/16, 8th Dist	48	11360_1	9/1/2016
11360	Add	Submarine Pipeline  PT 2 OF 2	Chart No. 1: L40.1	N 28 12' 54.780"	W 088 33' 27.470"	28.21522	-88.55763	LNM 36/16, 8th Dist	48	11360_1	9/1/2016
11360	Add	Submarine Pipeline  PT 1 OF 5	Chart No. 1: L40.1	N 28 12' 31.090"	W 088 44' 14.530"	28.20864	-88.73737	LNM 36/16, 8th Dist	48	11360_1	9/1/2016
11360	Add	Submarine Pipeline  PT 2 OF 5	Chart No. 1: L40.1	N 28 12' 08.770"	W 088 45' 28.360"	28.20244	-88.75788	LNM 36/16, 8th Dist	48	11360_1	9/1/2016
11360	Add	Submarine Pipeline  PT 3 OF 5	Chart No. 1: L40.1	N 28 12' 43.050"	W 088 45' 48.980"	28.21196	-88.7636	LNM 36/16, 8th Dist	48	11360_1	9/1/2016
11360	Add	Submarine Pipeline  PT 4 OF 5	Chart No. 1: L40.1	N 28 13' 12.650"	W 088 48' 20.780"	28.22018	-88.80577	LNM 36/16, 8th Dist	48	11360_1	9/1/2016
11360	Add	Submarine Pipeline  PT 5 OF 5	Chart No. 1: L40.1	N 28 14' 40.420"	W 088 49' 45.800"	28.24456	-88.82939	LNM 36/16, 8th Dist	48	11360_1	9/1/2016
11360	Add	Submarine Pipeline  PT 1 OF 3	Chart No. 1: L40.1	N 28 14' 34.600"	W 088 49' 38.800"	28.24294	-88.82745	LNM 36/16, 8th Dist	48	11360_1	9/1/2016
11360	Add	Submarine Pipeline  PT 2 OF 3	Chart No. 1: L40.1	N 28 13' 14.100"	W 088 48' 19.460"	28.22058	-88.8054	LNM 36/16, 8th Dist	48	11360_1	9/1/2016
11360	Add	Submarine Pipeline  PT 3 OF 3	Chart No. 1: L40.1	N 28 12' 32.390"	W 088 44' 15.090"	28.209	-88.73753	LNM 36/16, 8th Dist	48	11360_1	9/1/2016
11360	Add	Submarine Pipeline  PT 1 OF 6	Chart No. 1: L40.1	N 28 17' 13.800"	W 088 06' 35.270"	28.28717	-88.10979	LNM 36/16, 8th Dist	48	11360_1	9/1/2016
11360	Add	Submarine Pipeline  PT 2 OF 6	Chart No. 1: L40.1	N 28 16' 07.850"	W 088 08' 03.330"	28.26885	-88.13426	LNM 36/16, 8th Dist	48	11360_1	9/1/2016
11360	Add	Submarine Pipeline  PT 3 OF 6	Chart No. 1: L40.1	N 28 15' 02.730"	W 088 15' 43.710"	28.25076	-88.26214	LNM 36/16, 8th Dist	48	11360_1	9/1/2016
11360	Add	Submarine Pipeline  PT 4 OF 6	Chart No. 1: L40.1	N 28 13' 38.600"	W 088 17' 11.960"	28.22739	-88.28666	LNM 36/16, 8th Dist	48	11360_1	9/1/2016
11360	Add	Submarine Pipeline  PT 5 OF 6	Chart No. 1: L40.1	N 28 16' 15.320"	W 088 20' 51.530"	28.27092	-88.34765	LNM 36/16, 8th Dist	48	11360_1	9/1/2016
11360	Add	Submarine Pipeline  PT 6 OF 6	Chart No. 1: L40.1	N 28 16' 03.370"	W 088 23' 54.880"	28.2676	-88.39857	LNM 36/16, 8th Dist	48	11360_1	9/1/2016
11360	Add	Submarine Pipeline  PT 1 OF 4	Chart No. 1: L40.1	N 28 16' 02.140"	W 088 23' 56.350"	28.26726	-88.39899	LNM 36/16, 8th Dist	48	11360_1	9/1/2016
11360	Add	Submarine Pipeline  PT 2 OF 4	Chart No. 1: L40.1	N 28 15' 05.160"	W 088 22' 21.890"	28.25143	-88.37275	LNM 36/16, 8th Dist	48	11360_1	9/1/2016
11360	Add	Submarine Pipeline  PT 3 OF 4	Chart No. 1: L40.1	N 28 13' 59.210"	W 088 17' 27.340"	28.23311	-88.29092	LNM 36/16, 8th Dist	48	11360_1	9/1/2016
11360	Add	Submarine Pipeline  PT 4 OF 4	Chart No. 1: L40.1	N 28 13' 37.800"	W 088 17' 15.000"	28.22717	-88.2875	LNM 36/16, 8th Dist	48	11360_1	9/1/2016
11360	Add	Submarine Pipeline  PT 1 OF 5	Chart No. 1: L40.1	N 28 11' 27.380"	W 088 29' 46.970"	28.19094	-88.49638	LNM 36/16, 8th Dist	48	11360_1	9/1/2016
11360	Add	Submarine Pipeline  PT 2 OF 5	Chart No. 1: L40.1	N 28 11' 53.640"	W 088 30' 07.430"	28.19823	-88.50207	LNM 36/16, 8th Dist	48	11360_1	9/1/2016
11360	Add	Submarine Pipeline  PT 3 OF 5	Chart No. 1: L40.1	N 28 11' 54.500"	W 088 30' 06.490"	28.19847	-88.5018	LNM 36/16, 8th Dist	48	11360_1	9/1/2016
11360	Add	Submarine Pipeline  PT 4 OF 5	Chart No. 1: L40.1	N 28 12' 46.020"	W 088 31' 02.800"	28.21278	-88.51744	LNM 36/16, 8th Dist	48	11360_1	9/1/2016
11360	Add	Submarine Pipeline  PT 5 OF 5	Chart No. 1: L40.1	N 28 12' 21.210"	W 088 33' 50.090"	28.20589	-88.56391	LNM 36/16, 8th Dist	48	11360_1	9/1/2016
11360	Add	Submarine Pipeline  PT 1 OF 2	Chart No. 1: L40.1	N 28 12' 48.990"	W 088 31' 06.540"	28.21361	-88.51849	LNM 36/16, 8th Dist	48	11360_1	9/1/2016
11360	Add	Submarine Pipeline  PT 2 OF 2	Chart No. 1: L40.1	N 28 13' 14.740"	W 088 31' 50.600"	28.22076	-88.53072	LNM 36/16, 8th Dist	48	11360_1	9/1/2016
11360	Add	Submarine Pipeline  PT 1 OF 5	Chart No. 1: L40.1	N 28 11' 28.850"	W 088 29' 46.880"	28.19135	-88.49635	LNM 36/16, 8th Dist	48	11360_1	9/1/2016
11360	Add	Submarine Pipeline  PT 2 OF 5	Chart No. 1: L40.1	N 28 11' 49.160"	W 088 30' 35.150"	28.19699	-88.50977	LNM 36/16, 8th Dist	48	11360_1	9/1/2016
11360	Add	Submarine Pipeline  PT 3 OF 5	Chart No. 1: L40.1	N 28 11' 59.270"	W 088 30' 35.190"	28.1998	-88.50977	LNM 36/16, 8th Dist	48	11360_1	9/1/2016
11360	Add	Submarine Pipeline  PT 4 OF 5	Chart No. 1: L40.1	N 28 12' 01.270"	W 088 30' 23.150"	28.20035	-88.50643	LNM 36/16, 8th Dist	48	11360_1	9/1/2016
11360	Add	Submarine Pipeline  PT 5 OF 5	Chart No. 1: L40.1	N 28 11' 30.240"	W 088 29' 47.590"	28.19173	-88.49655	LNM 36/16, 8th Dist	48	11360_1	9/1/2016
11360	Add	Platform :(Castex-105-01)	Chart No. 1: L10	N 29 19' 20.330"	W 088 32' 21.980"	29.32231	-88.53944	LNM 29/16, 8th Dist	48	11360_1	7/28/2016
11360	Delete	Platform:(Energy Partners-112-500)	Chart No. 1: L10	N 29 54' 11.042"	W 088 29' 05.372"	29.90307	-88.48483	LNM 16/16, 8th Dist	48	11360_1	4/28/2016
11360	Add	Safety Zone Label	SAFETY ZONE 147.865 (see note A)	N 28 02' 02.000"	W 089 06' 04.000"	28.03389	-89.10111	LNM 15/16, 8th Dist	48	11360_1	4/14/2016
11360	Add	Safety Zone PT 1 OF 4	Chart No. 1: N1.2	N 28 02' 17.600"	W 089 06' 20.000"	28.03822	-89.10555	LNM 15/16, 8th Dist	48	11360_1	4/14/2016
11360	Add	Safety Zone PT 2 OF 4	Chart No. 1: N1.2	N 28 02' 17.600"	W 089 05' 40.600"	28.03822	-89.09461	LNM 15/16, 8th Dist	48	11360_1	4/14/2016
11360	Add	Safety Zone PT 3 OF 4	Chart No. 1: N1.2	N 28 01' 41.600"	W 089 05' 40.600"	28.02822	-89.09461	LNM 15/16, 8th Dist	48	11360_1	4/14/2016
11360	Add	Safety Zone PT 4 OF 4	Chart No. 1: N1.2	N 28 01' 41.600"	W 089 06' 20.000"	28.02822	-89.10555	LNM 15/16, 8th Dist	48	11360_1	4/14/2016
11360	Add	Submarine Pipeline  PT 1 OF 5	Chart No. 1: L40.1	N 28 24' 11.050"	W 089 26' 50.310"	28.40307	-89.44731	LNM 07/16, 8th Dist	48	11360_1	2/18/2016
11360	Add	Submarine Pipeline  PT 2 OF 5	Chart No. 1: L40.1	N 28 23' 51.580"	W 089 26' 38.330"	28.39766	-89.44398	LNM 07/16, 8th Dist	48	11360_1	2/18/2016
11360	Add	Submarine Pipeline  PT 3 OF 5	Chart No. 1: L40.1	N 28 23' 08.860"	W 089 26' 34.930"	28.38579	-89.44304	LNM 07/16, 8th Dist	48	11360_1	2/18/2016
11360	Add	Submarine Pipeline  PT 4 OF 5	Chart No. 1: L40.1	N 28 22' 56.980"	W 089 26' 36.170"	28.38249	-89.44338	LNM 07/16, 8th Dist	48	11360_1	2/18/2016
11360	Add	Submarine Pipeline  PT 5 OF 5	Chart No. 1: L40.1	N 28 23' 33.230"	W 089 27' 12.120"	28.39256	-89.45337	LNM 07/16, 8th Dist	48	11360_1	2/18/2016
11360	Add	Submarine Pipeline  PT 1 OF 4	Chart No. 1: L40.1	N 28 22' 56.980"	W 089 26' 40.490"	28.38249	-89.44458	LNM 07/16, 8th Dist	48	11360_1	2/18/2016
11360	Add	Submarine Pipeline  PT 2 OF 4	Chart No. 1: L40.1	N 28 22' 52.060"	W 089 27' 27.490"	28.38113	-89.45763	LNM 07/16, 8th Dist	48	11360_1	2/18/2016
11360	Add	Submarine Pipeline  PT 3 OF 4	Chart No. 1: L40.1	N 28 22' 59.450"	W 089 27' 33.670"	28.38318	-89.45935	LNM 07/16, 8th Dist	48	11360_1	2/18/2016
11360	Add	Submarine Pipeline  PT 4 OF 4	Chart No. 1: L40.1	N 28 23' 33.020"	W 089 27' 12.650"	28.39251	-89.45351	LNM 07/16, 8th Dist	48	11360_1	2/18/2016
11360	Add	Submarine Pipeline  PT 1 OF 4	Chart No. 1: L40.1	N 28 22' 40.070"	W 089 27' 34.750"	28.3778	-89.45966	LNM 07/16, 8th Dist	48	11360_1	2/18/2016
11360	Add	Submarine Pipeline  PT 2 OF 4	Chart No. 1: L40.1	N 28 22' 56.700"	W 089 26' 37.200"	28.38242	-89.44366	LNM 07/16, 8th Dist	48	11360_1	2/18/2016
11360	Add	Submarine Pipeline  PT 3 OF 4	Chart No. 1: L40.1	N 28 23' 16.760"	W 089 26' 57.010"	28.38799	-89.44917	LNM 07/16, 8th Dist	48	11360_1	2/18/2016
11360	Add	Submarine Pipeline  PT 4 OF 4	Chart No. 1: L40.1	N 28 23' 33.150"	W 089 27' 12.330"	28.39254	-89.45342	LNM 07/16, 8th Dist	48	11360_1	2/18/2016
11360	Add	Wreck in Fathoms	7 3/4 Wk    Chart No. 1: K26	N 30 02' 54.500"	W 088 31' 13.200"	30.04847	-88.52033	LNM 51/15, 8th Dist	48	11360_1	12/17/2015
11360	Change	St Andrew Bay Entrance Lighted Buoy SA	RW "SA" Mo (A) AIS	N 30 05' 29.735"	W 085 46' 25.752"	30.09159	-85.77382	LNM 47/15, 8th Dist	48	11360_1	12/10/2015
11360	Add	Submarine Pipeline  PT 5 OF 6	Chart No. 1: L40.1	N 28 17' 27.100"	W 088 23' 44.310"	28.29086	-88.39565	LNM 48/15, 8th Dist	48	11360_1	12/10/2015
11360	Add	Submarine Pipeline  PT 6 OF 6	Chart No. 1: L40.1	N 28 16' 08.240"	W 088 23' 54.210"	28.26896	-88.39839	LNM 48/15, 8th Dist	48	11360_1	11/26/2015
11360	Add	Submarine Pipeline  PT 1 OF 6	Chart No. 1: L40.1	N 28 17' 03.390"	W 088 22' 26.350"	28.28428	-88.37399	LNM 48/15, 8th Dist	48	11360_1	11/26/2015
11360	Add	Submarine Pipeline  PT 2 OF 6	Chart No. 1: L40.1	N 28 17' 44.970"	W 088 22' 53.500"	28.29582	-88.38153	LNM 48/15, 8th Dist	48	11360_1	11/26/2015
11360	Add	Submarine Pipeline  PT 3 OF 6	Chart No. 1: L40.1	N 28 17' 48.920"	W 088 23' 15.220"	28.29692	-88.38756	LNM 48/15, 8th Dist	48	11360_1	11/26/2015
11360	Add	Submarine Pipeline  PT 4 OF 6	Chart No. 1: L40.1	N 28 17' 41.530"	W 088 23' 34.230"	28.29487	-88.39285	LNM 48/15, 8th Dist	48	11360_1	11/26/2015
11360	Add	Submarine Pipeline  PT 1 OF 2	Chart No. 1: L40.1	N 28 17' 51.880"	W 088 03' 55.230"	28.29774	-88.06534	LNM 48/15, 8th Dist	48	11360_1	11/26/2015
11360	Add	Submarine Pipeline  PT 2 OF 2	Chart No. 1: L40.1	N 28 17' 16.100"	W 088 05' 29.800"	28.28781	-88.09161	LNM 48/15, 8th Dist	48	11360_1	11/26/2015
11360	Add	Castex-105-1 Lighted Buoy	W Or Fl 2.5s Priv	N 29 19' 20.326"	W 088 32' 21.977"	29.32231	-88.53944	LNM 45/15, 8th Dist	48	11360_1	11/19/2015
11360	Add	Submarine Pipeline  PT 3 OF 5	Chart No. 1: L40.1	N 29 27' 26.580"	W 089 14' 14.550"	29.45738	-89.23737	LNM 43/15, 8th Dist	48	11360_1	11/19/2015
11360	Add	Submarine Pipeline  PT 1 OF 2	Chart No. 1: L40.1	N 28 46' 48.430"	W 088 21' 54.200"	28.78012	-88.36506	LNM 42/15, 8th Dist	48	11360_1	10/15/2015
11360	Add	Submarine Pipeline  PT 2 OF 2	Chart No. 1: L40.1	N 28 44' 50.910"	W 088 21' 40.300"	28.74747	-88.36119	LNM 42/15, 8th Dist	48	11360_1	10/15/2015
11360	Add	Submarine Pipeline  PT 1 OF 4	Chart No. 1: L40.1	N 28 44' 50.430"	W 088 21' 39.740"	28.74734	-88.36104	LNM 42/15, 8th Dist	48	11360_1	10/15/2015
11360	Add	Submarine Pipeline  PT 2 OF 4	Chart No. 1: L40.1	N 28 45' 33.420"	W 088 18' 25.870"	28.75928	-88.30718	LNM 42/15, 8th Dist	48	11360_1	10/15/2015
11360	Add	Submarine Pipeline  PT 3 OF 4	Chart No. 1: L40.1	N 28 45' 34.560"	W 088 18' 03.500"	28.7596	-88.30097	LNM 42/15, 8th Dist	48	11360_1	10/15/2015
11360	Add	Submarine Pipeline  PT 4 OF 4	Chart No. 1: L40.1	N 28 45' 17.540"	W 088 16' 04.020"	28.75487	-88.26778	LNM 42/15, 8th Dist	48	11360_1	10/15/2015
11360	Add	Submarine Pipeline  PT 1 OF 2	Chart No. 1: L40.1	N 28 44' 50.430"	W 088 21' 39.740"	28.74734	-88.36104	LNM 42/15, 8th Dist	48	11360_1	10/15/2015
11360	Add	Submarine Pipeline  PT 2 OF 2	Chart No. 1: L40.1	N 28 45' 21.910"	W 088 19' 20.130"	28.75609	-88.32226	LNM 42/15, 8th Dist	48	11360_1	10/15/2015
11360	Add	Submarine Pipeline  PT 1 OF 4	Chart No. 1: L40.1	N 28 45' 25.950"	W 088 19' 02.660"	28.75721	-88.31741	LNM 42/15, 8th Dist	48	11360_1	10/15/2015
11360	Add	Submarine Pipeline  PT 2 OF 4	Chart No. 1: L40.1	N 28 45' 45.830"	W 088 17' 59.140"	28.76273	-88.29976	LNM 42/15, 8th Dist	48	11360_1	10/15/2015
11360	Add	Submarine Pipeline  PT 3 OF 4	Chart No. 1: L40.1	N 28 45' 46.260"	W 088 17' 36.820"	28.76285	-88.29356	LNM 42/15, 8th Dist	48	11360_1	10/15/2015
11360	Add	Submarine Pipeline  PT 4 OF 4	Chart No. 1: L40.1	N 28 45' 17.940"	W 088 16' 03.330"	28.75498	-88.26759	LNM 42/15, 8th Dist	48	11360_1	10/15/2015
11360	Add	Submarine Pipeline  PT 1 OF 3	Chart No. 1: L40.1	N 28 44' 50.350"	W 088 21' 39.720"	28.74732	-88.36103	LNM 41/15, 8th Dist	48	11360_1	10/8/2015
11360	Add	Submarine Pipeline  PT 2 OF 3	Chart No. 1: L40.1	N 28 45' 16.240"	W 088 18' 02.130"	28.75451	-88.30059	LNM 41/15, 8th Dist	48	11360_1	10/8/2015
11360	Add	Submarine Pipeline  PT 3 OF 3	Chart No. 1: L40.1	N 28 45' 17.380"	W 088 16' 04.020"	28.75483	-88.26778	LNM 41/15, 8th Dist	48	11360_1	10/8/2015
11360	Add	Submarine Pipeline  PT 1 OF 2	Chart No. 1: L40.1	N 28 44' 50.350"	W 088 21' 39.720"	28.74732	-88.36103	LNM 41/15, 8th Dist	48	11360_1	10/8/2015
11360	Add	Submarine Pipeline  PT 2 OF 2	Chart No. 1: L40.1	N 28 45' 06.880"	W 088 19' 20.040"	28.75191	-88.32224	LNM 41/15, 8th Dist	48	11360_1	10/8/2015
11360	Add	Dotted Fish Haven PT 1 OF 4	Chart No. 1: K46.2	N 29 55' 31.200"	W 085 41' 00.000"	29.92533	-85.68333	LNM 40/15, 8th Dist	48	11360_1	10/1/2015
11360	Add	Dotted Fish Haven PT 2 OF 4	Chart No. 1: K46.2	N 29 54' 42.000"	W 085 41' 00.000"	29.91167	-85.68333	LNM 40/15, 8th Dist	48	11360_1	10/1/2015
11360	Add	Dotted Fish Haven PT 3 OF 4	Chart No. 1: K46.2	N 29 54' 42.000"	W 085 37' 33.600"	29.91167	-85.626	LNM 40/15, 8th Dist	48	11360_1	10/1/2015
11360	Add	Dotted Fish Haven PT 4 OF 4	Chart No. 1: K46.2	N 29 55' 31.200"	W 085 37' 33.600"	29.92533	-85.626	LNM 40/15, 8th Dist	48	11360_1	10/1/2015
11360	Add	Dotted Fish Haven Label	Obstn Fish Haven (auth min 8 fms)	N 29 55' 06.500"	W 085 39' 16.700"	29.91847	-85.65464	LNM 40/15, 8th Dist	48	11360_1	10/1/2015
11360	Delete	Minimum Size (2mm sq.) Dotted Fish Haven and Label	Obstn Fish Haven (auth min 8 1/4 fms), Chart No. 1 K46.2	N 29 55' 00.700"	W 085 40' 41.000"	29.91686	-85.67805	LNM 40/15, 8th Dist	48	11360_1	10/1/2015
11360	Add	Dotted Fish Haven PT 1 OF 4	Chart No. 1: K46.2	N 29 54' 42.000"	W 085 36' 27.600"	29.91167	-85.60767	LNM 40/15, 8th Dist	48	11360_1	10/1/2015
11360	Add	Dotted Fish Haven PT 2 OF 4	Chart No. 1: K46.2	N 29 55' 31.200"	W 085 36' 27.600"	29.92533	-85.60767	LNM 40/15, 8th Dist	48	11360_1	10/1/2015
11360	Add	Dotted Fish Haven PT 3 OF 4	Chart No. 1: K46.2	N 29 55' 31.200"	W 085 32' 34.500"	29.92533	-85.54292	LNM 40/15, 8th Dist	48	11360_1	10/1/2015
11360	Add	Dotted Fish Haven PT 4 OF 4	Chart No. 1: K46.2	N 29 54' 42.000"	W 085 32' 42.060"	29.91167	-85.54501	LNM 40/15, 8th Dist	48	11360_1	10/1/2015
11360	Add	Dotted Fish Haven Label	Obstn Fish Haven (auth min 6 1/2 fms)	N 29 55' 05.350"	W 085 33' 24.290"	29.91815	-85.55675	LNM 40/15, 8th Dist	48	11360_1	10/1/2015
11360	Add	Wreck in Fathoms	9 Wk    Chart No. 1: K26	N 30 05' 24.190"	W 085 54' 55.810"	30.09005	-85.9155	LNM 36/15, 8th Dist	48	11360_1	9/24/2015
11360	Add	Obstruction in Fathoms	10 Obstn       Chart No. 1: K41	N 30 04' 53.890"	W 085 45' 29.740"	30.08164	-85.75826	LNM 36/15, 8th Dist	48	11360_1	9/24/2015
11360	Add	Obstruction in Fathoms	10 1/2 Obstn       Chart No. 1: K41	N 29 22' 29.200"	W 088 51' 15.600"	29.37478	-88.85433	LNM 32/15, 8th Dist	48	11360_1	8/6/2015
11360	Add	Submarine Pipeline  PT 1 OF 2	Chart No. 1: L40.1	N 29 10' 03.510"	W 088 27' 22.930"	29.16764	-88.45637	LNM 30/15, 8th Dist	48	11360_1	7/30/2015
11360	Add	Submarine Pipeline  PT 2 OF 2	Chart No. 1: L40.1	N 29 13' 54.920"	W 088 29' 08.720"	29.23192	-88.48576	LNM 30/15, 8th Dist	48	11360_1	7/30/2015
11360	Add	Platform (Northstar-101-1)	Chart No. 1: L10	N 28 43' 05.951"	W 089 23' 35.127"	28.71832	-89.39309	LNM 29/15, 8th Dist	48	11360_1	7/30/2015
11360	Add	NOAA Scientific Monitoring Buoy Z Magenta Circle	AIS	N 29 16' 06.000"	W 087 45' 30.000"	29.26833	-87.75833	LNM 29/15, 8th Dist	48	11360_1	7/30/2015
11360	Add	NOAA Scientific Monitoring Buoy Z	Y "Z" FL Y 2.5s Priv	N 29 16' 06.000"	W 087 45' 30.000"	29.26833	-87.75833	LNM 29/15, 8th Dist	48	11360_1	7/30/2015
11360	Add	Submarine Pipeline  PT 1 OF 5	Chart No. 1: L40.1	N 28 45' 18.450"	W 088 16' 02.660"	28.75513	-88.2674	LNM 30/15, 8th Dist	48	11360_1	7/30/2015
11360	Add	Submarine Pipeline  PT 2 OF 5	Chart No. 1: L40.1	N 28 47' 24.580"	W 088 16' 13.090"	28.79016	-88.2703	LNM 30/15, 8th Dist	48	11360_1	7/30/2015
11360	Add	Submarine Pipeline  PT 3 OF 5	Chart No. 1: L40.1	N 28 50' 05.440"	W 088 18' 09.640"	28.83484	-88.30268	LNM 30/15, 8th Dist	48	11360_1	7/30/2015
11360	Add	Submarine Pipeline  PT 4 OF 5	Chart No. 1: L40.1	N 28 50' 43.850"	W 088 18' 54.580"	28.84551	-88.31516	LNM 30/15, 8th Dist	48	11360_1	7/30/2015
11360	Add	Submarine Pipeline  PT 5 OF 5	Chart No. 1: L40.1	N 29 07' 55.100"	W 088 33' 09.010"	29.13197	-88.55251	LNM 30/15, 8th Dist	48	11360_1	7/30/2015
11360	Add	Submarine Pipeline  PT 1 OF 5	Chart No. 1: L40.1	N 29 10' 01.710"	W 088 27' 21.140"	29.16714	-88.45587	LNM 30/15, 8th Dist	48	11360_1	7/30/2015
11360	Add	Submarine Pipeline  PT 2 OF 5	Chart No. 1: L40.1	N 28 53' 55.270"	W 088 19' 19.760"	28.89869	-88.32216	LNM 30/15, 8th Dist	48	11360_1	7/30/2015
11360	Add	Submarine Pipeline  PT 3 OF 5	Chart No. 1: L40.1	N 28 50' 45.270"	W 088 17' 55.500"	28.84591	-88.29875	LNM 30/15, 8th Dist	48	11360_1	7/30/2015
11360	Add	Submarine Pipeline  PT 4 OF 5	Chart No. 1: L40.1	N 28 49' 31.840"	W 088 16' 59.950"	28.82551	-88.28332	LNM 30/15, 8th Dist	48	11360_1	7/30/2015
11360	Add	Submarine Pipeline  PT 5 OF 5	Chart No. 1: L40.1	N 28 47' 21.370"	W 088 16' 06.710"	28.78927	-88.26853	LNM 30/15, 8th Dist	48	11360_1	7/30/2015
11360	Add	Obstruction in Fathoms	6 Obstn       Chart No. 1: K41	N 29 20' 20.700"	W 088 57' 46.700"	29.33908	-88.96297	LNM 30/15, 8th Dist	48	11360_1	7/30/2015
11360	Add	Submarine Pipeline  PT 1 OF 7	Chart No. 1: L40.1	N 28 45' 16.400"	W 088 16' 00.640"	28.75455	-88.26685	LNM 30/15, 8th Dist	48	11360_1	7/23/2015
11360	Add	Submarine Pipeline  PT 2 OF 7	Chart No. 1: L40.1	N 28 44' 11.300"	W 088 13' 39.570"	28.73647	-88.22766	LNM 30/15, 8th Dist	48	11360_1	7/23/2015
11360	Add	Submarine Pipeline  PT 3 OF 7	Chart No. 1: L40.1	N 28 43' 14.150"	W 088 12' 58.990"	28.7206	-88.21638	LNM 30/15, 8th Dist	48	11360_1	7/23/2015
11360	Add	Submarine Pipeline  PT 4 OF 7	Chart No. 1: L40.1	N 28 45' 15.990"	W 088 16' 01.320"	28.75444	-88.26704	LNM 30/15, 8th Dist	48	11360_1	7/23/2015
11360	Add	Submarine Pipeline  PT 5 OF 7	Chart No. 1: L40.1	N 28 43' 22.280"	W 088 15' 04.300"	28.72285	-88.2512	LNM 30/15, 8th Dist	48	11360_1	7/23/2015
11360	Add	Submarine Pipeline  PT 6 OF 7	Chart No. 1: L40.1	N 28 43' 22.600"	W 088 13' 15.040"	28.72294	-88.22085	LNM 30/15, 8th Dist	48	11360_1	7/23/2015
11360	Add	Submarine Pipeline  PT 7 OF 7	Chart No. 1: L40.1	N 28 43' 03.940"	W 088 12' 52.040"	28.71776	-88.21445	LNM 30/15, 8th Dist	48	11360_1	7/23/2015
11360	Add	Submarine Pipeline  PT 1 OF 6	Chart No. 1: L40.1	N 28 42' 47.960"	W 088 15' 42.420"	28.71332	-88.26178	LNM 30/15, 8th Dist	48	11360_1	7/23/2015
11360	Add	Submarine Pipeline  PT 2 OF 6	Chart No. 1: L40.1	N 28 43' 51.000"	W 088 15' 39.230"	28.73083	-88.26089	LNM 30/15, 8th Dist	48	11360_1	7/23/2015
11360	Add	Submarine Pipeline  PT 3 OF 6	Chart No. 1: L40.1	N 28 45' 15.950"	W 088 16' 01.360"	28.75443	-88.26704	LNM 30/15, 8th Dist	48	11360_1	7/23/2015
11360	Add	Submarine Pipeline  PT 4 OF 6	Chart No. 1: L40.1	N 28 42' 38.440"	W 088 15' 46.740"	28.71068	-88.26299	LNM 30/15, 8th Dist	48	11360_1	7/23/2015
11360	Add	Submarine Pipeline  PT 5 OF 6	Chart No. 1: L40.1	N 28 43' 20.350"	W 088 16' 08.290"	28.72232	-88.26897	LNM 30/15, 8th Dist	48	11360_1	7/23/2015
11360	Add	Submarine Pipeline  PT 6 OF 6	Chart No. 1: L40.1	N 28 45' 15.450"	W 088 16' 01.790"	28.75429	-88.26717	LNM 30/15, 8th Dist	48	11360_1	7/23/2015
11360	Add	Submarine Pipeline  PT 1 OF 5	Chart No. 1: L40.1	N 28 45' 16.560"	W 088 16' 00.640"	28.7546	-88.26685	LNM 30/15, 8th Dist	48	11360_1	7/23/2015
11360	Add	Submarine Pipeline  PT 2 OF 5	Chart No. 1: L40.1	N 28 44' 42.010"	W 088 13' 55.120"	28.745	-88.23198	LNM 30/15, 8th Dist	48	11360_1	7/23/2015
11360	Add	Submarine Pipeline  PT 3 OF 5	Chart No. 1: L40.1	N 28 44' 06.920"	W 088 13' 17.190"	28.73526	-88.22144	LNM 30/15, 8th Dist	48	11360_1	7/23/2015
11360	Add	Submarine Pipeline  PT 4 OF 5	Chart No. 1: L40.1	N 28 43' 06.230"	W 088 12' 50.770"	28.7184	-88.2141	LNM 30/15, 8th Dist	48	11360_1	7/23/2015
11360	Add	Submarine Pipeline  PT 5 OF 5	Chart No. 1: L40.1	N 28 41' 01.060"	W 088 10' 32.670"	28.68363	-88.17574	LNM 30/15, 8th Dist	48	11360_1	7/23/2015
11360	Add	Submarine Pipeline  PT 1 OF 4	Chart No. 1: L40.1	N 28 45' 15.490"	W 088 16' 01.650"	28.7543	-88.26713	LNM 30/15, 8th Dist	48	11360_1	7/23/2015
11360	Add	Submarine Pipeline  PT 2 OF 4	Chart No. 1: L40.1	N 28 42' 39.680"	W 088 15' 43.440"	28.71102	-88.26207	LNM 30/15, 8th Dist	48	11360_1	7/23/2015
11360	Add	Submarine Pipeline  PT 3 OF 4	Chart No. 1: L40.1	N 28 40' 24.230"	W 088 14' 12.140"	28.6734	-88.2367	LNM 30/15, 8th Dist	48	11360_1	7/23/2015
11360	Add	Submarine Pipeline  PT 4 OF 4	Chart No. 1: L40.1	N 28 34' 04.480"	W 088 15' 27.150"	28.56791	-88.25755	LNM 30/15, 8th Dist	48	11360_1	7/23/2015
11360	Add	Dotted Fish Haven	Chart No. 1: K46.2 Obstn Fish Haven  (auth min 10 1/4 fms)	N 29 35' 46.310"	W 088 02' 47.360"	29.5962	-88.04649	LNM 28/15, 8th Dist	48	11360_1	7/16/2015
11360	Add	Submerged Wreck	PA      Chart No. 1: K29	N 29 44' 01.860"	W 085 45' 44.760"	29.73385	-85.76244	LNM 26/15, 8th Dist	48	11360_1	7/16/2015
11360	Add	Lighted Buoy	Y Fl Y Priv	N 29 12' 23.909"	W 088 56' 33.869"	29.20664	-88.94274	LNM 26/15, 8th Dist	48	11360_1	7/16/2015
11360	Add	unlighted mooring buoy	Use Chart No.1: Q40	N 29 16' 00.300"	W 088 56' 21.400"	29.26675	-88.93928	LNM 26/15, 8th Dist	48	11360_1	7/2/2015
11360	Add	Minimum Size (2mm sq.) Dotted Fish Haven and Label	Obstn Fish Haven (auth min 8 fms), Chart No. 1 K46.2	N 30 19' 43.920"	W 086 22' 54.900"	30.32887	-86.38192	LNM 26/15, 8th Dist	48	11360_1	6/25/2015
11360	Add	Submarine Pipeline  PT 1 OF 3	Chart No. 1: L40.1	N 28 24' 55.900"	W 089 00' 59.500"	28.41553	-89.01653	LNM 24/15, 8th Dist	48	11360_1	6/18/2015
11360	Add	Submarine Pipeline  PT 2 OF 3	Chart No. 1: L40.1	N 28 24' 56.900"	W 089 03' 53.500"	28.41581	-89.06486	LNM 24/15, 8th Dist	48	11360_1	6/18/2015
11360	Add	Submarine Pipeline  PT 3 OF 3	Chart No. 1: L40.1	N 28 25' 33.000"	W 089 04' 28.300"	28.42583	-89.07453	LNM 24/15, 8th Dist	48	11360_1	6/18/2015
11360	Add	Submarine Pipeline  PT 1 OF 4	Chart No. 1: L40.1	N 28 25' 33.900"	W 089 04' 29.200"	28.42608	-89.07478	LNM 24/15, 8th Dist	48	11360_1	6/18/2015
11360	Add	Submarine Pipeline  PT 2 OF 4	Chart No. 1: L40.1	N 28 24' 38.600"	W 089 03' 33.000"	28.41072	-89.05917	LNM 24/15, 8th Dist	48	11360_1	6/18/2015
11360	Add	Submarine Pipeline  PT 3 OF 4	Chart No. 1: L40.1	N 28 24' 28.600"	W 089 02' 54.000"	28.40794	-89.04833	LNM 24/15, 8th Dist	48	11360_1	6/18/2015
11360	Add	Submarine Pipeline  PT 4 OF 4	Chart No. 1: L40.1	N 28 24' 55.900"	W 089 00' 59.800"	28.41553	-89.01661	LNM 24/15, 8th Dist	48	11360_1	6/18/2015
11360	Add	Submarine Pipeline  PT 1 OF 4	Chart No. 1: L40.1	N 28 25' 34.000"	W 089 04' 29.200"	28.42611	-89.07478	LNM 24/15, 8th Dist	48	11360_1	6/18/2015
11360	Add	Submarine Pipeline  PT 2 OF 4	Chart No. 1: L40.1	N 28 24' 51.500"	W 089 03' 34.400"	28.4143	-89.05956	LNM 24/15, 8th Dist	48	11360_1	6/18/2015
11360	Add	Submarine Pipeline  PT 3 OF 4	Chart No. 1: L40.1	N 28 24' 42.900"	W 089 02' 54.300"	28.41192	-89.04842	LNM 24/15, 8th Dist	48	11360_1	6/18/2015
11360	Add	Submarine Pipeline  PT 4 OF 4	Chart No. 1: L40.1	N 28 24' 55.300"	W 089 00' 59.900"	28.41536	-89.01664	LNM 24/15, 8th Dist	48	11360_1	6/18/2015
11360	Add	Submarine Pipeline  PT 1 OF 8	Chart No. 1: L40.1	N 28 09' 36.920"	W 089 14' 21.810"	28.16026	-89.2394	LNM 24/15, 8th Dist	48	11360_1	6/18/2015
11360	Add	Submarine Pipeline  PT 2 OF 8	Chart No. 1: L40.1	N 28 11' 43.260"	W 089 16' 06.410"	28.19535	-89.26845	LNM 24/15, 8th Dist	48	11360_1	6/18/2015
11360	Add	Submarine Pipeline  PT 3 OF 8	Chart No. 1: L40.1	N 28 15' 00.590"	W 089 18' 06.900"	28.25016	-89.30192	LNM 24/15, 8th Dist	48	11360_1	6/18/2015
11360	Add	Submarine Pipeline  PT 4 OF 8	Chart No. 1: L40.1	N 28 18' 04.140"	W 089 19' 15.960"	28.30115	-89.3211	LNM 24/15, 8th Dist	48	11360_1	6/18/2015
11360	Add	Submarine Pipeline  PT 5 OF 8	Chart No. 1: L40.1	N 28 21' 38.790"	W 089 21' 53.000"	28.36077	-89.36472	LNM 24/15, 8th Dist	48	11360_1	6/18/2015
11360	Add	Submarine Pipeline  PT 6 OF 8	Chart No. 1: L40.1	N 28 25' 40.690"	W 089 23' 02.360"	28.42797	-89.38399	LNM 24/15, 8th Dist	48	11360_1	6/18/2015
11360	Add	Submarine Pipeline  PT 7 OF 8	Chart No. 1: L40.1	N 28 35' 06.710"	W 089 27' 57.240"	28.5852	-89.4659	LNM 24/15, 8th Dist	48	11360_1	6/18/2015
11360	Add	Submarine Pipeline  PT 8 OF 8	Chart No. 1: L40.1	N 28 36' 56.020"	W 089 29' 54.080"	28.61556	-89.49835	LNM 24/15, 8th Dist	48	11360_1	6/18/2015
11360	Add	Submarine Pipeline  PT 1 OF 8	Chart No. 1: L40.1	N 28 09' 36.920"	W 089 14' 21.810"	28.16026	-89.2394	LNM 24/15, 8th Dist	48	11360_1	6/18/2015
11360	Add	Submarine Pipeline  PT 2 OF 8	Chart No. 1: L40.1	N 28 11' 25.720"	W 089 16' 11.930"	28.19048	-89.26998	LNM 24/15, 8th Dist	48	11360_1	6/18/2015
11360	Add	Submarine Pipeline  PT 3 OF 8	Chart No. 1: L40.1	N 28 14' 53.610"	W 089 18' 13.130"	28.24822	-89.30365	LNM 24/15, 8th Dist	48	11360_1	6/18/2015
11360	Add	Submarine Pipeline  PT 4 OF 8	Chart No. 1: L40.1	N 28 17' 58.600"	W 089 19' 22.070"	28.29961	-89.3228	LNM 24/15, 8th Dist	48	11360_1	6/18/2015
11360	Add	Submarine Pipeline  PT 5 OF 8	Chart No. 1: L40.1	N 28 21' 38.790"	W 089 21' 53.000"	28.36077	-89.36472	LNM 24/15, 8th Dist	48	11360_1	6/18/2015
11360	Add	Submarine Pipeline  PT 6 OF 8	Chart No. 1: L40.1	N 28 25' 39.040"	W 089 23' 15.350"	28.42751	-89.3876	LNM 24/15, 8th Dist	48	11360_1	6/18/2015
11360	Add	Submarine Pipeline  PT 7 OF 8	Chart No. 1: L40.1	N 28 35' 00.940"	W 089 27' 59.470"	28.5836	-89.46652	LNM 24/15, 8th Dist	48	11360_1	6/18/2015
11360	Add	Submarine Pipeline  PT 8 OF 8	Chart No. 1: L40.1	N 28 36' 50.990"	W 089 29' 53.930"	28.61416	-89.49831	LNM 24/15, 8th Dist	48	11360_1	6/18/2015
11360	Add	Submarine Pipeline  PT 1 OF 2	Chart No. 1: L40.1	N 29 21' 27.662"	W 088 15' 54.228"	29.35768	-88.26506	LNM 24/15, 8th Dist	48	11360_1	6/11/2015
11360	Add	Submarine Pipeline  PT 2 OF 2	Chart No. 1: L40.1	N 29 20' 21.667"	W 088 16' 06.372"	29.33935	-88.26844	LNM 24/15, 8th Dist	48	11360_1	6/11/2015
11360	Delete	Platform (Chevron-147-17)	Chart No. 1: L10	N 29 36' 50.289"	W 088 06' 03.300"	29.61397	-88.10091	LNM 19/15, 8th Dist	48	11360_1	5/21/2015
11360	Delete	Texas A&M Oceanographic Lighted Buoy T	Y "T" Fl Y 4s Priv	N 29 45' 00.000"	W 088 15' 00.000"	29.75	-88.25	LNM 19/15, 8th Dist	48	11360_1	5/21/2015
11360	Delete	Texas A&M Oceanographic Lighted Buoy U	Y "U" Fl Y 4s Priv	N 29 15' 00.000"	W 088 45' 00.000"	29.25	-88.75	LNM 19/15, 8th Dist	48	11360_1	5/21/2015
11360	Delete	RACON	RACON (--)	N 29 06' 27.000"	W 087 56' 37.000"	29.1075	-87.94361	LNM 17/15, 8th Dist	48	11360_1	5/7/2015
11360	Add	Obstruction in Fathoms	11 Obstn       Chart No. 1: K41	N 30 03' 34.000"	W 085 45' 16.600"	30.05944	-85.75461	LNM 19/15, 8th Dist	48	11360_1	5/7/2015
11360	Add	Platform: (W & T Offshore-121-2)	Chart No. 1: L10	N 29 16' 08.690"	W 088 11' 24.288"	29.26908	-88.19008	LNM 08/15, 8th Dist	48	11360_1	3/5/2015
11360	Add	Obstruction in Fathoms	11 Obstn       Chart No. 1: K41	N 30 03' 33.419"	W 085 48' 19.732"	30.05928	-85.80548	LNM 09/15, 8th Dist	48	11360_1	2/26/2015
11360	Add	Obstruction in Fathoms	11 Obstn       Chart No. 1: K41	N 30 01' 32.182"	W 085 45' 10.343"	30.02561	-85.75288	LNM 09/15, 8th Dist	48	11360_1	2/26/2015
11360	Add	Wreck in Fathoms	7 1/2 Wk    Chart No. 1: K26	N 30 03' 38.160"	W 085 49' 25.446"	30.0606	-85.82374	LNM 09/15, 8th Dist	48	11360_1	2/26/2015
11360	Add	Pipe	Pipe     Chart No. 1: L23	N 28 54' 32.500"	W 089 27' 05.700"	28.90903	-89.45158	LNM 08/15, 8th Dist	48	11360_1	2/26/2015
11360	Add	Obstruction in Fathoms and Fractions	1 1/4 Obstns       Chart No. 1: K41	N 28 54' 54.900"	W 089 26' 43.900"	28.91525	-89.44553	LNM 08/15, 8th Dist	48	11360_1	2/26/2015
11360	Add	Pipe	Pipe     Chart No. 1: L23	N 28 54' 23.100"	W 089 27' 02.900"	28.90642	-89.45081	LNM 08/15, 8th Dist	48	11360_1	2/26/2015
11360	Add	Obstruction in Fathoms and Fractions	10 3/4 Obstn       Chart No. 1: K41	N 28 57' 32.900"	W 089 28' 08.000"	28.95914	-89.46889	LNM 08/15, 8th Dist	48	11360_1	2/26/2015
11360	Add	Obstruction in Fathoms and Fractions	2 1/2 Obstns       Chart No. 1: K41	N 28 55' 26.400"	W 089 26' 19.800"	28.924	-89.43884	LNM 08/15, 8th Dist	48	11360_1	2/26/2015
11360	Add	Obstruction in Fathoms and Fractions	4 3/4 Obstns       Chart No. 1: K41	N 28 54' 55.900"	W 089 27' 47.000"	28.91553	-89.46306	LNM 08/15, 8th Dist	48	11360_1	2/26/2015
11360	Delete	Obstruction	Obstn PA         Chart No. 1: K40	N 30 02' 16.340"	W 088 40' 34.950"	30.03787	-88.67638	LNM 08/15, 8th Dist	48	11360_1	2/26/2015
11360	Add	Wreck in Fathoms	11 Wk    Chart No. 1: K26	N 29 56' 59.460"	W 088 36' 54.270"	29.94985	-88.61507	LNM 08/15, 8th Dist	48	11360_1	2/26/2015
11360	Add	Obstruction in Fathoms and Fractions	10 1/2 Obstn       Chart No. 1: K41	N 30 04' 15.500"	W 085 48' 42.000"	30.07097	-85.81167	LNM 07/15, 8th Dist	48	11360_1	2/12/2015
11360	Add	Submarine Pipeline  PT 1 OF 8	Chart No. 1: L40.1	N 28 14' 06.810"	W 088 59' 42.730"	28.23523	-88.9952	LNM 06/15, 8th Dist	48	11360_1	2/12/2015
11360	Add	Submarine Pipeline  PT 2 OF 8	Chart No. 1: L40.1	N 28 13' 44.740"	W 088 56' 39.980"	28.22909	-88.94444	LNM 06/15, 8th Dist	48	11360_1	2/12/2015
11360	Add	Submarine Pipeline  PT 3 OF 8	Chart No. 1: L40.1	N 28 13' 05.250"	W 088 52' 50.080"	28.21812	-88.88058	LNM 06/15, 8th Dist	48	11360_1	2/12/2015
11360	Add	Submarine Pipeline  PT 4 OF 8	Chart No. 1: L40.1	N 28 11' 44.930"	W 088 50' 00.290"	28.19581	-88.83341	LNM 06/15, 8th Dist	48	11360_1	2/12/2015
11360	Add	Submarine Pipeline  PT 5 OF 8	Chart No. 1: L40.1	N 28 11' 43.700"	W 088 48' 52.500"	28.19547	-88.81458	LNM 06/15, 8th Dist	48	11360_1	2/12/2015
11360	Add	Submarine Pipeline  PT 6 OF 8	Chart No. 1: L40.1	N 28 12' 18.730"	W 088 48' 07.640"	28.2052	-88.80212	LNM 06/15, 8th Dist	48	11360_1	2/12/2015
11360	Add	Submarine Pipeline  PT 7 OF 8	Chart No. 1: L40.1	N 28 14' 41.150"	W 088 46' 48.080"	28.24476	-88.78002	LNM 06/15, 8th Dist	48	11360_1	2/12/2015
11360	Add	Submarine Pipeline  PT 8 OF 8	Chart No. 1: L40.1	N 28 15' 53.860"	W 088 46' 47.580"	28.26496	-88.77988	LNM 06/15, 8th Dist	48	11360_1	2/12/2015
11360	Add	Submarine Pipeline  PT 1 OF 3	Chart No. 1: L40.1	N 28 14' 06.810"	W 088 59' 42.730"	28.23523	-88.9952	LNM 06/15, 8th Dist	48	11360_1	2/12/2015
11360	Add	Submarine Pipeline  PT 2 OF 3	Chart No. 1: L40.1	N 28 13' 40.920"	W 088 57' 50.720"	28.22803	-88.96409	LNM 06/15, 8th Dist	48	11360_1	2/12/2015
11360	Add	Submarine Pipeline  PT 3 OF 3	Chart No. 1: L40.1	N 28 13' 40.440"	W 088 56' 27.660"	28.2279	-88.94102	LNM 06/15, 8th Dist	48	11360_1	2/12/2015
11360	Add	Obstruction in Fathoms	8 1/2 Obstn       Chart No. 1: K41	N 30 02' 11.700"	W 085 43' 41.800"	30.03658	-85.72828	LNM 06/15, 8th Dist	48	11360_1	2/5/2015
11360	Add	Obstruction in Fathoms	6 1/4 Obstn       Chart No. 1: K41	N 30 02' 41.100"	W 085 43' 44.900"	30.04475	-85.72914	LNM 06/15, 8th Dist	48	11360_1	2/5/2015
11360	Add	Obstruction in Fathoms	10 1/2 Obstn       Chart No. 1: K41	N 30 00' 25.000"	W 085 43' 38.200"	30.00694	-85.72728	LNM 06/15, 8th Dist	48	11360_1	2/5/2015
11360	Add	Obstruction in Fathoms	9 3/4 Obstn       Chart No. 1: K41	N 30 02' 57.300"	W 085 43' 26.400"	30.04925	-85.724	LNM 05/15, 8th Dist	48	11360_1	1/29/2015
11360	Add	Submarine Cable  PT 1 OF 5	Chart No. 1: L30.1	N 28 26' 43.000"	W 089 02' 36.240"	28.44528	-89.0434	LNM 05/15, 8th Dist	48	11360_1	1/29/2015
11360	Add	Submarine Cable  PT 2 OF 5	Chart No. 1: L30.1	N 28 26' 33.340"	W 089 01' 52.960"	28.44259	-89.03138	LNM 05/15, 8th Dist	48	11360_1	1/29/2015
11360	Add	Submarine Cable  PT 3 OF 5	Chart No. 1: L30.1	N 28 26' 42.120"	W 089 01' 15.260"	28.44503	-89.0209	LNM 05/15, 8th Dist	48	11360_1	1/29/2015
11360	Add	Submarine Cable  PT 4 OF 5	Chart No. 1: L30.1	N 28 27' 06.310"	W 089 00' 51.500"	28.45175	-89.01431	LNM 05/15, 8th Dist	48	11360_1	1/29/2015
11360	Add	Submarine Cable  PT 5 OF 5	Chart No. 1: L30.1	N 28 27' 38.350"	W 089 00' 40.260"	28.46065	-89.01118	LNM 05/15, 8th Dist	48	11360_1	1/29/2015
11360	Change	Obstruction in Fathoms	9 3/4 Obstn       Chart No. 1: K41	N 30 06' 14.900"	W 085 48' 02.700"	30.10414	-85.80075	LNM 05/15, 8th Dist	48	11360_1	1/29/2015
11360	Add	Obstruction in Feet	58 Obstn       Chart No. 1: K41	N 30 06' 14.900"	W 085 48' 02.700"	30.10414	-85.80075	LNM 05/15, 8th Dist	48	11360_1	1/29/2015
11360	Delete	Science Applications International Corp. Instrument Lighted Buoy	Y "C1" Fl Y 4s Priv	N 29 35' 00.000"	W 087 21' 00.000"	29.58333	-87.35	LNM 50/14, 8th Dist	48	11360_1	1/1/2015
11360	Delete	Science Applications International Corp. Instrument Lighted Buoy	Y "B1" Fl Y 4s Priv	N 29 21' 00.000"	W 087 54' 30.000"	29.35	-87.90833	LNM 50/14, 8th Dist	48	11360_1	1/1/2015
11360	Delete	Walter-105-6 Lighted Buoy	W Or Fl 2.5s Priv	N 29 15' 59.348"	W 088 19' 01.451"	29.26649	-88.31707	LNM 50/14, 8th Dist	48	11360_1	1/1/2015
11360	Add	Safety Zone Label	SAFETY ZONE 147.853 (see note A)	N 28 13' 44.000"	W 087 47' 51.000"	28.22889	-87.7975	LNM 52/14, 8th Dist	48	11360_1	1/1/2015
11360	Add	Platform	Chart No. 1: L10	N 28 13' 44.000"	W 087 47' 51.000"	28.22889	-87.7975	LNM 52/14, 8th Dist	48	11360_1	1/1/2015
11360	Add	Safety Zone (500 meters from platform outer edge)	Chart No. 1: N1.2 	N 28 13' 44.000"	W 087 47' 51.000"	28.22889	-87.7975	LNM 52/14, 8th Dist	48	11360_1	1/1/2015
11360	Add	Safety Zone (500 meters from platform outer edge)	Chart No. 1: N1.2	N 28 20' 29.528"	W 088 15' 56.473"	28.34154	-88.26569	LNM 52/14, 8th Dist	48	11360_1	1/1/2015
11360	Add	Safety Zone Label	SAFETY ZONE 147.855 (see note A)	N 28 20' 29.528"	W 088 15' 56.473"	28.34154	-88.26569	LNM 52/14, 8th Dist	48	11360_1	1/1/2015
11360	Add	Submarine Pipeline  PT 1 OF 5	Chart No. 1: L40.1	N 28 26' 13.570"	W 089 04' 50.340"	28.4371	-89.08065	LNM 51/14, 8th Dist	48	11360_1	12/25/2014
11360	Add	Submarine Pipeline  PT 2 OF 5	Chart No. 1: L40.1	N 28 25' 57.960"	W 089 04' 35.550"	28.43277	-89.07654	LNM 51/14, 8th Dist	48	11360_1	12/25/2014
11360	Add	Submarine Pipeline  PT 3 OF 5	Chart No. 1: L40.1	N 28 25' 53.040"	W 089 04' 43.630"	28.4314	-89.07879	LNM 51/14, 8th Dist	48	11360_1	12/25/2014
11360	Add	Submarine Pipeline  PT 4 OF 5	Chart No. 1: L40.1	N 28 25' 46.900"	W 089 04' 41.890"	28.4297	-89.0783	LNM 51/14, 8th Dist	48	11360_1	12/25/2014
11360	Add	Submarine Pipeline  PT 5 OF 5	Chart No. 1: L40.1	N 28 25' 49.660"	W 089 04' 25.460"	28.43046	-89.07374	LNM 51/14, 8th Dist	48	11360_1	12/25/2014
11360	Add	Submarine Pipeline  PT 1 OF 4	Chart No. 1: L40.1	N 28 26' 59.830"	W 089 05' 08.790"	28.44995	-89.08578	LNM 51/14, 8th Dist	48	11360_1	12/25/2014
11360	Add	Submarine Pipeline  PT 2 OF 4	Chart No. 1: L40.1	N 28 26' 56.500"	W 089 05' 08.070"	28.44903	-89.08557	LNM 51/14, 8th Dist	48	11360_1	12/25/2014
11360	Add	Submarine Pipeline  PT 3 OF 4	Chart No. 1: L40.1	N 28 26' 50.160"	W 089 05' 10.020"	28.44727	-89.08611	LNM 51/14, 8th Dist	48	11360_1	12/25/2014
11360	Add	Submarine Pipeline  PT 4 OF 4	Chart No. 1: L40.1	N 28 26' 44.470"	W 089 05' 03.350"	28.44569	-89.08427	LNM 51/14, 8th Dist	48	11360_1	12/25/2014
11360	Add	Submarine Pipeline  PT 1 OF 2	Chart No. 1: L40.1	N 28 25' 32.640"	W 089 04' 02.480"	28.42573	-89.06735	LNM 51/14, 8th Dist	48	11360_1	12/25/2014
11360	Add	Submarine Pipeline  PT 2 OF 2	Chart No. 1: L40.1	N 28 26' 16.330"	W 089 04' 49.120"	28.43787	-89.08031	LNM 51/14, 8th Dist	48	11360_1	12/25/2014
11360	Add	Platform:(Energy Partners-116-1)	Chart No 1: L-10	N 29 21' 28.345"	W 088 15' 54.691"	29.35787	-88.26519	LNM 47/14, 8th Dist	48	11360_1	12/11/2014
11360	Add	Submarine Pipeline  PT 1 OF 7	Chart No. 1: L40.1	N 29 13' 42.500"	W 087 46' 48.700"	29.22847	-87.7802	LNM 49/14, 8th Dist	48	11360_1	12/11/2014
11360	Add	Submarine Pipeline  PT 2 OF 7	Chart No. 1: L40.1	N 28 58' 59.800"	W 087 46' 42.700"	28.98328	-87.77853	LNM 49/14, 8th Dist	48	11360_1	12/11/2014
11360	Add	Submarine Pipeline  PT 3 OF 7	Chart No. 1: L40.1	N 28 57' 52.900"	W 087 46' 08.300"	28.96469	-87.76897	LNM 49/14, 8th Dist	48	11360_1	12/11/2014
11360	Add	Submarine Pipeline  PT 4 OF 7	Chart No. 1: L40.1	N 28 56' 25.200"	W 087 45' 06.700"	28.94033	-87.75186	LNM 49/14, 8th Dist	48	11360_1	12/11/2014
11360	Add	Submarine Pipeline  PT 5 OF 7	Chart No. 1: L40.1	N 28 55' 09.100"	W 087 44' 55.500"	28.9192	-87.74875	LNM 49/14, 8th Dist	48	11360_1	12/11/2014
11360	Add	Submarine Pipeline  PT 6 OF 7	Chart No. 1: L40.1	N 28 54' 22.400"	W 087 45' 26.800"	28.90622	-87.75745	LNM 49/14, 8th Dist	48	11360_1	12/11/2014
11360	Add	Submarine Pipeline  PT 7 OF 7	Chart No. 1: L40.1	N 28 53' 39.500"	W 087 46' 39.300"	28.89431	-87.77758	LNM 49/14, 8th Dist	48	11360_1	12/11/2014
11360	Add	Submarine Pipeline  PT 1 OF 4	Chart No. 1: L40.1	N 28 57' 52.900"	W 087 46' 08.300"	28.96469	-87.76897	LNM 49/14, 8th Dist	48	11360_1	12/11/2014
11360	Add	Submarine Pipeline  PT 2 OF 4	Chart No. 1: L40.1	N 28 56' 37.600"	W 087 43' 31.900"	28.94378	-87.72552	LNM 49/14, 8th Dist	48	11360_1	12/11/2014
11360	Add	Submarine Pipeline  PT 3 OF 4	Chart No. 1: L40.1	N 28 55' 00.600"	W 087 44' 28.300"	28.91683	-87.7412	LNM 49/14, 8th Dist	48	11360_1	12/11/2014
11360	Add	Submarine Pipeline  PT 4 OF 4	Chart No. 1: L40.1	N 28 54' 22.400"	W 087 45' 26.800"	28.90622	-87.75745	LNM 49/14, 8th Dist	48	11360_1	12/11/2014
11360	Add	Submarine Pipeline  PT 1 OF 2	Chart No. 1: L40.1	N 28 10' 32.350"	W 089 07' 02.080"	28.17565	-89.11724	LNM 47/14, 8th Dist	48	11360_1	11/20/2014
11360	Add	Submarine Pipeline  PT 2 OF 2	Chart No. 1: L40.1	N 28 11' 06.080"	W 089 07' 55.400"	28.18502	-89.13206	LNM 47/14, 8th Dist	48	11360_1	11/20/2014
11360	Add	Submarine Pipeline  PT 1 OF 5	Chart No. 1: L40.1	N 28 09' 13.010"	W 089 06' 31.870"	28.15361	-89.10886	LNM 47/14, 8th Dist	48	11360_1	11/20/2014
11360	Add	Submarine Pipeline  PT 2 OF 5	Chart No. 1: L40.1	N 28 09' 08.700"	W 089 07' 10.170"	28.15242	-89.11949	LNM 47/14, 8th Dist	48	11360_1	11/20/2014
11360	Add	Submarine Pipeline  PT 3 OF 5	Chart No. 1: L40.1	N 28 09' 24.540"	W 089 07' 46.500"	28.15682	-89.12959	LNM 47/14, 8th Dist	48	11360_1	11/20/2014
11360	Add	Submarine Pipeline  PT 4 OF 5	Chart No. 1: L40.1	N 28 10' 04.680"	W 089 07' 55.800"	28.16797	-89.13216	LNM 47/14, 8th Dist	48	11360_1	11/20/2014
11360	Add	Submarine Pipeline  PT 5 OF 5	Chart No. 1: L40.1	N 28 11' 05.410"	W 089 07' 56.540"	28.18484	-89.13237	LNM 47/14, 8th Dist	48	11360_1	11/20/2014
11360	Add	Submarine Pipeline  PT 1 OF 7	Chart No. 1: L40.1	N 28 10' 32.350"	W 089 07' 02.080"	28.17565	-89.11724	LNM 47/14, 8th Dist	48	11360_1	11/20/2014
11360	Add	Submarine Pipeline  PT 2 OF 7	Chart No. 1: L40.1	N 28 10' 08.660"	W 089 07' 16.490"	28.16907	-89.12125	LNM 47/14, 8th Dist	48	11360_1	11/20/2014
11360	Add	Submarine Pipeline  PT 3 OF 7	Chart No. 1: L40.1	N 28 10' 04.900"	W 089 07' 10.380"	28.16803	-89.11955	LNM 47/14, 8th Dist	48	11360_1	11/20/2014
11360	Add	Submarine Pipeline  PT 4 OF 7	Chart No. 1: L40.1	N 28 09' 54.580"	W 089 07' 18.630"	28.16516	-89.12184	LNM 47/14, 8th Dist	48	11360_1	11/20/2014
11360	Add	Submarine Pipeline  PT 5 OF 7	Chart No. 1: L40.1	N 28 09' 57.280"	W 089 07' 26.050"	28.16591	-89.1239	LNM 47/14, 8th Dist	48	11360_1	11/20/2014
11360	Add	Submarine Pipeline  PT 6 OF 7	Chart No. 1: L40.1	N 28 09' 42.740"	W 089 07' 35.660"	28.16187	-89.12657	LNM 47/14, 8th Dist	48	11360_1	11/20/2014
11360	Add	Submarine Pipeline  PT 7 OF 7	Chart No. 1: L40.1	N 28 09' 16.080"	W 089 06' 15.450"	28.15447	-89.10429	LNM 47/14, 8th Dist	48	11360_1	11/20/2014
11360	Add	Submarine Pipeline  PT 1 OF 4	Chart No. 1: L40.1	N 28 09' 16.960"	W 089 06' 12.560"	28.15471	-89.10349	LNM 47/14, 8th Dist	48	11360_1	11/20/2014
11360	Add	Submarine Pipeline  PT 2 OF 4	Chart No. 1: L40.1	N 28 09' 46.420"	W 089 06' 10.230"	28.1629	-89.10284	LNM 47/14, 8th Dist	48	11360_1	11/20/2014
11360	Add	Submarine Pipeline  PT 3 OF 4	Chart No. 1: L40.1	N 28 10' 15.170"	W 089 06' 27.760"	28.17088	-89.10771	LNM 47/14, 8th Dist	48	11360_1	11/20/2014
11360	Add	Submarine Pipeline  PT 4 OF 4	Chart No. 1: L40.1	N 28 10' 35.370"	W 089 06' 59.930"	28.17649	-89.11665	LNM 47/14, 8th Dist	48	11360_1	11/20/2014
11360	Add	Safety Zone Label	SAFETY ZONE 147.859 (see note A)	N 28 14' 05.904"	W 088 59' 43.306"	28.23497	-88.99536	LNM 43/14, 8th Dist	48	11360_1	10/30/2014
11360	Add	Safety Zone PT 1 OF 4	Chart No. 1: N1.2	N 28 14' 22.300"	W 089 00' 01.820"	28.23953	-89.0005	LNM 43/14, 8th Dist	48	11360_1	10/30/2014
11360	Add	Safety Zone PT 2 OF 4	Chart No. 1: N1.2	N 28 14' 22.300"	W 088 59' 24.780"	28.23953	-88.99022	LNM 43/14, 8th Dist	48	11360_1	10/30/2014
11360	Add	Safety Zone PT 3 OF 4	Chart No. 1: N1.2	N 28 13' 49.490"	W 088 59' 24.780"	28.23041	-88.99022	LNM 43/14, 8th Dist	48	11360_1	10/30/2014
11360	Add	Safety Zone PT 4 OF 4	Chart No. 1: N1.2	N 28 13' 49.490"	W 089 00' 01.820"	28.23041	-89.0005	LNM 43/14, 8th Dist	48	11360_1	10/30/2014
11360	Add	Submarine Pipeline  PT 1 OF 5	Chart No. 1: L40.1	N 28 55' 55.370"	W 088 32' 34.680"	28.93205	-88.54297	LNM 43/14, 8th Dist	48	11360_1	10/30/2014
11360	Add	Submarine Pipeline  PT 2 OF 5	Chart No. 1: L40.1	N 28 57' 24.490"	W 088 33' 01.550"	28.9568	-88.55043	LNM 43/14, 8th Dist	48	11360_1	10/30/2014
11360	Add	Submarine Pipeline  PT 3 OF 5	Chart No. 1: L40.1	N 28 57' 29.090"	W 088 35' 57.380"	28.95808	-88.59927	LNM 43/14, 8th Dist	48	11360_1	10/30/2014
11360	Add	Submarine Pipeline  PT 4 OF 5	Chart No. 1: L40.1	N 28 58' 05.560"	W 088 37' 13.740"	28.96821	-88.62048	LNM 43/14, 8th Dist	48	11360_1	10/30/2014
11360	Add	Submarine Pipeline  PT 5 OF 5	Chart No. 1: L40.1	N 28 58' 22.130"	W 088 37' 32.270"	28.97281	-88.62563	LNM 43/14, 8th Dist	48	11360_1	10/30/2014
11360	Add	Wreck in Fathoms	10 Wk Chart No.1: K26	N 30 02' 53.480"	W 088 19' 45.350"	30.04819	-88.32926	LNM 43/14, 8th Dist	48	11360_1	10/30/2014
11360	Delete	Obstruction in Fathoms	9 1/4 Obstns       Chart No. 1: K41	N 30 03' 40.700"	W 088 22' 17.860"	30.06131	-88.37163	LNM 43/14, 8th Dist	48	11360_1	10/30/2014
11360	Delete	Obstruction in Fathoms	8 1/2 Obstns       Chart No. 1: K41	N 30 02' 54.160"	W 088 19' 46.900"	30.04838	-88.3297	LNM 43/14, 8th Dist	48	11360_1	10/30/2014
11360	Delete	Dangerous Wreck  	PA Chart No 1: K-28	N 30 03' 00.000"	W 088 31' 00.000"	30.05	-88.51667	LNM 39/14, 8th Dist	48	11360_1	10/9/2014
11360	Add	Platform: (W&T Offshore-114-21)	Chart No 1: L-10	N 29 33' 20.607"	W 088 38' 31.287"	29.55573	-88.64202	LNM 39/14, 8th Dist	48	11360_1	10/9/2014
11360	Add	Platform (W & T Offshore-114-20)	Chart No 1: L-10	N 29 33' 23.554"	W 088 37' 07.906"	29.55654	-88.61887	LNM 39/14, 8th Dist	48	11360_1	10/9/2014
11360	Add	Platform: (Arena Offshore-116-9)	Chart No 1: L-10	N 29 25' 08.240"	W 088 38' 54.970"	29.41895	-88.64861	LNM 39/14, 8th Dist	48	11360_1	10/9/2014
11360	Add	Non-Dangerous Wreck 	PA; Chart No 1; K-29	N 28 48' 33.600"	W 089 26' 42.000"	28.80933	-89.445	LNM 39/14, 8th Dist	48	11360_1	10/9/2014
11360	Delete	Dangerous Wreck	PA      Chart No. 1: K28	N 30 03' 24.000"	W 088 31' 06.000"	30.05667	-88.51833	LNM 41/14, 8th Dist	48	11360_1	10/9/2014
11360	Add	Wreck in Fathoms	7 Wk    Chart No. 1: K26	N 30 02' 04.900"	W 088 30' 55.300"	30.03469	-88.51536	LNM 41/14, 8th Dist	48	11360_1	10/9/2014
11360	Delete	Obstruction in Fathoms	10 Obstn       Chart No. 1: K41	N 30 03' 39.600"	W 088 17' 17.300"	30.061	-88.28814	LNM 40/14, 8th Dist	48	11360_1	10/9/2014
11360	Add	Platform: (W & T Offshore-114-10)	Chart No 1: L-10	N 29 34' 34.388"	W 088 36' 03.431"	29.57622	-88.60095	LNM 38/14, 8th Dist	48	11360_1	10/2/2014
11360	Add	Dangerous Wreck	PA Chart No 1: K-28	N 30 03' 00.000"	W 088 31' 00.000"	30.05	-88.51667	LNM 36/14, 8th Dist	48	11360_1	9/18/2014
11360	Add	Minimum Size (2mm sq.) Dotted Fish Haven and Label	Obstn Fish Haven (auth min 8 1/4 fms), Chart No. 1 K46.2	N 30 08' 35.500"	W 085 51' 49.500"	30.14319	-85.86375	LNM 35/14, 8th Dist	48	11360_1	8/28/2014
11360	Add	Minimum Size (2mm sq.) Dotted Fish Haven and Label	Obstn Fish Haven (auth min 8 1/4 fms), Chart No. 1 K46.2	N 30 10' 11.500"	W 085 54' 37.500"	30.16986	-85.91042	LNM 35/14, 8th Dist	48	11360_1	8/28/2014
11360	Add	Submarine Pipeline  PT 1 OF 5	Chart No. 1: L40.1	N 28 31' 33.950"	W 088 17' 29.380"	28.5261	-88.2915	LNM 31/14, 8th Dist	48	11360_1	8/7/2014
11360	Add	Submarine Pipeline  PT 2 OF 5	Chart No. 1: L40.1	N 28 32' 13.430"	W 088 17' 50.070"	28.53706	-88.29724	LNM 31/14, 8th Dist	48	11360_1	8/7/2014
11360	Add	Submarine Pipeline  PT 3 OF 5	Chart No. 1: L40.1	N 28 32' 18.120"	W 088 18' 14.300"	28.53837	-88.30397	LNM 31/14, 8th Dist	48	11360_1	8/7/2014
11360	Add	Submarine Pipeline  PT 4 OF 5	Chart No. 1: L40.1	N 28 32' 01.400"	W 088 18' 25.380"	28.53372	-88.30705	LNM 31/14, 8th Dist	48	11360_1	8/7/2014
11360	Add	Submarine Pipeline  PT 5 OF 5	Chart No. 1: L40.1	N 28 31' 15.520"	W 088 18' 06.690"	28.52098	-88.30186	LNM 31/14, 8th Dist	48	11360_1	8/7/2014
11360	Delete	South Pass Light	Fl (5) 60s 108ft 14M	N 29 00' 54.826"	W 089 10' 00.171"	29.01523	-89.16672	LNM 28/14, 8th Dist	48	11360_1	7/24/2014
11360	Add	Chevron-WD-109-A Racon	RACON (-) Priv      Chart No. 1: S3.1	N 28 50' 01.000"	W 089 27' 10.000"	28.83361	-89.45277	LNM 26/14, 8th Dist	48	11360_1	7/10/2014
11360	Delete	Platform: (Chevron-166-1)	Chart No. 1: L10	N 28 54' 06.019"	W 089 01' 24.667"	28.90167	-89.02352	LNM 25/14, 8th Dist	48	11360_1	7/3/2014
11360	Delete	Southwest Pass Entrance Racon	RACON (-)      Chart No. 1: S3.1	N 28 50' 00.868"	W 089 27' 12.169"	28.83357	-89.45338	LNM 25/14, 8th Dist	48	11360_1	7/3/2014
11360	Add	Platform: (Llog-113-1)	Chart No. 1: L10	N 28 45' 16.099"	W 088 16' 02.123"	28.75447	-88.26726	LNM 24/14, 8th Dist	48	11360_1	6/26/2014
11360	Delete	Platform: (W & T Offshore-114-50)	Chart No. 1: L10	N 29 33' 51.220"	W 088 38' 25.520"	29.56423	-88.64042	LNM 15/14, 8th Dist	48	11360_1	4/24/2014
11360	Add	Non Dangerous Wreck	PA      Chart No. 1: K29	N 29 08' 16.200"	W 085 26' 58.800"	29.13783	-85.44967	LNM 12/14, 8th Dist	48	11360_1	4/3/2014
11360	Add	Platform: (Hess-100-1) (Spar-Gulfstar-1)	Chart No. 1: L10	N 28 14' 04.419"	W 088 59' 43.278"	28.23456	-88.99535	LNM 12/14, 8th Dist	48	11360_1	4/3/2014
11360	Add	Safety Zone PT 1 OF 4	Chart No. 1: N1.2	N 28 09' 52.000"	W 089 14' 39.360"	28.16444	-89.24427	LNM 11/14, 8th Dist	48	11360_1	3/13/2014
11360	Add	Safety Zone PT 2 OF 4	Chart No. 1: N1.2	N 28 09' 52.000"	W 089 14' 02.320"	28.16444	-89.23398	LNM 11/14, 8th Dist	48	11360_1	3/13/2014
11360	Add	Safety Zone PT 3 OF 4	Chart No. 1: N1.2	N 28 09' 19.170"	W 089 14' 02.320"	28.15532	-89.23398	LNM 11/14, 8th Dist	48	11360_1	3/13/2014
11360	Add	Safety Zone PT 4 OF 4	Chart No. 1: N1.2	N 28 09' 19.170"	W 089 14' 39.360"	28.15532	-89.24427	LNM 11/14, 8th Dist	48	11360_1	3/13/2014
11360	Add	Safety Zone Label	SAFETY ZONE 147.849 (see note A)	N 28 09' 35.590"	W 089 14' 20.860"	28.15989	-89.23913	LNM 11/14, 8th Dist	48	11360_1	3/13/2014
11360	Add	Platform: (Fieldwood-107-1)	Chart No. 1: L10	N 29 36' 39.420"	W 088 24' 06.380"	29.61095	-88.40177	LNM 06/14, 8th Dist	48	11360_1	2/20/2014
11360	Delete	Platform: (Tana-117-8)	Chart No. 1: L10	N 29 34' 00.851"	W 088 39' 32.925"	29.5669	-88.65915	LNM 06/14, 8th Dist	48	11360_1	2/20/2014
11360	Change	Pass A Loutre North Pass Lighted Buoy 2	R "2" Fl R 6s	N 29 14' 16.794"	W 088 57' 28.149"	29.238	-88.95782	LNM 05/14, 8th Dist	48	11360_1	2/13/2014
11360	Relocate	Pass A Loutre North Pass Lighted Buoy 2	R "2" Fl R 6s	N 29 14' 16.794"	W 088 57' 28.149"	29.238	-88.95782	LNM 05/14, 8th Dist	48	11360_1	2/13/2014
11360	Delete	Obstruction	Obstn rep PD (1973)         Chart No. 1: K40	N 29 59' 23.400"	W 088 23' 44.000"	29.98983	-88.39555	LNM 51/13, 8th Dist	48	11360_1	12/10/2013
11360	Delete	Obstruction	Obstn PA (7 fms rep 2005)         Chart No. 1: K40	N 30 03' 06.000"	W 088 25' 06.000"	30.05167	-88.41833	LNM 51/13, 8th Dist	48	11360_1	12/10/2013
11360	Delete	Non-dangerous obstruction in Fathoms	11 3/4 Obstn	N 30 03' 08.100"	W 088 10' 11.000"	30.05225	-88.16972	LNM 51/13, 8th Dist	48	11360_1	12/10/2013
11360	Add	Well	Well (cov 36 fms)      Chart No. 1: L20	N 29 16' 07.436"	W 088 38' 04.048"	29.26873	-88.63446	LNM 44/13, 8th Dist	48	11360_1	11/4/2013
11360	Add	Apache-101-40 Lighted Buoy	W Or Fl 2.5s Priv	N 29 16' 07.436"	W 088 38' 04.048"	29.26873	-88.63446	LNM 44/13, 8th Dist	48	11360_1	11/4/2013
11360	Add	Minimum Size (2mm sq.) Dashed Fish Haven and Label	Fish Haven (auth min 25 fms), Chart No.1: K46.2	N 28 47' 40.500"	W 089 10' 31.610"	28.79458	-89.17545	LNM 45/13, 8th Dist	48	11360_1	10/30/2013
11360	Add	Pipe	Pipe PA      Chart No. 1: L20	N 29 12' 04.000"	W 088 55' 54.000"	29.20111	-88.93166	LNM 43/13, 8th Dist	48	11360_1	10/28/2013
11360	Delete	South Pass West Jetty Range Front Light	F G 40ft HORN (Nov 1 to Apr 30)	N 28 59' 25.967"	W 089 08' 25.060"	28.99055	-89.1403	LNM 44/13, 8th Dist	48	11360_1	10/24/2013
11360	Delete	Wreck in Fathoms	7 1/4 Wk    Chart No. 1: K26	N 30 02' 04.900"	W 088 30' 55.300"	30.03469	-88.51536	LNM 44/13, 8th Dist	48	11360_1	10/24/2013
11360	Delete	Shell Mars Tlp Lighted Mooring Buoy	Fl 4s Priv	N 28 09' 36.600"	W 089 15' 47.700"	28.16017	-89.26325	LNM 35/13, 8th Dist	48	11360_1	9/3/2013
11360	Add	Regulated Area Label	REGULATED NAVIGATION AREA  165.840 (see note A)	N 28 56' 12.620"	W 088 58' 10.300"	28.93684	-88.96953	LNM 30/13, 8th Dist	48	11360_1	7/16/2013
11360	Add	Regulated Area	Chart No. 1: N1.2	N 28 56' 12.620"	W 088 58' 10.300"	28.93684	-88.96953	LNM 30/13, 8th Dist	48	11360_1	7/16/2013
11360	Add	Submarine Pipeline  PT 1 OF 2	Chart No. 1: L40.1	N 28 26' 47.200"	W 089 04' 21.200"	28.44644	-89.07256	LNM 28/13, 8th Dist	48	11360_1	7/4/2013
11360	Add	Submarine Pipeline  PT 2 OF 2	Chart No. 1: L40.1	N 28 27' 08.700"	W 089 05' 05.200"	28.45242	-89.08478	LNM 28/13, 8th Dist	48	11360_1	7/4/2013
11360	Add	Submarine Pipeline  PT 1 OF 2	Chart No. 1: L40.1	N 29 08' 37.200"	W 088 42' 00.000"	29.14367	-88.7	LNM 28/13, 8th Dist	48	11360_1	7/4/2013
11360	Add	Submarine Pipeline  PT 2 OF 2	Chart No. 1: L40.1	N 29 11' 14.500"	W 088 40' 59.300"	29.18736	-88.68314	LNM 28/13, 8th Dist	48	11360_1	7/4/2013
11360	Add	Platform: (Shell-200-18)(Tlp Olympus)	Chart No. 1: L10	N 28 09' 35.590"	W 089 14' 20.860"	28.15989	-89.23913	LNM 26/13, 8th Dist	48	11360_1	6/29/2013
11360	Delete	SAIC Scientific Meaurement Buoy A	Y "A" Fl Y 2.5s Priv	N 29 48' 56.400"	W 087 04' 14.520"	29.81567	-87.0707	LNM 23/13, 8th Dist	48	11360_1	6/11/2013
11360	Delete	SAIC Scientific Meaurement Buoy B	Y "B" Fl Y 2.5s Priv	N 29 54' 25.440"	W 087 08' 10.380"	29.90707	-87.13622	LNM 23/13, 8th Dist	48	11360_1	6/11/2013
11360	Delete	SAIC Scientific Meaurement Buoy C	Y "C" Fl Y 2.5s Priv	N 29 54' 04.020"	W 087 11' 38.220"	29.90112	-87.19395	LNM 23/13, 8th Dist	48	11360_1	6/11/2013
11360	Add	Accurate Landmark	TOWER    Chart No. 1: E29	N 29 44' 31.300"	W 088 31' 00.200"	29.74203	-88.51672	LNM 23/13, 8th Dist	48	11360_1	6/4/2013
11360	Add	Accurate Landmark	TOWER    Chart No. 1: E29	N 30 14' 02.400"	W 088 40' 08.800"	30.234	-88.66911	LNM 23/13, 8th Dist	48	11360_1	6/4/2013
11360	Add	Accurate Landmark	TOWER    Chart No. 1: E29	N 30 09' 31.100"	W 088 22' 00.000"	30.15864	-88.36667	LNM 23/13, 8th Dist	48	11360_1	6/4/2013
11360	Add	Accurate Landmark	TOWER    Chart No. 1: E29	N 29 50' 02.100"	W 088 50' 51.000"	29.83392	-88.8475	LNM 23/13, 8th Dist	48	11360_1	6/4/2013
11360	Add	Accurate Landmark	TOWER    Chart No. 1: E29	N 30 03' 01.300"	W 088 53' 00.000"	30.05036	-88.88333	LNM 23/13, 8th Dist	48	11360_1	6/4/2013
11360	Add	Accurate Landmark	TOWER    Chart No. 1: E29	N 29 52' 39.500"	W 088 18' 59.300"	29.87764	-88.31647	LNM 23/13, 8th Dist	48	11360_1	6/4/2013
11360	Delete	Submerged Obstruction	PA      Chart No. 1: K40	N 29 20' 20.900"	W 088 48' 10.100"	29.33914	-88.8028	LNM 17/13, 8th Dist	48	11360_1	4/30/2013
11360	Add	Submerged well	Well (cov 19 fms)      Chart No. 1: L20	N 29 39' 50.275"	W 088 28' 22.935"	29.66397	-88.47304	WNM 14/13, NGA	48	11360_1	4/2/2013
11360	Delete	Tana-117-20 Lighted Buoy	W Or Fl 2.5s Priv	N 29 33' 09.118"	W 088 20' 20.624"	29.55253	-88.33907	LNM 07/13, 8th Dist	48	11360_1	2/21/2013
11360	Delete	Well	Well (cov 24 fms)	N 29 33' 09.118"	W 088 20' 20.624"	29.55253	-88.33907	LNM 07/13, 8th Dist	48	11360_1	2/21/2013
11360	Add	Accurate Landmark	TOWER    Chart No. 1: E20	N 29 59' 00.590"	W 088 34' 59.930"	29.9835	-88.58331	LNM 08/13, 8th Dist	48	11360_1	2/14/2013
11360	Change	Taylor Energy Lighted Buoy A	Y "A" Fl Y 2.5s Priv	N 28 56' 12.619"	W 088 58' 10.303"	28.93684	-88.96953	LNM 04/13, 8th Dist	48	11360_1	2/4/2013
11360	Relocate	Taylor Energy Lighted Buoy A	Y "A" Fl Y 2.5s Priv	N 28 56' 12.619"	W 088 58' 10.303"	28.93684	-88.96953	LNM 04/13, 8th Dist	48	11360_1	2/4/2013
11360	Add	Platform: (Tana-117-16)	Chart No. 1: L10	N 29 33' 09.200"	W 088 20' 20.634"	29.55256	-88.33907	LNM 02/13, 8th Dist	48	11360_1	1/23/2013
11360	Add	Wreck in Fathoms	7 1/4 Wk    Chart No. 1: K26	N 30 02' 04.900"	W 088 30' 55.300"	30.03469	-88.51536	LNM 05/13, 8th Dist	48	11360_1	1/23/2013
11360	Add	Visible Pipe	Pipe PA      Chart No. 1: F22	N 28 54' 00.000"	W 089 24' 00.000"	28.9	-89.4	LNM 52/12, 8th Dist	48	11360_1	1/3/2013
11360	Delete	Platform: (Maritech-114-20)	Chart No. 1: L10	N 29 23' 32.410"	W 087 57' 22.150"	29.39234	-87.95615	LNM 51/12, 8th Dist	48	11360_1	1/3/2013
11360	Delete	Platform: (Maritech-114-25)	Chart No. 1: L10	N 29 21' 26.529"	W 087 58' 42.930"	29.35737	-87.97859	LNM 49/12, 8th Dist	48	11360_1	12/12/2012
11360	Add	Submarine Pipeline  PT 1 OF 2	Chart No. 1: L40.1	N 28 46' 13.080"	W 088 50' 00.960"	28.7703	-88.8336	LNM 50/12, 8th Dist	48	11360_1	12/6/2012
11360	Add	Submarine Pipeline  PT 2 OF 2	Chart No. 1: L40.1	N 28 44' 32.640"	W 088 49' 31.800"	28.7424	-88.8255	LNM 50/12, 8th Dist	48	11360_1	12/6/2012
11360	Add	Submarine Pipeline  PT 1 OF 6	Chart No. 1: L40.1	N 28 44' 32.280"	W 088 49' 32.160"	28.7423	-88.8256	LNM 50/12, 8th Dist	48	11360_1	12/6/2012
11360	Add	Submarine Pipeline  PT 2 OF 6	Chart No. 1: L40.1	N 28 46' 39.720"	W 088 51' 05.760"	28.7777	-88.8516	LNM 50/12, 8th Dist	48	11360_1	12/6/2012
11360	Add	Submarine Pipeline  PT 3 OF 6	Chart No. 1: L40.1	N 28 46' 56.640"	W 088 51' 24.480"	28.7824	-88.8568	LNM 50/12, 8th Dist	48	11360_1	12/6/2012
11360	Add	Submarine Pipeline  PT 4 OF 6	Chart No. 1: L40.1	N 28 47' 22.200"	W 088 52' 03.000"	28.7895	-88.8675	LNM 50/12, 8th Dist	48	11360_1	12/6/2012
11360	Add	Submarine Pipeline  PT 5 OF 6	Chart No. 1: L40.1	N 28 47' 40.560"	W 088 52' 48.720"	28.7946	-88.8802	LNM 50/12, 8th Dist	48	11360_1	12/6/2012
11360	Add	Submarine Pipeline  PT 6 OF 6	Chart No. 1: L40.1	N 28 50' 36.600"	W 089 02' 39.840"	28.8435	-89.0444	LNM 50/12, 8th Dist	48	11360_1	12/6/2012
11360	Add	Submarine Pipeline  PT 1 OF 5	Chart No. 1: L40.1	N 28 46' 13.080"	W 088 50' 00.960"	28.7703	-88.8336	LNM 50/12, 8th Dist	48	11360_1	12/6/2012
11360	Add	Submarine Pipeline  PT 2 OF 5	Chart No. 1: L40.1	N 28 45' 46.440"	W 088 50' 11.040"	28.7629	-88.8364	LNM 50/12, 8th Dist	48	11360_1	12/6/2012
11360	Add	Submarine Pipeline  PT 3 OF 5	Chart No. 1: L40.1	N 28 45' 23.400"	W 088 50' 15.000"	28.7565	-88.8375	LNM 50/12, 8th Dist	48	11360_1	12/6/2012
11360	Add	Submarine Pipeline  PT 4 OF 5	Chart No. 1: L40.1	N 28 45' 03.240"	W 088 50' 04.920"	28.7509	-88.8347	LNM 50/12, 8th Dist	48	11360_1	12/6/2012
11360	Add	Submarine Pipeline  PT 5 OF 5	Chart No. 1: L40.1	N 28 44' 32.640"	W 088 49' 32.160"	28.7424	-88.8256	LNM 50/12, 8th Dist	48	11360_1	12/6/2012
11360	Add	Submarine Pipeline  PT 1 OF 14	Chart No. 1: L40.1	N 28 44' 32.640"	W 088 49' 32.160"	28.7424	-88.8256	LNM 50/12, 8th Dist	48	11360_1	12/6/2012
11360	Add	Submarine Pipeline  PT 2 OF 14	Chart No. 1: L40.1	N 28 45' 51.840"	W 088 50' 09.600"	28.7644	-88.836	LNM 50/12, 8th Dist	48	11360_1	12/6/2012
11360	Add	Submarine Pipeline  PT 3 OF 14	Chart No. 1: L40.1	N 28 47' 47.400"	W 088 51' 28.800"	28.7965	-88.858	LNM 50/12, 8th Dist	48	11360_1	12/6/2012
11360	Add	Submarine Pipeline  PT 4 OF 14	Chart No. 1: L40.1	N 28 49' 01.920"	W 088 52' 34.680"	28.8172	-88.8763	LNM 50/12, 8th Dist	48	11360_1	12/6/2012
11360	Add	Submarine Pipeline  PT 5 OF 14	Chart No. 1: L40.1	N 28 49' 30.000"	W 088 53' 18.960"	28.825	-88.8886	LNM 50/12, 8th Dist	48	11360_1	12/6/2012
11360	Add	Submarine Pipeline  PT 6 OF 14	Chart No. 1: L40.1	N 28 49' 52.320"	W 088 54' 00.360"	28.8312	-88.9001	LNM 50/12, 8th Dist	48	11360_1	12/6/2012
11360	Add	Submarine Pipeline  PT 7 OF 14	Chart No. 1: L40.1	N 28 50' 15.360"	W 088 54' 29.520"	28.8376	-88.9082	LNM 50/12, 8th Dist	48	11360_1	12/6/2012
11360	Add	Submarine Pipeline  PT 8 OF 14	Chart No. 1: L40.1	N 28 50' 49.920"	W 088 54' 58.680"	28.8472	-88.9163	LNM 50/12, 8th Dist	48	11360_1	12/6/2012
11360	Add	Submarine Pipeline  PT 9 OF 14	Chart No. 1: L40.1	N 28 51' 20.160"	W 088 55' 14.880"	28.8556	-88.9208	LNM 50/12, 8th Dist	48	11360_1	12/6/2012
11360	Add	Submarine Pipeline  PT 10 OF 14	Chart No. 1: L40.1	N 28 51' 54.360"	W 088 55' 30.720"	28.8651	-88.9252	LNM 50/12, 8th Dist	48	11360_1	12/6/2012
11360	Add	Submarine Pipeline  PT 11 OF 14	Chart No. 1: L40.1	N 28 52' 09.840"	W 088 55' 44.400"	28.8694	-88.929	LNM 50/12, 8th Dist	48	11360_1	12/6/2012
11360	Add	Submarine Pipeline  PT 12 OF 14	Chart No. 1: L40.1	N 28 52' 19.200"	W 088 56' 03.840"	28.872	-88.9344	LNM 50/12, 8th Dist	48	11360_1	12/6/2012
11360	Add	Submarine Pipeline  PT 13 OF 14	Chart No. 1: L40.1	N 28 52' 21.360"	W 088 56' 26.160"	28.8726	-88.9406	LNM 50/12, 8th Dist	48	11360_1	12/6/2012
11360	Add	Submarine Pipeline  PT 14 OF 14	Chart No. 1: L40.1	N 28 52' 07.320"	W 088 59' 12.840"	28.8687	-88.9869	LNM 50/12, 8th Dist	48	11360_1	12/6/2012
11360	Add	Submarine Pipeline  PT 1 OF 2	Chart No. 1: L40.1	N 28 45' 23.760"	W 088 50' 05.280"	28.7566	-88.8348	LNM 50/12, 8th Dist	48	11360_1	12/6/2012
11360	Add	Submarine Pipeline  PT 2 OF 2	Chart No. 1: L40.1	N 28 46' 12.720"	W 088 50' 00.960"	28.7702	-88.8336	LNM 50/12, 8th Dist	48	11360_1	12/6/2012
11360	Add	Submarine Pipeline  PT 1 OF 3	Chart No. 1: L40.1	N 27 49' 38.540"	W 087 56' 12.090"	27.82737	-87.93669	LNM 39/12, 8th Dist	48	11360_1	9/26/2012
11360	Add	Submarine Pipeline  PT 2 OF 3	Chart No. 1: L40.1	N 28 03' 29.450"	W 087 58' 39.890"	28.05818	-87.97775	LNM 39/12, 8th Dist	48	11360_1	9/26/2012
11360	Add	Submarine Pipeline  PT 3 OF 3	Chart No. 1: L40.1	N 28 05' 05.660"	W 087 59' 08.800"	28.08491	-87.98578	LNM 39/12, 8th Dist	48	11360_1	9/26/2012
11360	Delete	Obstruction in Fathoms	10 3/4 Obstn       Chart No. 1: K41	N 30 13' 57.100"	W 087 11' 45.400"	30.23253	-87.19595	LNM 36/12, 8th Dist	48	11360_1	9/4/2012
11360	Delete	Obstruction in Fathoms	10 1/4 Obstn       Chart No. 1: K41	N 30 14' 28.800"	W 087 06' 41.300"	30.24133	-87.11147	LNM 36/12, 8th Dist	48	11360_1	9/4/2012
11360	Delete	Obstruction in Fathoms	10 1/2 Obstn       Chart No. 1: K41	N 30 15' 24.700"	W 087 12' 09.300"	30.25686	-87.20258	LNM 36/12, 8th Dist	48	11360_1	9/4/2012
11360	Delete	Obstruction in Fathoms	10 1/4 Obstn       Chart No. 1: K41	N 30 16' 33.600"	W 087 00' 53.000"	30.276	-87.01472	LNM 36/12, 8th Dist	48	11360_1	9/4/2012
11360	Delete	Obstruction in Fathoms	9 1/2 Obstn       Chart No. 1: K41	N 30 14' 42.200"	W 087 12' 02.000"	30.24506	-87.20055	LNM 36/12, 8th Dist	48	11360_1	9/4/2012
11360	Delete	Obstruction in Fathoms	11 Obstn       Chart No. 1: K41	N 30 13' 04.700"	W 087 11' 49.600"	30.21797	-87.19711	LNM 36/12, 8th Dist	48	11360_1	9/4/2012
11360	Delete	Obstruction in Fathoms	10 1/4 Obstn       Chart No. 1: K41	N 30 14' 52.800"	W 087 07' 18.800"	30.248	-87.12189	LNM 36/12, 8th Dist	48	11360_1	9/4/2012
11360	Delete	Obstruction in Fathoms	9 3/4 Obstn       Chart No. 1: K41	N 30 15' 00.500"	W 087 05' 59.500"	30.25014	-87.09986	LNM 36/12, 8th Dist	48	11360_1	9/4/2012
11360	Delete	Wreck in Fathoms	10 Wk    Chart No. 1: K26	N 30 16' 09.300"	W 087 12' 23.900"	30.26925	-87.20664	LNM 36/12, 8th Dist	48	11360_1	9/4/2012
11360	Delete	Wreck in Fathoms	9 Wk    Chart No. 1: K26	N 30 16' 00.000"	W 087 13' 33.700"	30.26667	-87.22603	LNM 36/12, 8th Dist	48	11360_1	9/4/2012
11360	Delete	Minimum Size (2mm sq.) Dashed Fish Haven and Label	Obstn PA (rep 32 fms), Chart No.1 K46.2	N 29 05' 22.300"	W 088 43' 19.500"	29.08953	-88.72208	LNM 35/12, 8th Dist	48	11360_1	8/29/2012
11360	Add	Dashed Fish Haven PT 1 OF 4	Chart No. 1: K46.2	N 29 05' 36.495"	W 088 43' 49.105"	29.09347	-88.73031	LNM 35/12, 8th Dist	48	11360_1	8/29/2012
11360	Add	Dashed Fish Haven PT 2 OF 4	Chart No. 1: K46.2	N 29 05' 51.774"	W 088 43' 07.511"	29.09772	-88.71875	LNM 35/12, 8th Dist	48	11360_1	8/29/2012
11360	Add	Dashed Fish Haven PT 3 OF 4	Chart No. 1: K46.2	N 29 05' 15.241"	W 088 42' 50.119"	29.08757	-88.71392	LNM 35/12, 8th Dist	48	11360_1	8/29/2012
11360	Add	Dashed Fish Haven PT 4 OF 4	Chart No. 1: K46.2	N 29 04' 59.965"	W 088 43' 31.710"	29.08332	-88.72547	LNM 35/12, 8th Dist	48	11360_1	8/29/2012
11360	Add	Dashed Fish Haven Label	Fish Haven (auth min 16 fms)	N 29 05' 25.500"	W 088 43' 19.500"	29.09042	-88.72208	LNM 35/12, 8th Dist	48	11360_1	8/29/2012
11360	Add	Submarine Pipeline  PT 1 OF 12	Chart No. 1: L40.1	N 28 05' 07.100"	W 087 59' 09.600"	28.08531	-87.986	LNM 35/12, 8th Dist	48	11360_1	8/23/2012
11360	Add	Submarine Pipeline  PT 2 OF 12	Chart No. 1: L40.1	N 28 02' 54.500"	W 088 00' 46.000"	28.04847	-88.01278	LNM 35/12, 8th Dist	48	11360_1	8/23/2012
11360	Add	Submarine Pipeline  PT 3 OF 12	Chart No. 1: L40.1	N 28 00' 58.600"	W 088 01' 21.100"	28.01628	-88.02253	LNM 35/12, 8th Dist	48	11360_1	8/23/2012
11360	Add	Submarine Pipeline  PT 4 OF 12	Chart No. 1: L40.1	N 27 59' 27.000"	W 088 01' 16.000"	27.99083	-88.02111	LNM 35/12, 8th Dist	48	11360_1	8/23/2012
11360	Add	Submarine Pipeline  PT 5 OF 12	Chart No. 1: L40.1	N 27 55' 00.400"	W 087 59' 34.400"	27.91678	-87.99289	LNM 35/12, 8th Dist	48	11360_1	8/23/2012
11360	Add	Submarine Pipeline  PT 6 OF 12	Chart No. 1: L40.1	N 27 49' 43.700"	W 087 56' 20.400"	27.82881	-87.939	LNM 35/12, 8th Dist	48	11360_1	8/23/2012
11360	Add	Submarine Pipeline  PT 7 OF 12	Chart No. 1: L40.1	N 27 43' 44.500"	W 087 54' 49.200"	27.72903	-87.91367	LNM 35/12, 8th Dist	48	11360_1	8/23/2012
11360	Add	Submarine Pipeline  PT 8 OF 12	Chart No. 1: L40.1	N 27 38' 19.600"	W 087 55' 59.000"	27.63878	-87.93305	LNM 35/12, 8th Dist	48	11360_1	8/23/2012
11360	Add	Submarine Pipeline  PT 9 OF 12	Chart No. 1: L40.1	N 27 36' 51.100"	W 087 55' 07.200"	27.61419	-87.91866	LNM 35/12, 8th Dist	48	11360_1	8/23/2012
11360	Add	Submarine Pipeline  PT 10 OF 12	Chart No. 1: L40.1	N 27 35' 31.800"	W 087 51' 38.200"	27.59217	-87.86061	LNM 35/12, 8th Dist	48	11360_1	8/23/2012
11360	Add	Submarine Pipeline  PT 11 OF 12	Chart No. 1: L40.1	N 27 34' 15.000"	W 087 48' 52.000"	27.57083	-87.81445	LNM 35/12, 8th Dist	48	11360_1	8/23/2012
11360	Add	Submarine Pipeline  PT 12 OF 12	Chart No. 1: L40.1	N 27 33' 23.500"	W 087 46' 12.300"	27.55653	-87.77008	LNM 35/12, 8th Dist	48	11360_1	8/23/2012
11360	Add	Submarine Pipeline  PT 1 OF 4	Chart No. 1: L40.1	N 28 05' 07.100"	W 087 59' 09.600"	28.08531	-87.986	LNM 35/12, 8th Dist	48	11360_1	8/23/2012
11360	Add	Submarine Pipeline  PT 2 OF 4	Chart No. 1: L40.1	N 28 01' 52.200"	W 088 00' 47.300"	28.03117	-88.01314	LNM 35/12, 8th Dist	48	11360_1	8/23/2012
11360	Add	Submarine Pipeline  PT 3 OF 4	Chart No. 1: L40.1	N 28 00' 36.600"	W 088 01' 05.200"	28.01017	-88.01811	LNM 35/12, 8th Dist	48	11360_1	8/23/2012
11360	Add	Submarine Pipeline  PT 4 OF 4	Chart No. 1: L40.1	N 27 58' 37.200"	W 088 01' 01.800"	27.977	-88.01717	LNM 35/12, 8th Dist	48	11360_1	8/23/2012
11360	Add	Submarine Pipeline  PT 1 OF 6	Chart No. 1: L40.1	N 27 39' 47.700"	W 087 55' 40.200"	27.66325	-87.92783	LNM 35/12, 8th Dist	48	11360_1	8/23/2012
11360	Add	Submarine Pipeline  PT 2 OF 6	Chart No. 1: L40.1	N 27 39' 40.900"	W 087 55' 05.500"	27.66136	-87.9182	LNM 35/12, 8th Dist	48	11360_1	8/23/2012
11360	Add	Submarine Pipeline  PT 3 OF 6	Chart No. 1: L40.1	N 27 39' 27.500"	W 087 54' 38.900"	27.65764	-87.9108	LNM 35/12, 8th Dist	48	11360_1	8/23/2012
11360	Add	Submarine Pipeline  PT 4 OF 6	Chart No. 1: L40.1	N 27 34' 02.800"	W 087 47' 51.200"	27.56744	-87.79755	LNM 35/12, 8th Dist	48	11360_1	8/23/2012
11360	Add	Submarine Pipeline  PT 5 OF 6	Chart No. 1: L40.1	N 27 33' 52.500"	W 087 46' 45.700"	27.56458	-87.77936	LNM 35/12, 8th Dist	48	11360_1	8/23/2012
11360	Add	Submarine Pipeline  PT 6 OF 6	Chart No. 1: L40.1	N 27 33' 25.800"	W 087 46' 11.800"	27.55717	-87.76994	LNM 35/12, 8th Dist	48	11360_1	8/23/2012
11360	Add	Dashed Fish Haven PT 1 OF 4	Chart No. 1: K46.2	N 29 20' 56.840"	W 088 48' 15.430"	29.34912	-88.80428	LNM 35/12, 8th Dist	48	11360_1	8/23/2012
11360	Add	Dashed Fish Haven PT 2 OF 4	Chart No. 1: K46.2	N 29 20' 55.970"	W 088 47' 30.240"	29.34888	-88.79173	LNM 35/12, 8th Dist	48	11360_1	8/23/2012
11360	Add	Dashed Fish Haven PT 3 OF 4	Chart No. 1: K46.2	N 29 20' 16.380"	W 088 47' 31.250"	29.33788	-88.79202	LNM 35/12, 8th Dist	48	11360_1	8/23/2012
11360	Add	Dashed Fish Haven PT 4 OF 4	Chart No. 1: K46.2	N 29 20' 17.250"	W 088 48' 16.430"	29.33813	-88.80457	LNM 35/12, 8th Dist	48	11360_1	8/23/2012
11360	Add	Dashed Fish Haven Label	Fish Haven (auth min 14 fms)	N 29 20' 36.420"	W 088 47' 55.200"	29.34345	-88.79867	LNM 35/12, 8th Dist	48	11360_1	8/23/2012
11360	Delete	Non-Dangerous Obstruction	Obstn PA (rep 14 fms)	N 29 20' 36.420"	W 088 47' 55.200"	29.34345	-88.79867	LNM 35/12, 8th Dist	48	11360_1	8/23/2012
11360	Change	Southwest Pass Entrance Lighted Buoy SW	RW "SW" Mo (A)	N 28 52' 39.100"	W 089 25' 55.000"	28.87753	-89.43195	LNM 31/12, 8th Dist	48	11360_1	8/13/2012
11360	Relocate	Southwest Pass Entrance Lighted Buoy SW	RW "SW" Mo (A)	N 28 52' 39.100"	W 089 25' 55.000"	28.87753	-89.43195	LNM 31/12, 8th Dist	48	11360_1	8/13/2012
11360	Add	Submarine Cable  PT 1 OF 2	Chart No. 1: L30.1	N 28 12' 56.070"	W 088 33' 22.820"	28.21557	-88.55634	LNM 32/12, 8th Dist	48	11360_1	8/6/2012
11360	Add	Submarine Cable  PT 2 OF 2	Chart No. 1: L30.1	N 28 13' 13.890"	W 088 31' 54.500"	28.22053	-88.53181	LNM 32/12, 8th Dist	48	11360_1	8/6/2012
11360	Add	Submarine Pipeline  PT 1 OF 3	Chart No. 1: L40.1	N 28 31' 15.470"	W 088 17' 20.940"	28.52096	-88.28915	LNM 32/12, 8th Dist	48	11360_1	8/6/2012
11360	Add	Submarine Pipeline  PT 2 OF 3	Chart No. 1: L40.1	N 28 30' 31.150"	W 088 19' 06.490"	28.50865	-88.31847	LNM 32/12, 8th Dist	48	11360_1	8/6/2012
11360	Add	Submarine Pipeline  PT 3 OF 3	Chart No. 1: L40.1	N 28 27' 29.250"	W 088 14' 46.770"	28.45812	-88.24632	LNM 32/12, 8th Dist	48	11360_1	8/6/2012
11360	Add	Submarine Pipeline  PT 1 OF 10	Chart No. 1: L40.1	N 28 31' 15.760"	W 088 17' 20.540"	28.52104	-88.28904	LNM 32/12, 8th Dist	48	11360_1	8/6/2012
11360	Add	Submarine Pipeline  PT 2 OF 10	Chart No. 1: L40.1	N 28 30' 43.430"	W 088 19' 20.060"	28.51206	-88.32224	LNM 32/12, 8th Dist	48	11360_1	8/6/2012
11360	Add	Submarine Pipeline  PT 3 OF 10	Chart No. 1: L40.1	N 28 29' 44.030"	W 088 19' 36.230"	28.49556	-88.32673	LNM 32/12, 8th Dist	48	11360_1	8/6/2012
11360	Add	Submarine Pipeline  PT 4 OF 10	Chart No. 1: L40.1	N 28 26' 39.390"	W 088 16' 37.770"	28.44427	-88.27716	LNM 32/12, 8th Dist	48	11360_1	8/6/2012
11360	Add	Submarine Pipeline  PT 5 OF 10	Chart No. 1: L40.1	N 28 27' 29.140"	W 088 14' 44.580"	28.45809	-88.24572	LNM 32/12, 8th Dist	48	11360_1	8/6/2012
11360	Add	Submarine Pipeline  PT 6 OF 10	Chart No. 1: L40.1	N 28 28' 06.190"	W 088 15' 01.250"	28.46839	-88.25035	LNM 32/12, 8th Dist	48	11360_1	8/6/2012
11360	Add	Submarine Pipeline  PT 7 OF 10	Chart No. 1: L40.1	N 28 29' 33.450"	W 088 19' 01.230"	28.49262	-88.31701	LNM 32/12, 8th Dist	48	11360_1	8/6/2012
11360	Add	Submarine Pipeline  PT 8 OF 10	Chart No. 1: L40.1	N 28 30' 24.030"	W 088 19' 20.860"	28.50668	-88.32246	LNM 32/12, 8th Dist	48	11360_1	8/6/2012
11360	Add	Submarine Pipeline  PT 9 OF 10	Chart No. 1: L40.1	N 28 30' 37.740"	W 088 19' 13.120"	28.51048	-88.32031	LNM 32/12, 8th Dist	48	11360_1	8/6/2012
11360	Add	Submarine Pipeline  PT 10 OF 10	Chart No. 1: L40.1	N 28 31' 15.610"	W 088 17' 20.580"	28.521	-88.28905	LNM 32/12, 8th Dist	48	11360_1	8/6/2012
11360	Add	Submarine Pipeline  PT 1 OF 2	Chart No. 1: L40.1	N 28 30' 30.540"	W 088 19' 07.720"	28.50848	-88.31881	LNM 32/12, 8th Dist	48	11360_1	8/6/2012
11360	Add	Submarine Pipeline  PT 2 OF 2	Chart No. 1: L40.1	N 28 26' 38.740"	W 088 16' 38.410"	28.44409	-88.27734	LNM 32/12, 8th Dist	48	11360_1	8/6/2012
11360	Add	Submarine Pipeline  PT 1 OF 2	Chart No. 1: L40.1	N 27 33' 24.110"	W 087 46' 10.200"	27.5567	-87.7695	LNM 32/12, 8th Dist	48	11360_1	8/6/2012
11360	Add	Submarine Pipeline  PT 2 OF 2	Chart No. 1: L40.1	N 27 33' 43.840"	W 087 44' 25.740"	27.56218	-87.74049	LNM 32/12, 8th Dist	48	11360_1	8/6/2012
11360	Add	Submarine Pipeline  PT 1 OF 4	Chart No. 1: L40.1	N 28 14' 11.900"	W 088 46' 25.600"	28.23664	-88.77378	LNM 30/12, 8th Dist	48	11360_1	7/19/2012
11360	Add	Submarine Pipeline  PT 2 OF 4	Chart No. 1: L40.1	N 28 13' 45.200"	W 088 46' 32.200"	28.22922	-88.77561	LNM 30/12, 8th Dist	48	11360_1	7/19/2012
11360	Add	Submarine Pipeline  PT 3 OF 4	Chart No. 1: L40.1	N 28 13' 35.600"	W 088 46' 21.300"	28.22655	-88.77258	LNM 30/12, 8th Dist	48	11360_1	7/19/2012
11360	Add	Submarine Pipeline  PT 4 OF 4	Chart No. 1: L40.1	N 28 12' 03.300"	W 088 45' 56.400"	28.20092	-88.76566	LNM 30/12, 8th Dist	48	11360_1	7/19/2012
11360	Delete	Arena Offshore-116-20 Lighted Buoy	W Or Fl 2.5s Priv	N 29 17' 01.860"	W 088 36' 24.668"	29.28385	-88.60685	LNM 26/12, 8th Dist	48	11360_1	7/2/2012
11360	Delete	Well	Well (cov 35 fms)      Chart No. 1: L20	N 29 17' 01.860"	W 088 36' 24.668"	29.28385	-88.60685	LNM 26/12, 8th Dist	48	11360_1	7/2/2012
11360	Add	SAIC Scientific Measurement Buoy A	Y "A" Fl Y 2.5s Priv	N 29 48' 56.400"	W 087 04' 14.520"	29.81567	-87.0707	LNM 24/12, 8th Dist	48	11360_1	6/19/2012
11360	Add	SAIC Scientific Measurement Buoy B	Y "B" Fl Y 2.5s Priv	N 29 54' 25.440"	W 087 08' 10.380"	29.90707	-87.13622	LNM 24/12, 8th Dist	48	11360_1	6/19/2012
11360	Add	SAIC Scientific Measurement Buoy C	Y "C" Fl Y 2.5s Priv	N 29 54' 04.020"	W 087 11' 38.220"	29.90112	-87.19395	LNM 24/12, 8th Dist	48	11360_1	6/19/2012
11360	Add	Arena Offshore-116-20 Lighted Buoy	W Or Fl 2.5s Priv	N 29 17' 01.860"	W 088 36' 24.668"	29.28385	-88.60685	LNM 24/12, 8th Dist	48	11360_1	6/19/2012
11360	Add	Well	Well (cov 35 fms)      Chart No. 1: L20	N 29 17' 01.860"	W 088 36' 24.668"	29.28385	-88.60685	LNM 24/12, 8th Dist	48	11360_1	6/19/2012
11360	Delete	Dangerous Wreck	PA      Chart No. 1: K28	N 30 12' 00.000"	W 087 17' 00.000"	30.2	-87.28333	LNM 25/12, 8th Dist	48	11360_1	6/14/2012
11360	Add	Obstruction in Fathoms	11 Obstn       Chart No. 1: K41	N 30 09' 38.928"	W 087 22' 31.465"	30.16081	-87.3754	LNM 25/12, 8th Dist	48	11360_1	6/14/2012
11360	Add	Obstruction in Fathoms	10 Obstn       Chart No. 1: K41	N 30 10' 07.482"	W 087 22' 10.060"	30.16875	-87.36946	LNM 25/12, 8th Dist	48	11360_1	6/14/2012
11360	Add	Obstruction in Fathoms	9 1/2 Obstn       Chart No. 1: K41	N 30 11' 00.868"	W 087 18' 20.912"	30.18357	-87.30581	LNM 25/12, 8th Dist	48	11360_1	6/14/2012
11360	Add	Obstruction in Fathoms	10 Obstn       Chart No. 1: K41	N 30 11' 10.818"	W 087 22' 05.033"	30.18634	-87.36806	LNM 25/12, 8th Dist	48	11360_1	6/14/2012
11360	Add	Obstruction in Fathoms	11 Obstn       Chart No. 1: K41	N 30 11' 33.898"	W 087 19' 28.461"	30.19275	-87.32457	LNM 25/12, 8th Dist	48	11360_1	6/14/2012
11360	Add	Obstruction in Fathoms	10 Obstn       Chart No. 1: K41	N 30 11' 53.597"	W 087 22' 29.308"	30.19822	-87.37481	LNM 25/12, 8th Dist	48	11360_1	6/14/2012
11360	Delete	Wreck in Fathoms	8 1/2 Wk    Chart No. 1: K26	N 30 13' 08.579"	W 087 19' 20.312"	30.21905	-87.32231	LNM 25/12, 8th Dist	48	11360_1	6/14/2012
11360	Add	Obstruction in Fathoms	10 Obstn       Chart No. 1: K41	N 30 09' 58.255"	W 087 18' 35.827"	30.16618	-87.30995	LNM 25/12, 8th Dist	48	11360_1	6/14/2012
11360	Delete	Dangerous Wreck	PA      Chart No. 1: K28	N 30 13' 15.719"	W 087 18' 41.900"	30.22103	-87.31164	LNM 25/12, 8th Dist	48	11360_1	6/14/2012
11360	Delete	Obstruction in Fathoms	10 Obstn       Chart No. 1: K41	N 30 13' 19.762"	W 087 16' 19.020"	30.22216	-87.27195	LNM 25/12, 8th Dist	48	11360_1	6/14/2012
11360	Add	Wreck in Fathoms	10 Wk    Chart No. 1: K26	N 30 13' 08.690"	W 087 19' 22.547"	30.21908	-87.32293	LNM 25/12, 8th Dist	48	11360_1	6/14/2012
11360	Delete	Obstruction	Obstns         Chart No. 1: K40	N 30 13' 10.538"	W 087 17' 24.573"	30.21959	-87.29016	LNM 25/12, 8th Dist	48	11360_1	6/14/2012
11360	Delete	Obstruction in Fathoms	9 1/2 Obstn       Chart No. 1: K41	N 30 12' 21.952"	W 087 16' 35.639"	30.2061	-87.27657	LNM 25/12, 8th Dist	48	11360_1	6/14/2012
11360	Delete	Wreck in Fathoms	9 1/2 Wk    Chart No. 1: K26	N 30 12' 56.261"	W 087 21' 58.658"	30.21563	-87.36629	LNM 25/12, 8th Dist	48	11360_1	6/14/2012
11360	Add	Obstruction in Fathoms	9 1/2 Obstn       Chart No. 1: K41	N 30 09' 54.504"	W 087 20' 09.677"	30.16514	-87.33602	LNM 25/12, 8th Dist	48	11360_1	6/14/2012
11360	Delete	Wreck in Fathoms	8 Wk    Chart No. 1: K26	N 30 10' 47.129"	W 087 17' 40.729"	30.17976	-87.29465	LNM 25/12, 8th Dist	48	11360_1	6/14/2012
11360	Add	Obstruction in Fathoms	9 1/2 Obstn       Chart No. 1: K41	N 30 12' 49.630"	W 087 17' 40.321"	30.21379	-87.29453	LNM 25/12, 8th Dist	48	11360_1	6/14/2012
11360	Add	Well	Well (cov 24 fms)      Chart No. 1: L20	N 29 33' 09.118"	W 088 20' 20.624"	29.55253	-88.33907	LNM 22/12, 8th Dist	48	11360_1	6/5/2012
11360	Add	Tana-117-20 Lighted Buoy	W Or Fl 2.5s Priv	N 29 33' 09.118"	W 088 20' 20.624"	29.55253	-88.33907	LNM 22/12, 8th Dist	48	11360_1	6/5/2012
11360	Relocate	Platform (Stone Energy-500-1)	Chart No. 1: L10	N 28 58' 39.000"	W 088 37' 55.000"	28.9775	-88.63194	LNM 21/12, 8th Dist	48	11360_1	5/30/2012
11360	Add	Obstruction in Fathoms	10 Obstn       Chart No. 1: K41	N 30 16' 47.940"	W 086 26' 01.690"	30.27998	-86.4338	LNM 22/12, 8th Dist	48	11360_1	5/24/2012
11360	Delete	Dangerous Wreck	PA      Chart No. 1: K28	N 30 15' 48.000"	W 086 20' 06.000"	30.26333	-86.335	LNM 22/12, 8th Dist	48	11360_1	5/24/2012
11360	Delete	Obstruction in Fathoms	9 1/2 Obstn       Chart No. 1: K41	N 30 11' 33.900"	W 087 25' 12.840"	30.19275	-87.42023	LNM 20/12, 8th Dist	48	11360_1	5/9/2012
11360	Add	Obstruction in Fathoms	7 1/2 Obstn       Chart No. 1: K41	N 30 10' 46.740"	W 087 31' 03.060"	30.17965	-87.51752	LNM 20/12, 8th Dist	48	11360_1	5/9/2012
11360	Delete	Obstruction	Obstn PA 12 1/2 fms rep 1986         Chart No. 1: K40	N 30 11' 21.230"	W 087 27' 21.060"	30.18923	-87.45585	LNM 20/12, 8th Dist	48	11360_1	5/9/2012
11360	Delete	Obstruction in Fathoms	9 1/2 Obstn       Chart No. 1: K41	N 30 11' 47.220"	W 087 27' 24.330"	30.19645	-87.45676	LNM 20/12, 8th Dist	48	11360_1	5/9/2012
11360	Change	Obstruction	Obstn PA (cov 2 1/2 fms) Rep 2011         Chart No. 1: K40	N 29 43' 15.900"	W 085 28' 31.800"	29.72108	-85.4755	LNM 20/12, 8th Dist	48	11360_1	5/7/2012
11360	Delete	Platform (Bandon-101-1)	Chart No. 1: L10	N 29 44' 03.376"	W 088 28' 54.438"	29.73427	-88.48179	LNM 17/12, 8th Dist	48	11360_1	4/30/2012
11360	Add	TEC-MC-20 Buoy	Y Priv	N 28 56' 12.600"	W 088 58' 10.300"	28.93683	-88.96953	WNM 16/12, NGA	48	11360_1	4/18/2012
11360	Add	Submerged Obstruction	Obstn PA          Chart No. 1: K40	N 28 51' 47.300"	W 089 24' 13.400"	28.86314	-89.40372	LNM 15/12, 8th Dist	48	11360_1	4/18/2012
11360	Add	Submarine Pipeline  PT 1 OF 2	Chart No. 1: L40.1	N 28 26' 16.173"	W 089 04' 49.479"	28.43783	-89.08041	LNM 15/12, 8th Dist	48	11360_1	4/10/2012
11360	Add	Submarine Pipeline  PT 2 OF 2	Chart No. 1: L40.1	N 28 27' 07.722"	W 089 05' 07.227"	28.45214	-89.08534	LNM 15/12, 8th Dist	48	11360_1	4/10/2012
11360	Add	Submarine Pipeline  PT 1 OF 8	Chart No. 1: L40.1	N 28 24' 56.860"	W 089 00' 57.130"	28.41579	-89.01587	LNM 15/12, 8th Dist	48	11360_1	4/10/2012
11360	Add	Submarine Pipeline  PT 2 OF 8	Chart No. 1: L40.1	N 28 24' 46.810"	W 088 58' 38.630"	28.413	-88.97739	LNM 15/12, 8th Dist	48	11360_1	4/10/2012
11360	Add	Submarine Pipeline  PT 3 OF 8	Chart No. 1: L40.1	N 28 25' 30.900"	W 088 55' 53.920"	28.42525	-88.93165	LNM 15/12, 8th Dist	48	11360_1	4/10/2012
11360	Add	Submarine Pipeline  PT 4 OF 8	Chart No. 1: L40.1	N 28 25' 42.010"	W 088 52' 17.200"	28.42834	-88.87144	LNM 15/12, 8th Dist	48	11360_1	4/10/2012
11360	Add	Submarine Pipeline  PT 5 OF 8	Chart No. 1: L40.1	N 28 25' 15.560"	W 088 50' 30.190"	28.42099	-88.84172	LNM 15/12, 8th Dist	48	11360_1	4/10/2012
11360	Add	Submarine Pipeline  PT 6 OF 8	Chart No. 1: L40.1	N 28 25' 08.460"	W 088 49' 23.970"	28.41902	-88.82333	LNM 15/12, 8th Dist	48	11360_1	4/10/2012
11360	Add	Submarine Pipeline  PT 7 OF 8	Chart No. 1: L40.1	N 28 24' 41.050"	W 088 47' 31.830"	28.4114	-88.79218	LNM 15/12, 8th Dist	48	11360_1	4/10/2012
11360	Add	Submarine Pipeline  PT 8 OF 8	Chart No. 1: L40.1	N 28 24' 39.290"	W 088 44' 21.340"	28.41091	-88.73926	LNM 15/12, 8th Dist	48	11360_1	4/10/2012
11360	Add	Submarine Pipeline  PT 1 OF 6	Chart No. 1: L40.1	N 28 24' 55.910"	W 089 00' 59.840"	28.41553	-89.01662	LNM 15/12, 8th Dist	48	11360_1	4/10/2012
11360	Add	Submarine Pipeline  PT 2 OF 6	Chart No. 1: L40.1	N 28 23' 16.940"	W 089 02' 51.940"	28.38804	-89.04776	LNM 15/12, 8th Dist	48	11360_1	4/10/2012
11360	Add	Submarine Pipeline  PT 3 OF 6	Chart No. 1: L40.1	N 28 21' 08.480"	W 089 07' 41.100"	28.35236	-89.12808	LNM 15/12, 8th Dist	48	11360_1	4/10/2012
11360	Add	Submarine Pipeline  PT 4 OF 6	Chart No. 1: L40.1	N 28 19' 32.510"	W 089 09' 46.830"	28.3257	-89.16301	LNM 15/12, 8th Dist	48	11360_1	4/10/2012
11360	Add	Submarine Pipeline  PT 5 OF 6	Chart No. 1: L40.1	N 28 18' 01.200"	W 089 11' 38.260"	28.30033	-89.19396	LNM 15/12, 8th Dist	48	11360_1	4/10/2012
11360	Add	Submarine Pipeline  PT 6 OF 6	Chart No. 1: L40.1	N 28 15' 09.830"	W 089 15' 11.720"	28.25273	-89.25326	LNM 15/12, 8th Dist	48	11360_1	4/10/2012
11360	Add	Submarine Pipeline  PT 1 OF 7	Chart No. 1: L40.1	N 28 26' 41.500"	W 089 02' 38.600"	28.44486	-89.04405	LNM 15/12, 8th Dist	48	11360_1	4/10/2012
11360	Add	Submarine Pipeline  PT 2 OF 7	Chart No. 1: L40.1	N 28 26' 36.440"	W 089 02' 35.550"	28.44345	-89.04321	LNM 15/12, 8th Dist	48	11360_1	4/10/2012
11360	Add	Submarine Pipeline  PT 3 OF 7	Chart No. 1: L40.1	N 28 26' 32.550"	W 089 02' 41.760"	28.44238	-89.04494	LNM 15/12, 8th Dist	48	11360_1	4/10/2012
11360	Add	Submarine Pipeline  PT 4 OF 7	Chart No. 1: L40.1	N 28 26' 29.690"	W 089 02' 39.410"	28.44158	-89.04428	LNM 15/12, 8th Dist	48	11360_1	4/10/2012
11360	Add	Submarine Pipeline  PT 5 OF 7	Chart No. 1: L40.1	N 28 26' 31.550"	W 089 02' 32.030"	28.4421	-89.04223	LNM 15/12, 8th Dist	48	11360_1	4/10/2012
11360	Add	Submarine Pipeline  PT 6 OF 7	Chart No. 1: L40.1	N 28 25' 53.380"	W 089 02' 04.020"	28.43149	-89.03445	LNM 15/12, 8th Dist	48	11360_1	4/10/2012
11360	Add	Submarine Pipeline  PT 7 OF 7	Chart No. 1: L40.1	N 28 24' 56.830"	W 089 00' 59.580"	28.41579	-89.01655	LNM 15/12, 8th Dist	48	11360_1	4/10/2012
11360	Add	Submarine Pipeline  PT 1 OF 6	Chart No. 1: L40.1	N 28 27' 38.780"	W 089 00' 39.960"	28.46077	-89.0111	LNM 15/12, 8th Dist	48	11360_1	4/10/2012
11360	Add	Submarine Pipeline  PT 2 OF 6	Chart No. 1: L40.1	N 28 27' 33.860"	W 089 00' 40.730"	28.45941	-89.01131	LNM 15/12, 8th Dist	48	11360_1	4/10/2012
11360	Add	Submarine Pipeline  PT 3 OF 6	Chart No. 1: L40.1	N 28 27' 29.380"	W 089 00' 33.060"	28.45816	-89.00919	LNM 15/12, 8th Dist	48	11360_1	4/10/2012
11360	Add	Submarine Pipeline  PT 4 OF 6	Chart No. 1: L40.1	N 28 27' 27.060"	W 089 00' 33.780"	28.45752	-89.00938	LNM 15/12, 8th Dist	48	11360_1	4/10/2012
11360	Add	Submarine Pipeline  PT 5 OF 6	Chart No. 1: L40.1	N 28 27' 27.840"	W 089 00' 41.400"	28.45773	-89.0115	LNM 15/12, 8th Dist	48	11360_1	4/10/2012
11360	Add	Submarine Pipeline  PT 6 OF 6	Chart No. 1: L40.1	N 28 24' 56.470"	W 089 00' 57.910"	28.41569	-89.01608	LNM 15/12, 8th Dist	48	11360_1	4/10/2012
11360	Add	Submarine Pipeline  PT 1 OF 4	Chart No. 1: L40.1	N 28 26' 41.830"	W 089 02' 37.830"	28.44495	-89.04384	LNM 15/12, 8th Dist	48	11360_1	4/10/2012
11360	Add	Submarine Pipeline  PT 2 OF 4	Chart No. 1: L40.1	N 28 25' 58.800"	W 089 01' 45.620"	28.433	-89.02934	LNM 15/12, 8th Dist	48	11360_1	4/10/2012
11360	Add	Submarine Pipeline  PT 3 OF 4	Chart No. 1: L40.1	N 28 25' 28.440"	W 089 01' 21.860"	28.42457	-89.02274	LNM 15/12, 8th Dist	48	11360_1	4/10/2012
11360	Add	Submarine Pipeline  PT 4 OF 4	Chart No. 1: L40.1	N 28 24' 56.010"	W 089 00' 58.110"	28.41556	-89.01614	LNM 15/12, 8th Dist	48	11360_1	4/10/2012
11360	Add	Submarine Pipeline  PT 1 OF 4	Chart No. 1: L40.1	N 28 27' 39.520"	W 089 00' 40.850"	28.46098	-89.01134	LNM 15/12, 8th Dist	48	11360_1	4/10/2012
11360	Add	Submarine Pipeline  PT 2 OF 4	Chart No. 1: L40.1	N 28 26' 49.690"	W 089 01' 00.220"	28.44714	-89.01673	LNM 15/12, 8th Dist	48	11360_1	4/10/2012
11360	Add	Submarine Pipeline  PT 3 OF 4	Chart No. 1: L40.1	N 28 25' 58.580"	W 089 01' 09.550"	28.43294	-89.01932	LNM 15/12, 8th Dist	48	11360_1	4/10/2012
11360	Add	Submarine Pipeline  PT 4 OF 4	Chart No. 1: L40.1	N 28 24' 57.620"	W 089 00' 58.600"	28.41601	-89.01628	LNM 15/12, 8th Dist	48	11360_1	4/10/2012
11360	Add	Submarine Pipeline  PT 1 OF 4	Chart No. 1: L40.1	N 28 27' 39.520"	W 089 00' 40.850"	28.46098	-89.01134	LNM 15/12, 8th Dist	48	11360_1	4/10/2012
11360	Add	Submarine Pipeline  PT 2 OF 4	Chart No. 1: L40.1	N 28 26' 59.270"	W 089 01' 14.150"	28.4498	-89.0206	LNM 15/12, 8th Dist	48	11360_1	4/10/2012
11360	Add	Submarine Pipeline  PT 3 OF 4	Chart No. 1: L40.1	N 28 26' 04.360"	W 089 01' 24.020"	28.43454	-89.02334	LNM 15/12, 8th Dist	48	11360_1	4/10/2012
11360	Add	Submarine Pipeline  PT 4 OF 4	Chart No. 1: L40.1	N 28 24' 57.590"	W 089 00' 58.680"	28.416	-89.0163	LNM 15/12, 8th Dist	48	11360_1	4/10/2012
11360	Add	Submarine Pipeline  PT 1 OF 4	Chart No. 1: L40.1	N 28 26' 42.550"	W 089 02' 37.350"	28.44515	-89.04371	LNM 15/12, 8th Dist	48	11360_1	4/10/2012
11360	Add	Submarine Pipeline  PT 2 OF 4	Chart No. 1: L40.1	N 28 26' 23.490"	W 089 01' 56.530"	28.43986	-89.03237	LNM 15/12, 8th Dist	48	11360_1	4/10/2012
11360	Add	Submarine Pipeline  PT 3 OF 4	Chart No. 1: L40.1	N 28 25' 46.200"	W 089 01' 22.740"	28.4295	-89.02298	LNM 15/12, 8th Dist	48	11360_1	4/10/2012
11360	Add	Submarine Pipeline  PT 4 OF 4	Chart No. 1: L40.1	N 28 24' 57.390"	W 089 00' 59.250"	28.41594	-89.01646	LNM 15/12, 8th Dist	48	11360_1	4/10/2012
11360	Add	Platform (Coastal-106-8)	Chart No. 1: L10	N 29 21' 26.553"	W 087 58' 42.930"	29.35738	-87.97859	LNM 12/12, 8th Dist	48	11360_1	3/28/2012
11360	Add	Submarine Pipeline  PT 1 OF 7	Chart No. 1: L40.1	N 28 14' 54.470"	W 089 29' 56.830"	28.24846	-89.49912	LNM 12/12, 8th Dist	48	11360_1	3/14/2012
11360	Add	Submarine Pipeline  PT 2 OF 7	Chart No. 1: L40.1	N 28 21' 05.880"	W 089 26' 48.330"	28.35163	-89.44676	LNM 12/12, 8th Dist	48	11360_1	3/14/2012
11360	Add	Submarine Pipeline  PT 3 OF 7	Chart No. 1: L40.1	N 28 21' 39.930"	W 089 26' 42.830"	28.36109	-89.44523	LNM 12/12, 8th Dist	48	11360_1	3/14/2012
11360	Add	Submarine Pipeline  PT 4 OF 7	Chart No. 1: L40.1	N 28 23' 33.040"	W 089 27' 12.530"	28.39251	-89.45348	LNM 12/12, 8th Dist	48	11360_1	3/14/2012
11360	Add	Submarine Pipeline  PT 5 OF 7	Chart No. 1: L40.1	N 28 20' 42.730"	W 089 27' 03.060"	28.3452	-89.45085	LNM 12/12, 8th Dist	48	11360_1	3/14/2012
11360	Add	Submarine Pipeline  PT 6 OF 7	Chart No. 1: L40.1	N 28 21' 13.760"	W 089 27' 01.080"	28.35382	-89.4503	LNM 12/12, 8th Dist	48	11360_1	3/14/2012
11360	Add	Submarine Pipeline  PT 7 OF 7	Chart No. 1: L40.1	N 28 23' 33.040"	W 089 27' 12.530"	28.39251	-89.45348	LNM 12/12, 8th Dist	48	11360_1	3/14/2012
11360	Delete	South Pass Lighted Bell Buoy 2	R "2" Fl R 2.5s BELL	N 28 58' 43.146"	W 089 06' 31.243"	28.97865	-89.10868	LNM 10/12, 8th Dist	48	11360_1	3/12/2012
11360	Add	Submarine Pipeline  PT 1 OF 4	Chart No. 1: L40.1	N 28 42' 07.400"	W 088 35' 45.000"	28.70205	-88.59583	LNM 10/12, 8th Dist	48	11360_1	2/27/2012
11360	Add	Submarine Pipeline  PT 2 OF 4	Chart No. 1: L40.1	N 28 42' 23.800"	W 088 36' 07.100"	28.70661	-88.60197	LNM 10/12, 8th Dist	48	11360_1	2/27/2012
11360	Add	Submarine Pipeline  PT 3 OF 4	Chart No. 1: L40.1	N 28 44' 10.500"	W 088 35' 56.300"	28.73625	-88.59897	LNM 10/12, 8th Dist	48	11360_1	2/27/2012
11360	Add	Submarine Pipeline  PT 4 OF 4	Chart No. 1: L40.1	N 29 04' 01.200"	W 088 42' 00.000"	29.067	-88.7	LNM 10/12, 8th Dist	48	11360_1	2/27/2012
11360	Add	Submarine Pipeline  PT 1 OF 4	Chart No. 1: L40.1	N 29 33' 21.354"	W 088 38' 31.900"	29.55593	-88.6422	LNM 08/12, 8th Dist	48	11360_1	2/27/2012
11360	Add	Submarine Pipeline  PT 2 OF 4	Chart No. 1: L40.1	N 29 33' 06.807"	W 088 39' 14.153"	29.55189	-88.65393	LNM 08/12, 8th Dist	48	11360_1	2/27/2012
11360	Add	Submarine Pipeline  PT 3 OF 4	Chart No. 1: L40.1	N 29 33' 06.634"	W 088 39' 18.399"	29.55184	-88.65511	LNM 08/12, 8th Dist	48	11360_1	2/27/2012
11360	Add	Submarine Pipeline  PT 4 OF 4	Chart No. 1: L40.1	N 29 33' 10.143"	W 088 39' 35.919"	29.55282	-88.65998	LNM 08/12, 8th Dist	48	11360_1	2/27/2012
11360	Relocate	Platform (Tana-117-14)	Chart No. 1: L10	N 29 20' 48.015"	W 088 16' 53.788"	29.34667	-88.28161	LNM 07/12, 8th Dist	48	11360_1	2/27/2012
11360	Add	Submarine Pipeline  PT 1 OF 5	Chart No. 1: L40.1	N 28 45' 58.900"	W 089 24' 20.400"	28.76636	-89.40567	LNM 08/12, 8th Dist	48	11360_1	2/16/2012
11360	Add	Submarine Pipeline  PT 2 OF 5	Chart No. 1: L40.1	N 28 45' 38.200"	W 089 24' 15.300"	28.76061	-89.40425	LNM 08/12, 8th Dist	48	11360_1	2/16/2012
11360	Add	Submarine Pipeline  PT 3 OF 5	Chart No. 1: L40.1	N 28 45' 05.500"	W 089 24' 24.900"	28.75153	-89.40691	LNM 08/12, 8th Dist	48	11360_1	2/16/2012
11360	Add	Submarine Pipeline  PT 4 OF 5	Chart No. 1: L40.1	N 28 43' 14.300"	W 089 26' 14.000"	28.72064	-89.43723	LNM 08/12, 8th Dist	48	11360_1	2/16/2012
11360	Add	Submarine Pipeline  PT 5 OF 5	Chart No. 1: L40.1	N 28 42' 40.800"	W 089 26' 15.800"	28.71133	-89.43772	LNM 08/12, 8th Dist	48	11360_1	2/16/2012
11360	Delete	Platform (Mariner-131-1)	Chart No. 1: L10	N 29 44' 14.643"	W 088 25' 46.235"	29.7374	-88.42951	LNM 05/12, 8th Dist	48	11360_1	2/6/2012
11360	Delete	Platform (Mariner-131-2)	Chart No. 1: L10	N 29 44' 35.350"	W 088 26' 45.502"	29.74315	-88.44598	LNM 05/12, 8th Dist	48	11360_1	2/6/2012
11360	Add	Submarine Pipeline  PT 1 OF 3	Chart No. 1: L40.1	N 29 10' 18.615"	W 088 36' 11.083"	29.17184	-88.60308	LNM 06/12, 8th Dist	48	11360_1	2/2/2012
11360	Add	Submarine Pipeline  PT 2 OF 3	Chart No. 1: L40.1	N 29 10' 26.035"	W 088 37' 19.620"	29.1739	-88.62212	LNM 06/12, 8th Dist	48	11360_1	2/2/2012
11360	Add	Submarine Pipeline  PT 3 OF 3	Chart No. 1: L40.1	N 29 11' 14.814"	W 088 40' 59.081"	29.18745	-88.68307	LNM 06/12, 8th Dist	48	11360_1	2/2/2012
11360	Add	Submarine Pipeline  PT 1 OF 3	Chart No. 1: L40.1	N 28 44' 19.820"	W 088 55' 47.400"	28.73884	-88.92983	LNM 47/11, 8th Dist	48	11360_1	11/18/2011
11360	Add	Submarine Pipeline  PT 2 OF 3	Chart No. 1: L40.1	N 28 50' 41.260"	W 088 55' 22.350"	28.8448	-88.92287	LNM 47/11, 8th Dist	48	11360_1	11/18/2011
11360	Add	Submarine Pipeline  PT 3 OF 3	Chart No. 1: L40.1	N 28 51' 52.360"	W 088 55' 49.930"	28.86454	-88.93053	LNM 47/11, 8th Dist	48	11360_1	11/18/2011
11360	Delete	Platform (Royal-103-8)	Chart No. 1: L10	N 30 00' 45.294"	W 087 58' 39.904"	30.01258	-87.97775	LNM 46/11, 8th Dist	48	11360_1	11/18/2011
11360	Delete	Platform (XTO Offshore-106-12)	Chart No. 1: L10	N 29 30' 56.619"	W 088 39' 12.157"	29.51573	-88.65337	LNM 44/11, 8th Dist	48	11360_1	11/9/2011
11360	Delete	Platform (Royal-103-7)	Chart No. 1: L10	N 29 59' 38.520"	W 088 00' 12.910"	29.99403	-88.00359	LNM 44/11, 8th Dist	48	11360_1	11/9/2011
11360	Add	Obstruction in Fathoms	9 Obstn Rep (2010)       Chart No. 1: K41	N 30 15' 03.262"	W 087 15' 02.769"	30.25091	-87.25077	LNM 43/11, 8th Dist	48	11360_1	10/26/2011
11360	Delete	Coastal-MO-959-A Racon	Racon (--.-)      Chart No. 1: S3.1	N 30 03' 59.702"	W 087 57' 18.637"	30.06658	-87.95518	LNM 40/11, 8th Dist	48	11360_1	10/13/2011
11360	Delete	Platform (Coastal-MO-959-A)	Chart No. 1: L10	N 30 03' 59.702"	W 087 57' 18.637"	30.06658	-87.95518	LNM 40/11, 8th Dist	48	11360_1	10/13/2011
11360	Delete	Platform (Nippon-100-11)	Chart No. 1: L10	N 29 40' 04.098"	W 088 37' 43.225"	29.6678	-88.62868	LNM 39/11, 8th Dist	48	11360_1	10/4/2011
11360	Delete	Platform (Nippon-100-10)	Chart No. 1: L10	N 29 39' 15.941"	W 088 37' 12.344"	29.65443	-88.62009	LNM 39/11, 8th Dist	48	11360_1	10/4/2011
11360	Add	Tana-117-01 Lighted Buoy	W Or Fl 2.5s Priv	N 29 32' 47.852"	W 088 21' 57.025"	29.54663	-88.36584	LNM 33/11, 8th Dist	48	11360_1	8/24/2011
11360	Delete	Platform (ENRON-111-16)	Chart No. 1: L10	N 29 56' 28.000"	W 088 06' 24.000"	29.94111	-88.10667	LNM 31/11, 8th Dist	48	11360_1	8/9/2011
11360	Delete	Platform (ENRON-110-1)	Chart No. 1: L10	N 29 51' 29.016"	W 087 54' 33.006"	29.85806	-87.90917	LNM 31/11, 8th Dist	48	11360_1	8/9/2011
11360	Delete	Platform (Maritech-114-1)	Chart No. 1: L10	N 29 37' 28.180"	W 088 34' 22.600"	29.62449	-88.57294	LNM 29/11, 8th Dist	48	11360_1	7/25/2011
11360	Add	Submarine Pipeline  PT 1 OF 3	Chart No. 1: L40.1	N 27 57' 01.700"	W 088 09' 11.500"	27.95047	-88.1532	LNM 27/11, 8th Dist	48	11360_1	7/5/2011
11360	Add	Submarine Pipeline  PT 2 OF 3	Chart No. 1: L40.1	N 27 58' 29.300"	W 088 09' 10.800"	27.97481	-88.153	LNM 27/11, 8th Dist	48	11360_1	7/5/2011
11360	Add	Submarine Pipeline  PT 3 OF 3	Chart No. 1: L40.1	N 28 08' 07.100"	W 088 00' 23.400"	28.13531	-88.0065	LNM 27/11, 8th Dist	48	11360_1	7/5/2011
11360	Add	Platform: Apache-101-39	Chart No. 1: L10	N 29 10' 17.818"	W 088 36' 11.003"	29.17162	-88.60306	LNM 25/11, 8th Dist	48	11360_1	6/28/2011
11360	Delete	Well	Well (cov 25 fms)	N 29 32' 47.852"	W 088 21' 57.025"	29.54663	-88.36584	LNM 15/11, 8th Dist	48	11360_1	4/18/2011
11360	Delete	Lighted Buoy	W Or Fl 2.5s Priv	N 29 32' 47.852"	W 088 21' 57.025"	29.54663	-88.36584	LNM 15/11, 8th Dist	48	11360_1	4/18/2011
11360	Add	Label: LOWER MISSISSIPPI RIVER VESSEL TRAFFIC SERVICES AREA (see note B)	LOWER MISSISSIPPI RIVER VESSEL TRAFFIC SERVICES AREA (see note B)	N 28 48' 22.150"	W 089 20' 56.490"	28.80615	-89.34902	LNM 16/11, 8th Dist	48	11360_1	4/13/2011
11360	Add	Note B	The U.S. Coast Guard operates a mandatory Vessel Traffic Services (VTS) system in the Lower Mississippi River. Vessel operating procedures and designated radiotelephone frequencies are published in 33 CFR 161, the U.S. Coast Pilot, and/or the VTS User's Manual. Mariners should consult these sources for applicable rules and reporting requirements. Although mandatory VTS participation is limited to the navigable waters of the United States, certain vessels are encouraged or may be required, as a condition of port entry, to report beyond this area to facilitate advance vessel traffic management within the VTS area.	N 30 31' 44.030"	W 087 40' 49.330"	30.5289	-87.68037	LNM 16/11, 8th Dist	48	11360_1	4/13/2011
11360	Add	Submarine Pipeline  PT 1 OF 5	None	N 29 06' 58.600"	W 088 03' 42.900"	29.11628	-88.06192	LNM 15/11, 8th Dist	48	11360_1	4/6/2011
11360	Add	Submarine Pipeline  PT 2 OF 5	None	N 29 07' 36.600"	W 088 03' 31.700"	29.12683	-88.05881	LNM 15/11, 8th Dist	48	11360_1	4/6/2011
11360	Add	Submarine Pipeline  PT 3 OF 5	None	N 29 08' 58.600"	W 088 02' 40.300"	29.14961	-88.04453	LNM 15/11, 8th Dist	48	11360_1	4/6/2011
11360	Add	Submarine Pipeline  PT 4 OF 5	None	N 29 09' 14.400"	W 088 02' 19.800"	29.154	-88.03883	LNM 15/11, 8th Dist	48	11360_1	4/6/2011
11360	Add	Submarine Pipeline  PT 5 OF 5	None	N 29 09' 40.300"	W 088 02' 18.900"	29.16119	-88.03858	LNM 15/11, 8th Dist	48	11360_1	4/6/2011
11360	Add	Submarine Pipeline  PT 1 OF 2	None	N 29 09' 40.300"	W 088 02' 20.600"	29.16119	-88.03905	LNM 15/11, 8th Dist	48	11360_1	4/6/2011
11360	Add	Submarine Pipeline  PT 2 OF 2	None	N 29 08' 14.200"	W 088 03' 15.400"	29.13728	-88.05428	LNM 15/11, 8th Dist	48	11360_1	4/6/2011
11360	Change	St Andrew Bay Entrance Lighted Buoy SA	RW "SA" Mo (A)	N 30 05' 29.735"	W 085 46' 25.752"	30.09159	-85.77382	LNM 13/11, 8th Dist	48	11360_1	4/4/2011
11360	Relocate	St Andrew Bay Entrance Lighted Buoy SA	RW "SA" Mo (A)	N 30 05' 29.735"	W 085 46' 25.752"	30.09159	-85.77382	LNM 13/11, 8th Dist	48	11360_1	4/4/2011
11360	Add	Obstruction	Obstn PA (cov 3 1/4 fms) Rep 2011         Chart No. 1: K40	N 29 43' 15.600"	W 085 28' 31.800"	29.721	-85.4755	LNM 08/11, 8th Dist	48	11360_1	2/25/2011
11360	Delete	Well	Well (cov 25 fms)     Chart No. 1: L20	N 29 26' 19.558"	W 088 38' 00.410"	29.43877	-88.63345	LNM 03/11, 8th Dist	48	11360_1	1/21/2011
11360	Add	Submarine Pipeline  PT 1 OF 9	Chart No. 1: L40.1	N 28 14' 13.700"	W 088 46' 26.000"	28.23714	-88.77389	LNM 02/11, 8th Dist	48	11360_1	1/7/2011
11360	Add	Submarine Pipeline  PT 2 OF 9	Chart No. 1: L40.1	N 28 12' 30.900"	W 088 47' 34.800"	28.20858	-88.793	LNM 02/11, 8th Dist	48	11360_1	1/7/2011
11360	Add	Submarine Pipeline  PT 3 OF 9	Chart No. 1: L40.1	N 28 11' 44.200"	W 088 44' 51.100"	28.19561	-88.74753	LNM 02/11, 8th Dist	48	11360_1	1/7/2011
11360	Add	Submarine Pipeline  PT 4 OF 9	Chart No. 1: L40.1	N 28 11' 44.300"	W 088 43' 32.100"	28.19564	-88.72559	LNM 02/11, 8th Dist	48	11360_1	1/7/2011
11360	Add	Submarine Pipeline  PT 5 OF 9	Chart No. 1: L40.1	N 28 12' 32.400"	W 088 44' 14.900"	28.209	-88.73747	LNM 02/11, 8th Dist	48	11360_1	1/7/2011
11360	Add	Submarine Pipeline  PT 6 OF 9	Chart No. 1: L40.1	N 28 12' 31.500"	W 088 45' 18.000"	28.20875	-88.755	LNM 02/11, 8th Dist	48	11360_1	1/7/2011
11360	Add	Submarine Pipeline  PT 7 OF 9	Chart No. 1: L40.1	N 28 14' 13.800"	W 088 46' 25.300"	28.23717	-88.7737	LNM 02/11, 8th Dist	48	11360_1	1/7/2011
11360	Add	Submarine Pipeline  PT 8 OF 9	Chart No. 1: L40.1	N 28 11' 59.900"	W 088 45' 01.700"	28.19997	-88.75047	LNM 02/11, 8th Dist	48	11360_1	1/7/2011
11360	Add	Submarine Pipeline  PT 9 OF 9	Chart No. 1: L40.1	N 28 11' 46.600"	W 088 44' 37.400"	28.19628	-88.74372	LNM 02/11, 8th Dist	48	11360_1	1/7/2011
11360	Delete	Dangerous Wreck	(6 fms rep)      Chart No. 1: K28	N 30 00' 57.480"	W 085 42' 00.180"	30.01597	-85.70005	LNM 02/11, 8th Dist	48	11360_1	1/7/2011
11360	Add	Well	Well (cov 25 fms)     Chart No. 1: L20	N 29 26' 19.558"	W 088 38' 00.410"	29.43877	-88.63345	LNM 51/10, 8th Dist	48	11360_1	12/27/2010
11360	Delete	Approximate Landmark in magenta	Cleaning sta, (see note B)	N 28 17' 00.000"	W 088 42' 00.000"	28.28333	-88.7	LNM 45/10, 8th Dist	48	11360_1	11/5/2010
11360	Delete	NOTE B	NOTE B  Information regarding cleaning stations for vessels that have been in contact with the current oil spill in the Gulf of Mexico can be found in U.S. Coast Guard Sector New Orleans Marine Safety Information Bulletin Volume X, Issue 106. This bulletin and other relevant information can be found at http://homeport.uscg.mil/nola.	N 27 30' 15.000"	W 087 50' 00.000"	27.50417	-87.83334	LNM 45/10, 8th Dist	48	11360_1	11/5/2010
11360	Delete	Approximate Landmark in magenta	Cleaning sta, (see note B)	N 28 50' 00.000"	W 089 24' 00.000"	28.83333	-89.4	LNM 45/10, 8th Dist	48	11360_1	11/5/2010
11360	Delete	Well	Well (cov 13 fms)     Chart No. 1: L20	N 29 34' 34.387"	W 088 36' 03.430"	29.57622	-88.60095	LNM 42/10, 8th Dist	48	11360_1	10/22/2010
