Chart: 13006, Current Edition: 36, Print Date: Jul. /2012, West Quoddy Head to New York
Chart	Action	Item Name	Charting Label	Latitude	Longitude	LatDD	LongDD	Published Document	Kapp	RNC Panel	RNC Posted
13006	Change	GANNET ROCK LIGHT	2Lts Oc 3s 13m 11M HORN RACON (--.)	N 44 30' 37.000"	W 066 46' 52.300"	44.51028	-66.7812	CNM 06/17, Canada	2155	13006_1	7/6/2017
13006	Delete	LIGHT	F G	N 44 39' 55.700"	W 065 49' 56.900"	44.66547	-65.83247	CNM 06/17, Canada	2155	13006_1	7/6/2017
13006	Change	RAM ISLAND LEDGE LIGHT	Fl (2) 6s 77ft 9M HORN (MRASS)	N 43 37' 53.290"	W 070 11' 14.562"	43.63147	-70.18738	LNM 26/17, 1st Dist	2155	13006_1	7/6/2017
13006	Change	HALFWAY ROCK LIGHT	Fl R 5s 76ft 19M (MRASS)	N 43 39' 20.800"	W 070 02' 12.426"	43.65578	-70.03678	LNM 22/17, 1st Dist	2155	13006_1	6/8/2017
13006	Relocate	NOAA ODAS BUOY 44008	Y ODAS "44008" Fl (4) Y 20s PA	N 40 30' 16.000"	W 069 14' 52.000"	40.50444	-69.24778	LNM 17/17, 1st Dist	2155	13006_1	5/4/2017
13006	Add	CARIBBEAN WIND LTD RESEARCH BUOY BW1	Y "BW1" Fl Y 4s Priv	N 40 55' 03.270"	W 070 55' 55.150"	40.91758	-70.93198	LNM 15/17, 1st Dist	2155	13006_1	4/20/2017
13006	Add	CARIBBEAN WIND LTD RESEARCH BUOY BW2	Y "BW2" Fl Y 4s Priv	N 41 07' 05.170"	W 070 39' 34.500"	41.1181	-70.65958	LNM 15/17, 1st Dist	2155	13006_1	4/20/2017
13006	Add	CARIBBEAN WIND LTD RESEARCH BUOY BW3	Y "BW3" Fl Y 10s Priv	N 41 07' 05.170"	W 070 34' 24.500"	41.1181	-70.57347	LNM 15/17, 1st Dist	2155	13006_1	4/20/2017
13006	Change	PETER ISLAND LIGHT	LFl G 6s 6M HORN	N 44 15' 26.400"	W 066 20' 15.300"	44.25733	-66.33759	CNM 03/17, Canada	2155	13006_1	4/13/2017
13006	Add	MANANA ISLAND VAIS 14M	V-AIS "14M"	N 43 45' 18.715"	W 069 22' 28.075"	43.7552	-69.37447	LNM 12/17, 1st Dist	2155	13006_1	3/30/2017
13006	Add	Obstruction	Unexploded ordnance (reported 2017)	N 39 45' 01.200"	W 073 23' 29.400"	39.75033	-73.3915	LNM 13/17, 1st Dist	2155	13006_1	3/30/2017
13006	Relocate	MOUNT DESERT LIGHT	F 15s 75ft 20M	N 43 58' 07.010"	W 068 07' 42.012"	43.96861	-68.12833	LNM 04/17, 1st Dist	2155	13006_1	2/2/2017
13006	Add	Submarine Cable  PT 1 OF 7	Chart No. 1: L30.1	N 41 06' 24.650"	W 071 32' 15.390"	41.10685	-71.53761	LNM 05/17, 1st Dist	2155	13006_1	2/2/2017
13006	Add	Submarine Cable  PT 2 OF 7	Chart No. 1: L30.1	N 41 06' 36.540"	W 071 31' 45.140"	41.11015	-71.52921	LNM 05/17, 1st Dist	2155	13006_1	2/2/2017
13006	Add	Submarine Cable  PT 3 OF 7	Chart No. 1: L30.1	N 41 06' 53.080"	W 071 31' 16.690"	41.11475	-71.5213	LNM 05/17, 1st Dist	2155	13006_1	2/2/2017
13006	Add	Submarine Cable  PT 4 OF 7	Chart No. 1: L30.1	N 41 07' 13.870"	W 071 30' 50.510"	41.12052	-71.51403	LNM 05/17, 1st Dist	2155	13006_1	2/2/2017
13006	Add	Submarine Cable  PT 5 OF 7	Chart No. 1: L30.1	N 41 07' 32.890"	W 071 30' 28.140"	41.1258	-71.50782	LNM 05/17, 1st Dist	2155	13006_1	2/2/2017
13006	Add	Submarine Cable  PT 6 OF 7	Chart No. 1: L30.1	N 41 07' 55.160"	W 071 30' 08.250"	41.13199	-71.50229	LNM 05/17, 1st Dist	2155	13006_1	2/2/2017
13006	Add	Submarine Cable  PT 7 OF 7	Chart No. 1: L30.1	N 41 10' 02.120"	W 071 30' 58.090"	41.16726	-71.51614	LNM 05/17, 1st Dist	2155	13006_1	2/2/2017
13006	Change	RAM ISLAND LEDGE LIGHT	Fl (2) 6s 77ft 8M HORN (MRASS)	N 43 37' 53.290"	W 070 11' 14.562"	43.63147	-70.18738	LNM 03/17, 1st Dist	2155	13006_1	1/26/2017
13006	Delete	WHOI LTD BUOY Z	Y "Z" Fl Y 4s Priv	N 41 15' 57.000"	W 071 01' 54.000"	41.26583	-71.03167	LNM 49/16, 1st Dist	2155	13006_1	12/15/2016
13006	Add	15 fathom sounding and label: Wk	15 Wk	N 42 18' 43.830"	W 070 17' 50.550"	42.31218	-70.29738	LNM 49/16, 1st Dist	2155	13006_1	12/8/2016
13006	Add	14 fathom sounding and label: Wk	14 Wk	N 42 10' 55.460"	W 070 13' 27.970"	42.18207	-70.22443	LNM 49/16, 1st Dist	2155	13006_1	12/8/2016
13006	Add	14 fathom sounding and label: Wk	14 Wk	N 42 23' 02.000"	W 070 21' 21.700"	42.38389	-70.35603	LNM 49/16, 1st Dist	2155	13006_1	12/8/2016
13006	Add	15 fathom sounding and label: Wk	15 Wk	N 42 22' 20.780"	W 070 22' 13.760"	42.37244	-70.37049	LNM 49/16, 1st Dist	2155	13006_1	12/8/2016
13006	Change	HIGHLAND LIGHT	Fl 5s 170ft 14M	N 42 02' 22.282"	W 070 03' 39.377"	42.03952	-70.06094	LNM 45/16, 1st Dist	2155	13006_1	11/17/2016
13006	Add	DEPTH IN FATHOMS	11	N 44 30' 36.000"	W 067 09' 36.000"	44.51	-67.16	WNM 36/16, NGA	2155	13006_1	9/1/2016
13006	Delete	DEPTH IN FEET	54	N 44 26' 52.000"	W 067 07' 19.000"	44.44778	-67.12195	WNM 36/16, NGA	2155	13006_1	9/1/2016
13006	Add	DEPTH IN FEET	47	N 44 26' 47.000"	W 067 07' 19.000"	44.44639	-67.12195	WNM 36/16, NGA	2155	13006_1	9/1/2016
13006	Relocate	NORTHEAST GATEWAY SUPPORT VESSEL MOORING BUOY	None	N 42 24' 01.800"	W 070 38' 42.600"	42.4005	-70.64516	LNM 31/16, 1st Dist	2155	13006_1	8/11/2016
13006	Add	NEMAC/SALEM STATE UNIVERSITY AQUACULTURE LTD BUOY A	Y "A" Fl Y 2s Priv	N 42 40' 59.998"	W 070 27' 00.000"	42.68333	-70.45	LNM 30/16, 1st Dist	2155	13006_1	8/4/2016
13006	Delete	SOUNDING IN FATHOMS	57	N 41 14' 48.000"	W 066 18' 54.000"	41.24667	-66.315	WNM 30/16, NGA	2155	13006_1	7/21/2016
13006	Delete	SOUNDING IN FATHOMS	49	N 41 12' 48.000"	W 066 24' 54.000"	41.21333	-66.415	WNM 30/16, NGA	2155	13006_1	7/21/2016
13006	Add	SOUNDING IN FATHOMS	43	N 41 13' 48.000"	W 066 22' 18.000"	41.23	-66.37167	WNM 30/16, NGA	2155	13006_1	7/21/2016
13006	Add	SOUNDING IN FATHOMS	42	N 41 12' 48.000"	W 066 24' 12.000"	41.21333	-66.40334	WNM 30/16, NGA	2155	13006_1	7/21/2016
13006	Add	SOUNDING IN FATHOMS	45	N 41 15' 30.000"	W 066 19' 06.000"	41.25834	-66.31834	WNM 30/16, NGA	2155	13006_1	7/21/2016
13006	Relocate	WHOI RESEARCH LTD BUOY DMON MDR	Y "DMON MDR" Fl Y 4S Priv	N 43 58' 44.640"	W 068 05' 07.284"	43.97906	-68.08536	LNM 28/16, 1st Dist	2155	13006_1	7/21/2016
13006	Delete	DEPTH IN FATHOMS	80	N 42 10' 18.000"	W 069 25' 06.000"	42.17167	-69.41833	WNM 27/16, NGA	2155	13006_1	6/30/2016
13006	Add	DEPTH IN FATHOMS	69	N 42 10' 00.000"	W 069 24' 42.000"	42.16667	-69.41167	WNM 27/16, NGA	2155	13006_1	6/30/2016
13006	Add	USGS RESEARCH LTD BUOY W	Y "W" Fl Y 4s Priv	N 41 50' 22.800"	W 070 19' 44.400"	41.83967	-70.329	LNM 22/16, 1st Dist	2155	13006_1	6/9/2016
13006	Delete	CARMAN CREEK DBN D12	R "D12" Priv	N 40 39' 22.000"	W 073 25' 50.000"	40.65611	-73.43056	LNM 15/16, 1st Dist	2155	13006_1	4/21/2016
13006	Change	BOON ISLAND LIGHT	Fl 5s 137ft 14M HORN	N 43 07' 17.218"	W 070 28' 35.119"	43.12145	-70.47643	LNM 10/16, 1st Dist	2155	13006_1	3/17/2016
13006	Change	EGG ROCK LIGHT	Fl R 5s 64ft 18M HORN (MRASS)	N 44 21' 14.188"	W 068 08' 18.033"	44.35394	-68.13834	LNM 09/16, 1st Dist	2155	13006_1	3/10/2016
13006	Add	DANGEROUS WRECK	PA	N 42 34' 59.400"	W 070 21' 43.200"	42.58317	-70.362	CNM 02/16, Canada	2155	13006_1	3/10/2016
13006	Delete	USGS RESEARCH LTD BUOY W	Y "W" Fl Y 4s Priv	N 40 35' 04.210"	W 073 06' 24.220"	40.5845	-73.10673	LNM 08/16, 1st Dist	2155	13006_1	3/3/2016
13006	Delete	Dangerous Wreck	PA      	N 43 31' 13.253"	W 070 06' 20.452"	43.52035	-70.10568	LNM 09/16, 1st Dist	2155	13006_1	3/3/2016
13006	Change	GOAT ISLAND LIGHT	Fl 6s 38ft 12M HORN (MRASS)	N 43 21' 28.300"	W 070 25' 30.300"	43.35786	-70.42509	LNM 07/16, 1st Dist	2155	13006_1	2/25/2016
13006	Change	WEST QUODDY HEAD LIGHT	Fl (2) 15s 25m/83ft 18M HORN (MRASS)	N 44 48' 54.387"	W 066 57' 02.416"	44.81511	-66.95067	LNM 06/16, 1st Dist	2155	13006_1	2/18/2016
13006	Change	WOOD ISLAND LIGHT	Al WG 10s 71ft 13M HORN (MRASS)	N 43 27' 24.700"	W 070 19' 44.600"	43.45686	-70.32906	LNM 06/16, 1st Dist	2155	13006_1	2/18/2016
13006	Change	HERON NECK LIGHT	F R 92ft 7M HORN (MRASS)	N 44 01' 30.400"	W 068 51' 43.800"	44.02511	-68.86217	LNM 05/16, 1st Dist	2155	13006_1	2/11/2016
13006	Change	PORTLAND HEAD LIGHT	Fl 4s 101ft 24M HORN (MRASS)	N 43 37' 23.174"	W 070 12' 28.312"	43.6231	-70.20786	LNM 05/16, 1st Dist	2155	13006_1	2/11/2016
13006	Relocate	PORTLAND HEAD LIGHT	Fl 4s 101ft 24M HORN (MRASS)	N 43 37' 23.174"	W 070 12' 28.312"	43.6231	-70.20786	LNM 05/16, 1st Dist	2155	13006_1	2/11/2016
13006	Change	TWO BUSH ISLAND LIGHT	Fl 5s 65ft 15M HORN (MRASS)	N 43 57' 51.255"	W 069 04' 26.057"	43.96424	-69.07391	LNM 05/16, 1st Dist	2155	13006_1	2/11/2016
13006	Change	SEGUIN LIGHT	F 180ft 18M HORN (MRASS)	N 43 42' 26.900"	W 069 45' 28.900"	43.70747	-69.75803	LNM 04/16, 1st Dist	2155	13006_1	2/4/2016
13006	Change	CAPE ELIZABETH LIGHT	Fl (4) 15s 129ft 15M HORN (MRASS)	N 43 33' 57.864"	W 070 12' 00.209"	43.56607	-70.20006	LNM 04/16, 1st Dist	2155	13006_1	2/4/2016
13006	Add	DANGEROUS WRECK	None	N 42 34' 05.800"	W 070 21' 43.200"	42.56828	-70.362	LNM 50/15, 1st Dist	2155	13006_1	12/24/2015
13006	Change	BLOCK ISLAND WIND FARM WTG-1	Q Y "WTG-1" Priv	N 41 07' 32.740"	W 071 30' 27.040"	41.12576	-71.50751	LNM 49/15, 1st Dist	2155	13006_1	12/17/2015
13006	Relocate	BLOCK ISLAND WIND FARM WTG-1	Q Y "WTG-1" Priv	N 41 07' 32.740"	W 071 30' 27.040"	41.12576	-71.50751	LNM 49/15, 1st Dist	2155	13006_1	12/17/2015
13006	Change	BLOCK ISLAND WIND FARM WTG-3	Q Y "WTG-3" HORN (MRASS) Priv	N 41 06' 52.960"	W 071 31' 16.180"	41.11471	-71.52116	LNM 49/15, 1st Dist	2155	13006_1	12/17/2015
13006	Relocate	BLOCK ISLAND WIND FARM WTG-3	Q Y "WTG-3" HORN (MRASS) Priv	N 41 06' 52.960"	W 071 31' 16.180"	41.11471	-71.52116	LNM 49/15, 1st Dist	2155	13006_1	12/17/2015
13006	Change	BLOCK ISLAND WIND FARM WTG-5	Q Y "WTG-5" Priv	N 41 06' 22.790"	W 071 32' 15.500"	41.10633	-71.53764	LNM 49/15, 1st Dist	2155	13006_1	12/17/2015
13006	Relocate	BLOCK ISLAND WIND FARM WTG-5	Q Y "WTG-5" Priv	N 41 06' 22.790"	W 071 32' 15.500"	41.10633	-71.53764	LNM 49/15, 1st Dist	2155	13006_1	12/17/2015
13006	Relocate	GAY HEAD LIGHT	Al WR 15s 175ft 20M	N 41 20' 54.420"	W 070 50' 03.676"	41.34845	-70.83436	LNM 46/15, 1st Dist	2155	13006_1	11/26/2015
13006	Change	GREEN ISLAND LIGHT	Fl 5s 82ft 19M	N 43 41' 18.000"	W 066 08' 36.000"	43.68833	-66.14333	WNM 45/15, NGA	2155	13006_1	11/5/2015
13006	Change	MACHIAS SEAL ISLAND LIGHT	Fl 3s 25m 17M	N 44 30' 06.000"	W 067 06' 07.000"	44.50167	-67.10194	WNM 45/15, NGA	2155	13006_1	11/5/2015
13006	Change	SOUTHWEST HEAD LIGHT	Fl 10s 47.5m 16M	N 44 36' 03.000"	W 066 54' 20.000"	44.60083	-66.90556	WNM 45/15, NGA	2155	13006_1	11/5/2015
13006	Add	OBSTRUCTION	Obstn	N 44 47' 17.000"	W 066 43' 06.000"	44.78806	-66.71833	WNM 45/15, NGA	2155	13006_1	11/5/2015
13006	Relocate	MORICHES INLET APPROACH LTD WHISTLE BUOY M	RW "M" Mo (A) WHIS AIS	N 40 44' 07.858"	W 072 45' 11.860"	40.73552	-72.7533	LNM 41/15, 1st Dist	2155	13006_1	10/22/2015
13006	Change	MORICHES INLET APPROACH LTD WHISTLE BUOY M	RW "M" Mo (A) WHIS AIS	N 40 44' 07.858"	W 072 45' 11.860"	40.73552	-72.7533	LNM 41/15, 1st Dist	2155	13006_1	10/22/2015
13006	Change	SHINNECOCK INLET APPROACH LTD WHISTLE BUOY SH	RW "SH" Mo (A) WHIS  AIS	N 40 49' 00.161"	W 072 28' 34.519"	40.81671	-72.47626	LNM 41/15, 1st Dist	2155	13006_1	10/22/2015
13006	Change	PORTLAND LTD WHISTLE BUOY P	RW "P" Mo (A) WHIS RACON (--)  AIS	N 43 31' 36.312"	W 070 05' 28.163"	43.52675	-70.09116	LNM 41/15, 1st Dist	2155	13006_1	10/22/2015
13006	Change	CAPE COD CANAL APPROACH LTD BELL BUOY CC	RW "CC" Mo (A) BELL  AIS	N 41 48' 52.892"	W 070 27' 38.799"	41.81469	-70.46078	LNM 41/15, 1st Dist	2155	13006_1	10/22/2015
13006	Add	wind turbine	None	N 41 06' 53.160"	W 071 31' 16.080"	41.11477	-71.52113	LNM 41/15, 1st Dist	2155	13006_1	10/8/2015
13006	Add	wind turbine	None	N 41 07' 32.640"	W 071 30' 27.240"	41.12573	-71.50757	LNM 41/15, 1st Dist	2155	13006_1	10/8/2015
13006	Add	wind turbine	None	N 41 06' 22.980"	W 071 32' 15.540"	41.10638	-71.53765	LNM 41/15, 1st Dist	2155	13006_1	10/8/2015
13006	Add	Sounding in Fathoms 	6	N 41 13' 02.300"	W 070 51' 27.400"	41.2173	-70.85761	LNM 40/15, 1st Dist	2155	13006_1	10/1/2015
13006	Delete	Sounding in Fathoms 	8	N 41 12' 54.400"	W 070 51' 46.400"	41.21511	-70.86289	LNM 40/15, 1st Dist	2155	13006_1	10/1/2015
13006	Change	GAY HEAD LIGHT	Al WR 15s 175ft 20M	N 41 20' 53.993"	W 070 50' 04.240"	41.34833	-70.83451	LNM 37/15, 1st Dist	2155	13006_1	9/24/2015
13006	Delete	Natural shoreline PT 1 OF 4	None	N 40 43' 08.690"	W 072 54' 18.490"	40.71908	-72.90514	LNM 38/15, 1st Dist	2155	13006_1	9/17/2015
13006	Delete	Natural shoreline PT 2 OF 4	None	N 40 43' 24.630"	W 072 53' 24.890"	40.72351	-72.89024	LNM 38/15, 1st Dist	2155	13006_1	9/17/2015
13006	Delete	Natural shoreline PT 3 OF 4	None	N 40 43' 30.580"	W 072 53' 56.160"	40.72516	-72.89893	LNM 38/15, 1st Dist	2155	13006_1	9/17/2015
13006	Delete	Natural shoreline PT 4 OF 4	None	N 40 43' 35.890"	W 072 53' 46.390"	40.72663	-72.89622	LNM 38/15, 1st Dist	2155	13006_1	9/17/2015
13006	Add	Natural shoreline PT 1 OF 4	None	N 40 43' 08.690"	W 072 54' 18.490"	40.71908	-72.90514	LNM 38/15, 1st Dist	2155	13006_1	9/17/2015
13006	Add	Natural shoreline PT 2 OF 4	None	N 40 43' 30.580"	W 072 53' 56.160"	40.72516	-72.89893	LNM 38/15, 1st Dist	2155	13006_1	9/17/2015
13006	Add	Natural shoreline PT 3 OF 4	None	N 40 43' 24.630"	W 072 53' 24.890"	40.72351	-72.89024	LNM 38/15, 1st Dist	2155	13006_1	9/17/2015
13006	Add	Natural shoreline PT 4 OF 4	None	N 40 43' 35.890"	W 072 53' 46.390"	40.72663	-72.89622	LNM 38/15, 1st Dist	2155	13006_1	9/17/2015
13006	Relocate	CEDAR ISLAND LEDGE DANGER BUOY DC	BR C "DC"	N 42 58' 24.960"	W 070 35' 57.816"	42.9736	-70.5994	LNM 34/15, 1st Dist	2155	13006_1	9/3/2015
13006	Relocate	GAY HEAD LIGHT	Al WR 15s 170ft 20M	N 41 20' 53.993"	W 070 50' 04.240"	41.34833	-70.83451	LNM 32/15, 1st Dist	2155	13006_1	8/27/2015
13006	Delete	MANANA ISLAND LTD WHISTLE BUOY 14M	R "14M" Fl R 4s WHIS	N 43 45' 18.715"	W 069 22' 28.075"	43.7552	-69.37447	LNM 32/15, 1st Dist	2155	13006_1	8/27/2015
13006	Relocate	WHOI LTD RESEARCH BUOY ISSP	Y "ISSP" Fl Y 4s Priv	N 40 21' 51.720"	W 070 53' 17.280"	40.36437	-70.88813	LNM 31/15, 1st Dist	2155	13006_1	8/13/2015
13006	Add	WHOI LTD RESEARCH BUOY CNSP	Y "CNSP" Fl Y 4s Priv	N 40 08' 02.700"	W 070 46' 12.480"	40.13408	-70.77013	LNM 31/15, 1st Dist	2155	13006_1	8/13/2015
13006	Change	THE GRAVES LIGHT	Fl (2) 12s 98ft 15M HORN (MRASS)	N 42 21' 53.600"	W 070 52' 08.700"	42.36489	-70.86908	LNM 31/15, 1st Dist	2155	13006_1	8/13/2015
13006	Add	USGS Research Lighted Buoy W	Y "W" FI Y 4s Priv	N 40 35' 04.210"	W 073 06' 24.220"	40.5845	-73.10673	LNM 29/15, 1st Dist	2155	13006_1	8/6/2015
13006	Change	MINOTS LEDGE LIGHT	Fl (1+4+3) 45s 85ft 10M HORN (MRASS)	N 42 16' 11.000"	W 070 45' 32.700"	42.26972	-70.75909	LNM 24/15, 1st Dist	2155	13006_1	6/25/2015
13006	Delete	NEW YORK BIGHT DUMPING GROUND LTD BUOY 3	G "3" Fl G 4s	N 40 22' 56.783"	W 073 49' 49.396"	40.38244	-73.83039	LNM 23/15, 1st Dist	2155	13006_1	6/25/2015
13006	Change	FISHING GROUNDS OBSTRUCTION LB 5	G "5" Fl G 4s	N 40 25' 41.494"	W 073 50' 53.151"	40.42819	-73.8481	LNM 23/15, 1st Dist	2155	13006_1	6/25/2015
13006	Change	LITTLE RIVER LIGHT	Fl 6s 56ft 14M HORN	N 44 39' 03.186"	W 067 11' 31.544"	44.65089	-67.19209	LNM 23/15, 1st Dist	2155	13006_1	6/25/2015
13006	Add	WHOI RESEARCH LTD BUOY DMON MDR	Y "DMON MDR" Fl Y 4s Priv	N 43 59' 32.000"	W 068 12' 19.000"	43.99222	-68.20528	LNM 22/15, 1st Dist	2155	13006_1	6/18/2015
13006	Relocate	WHOI LTD RESEARCH BUOY ISSP	Y "ISSP" Fl Y 4s Priv	N 40 21' 52.560"	W 070 53' 19.380"	40.3646	-70.88872	LNM 21/15, 1st Dist	2155	13006_1	6/4/2015
13006	Relocate	WHOI LTD RESEARCH BUOY OSSM	Y "OSSM" Fl Y 4s Priv	N 39 56' 26.280"	W 070 52' 42.780"	39.94063	-70.87855	LNM 21/15, 1st Dist	2155	13006_1	6/4/2015
13006	Relocate	WHOI LTD RESEARCH BUOY ISSM	Y "ISSM" Fl Y 4s Priv	N 40 21' 33.780"	W 070 53' 07.080"	40.35938	-70.8853	LNM 21/15, 1st Dist	2155	13006_1	6/4/2015
13006	Add	WHOI LTD RESEARCH BUOY CNSM	Y "CNSM" Fl Y 4s Priv	N 40 08' 24.780"	W 070 46' 16.620"	40.14022	-70.77129	LNM 21/15, 1st Dist	2155	13006_1	6/4/2015
13006	Add	WHOI LTD RESEARCH BUOY OSPM	Y "OSPM" Fl Y 4s Priv	N 39 56' 34.920"	W 070 53' 07.320"	39.94304	-70.88537	LNM 21/15, 1st Dist	2155	13006_1	6/4/2015
13006	Add	WHOI LTD RESEARCH BUOY PMCI	Y "PMCI" Fl Y 4s Priv	N 40 13' 36.120"	W 070 53' 19.740"	40.2267	-70.88882	LNM 21/15, 1st Dist	2155	13006_1	6/4/2015
13006	Add	WHOI LTD RESEARCH BUOY PMCO	Y "PMCO" Fl Y 4s Priv	N 40 05' 48.060"	W 070 52' 45.840"	40.09668	-70.8794	LNM 21/15, 1st Dist	2155	13006_1	6/4/2015
13006	Add	WHOI LTD RESEARCH BUOY PMUI	Y "PMUI" Fl Y 4s Priv	N 40 21' 55.500"	W 070 46' 59.460"	40.36542	-70.78318	LNM 21/15, 1st Dist	2155	13006_1	6/4/2015
13006	Add	WHOI LTD RESEARCH BUOY PMUO	Y "PMUO" Fl Y 4s Priv	N 39 56' 29.820"	W 070 46' 51.060"	39.94162	-70.78085	LNM 21/15, 1st Dist	2155	13006_1	6/4/2015
13006	Relocate	UNIVERSITY OF NEW HAMPSHIRE LTD WAVE BUOY	Y Fl (5) Y 20s Priv	N 42 47' 52.800"	W 070 10' 04.800"	42.798	-70.168	LNM 18/15, 1st Dist	2155	13006_1	5/14/2015
13006	Change	PRIM POINT LIGHT	Iso 6s 12M	N 44 41' 30.000"	W 065 47' 10.000"	44.69167	-65.78611	CNM 04/15, Canada	2155	13006_1	5/14/2015
13006	Relocate	NOAA ODAS BUOY 44011	Y ODAS "44011" Fl (4) Y 20s PA	N 41 06' 00.000"	W 066 37' 12.000"	41.1	-66.62	LNM 17/15, 1st Dist	2155	13006_1	5/14/2015
13006	Relocate	NOAA ODAS BUOY 44018	Y ODAS "44018" Fl (4) Y 20s PA	N 42 08' 15.000"	W 069 42' 46.000"	42.1375	-69.71278	LNM 17/15, 1st Dist	2155	13006_1	5/14/2015
13006	Relocate	Manasquan Inlet Light 3	Fl G 6s 35ft 8M "3" HORN (MRASS)	N 40 06' 01.374"	W 074 01' 54.240"	40.10038	-74.03173	LNM 17/15, 5th Dist	2155	13006_1	5/7/2015
13006	Change	Manasquan Inlet Light 3	Fl G 6s 35ft 8M "3" HORN (MRASS)	N 40 06' 01.374"	W 074 01' 54.240"	40.10038	-74.03173	LNM 17/15, 5th Dist	2155	13006_1	5/7/2015
13006	Add	WHOI RESEARCH LTD BUOY DMON	Y "DMON" Fl Y 4s Priv	N 41 08' 49.000"	W 070 56' 41.000"	41.14695	-70.94473	LNM 13/15, 1st Dist	2155	13006_1	4/9/2015
13006	Change	CAPE NEDDICK LIGHT	Iso R 6s 88ft 13M HORN (MRASS)	N 43 09' 54.733"	W 070 35' 27.943"	43.1652	-70.59109	LNM 10/15, 1st Dist	2155	13006_1	4/2/2015
13006	Change	WOOD END LIGHT	Fl R 10s 45ft 13M HORN (MRASS)	N 42 01' 16.800"	W 070 11' 36.500"	42.02133	-70.19347	LNM 10/15, 1st Dist	2155	13006_1	4/2/2015
13006	Change	BOSTON LIGHT	Fl 10s 102ft 27M HORN (MRASS)	N 42 19' 40.855"	W 070 53' 24.266"	42.32801	-70.89008	LNM 10/15, 1st Dist	2155	13006_1	4/2/2015
13006	Change	THE CUCKOLDS LIGHT	Fl (2) 6s 59ft 12M HORN (MRASS)	N 43 46' 46.200"	W 069 39' 00.017"	43.7795	-69.65	LNM 10/15, 1st Dist	2155	13006_1	4/2/2015
13006	Add	MRASS NOTE	 CELL RASS01	N 41 54' 48.000"	W 071 34' 59.000"	41.91333	-71.58305	LNM 08/15, 1st Dist	2155	13006_1	3/5/2015
13006	Change	BUZZARDS BAY ENTRANCE LIGHT	Fl 2.5s 67ft 14M HORN RACON (-...) (MRASS)	N 41 23' 49.118"	W 071 02' 04.866"	41.39698	-71.03468	LNM 05/15, 1st Dist	2155	13006_1	2/12/2015
13006	Change	CAPE COD CANAL BKW LIGHT 6	Fl R 5s 43ft 9M "6" HORN (MRASS)	N 41 46' 47.220"	W 070 29' 23.280"	41.77979	-70.4898	LNM 05/15, 1st Dist	2155	13006_1	2/12/2015
13006	Change	MOOSE PEAK LIGHT	Fl 30s 72ft 20M HORN (MRASS)	N 44 28' 28.487"	W 067 31' 55.166"	44.47458	-67.53199	LNM 05/15, 1st Dist	2155	13006_1	2/12/2015
13006	Change	WHALEBACK LIGHT	Fl (2) 10s 59ft 11M HORN (MRASS)	N 43 03' 31.534"	W 070 41' 46.701"	43.05876	-70.6963	LNM 05/15, 1st Dist	2155	13006_1	2/12/2015
13006	Change	STRAIGHTSMOUTH LIGHT	Fl G 6s 46ft 6M HORN (MRASS)	N 42 39' 44.142"	W 070 35' 17.054"	42.66226	-70.58807	LNM 05/15, 1st Dist	2155	13006_1	2/12/2015
13006	Relocate	NOAA ODAS BUOY 44008	Y ODAS "44008" Fl (4) Y 20s PA	N 40 30' 10.184"	W 069 14' 53.604"	40.50283	-69.24822	LNM 04/15, 1st Dist	2155	13006_1	2/5/2015
13006	Change	CAPE COD CANAL BKW LT 6	Fl R 5s 43ft 9M "6" HORN (1) 15s (MRASS)	N 41 46' 47.220"	W 070 29' 23.280"	41.77979	-70.4898	LNM 02/15, 1st Dist	2155	13006_1	1/22/2015
13006	Add	WHOI LTD RESEARCH BUOY ISSP	Y "ISSP" Fl Y 4s Priv	N 40 21' 53.160"	W 070 53' 17.880"	40.36477	-70.8883	LNM 50/14, 1st Dist	2155	13006_1	1/8/2015
13006	Add	WHOI LTD RESEARCH BUOY OSSM	Y "OSSM" Fl Y 4s Priv	N 39 56' 09.480"	W 070 52' 43.320"	39.93597	-70.8787	LNM 50/14, 1st Dist	2155	13006_1	1/8/2015
13006	Add	WHOI LTD RESEARCH BUOY ISSM	Y "ISSM" Fl Y 4s Priv	N 40 21' 42.840"	W 070 52' 40.920"	40.3619	-70.87804	LNM 50/14, 1st Dist	2155	13006_1	1/8/2015
13006	Change	BOSTON LTD WHISTLE BUOY B	RW "B" Mo (A) WHIS RACON (-...) AIS	N 42 22' 42.155"	W 070 46' 58.160"	42.37838	-70.78282	LNM 50/14, 1st Dist	2155	13006_1	1/8/2015
13006	Relocate	UNH JEFFREYS LEDGE MOORED OBSERVATORY LTD BUOY	Y Fl Y 4s Priv	N 42 48' 15.060"	W 070 11' 16.440"	42.80418	-70.1879	LNM 44/14, 1st Dist	2155	13006_1	11/13/2014
13006	Change	RACE POINT LIGHT	Fl 10s 41ft 14M	N 42 03' 44.400"	W 070 14' 34.900"	42.06233	-70.24303	LNM 41/14, 1st Dist	2155	13006_1	10/23/2014
13006	Delete	WHOI Georges Bank Lighted Buoy North	Y Fl Y 4s Priv	N 41 25' 00.000"	W 067 33' 00.000"	41.41667	-67.55	LNM 36/14, 1st Dist	2155	13006_1	9/18/2014
13006	Delete	Jones Inlet Light	Fl 2.5s 33ft 4M	N 40 34' 23.568"	W 073 34' 32.364"	40.57321	-73.57565	LNM 35/14, 1st Dist	2155	13006_1	9/11/2014
13006	Change	Buzzards Bay Entrance Light	Fl 2.5s 67ft 14M HORN RACON (-...)	N 41 23' 49.118"	W 071 02' 04.866"	41.39698	-71.03468	LNM 32/14, 1st Dist	2155	13006_1	9/4/2014
13006	Change	JONES INLET LIGHT	Fl 2.5s 33ft 4M	N 40 34' 23.568"	W 073 34' 32.364"	40.57321	-73.57565	LNM 31/14, 1st Dist	2155	13006_1	8/28/2014
13006	Delete	Manasquan Inlet Light 4	Fl R 4s 30ft 6M "4"	N 40 06' 06.120"	W 074 01' 53.232"	40.1017	-74.03146	LNM 23/14, 5th Dist	2155	13006_1	6/19/2014
13006	Delete	WHOI GEORGES BANK LIGHTED BUOYS SOUTH (3)	3Y Fl Y 4s Priv	N 40 58' 00.000"	W 067 19' 00.000"	40.96667	-67.31667	LNM 22/14, 1st Dist	2155	13006_1	6/12/2014
13006	Delete	Narragansett-Buzzards Bay Approach Lighted Whistle Buoy A Racon	RACON (- .)	N 41 06' 00.383"	W 071 23' 22.171"	41.10011	-71.38949	LNM 14/14, 1st Dist	2155	13006_1	4/17/2014
13006	Delete	Narragansett-Buzzards Bay Approach Lighted Whistle Buoy A	RW "A" Mo (A) WHIS	N 41 06' 00.383"	W 071 23' 22.171"	41.10011	-71.38949	LNM 14/14, 1st Dist	2155	13006_1	4/17/2014
13006	Delete	Portland Disposal Area Lighted Buoy PDA	Y "PDA" Fl Y 4s Priv	N 43 34' 09.120"	W 070 02' 13.200"	43.5692	-70.037	LNM 12/14, 1st Dist	2155	13006_1	4/3/2014
13006	Relocate	Petit Manan Light	Fl 10s 123ft 19M HORN	N 44 22' 03.290"	W 067 51' 51.695"	44.36758	-67.86436	LNM 12/14, 1st Dist	2155	13006_1	4/3/2014
13006	Relocate	Boon Island Light	Fl 5s 137ft 19M HORN	N 43 07' 17.218"	W 070 28' 35.119"	43.12145	-70.47643	LNM 11/14, 1st Dist	2155	13006_1	3/27/2014
13006	Delete	Non Dangerous Wreck	PA   (Chart No. 1: K29)	N 40 24' 16.000"	W 070 27' 12.000"	40.40445	-70.45333	LNM 08/14, 1st Dist	2155	13006_1	3/6/2014
13006	Add	Non Dangerous Wreck	PA   (Chart No. 1: K29)	N 42 24' 16.000"	W 070 27' 12.000"	42.40445	-70.45333	LNM 08/14, 1st Dist	2155	13006_1	3/6/2014
13006	Add	Non Dangerous Wreck	PA   (Chart No. 1: K29)	N 40 24' 16.000"	W 070 27' 12.000"	40.40445	-70.45333	LNM 07/14, 1st Dist	2155	13006_1	2/27/2014
13006	Add	Obstruction in Fathoms	9 Obstn       Chart No. 1: K41	N 40 22' 04.429"	W 073 54' 45.230"	40.3679	-73.91257	LNM 07/14, 1st Dist	2155	13006_1	2/13/2014
13006	Relocate	WHOI Traffic Separation Scheme Research Lighted Buoy AB-10	Y "AB-10" Fl Y 4s Priv	N 42 03' 46.044"	W 069 50' 55.788"	42.06279	-69.84883	LNM 03/14, 1st Dist	2155	13006_1	1/30/2014
13006	Add	Sounding in Fathoms & Fractions	8 3/4	N 40 22' 57.200"	W 073 53' 24.700"	40.38256	-73.8902	LNM 04/14, 1st Dist	2155	13006_1	1/30/2014
13006	Add	Sounding in Fathoms & Fractions	9 3/4	N 40 24' 31.400"	W 073 53' 19.000"	40.40872	-73.88861	LNM 04/14, 1st Dist	2155	13006_1	1/30/2014
13006	Delete	Obstruction in Fathoms	11 Obstn       Chart No. 1: K41	N 40 23' 38.500"	W 073 53' 37.700"	40.39403	-73.89381	LNM 04/14, 1st Dist	2155	13006_1	1/30/2014
13006	Change	Meteghan Breakwater Light	LFl R 6s 4M	N 44 11' 44.100"	W 066 10' 00.100"	44.19558	-66.16669	CNM 11/13, Canada	2155	13006_1	12/5/2013
13006	Relocate	Monhegan Island Light	Fl 15s 178ft 20M	N 43 45' 53.282"	W 069 18' 56.981"	43.7648	-69.31583	LNM 45/13, 1st Dist	2155	13006_1	11/14/2013
13006	Add	Dangerous Wreck	PA	N 43 18' 15.600"	W 066 00' 45.000"	43.30433	-66.0125	CNM 10/13, Canada	2155	13006_1	11/4/2013
13006	Delete	Cohasset Harbor Capping Project Lighted Buoy	W Or Fl 4s Priv	N 42 24' 25.995"	W 070 34' 43.379"	42.40722	-70.57872	LNM 42/13, 1st Dist	2155	13006_1	10/21/2013
13006	Change	Twenty-one Foot Lighted Buoy 21	G "21" Fl G 4s (delete WHIS)	N 42 16' 34.762"	W 070 42' 22.058"	42.27632	-70.70613	LNM 41/13, 1st Dist	2155	13006_1	10/11/2013
13006	Delete	Massachusetts Bay Disposal Area Lighted Buoy MBDA	Y "MBDA" Fl Y 4s Priv	N 42 25' 11.640"	W 070 34' 40.080"	42.4199	-70.5778	LNM 39/13, 1st Dist	2155	13006_1	10/2/2013
13006	Change	Little River Light	Fl 6s 17m 16M HORN	N 44 39' 03.186"	W 067 11' 31.544"	44.65089	-67.19209	LNM 37/13, 1st Dist	2155	13006_1	9/18/2013
13006	Change	Submarine Cable  PT 1 OF 3	Chart No. 1: L30.1	N 41 48' 23.000"	W 069 53' 48.000"	41.80639	-69.89667	LNM 37/13, 1st Dist	2155	13006_1	9/9/2013
13006	Change	Submarine Cable  PT 2 OF 3	Chart No. 1: L30.1	N 41 50' 55.000"	W 068 48' 57.000"	41.84861	-68.81583	LNM 37/13, 1st Dist	2155	13006_1	9/9/2013
13006	Change	Submarine Cable  PT 3 OF 3	Chart No. 1: L30.1	N 42 04' 50.000"	W 068 09' 16.000"	42.08055	-68.15444	LNM 37/13, 1st Dist	2155	13006_1	9/9/2013
13006	Change	Cape Cod Canal Breakwater Light 6	Fl R 5s 43ft 9M "6" HORN	N 41 46' 47.220"	W 070 29' 23.280"	41.77979	-70.4898	LNM 32/13, 1st Dist	2155	13006_1	8/8/2013
13006	Change	Saddleback Ledge Light	Fl 6s 52ft 9M HORN	N 44 00' 51.697"	W 068 43' 35.217"	44.01436	-68.72645	LNM 23/13, 1st Dist	2155	13006_1	6/12/2013
13006	Relocate	Portland Head Light	Fl 4s 101ft 24M HORN	N 43 37' 23.150"	W 070 12' 27.565"	43.6231	-70.20766	LNM 21/13, 1st Dist	2155	13006_1	6/4/2013
13006	Relocate	Gay Head Light	Al WR 15s 170ft 20M	N 41 20' 54.402"	W 070 50' 05.838"	41.34845	-70.83495	LNM 16/13, 1st Dist	2155	13006_1	4/23/2013
13006	Delete	York Ledge Lighted Whistle Buoy 24YL	R "24YL" Fl R 4s WHIS	N 43 04' 25.045"	W 070 34' 26.880"	43.07362	-70.57413	LNM 12/13, 1st Dist	2155	13006_1	4/2/2013
13006	Relocate	Matinicus Rock Light	Fl 10s 90ft 20M HORN	N 43 47' 00.502"	W 068 51' 18.119"	43.78347	-68.85503	LNM 09/13, 1st Dist	2155	13006_1	3/20/2013
13006	Relocate	Boston Light	Fl 10s 102ft 27M HORN	N 42 19' 40.855"	W 070 53' 24.266"	42.32801	-70.89008	LNM 09/13, 1st Dist	2155	13006_1	3/20/2013
13006	Relocate	Twenty-one Foot Lighted Whistle Buoy 21	G "21" Fl G 4s WHIS	N 42 16' 34.762"	W 070 42' 22.058"	42.27632	-70.70613	LNM 09/13, 1st Dist	2155	13006_1	3/20/2013
13006	Relocate	Nantucket (Great Point) Light	Fl 5s 71ft 12M	N 41 23' 24.600"	W 070 02' 53.800"	41.39017	-70.04828	LNM 09/13, 1st Dist	2155	13006_1	3/20/2013
13006	Delete	Barnegat Traffic Lane Lighted Whistle Buoy BA	Y "BA" Fl Y 6s WHIS	N 40 20' 02.293"	W 073 47' 37.254"	40.33397	-73.79368	LNM 09/13, 1st Dist	2155	13006_1	3/20/2013
13006	Change	Ocean Power Lighted Data Buoy A	Y "A" Fl Y 4s Priv	N 40 01' 59.971"	W 073 40' 00.019"	40.03333	-73.66667	LNM 10/13, 5th Dist	2155	13006_1	3/7/2013
13006	Change	Ocean Power Lighted Data Buoy A	Y "A" Fl Y 6s Priv	N 40 01' 59.971"	W 073 40' 00.019"	40.03333	-73.66667	LNM 09/13, 5th Dist	2155	13006_1	3/5/2013
13006	Delete	Nomans Land Lighted Whistle Buoy 2	R "2" Fl R 4s WHIS	N 41 12' 12.213"	W 070 49' 58.104"	41.20339	-70.83281	LNM 04/13, 1st Dist	2155	13006_1	2/6/2013
13006	Delete	Nantucket Traffic Lane Lighted Whistle Buoy NA Racon	RACON (- .)	N 40 25' 42.372"	W 073 11' 28.419"	40.42844	-73.19123	LNM 03/13, 1st Dist	2155	13006_1	1/31/2013
13006	Delete	Nantucket Traffic Lane Lighted Whistle Buoy NA	Y "NA" Fl Y 6s WHIS	N 40 25' 42.372"	W 073 11' 28.419"	40.42844	-73.19123	LNM 03/13, 1st Dist	2155	13006_1	1/31/2013
13006	Relocate	NOAA Data Lighted Buoy 44017	Y ODAS "44017" Fl (4) Y 20s PA	N 40 41' 34.815"	W 072 02' 52.200"	40.693	-72.04784	LNM 03/13, 1st Dist	2155	13006_1	1/31/2013
13006	Delete	Montauk Point Lighted Whistle Buoy MP	RW "MP" Mo (A) WHIS	N 41 01' 48.161"	W 071 45' 40.258"	41.03004	-71.76118	LNM 52/12, 1st Dist	2155	13006_1	1/15/2013
13006	Change	Race Point Light	Fl 10s 41ft 16M	N 42 03' 44.400"	W 070 14' 34.900"	42.06233	-70.24303	LNM 52/12, 1st Dist	2155	13006_1	1/15/2013
13006	Delete	Montauk Point Lighted Whistle Buoy MP Racon	RACON (- -)    (Chart No. 1: S3.6)	N 41 01' 48.161"	W 071 45' 40.258"	41.03004	-71.76118	LNM 52/12, 1st Dist	2155	13006_1	1/15/2013
13006	Change	Wood Island Light	Al WG 10s 71ft 13M HORN	N 43 27' 24.700"	W 070 19' 44.600"	43.45686	-70.32906	LNM 49/12, 1st Dist	2155	13006_1	12/10/2012
13006	Add	Northern Right Whale Critical Habitat Area PT 1 OF 8	(Chart No. 1: N22)	N 44 29' 00.000"	W 066 37' 00.000"	44.48333	-66.61667	CNM 07/12, Canada	2155	13006_1	10/1/2012
13006	Add	Northern Right Whale Critical Habitat Area PT 2 OF 8	(Chart No. 1: N22)	N 44 29' 00.000"	W 066 30' 00.000"	44.48333	-66.5	CNM 07/12, Canada	2155	13006_1	10/1/2012
13006	Add	Northern Right Whale Critical Habitat Area PT 3 OF 8	(Chart No. 1: N22)	N 44 33' 00.000"	W 066 22' 00.000"	44.55	-66.36667	CNM 07/12, Canada	2155	13006_1	10/1/2012
13006	Add	Northern Right Whale Critical Habitat Area PT 4 OF 8	(Chart No. 1: N22)	N 44 40' 00.000"	W 066 17' 00.000"	44.66667	-66.28333	CNM 07/12, Canada	2155	13006_1	10/1/2012
13006	Add	Northern Right Whale Critical Habitat Area PT 5 OF 8	(Chart No. 1: N22)	N 44 47' 00.000"	W 066 17' 00.000"	44.78333	-66.28333	CNM 07/12, Canada	2155	13006_1	10/1/2012
13006	Add	Northern Right Whale Critical Habitat Area PT 6 OF 8	(Chart No. 1: N22)	N 44 49' 00.000"	W 066 27' 00.000"	44.81667	-66.45	CNM 07/12, Canada	2155	13006_1	10/1/2012
13006	Add	Northern Right Whale Critical Habitat Area PT 7 OF 8	(Chart No. 1: N22)	N 44 42' 00.000"	W 066 37' 00.000"	44.7	-66.61667	CNM 07/12, Canada	2155	13006_1	10/1/2012
13006	Add	Northern Right Whale Critical Habitat Area PT 8 OF 8	(Chart No. 1: N22)	N 44 29' 00.000"	W 066 37' 00.000"	44.48333	-66.61667	CNM 07/12, Canada	2155	13006_1	10/1/2012
13006	Add	Text:	NORTHERN RIGHT WHALE CRITICAL HABITAT (use Canadian chart 4012)	N 44 39' 04.000"	W 066 26' 53.000"	44.65111	-66.44806	CNM 07/12, Canada	2155	13006_1	10/1/2012
13006	Change	Highlands Light	Iso 10s Priv	N 40 23' 47.640"	W 073 59' 09.000"	40.39657	-73.98583	LNM 38/12, 1st Dist	2155	13006_1	9/26/2012
13006	Add	Obstruction	Unexploded ordnance (reported 2010) PA     (Chart No. 1: K40)	N 40 07' 24.000"	W 072 38' 48.000"	40.12333	-72.64667	LNM 38/12, 1st Dist	2155	13006_1	9/14/2012
13006	Delete	Penobscot Bay Oceanographic Lighted Buoy G	Y "G" Fl Y 4s Priv	N 43 55' 59.000"	W 068 21' 01.000"	43.93306	-68.35028	LNM 36/12, 1st Dist	2155	13006_1	9/11/2012
