Chart: 11351, Current Edition: 43, Print Date: Mar. /2012, Point au Fer to Marsh Island
Chart	Action	Item Name	Charting Label	Latitude	Longitude	LatDD	LongDD	Published Document	Kapp	RNC Panel	RNC Posted
11351	Add	Visible Pipe 	Pipe PA	N 29 21' 42.000"	W 091 15' 36.100"	29.36167	-91.26003	LNM 25/17, 8th Dist	63	11351_1	6/29/2017
11351	Add	Submarine Pipeline  PT 1 OF 3	Chart No. 1: L40.1	N 29 22' 59.240"	W 091 29' 23.020"	29.38312	-91.48973	LNM 25/17, 8th Dist	63	11351_1	6/15/2017
11351	Add	Submarine Pipeline  PT 2 OF 3	Chart No. 1: L40.1	N 29 23' 28.100"	W 091 30' 19.370"	29.39114	-91.50538	LNM 25/17, 8th Dist	63	11351_1	6/15/2017
11351	Add	Submarine Pipeline  PT 3 OF 3	Chart No. 1: L40.1	N 29 23' 40.680"	W 091 30' 53.760"	29.39463	-91.51493	LNM 25/17, 8th Dist	63	11351_1	6/15/2017
11351	Add	Submarine Pipeline  PT 1 OF 2	Chart No. 1: L40.1	N 29 22' 59.240"	W 091 29' 23.020"	29.38312	-91.48973	LNM 25/17, 8th Dist	63	11351_1	6/15/2017
11351	Add	Submarine Pipeline  PT 2 OF 2	Chart No. 1: L40.1	N 29 25' 11.740"	W 091 28' 21.470"	29.41993	-91.47263	LNM 25/17, 8th Dist	63	11351_1	6/15/2017
11351	Delete	Platform (Union-160-11)	Chart No. 1: L10	N 29 17' 58.000"	W 091 32' 35.000"	29.29944	-91.54305	LNM 23/17, 8th Dist	63	11351_1	6/15/2017
11351	Delete	Platform (Union-160-15)	Chart No. 1: L10	N 29 18' 17.000"	W 091 31' 24.000"	29.30472	-91.52333	LNM 23/17, 8th Dist	63	11351_1	6/15/2017
11351	Delete	Platform (Union-160-16)	Chart No. 1: L10	N 29 18' 49.000"	W 091 32' 20.000"	29.31361	-91.53889	LNM 23/17, 8th Dist	63	11351_1	6/15/2017
11351	Delete	Platform (Union-160-20)	Chart No. 1: L10	N 29 18' 57.000"	W 091 31' 44.000"	29.31583	-91.52889	LNM 23/17, 8th Dist	63	11351_1	6/15/2017
11351	Delete	Platform (Union-160-21)	Chart No. 1: L10	N 29 18' 21.000"	W 091 32' 22.000"	29.30583	-91.53944	LNM 23/17, 8th Dist	63	11351_1	6/15/2017
11351	Delete	Platform (Union-160-22)	Chart No. 1: L10	N 29 17' 50.000"	W 091 31' 56.000"	29.29722	-91.53222	LNM 23/17, 8th Dist	63	11351_1	6/15/2017
11351	Delete	Platform (Union-160-24)	Chart No. 1: L10	N 29 17' 45.000"	W 091 31' 36.000"	29.29583	-91.52666	LNM 23/17, 8th Dist	63	11351_1	6/15/2017
11351	Add	Dangerous Wreck 	Mast PA       Chart No. 1: K25	N 29 37' 21.500"	W 091 47' 35.700"	29.62264	-91.79325	LNM 22/17, 8th Dist	63	11351_1	6/8/2017
11351	Delete	Platform (W & T Offshore-116-24)	Chart No. 1: L10	N 29 05' 06.474"	W 091 45' 34.143"	29.08513	-91.75948	LNM 21/17, 8th Dist	63	11351_1	6/8/2017
11351	Delete	Platform (Texaco-185-4)	Chart No. 1: L10	N 29 14' 45.000"	W 091 46' 53.000"	29.24583	-91.78139	LNM 21/17, 8th Dist	63	11351_1	6/8/2017
11351	Add	Visible Wreck	PA     Chart No.1: K24	N 29 19' 54.000"	W 091 24' 48.000"	29.33167	-91.41333	LNM 19/17, 8th Dist	63	11351_1	5/18/2017
11351	Delete	Platform (W & T Offshore-116-20)	Chart No. 1: L10	N 29 04' 30.290"	W 091 42' 09.940"	29.07508	-91.70276	LNM 16/17, 8th Dist	63	11351_1	4/27/2017
11351	Delete	Platform (Chevron-153-5)	Chart No. 1: L10	N 29 08' 13.000"	W 091 37' 44.000"	29.13694	-91.62889	LNM 13/17, 8th Dist	63	11351_1	4/6/2017
11351	Delete	Platform (W & T Offshore-116-6)	Chart No. 1: L10	N 29 05' 05.814"	W 091 42' 19.639"	29.08495	-91.70545	LNM 12/17, 8th Dist	63	11351_1	3/30/2017
11351	Add	Obstruction in Feet	12 Obstn       Chart No. 1: K41	N 29 07' 10.400"	W 091 43' 17.700"	29.11956	-91.72158	LNM 50/16, 8th Dist	63	11351_1	12/8/2016
11351	Delete	Platform:  (Fieldwood-103-22)	Chart No. 1: L10	N 29 01' 35.000"	W 091 31' 38.000"	29.02639	-91.52722	LNM 47/16, 8th Dist	63	11351_1	12/1/2016
11351	Delete	Platform:  (Fieldwood-103-95)	Chart No. 1: L10	N 29 01' 35.621"	W 091 31' 37.901"	29.02656	-91.52719	LNM 47/16, 8th Dist	63	11351_1	12/1/2016
11351	Add	Submerged Obstruction	Obstn PA	N 29 01' 35.400"	W 091 31' 38.100"	29.0265	-91.52725	LNM 43/16, 8th Dist	63	11351_1	11/3/2016
11351	Add	BP Exploration-124-1 Lighted Buoy	W Or Fl 2.5s Priv	N 29 01' 36.345"	W 091 31' 36.855"	29.02676	-91.5269	LNM 43/16, 8th Dist	63	11351_1	11/3/2016
11351	Delete	Platform:  (Ankor Energy-110-3)	Chart No. 1: L10	N 29 15' 27.299"	W 091 25' 12.077"	29.25758	-91.42002	LNM 42/16, 8th Dist	63	11351_1	10/27/2016
11351	Add	Sounding in Feet	11	N 29 05' 43.600"	W 091 40' 54.900"	29.09544	-91.68192	LNM 44/16, 8th Dist	63	11351_1	10/27/2016
11351	Delete	Sounding in Feet	15	N 29 06' 58.040"	W 091 43' 25.640"	29.11612	-91.72379	LNM 44/16, 8th Dist	63	11351_1	10/27/2016
11351	Add	Wreck in Feet	12 Wk      Chart No. 1: K26	N 29 07' 00.500"	W 091 43' 23.600"	29.11681	-91.72322	LNM 44/16, 8th Dist	63	11351_1	10/27/2016
11351	Delete	Dangerous Wreck	PA      Chart No. 1: K28	N 29 06' 54.070"	W 091 43' 17.990"	29.11502	-91.72166	LNM 44/16, 8th Dist	63	11351_1	10/27/2016
11351	Substitute	Sounding in Feet	12	N 29 05' 59.600"	W 091 41' 09.600"	29.09989	-91.686	LNM 44/16, 8th Dist	63	11351_1	10/27/2016
11351	Add	Obstruction in Feet	26 Obstn       Chart No. 1: K41	N 29 03' 06.100"	W 091 46' 53.300"	29.05169	-91.78147	LNM 44/16, 8th Dist	63	11351_1	10/27/2016
11351	Add	Wreck in Feet	20 Wk      Chart No. 1: K26	N 29 10' 12.100"	W 091 45' 06.800"	29.17003	-91.75189	LNM 44/16, 8th Dist	63	11351_1	10/27/2016
11351	Delete	Dangerous Wreck	PA      Chart No. 1: K28	N 29 10' 00.940"	W 091 44' 59.420"	29.16693	-91.74984	LNM 44/16, 8th Dist	63	11351_1	10/27/2016
11351	Add	Obstruction in Feet	13 Obstn       Chart No. 1: K41	N 29 12' 44.200"	W 091 47' 32.400"	29.21228	-91.79234	LNM 44/16, 8th Dist	63	11351_1	10/27/2016
11351	Add	Wreck in Feet	16 Wk      Chart No. 1: K26	N 29 05' 43.800"	W 091 42' 47.700"	29.0955	-91.71325	LNM 38/16, 8th Dist	63	11351_1	9/15/2016
11351	Add	Pile	Pile     Chart No. 1: F22	N 29 11' 22.300"	W 091 37' 03.900"	29.18953	-91.61775	LNM 38/16, 8th Dist	63	11351_1	9/15/2016
11351	Delete	Platform:(Energy Partners-108-2)	Chart No. 1: L10	N 29 18' 58.430"	W 091 46' 58.908"	29.31623	-91.78303	LNM 16/16, 8th Dist	63	11351_1	4/28/2016
11351	Relocate	Atchafalaya River Daybeacon 23	G "23" Ra Ref	N 29 35' 03.403"	W 091 13' 57.934"	29.58428	-91.23276	LNM 14/16, 8th Dist	63	11351_1	4/14/2016
11351	Add	Obstruction in Feet	25 Obstn       Chart No. 1: K41	N 28 58' 23.500"	W 091 24' 55.400"	28.97319	-91.41539	LNM 15/16, 8th Dist	63	11351_1	4/7/2016
11351	Delete	Sounding in Feet	32	N 29 00' 42.230"	W 091 33' 37.770"	29.01173	-91.56049	LNM 06/16, 8th Dist	63	11351_1	2/4/2016
11351	Add	Obstruction in Feet	28 Obstn       Chart No. 1: K41	N 29 00' 39.900"	W 091 33' 37.500"	29.01108	-91.56042	LNM 06/16, 8th Dist	63	11351_1	2/4/2016
11351	Add	Obstruction in Feet	31 Obstn       Chart No. 1: K41	N 29 00' 16.700"	W 091 30' 51.900"	29.00464	-91.51442	LNM 06/16, 8th Dist	63	11351_1	2/4/2016
11351	Add	Platform (fieldwood-103-87)	Chart No. 1: L10	N 28 58' 25.089"	W 091 29' 10.090"	28.97364	-91.48614	LNM 03/16, 8th Dist	63	11351_1	1/28/2016
11351	Add	Platform (fieldwood-103-88)	Chart No. 1: L10	N 29 00' 32.886"	W 091 29' 06.601"	29.00913	-91.48517	LNM 03/16, 8th Dist	63	11351_1	1/28/2016
11351	Add	Dangerous Wreck - Mast	Masts    Chart No. 1: K25	N 29 15' 25.600"	W 091 32' 02.800"	29.25711	-91.53411	LNM 04/16, 8th Dist	63	11351_1	1/21/2016
11351	Add	Platform (EnergyXxi-101-8)	Chart No. 1: L10	N 29 19' 12.461"	W 091 32' 51.345"	29.32013	-91.54759	LNM 52/15, 8th Dist	63	11351_1	1/7/2016
11351	Add	Platform (EnergyXxi-101-9)	Chart No. 1: L10	N 29 18' 44.800"	W 091 31' 22.440"	29.31244	-91.5229	LNM 52/15, 8th Dist	63	11351_1	1/7/2016
11351	Add	Platform (EnergyXxi-101-10)	Chart No. 1: L10	N 29 18' 41.201"	W 091 31' 37.905"	29.31145	-91.5272	LNM 52/15, 8th Dist	63	11351_1	1/7/2016
11351	Add	Platform (Energy xxi-101-12)	Chart No. 1: L10	N 29 15' 17.830"	W 091 26' 46.290"	29.25495	-91.44619	LNM 52/15, 8th Dist	63	11351_1	1/7/2016
11351	Delete	Atchafalaya Channel Buoy 20	R N "20"	N 29 17' 48.012"	W 091 26' 55.855"	29.29667	-91.44884	LNM 51/15, 8th Dist	63	11351_1	1/7/2016
11351	Add	Atchafalaya Channel Daybeacon 20	R "20" Ra Ref	N 29 17' 48.097"	W 091 26' 55.120"	29.29669	-91.44865	LNM 51/15, 8th Dist	63	11351_1	1/7/2016
11351	Delete	Atchafalaya Channel Lighted Buoy 19	G "19" Fl G 2.5s	N 29 17' 52.097"	W 091 27' 00.691"	29.2978	-91.4502	LNM 51/15, 8th Dist	63	11351_1	1/7/2016
11351	Add	Atchafalaya Channel Light 19	Fl G 2.5s 17ft 3M "19" Ra Ref	N 29 17' 52.042"	W 091 27' 00.621"	29.29779	-91.45017	LNM 51/15, 8th Dist	63	11351_1	1/7/2016
11351	Change	tabulation - ATCHAFALAYA RIVER	tabulation - ATCHAFALAYA RIVER	N 29 17' 15.000"	W 091 15' 06.000"	29.2875	-91.25166	LNM 51/15, 8th Dist	63	11351_1	12/17/2015
11351	Add	Platform (Fieldwood-103-84)	Chart No. 1: L10	N 28 59' 07.601"	W 091 28' 50.315"	28.98545	-91.48064	LNM 47/15, 8th Dist	63	11351_1	12/10/2015
11351	Delete	Platform: (Helis-102-10)	Chart No. 1: L10	N 29 14' 37.317"	W 091 49' 33.175"	29.2437	-91.82588	LNM 47/15, 8th Dist	63	11351_1	12/10/2015
11351	Delete	Depth Legend - 	11 FT 2015	N 29 42' 59.900"	W 091 13' 24.000"	29.71664	-91.22334	LNM 49/15, 8th Dist	63	11351_1	12/3/2015
11351	Add	Platform (Wapiti-100-1)	Chart No. 1: L10	N 29 21' 00.080"	W 091 25' 02.000"	29.35002	-91.41722	LNM 43/15, 8th Dist	63	11351_1	11/12/2015
11351	Add	Obstruction in Feet	25 Obstn       Chart No. 1: K41	N 29 01' 48.400"	W 091 29' 52.500"	29.03011	-91.49792	LNM 45/15, 8th Dist	63	11351_1	11/12/2015
11351	Change	tabulation - ATCHAFALAYA RIVER	tabulation - ATCHAFALAYA RIVER	N 29 17' 15.000"	W 091 15' 06.000"	29.2875	-91.25166	LNM 45/15, 8th Dist	63	11351_1	11/5/2015
11351	Delete	Platform (Stone Energy-107-900)	Chart No. 1: L10	N 29 15' 03.040"	W 091 25' 10.900"	29.25084	-91.41969	LNM 41/15, 8th Dist	63	11351_1	10/22/2015
11351	Change	Depth Legend - Avoca I Cutoff to:	4 FT MID 200 FT JUN 2015	N 29 35' 51.000"	W 091 11' 18.000"	29.5975	-91.18833	LNM 42/15, 8th Dist	63	11351_1	10/15/2015
11351	Change	Depth Legend - Avoca I Cutoff to:	4 FT MID 200 FT JUN 2015	N 29 31' 58.000"	W 091 13' 48.000"	29.53278	-91.23	LNM 42/15, 8th Dist	63	11351_1	10/15/2015
11351	Delete	Platform (Fieldwood-103-20)	Chart No. 1: L10	N 29 02' 11.010"	W 091 34' 59.010"	29.03639	-91.58306	LNM 37/15, 8th Dist	63	11351_1	9/24/2015
11351	Add	Visible Wreck 	PA    Chart No. 1: K24	N 29 15' 00.000"	W 091 32' 00.000"	29.25	-91.53333	LNM 36/15, 8th Dist	63	11351_1	9/17/2015
11351	Relocate	Atchafalaya Channel Light 55	Fl G 6s 17ft 3M "55"	N 29 27' 17.200"	W 091 17' 31.203"	29.45478	-91.292	LNM 33/15, 8th Dist	63	11351_1	8/27/2015
11351	Relocate	Atchafalaya Channel Light 58	Fl R 6s 17ft 3M "58"	N 29 27' 58.936"	W 091 16' 32.698"	29.46637	-91.27575	LNM 33/15, 8th Dist	63	11351_1	8/27/2015
11351	Change	Depth Legend - Lower Atchafalaya River to:	11 FT 2015	N 29 42' 59.900"	W 091 13' 24.000"	29.71664	-91.22334	LNM 32/15, 8th Dist	63	11351_1	8/20/2015
11351	Add	Platform: (EnergyXxi-101-1)	Chart No. 1: L10	N 29 18' 36.094"	W 091 31' 55.606"	29.31003	-91.53211	LNM 27/15, 8th Dist	63	11351_1	7/16/2015
11351	Add	Submerged Obstruction	Obstn PA      Chart No. 1: K40	N 29 24' 57.000"	W 091 45' 22.000"	29.41583	-91.75611	LNM 27/15, 8th Dist	63	11351_1	7/16/2015
11351	Add	Dangerous Wreck	PA      Chart No. 1: K28	N 29 27' 15.600"	W 091 48' 09.600"	29.45433	-91.80267	LNM 25/15, 8th Dist	63	11351_1	7/16/2015
11351	Add	Submerged Obstruction	Obstn PA (Exposed Pipeline)       Chart No. 1:K40 	N 29 30' 44.000"	W 091 44' 13.000"	29.51222	-91.73695	LNM 24/15, 8th Dist	63	11351_1	6/25/2015
11351	Add	Platform: (Ankor Energy-110-3)	Chart No.1: L10	N 29 15' 27.299"	W 091 25' 12.077"	29.25758	-91.42002	LNM 24/15, 8th Dist	63	11351_1	6/25/2015
11351	Add	Platform:(Fieldwood-103-79)	Chart No. 1: L10	N 29 10' 27.847"	W 091 31' 57.396"	29.1744	-91.53261	LNM 22/15, 8th Dist	63	11351_1	6/11/2015
11351	Delete	Platform (Mariner-111-19)	Chart No. 1: L10	N 29 13' 37.117"	W 091 36' 10.844"	29.22698	-91.60301	LNM 17/15, 8th Dist	63	11351_1	5/7/2015
11351	Change	Depth Legend - Avoca I Cutoff to:	6 1/2 FT MID 200 FT JUN 2014 - FEB 2015	N 29 35' 51.000"	W 091 11' 18.000"	29.5975	-91.18833	LNM 19/15, 8th Dist	63	11351_1	5/7/2015
11351	Change	Depth Legend - Avoca I Cutoff to:	6 1/2 FT MID 200 FT JUN 2014 - FEB 2015	N 29 31' 58.000"	W 091 13' 48.000"	29.53278	-91.23	LNM 19/15, 8th Dist	63	11351_1	5/7/2015
11351	Add	chartlet 63-A: Atchafalaya River/Avoca Island	chartlet 63-A: Atchafalaya River/Avoca Island	N 29 33' 40.000"	W 091 15' 30.000"	29.56111	-91.25833	LNM 15/15, 8th Dist	63	11351_1	4/16/2015
11351	Add	chartlet 63-B: Atchafalaya River	chartlet 63-B: Atchafalaya River	N 29 27' 00.000"	W 091 18' 00.000"	29.45	-91.3	LNM 15/15, 8th Dist	63	11351_1	4/16/2015
11351	Change	tabulation - Achafalaya River	tabulation - Achafalaya River	N 29 17' 15.000"	W 091 15' 06.000"	29.2875	-91.25166	LNM 45/15, 8th Dist	63	11351_1	4/9/2015
11351	Add	Platform: (Fieldwood 103-60)	Chart No. 1: L10	N 29 07' 35.237"	W 091 43' 07.973"	29.12646	-91.71888	LNM 12/15, 8th Dist	63	11351_1	4/2/2015
11351	Delete	Platform: (Apache-102-47)	Chart No. 1: L10	N 29 07' 35.000"	W 091 45' 08.000"	29.12639	-91.75222	LNM 12/15, 8th Dist	63	11351_1	4/2/2015
11351	Delete	Platform: (Cochon-100-26)	Chart No. 1: L10	N 29 21' 41.760"	W 091 29' 08.159"	29.3616	-91.4856	LNM 11/15, 8th Dist	63	11351_1	3/26/2015
11351	Add	Charenton Canal Buoy 26	R N "26" Priv	N 29 43' 58.000"	W 091 37' 33.000"	29.73278	-91.62583	LNM 04/15, 8th Dist	63	11351_1	3/26/2015
11351	Add	Platform: (Fieldwood-103-60)	Chart No. 1: L10	N 29 07' 35.237"	W 091 43' 07.971"	29.12646	-91.71888	LNM 10/15, 8th Dist	63	11351_1	3/19/2015
11351	Delete	Platform: (Cochon-100-21)	Chart No. 1: L10	N 29 21' 09.000"	W 091 30' 56.519"	29.3525	-91.5157	LNM 10/15, 8th Dist	63	11351_1	3/19/2015
11351	Delete	Platform:(Cochon-100-11)	Chart No. 1: L10	N 29 22' 11.934"	W 091 30' 36.072"	29.36998	-91.51002	LNM 10/15, 8th Dist	63	11351_1	3/19/2015
11351	Delete	Platform: (Cochon-100-37)	Chart No. 1: L10	N 29 21' 03.336"	W 091 30' 31.818"	29.35093	-91.50883	LNM 10/15, 8th Dist	63	11351_1	3/19/2015
11351	Delete	Platform: (Cochon-100-44)	Chart No. 1: L10	N 29 21' 23.400"	W 091 30' 05.399"	29.3565	-91.5015	LNM 10/15, 8th Dist	63	11351_1	3/19/2015
11351	Add	Platform: (Fieldwood-103-46)	Chart No. 1: L10	N 28 59' 14.874"	W 091 27' 28.001"	28.98746	-91.45778	LNM 07/15, 8th Dist	63	11351_1	2/26/2015
11351	Add	Platform: (Fieldwood-103-47)	Chart No. 1: L10	N 28 58' 59.912"	W 091 27' 00.727"	28.98331	-91.4502	LNM 07/15, 8th Dist	63	11351_1	2/26/2015
11351	Add	Platform: (Fieldwood-103-48)	Chart No. 1: L10	N 28 59' 17.776"	W 091 26' 56.839"	28.98827	-91.44912	LNM 07/15, 8th Dist	63	11351_1	2/26/2015
11351	Add	Platform: (Fieldwood-103-50)	Chart No. 1: L10	N 28 58' 45.055"	W 091 29' 03.508"	28.97918	-91.48431	LNM 07/15, 8th Dist	63	11351_1	2/26/2015
11351	Add	Platform: (Fieldwood-103-51)	Chart No. 1: L10	N 28 59' 31.538"	W 091 28' 39.215"	28.99209	-91.47756	LNM 07/15, 8th Dist	63	11351_1	2/26/2015
11351	Add	Platform: (Fieldwood-103-52)	Chart No. 1: L10	N 29 00' 22.237"	W 091 29' 20.468"	29.00618	-91.48902	LNM 07/15, 8th Dist	63	11351_1	2/26/2015
11351	Delete	Platform: (Fieldwood-103-300)	Chart No. 1: L10	N 29 02' 26.450"	W 091 27' 03.060"	29.04068	-91.45085	LNM 06/15, 8th Dist	63	11351_1	2/26/2015
11351	Delete	Platform: (Fieldwood-103-301)	Chart No. 1: L10	N 29 02' 37.658"	W 091 27' 20.613"	29.04379	-91.45573	LNM 06/15, 8th Dist	63	11351_1	2/26/2015
11351	Add	Platform: (Fieldwood-103-45)	Chart No. 1: L10	N 28 59' 12.336"	W 091 27' 53.441"	28.98676	-91.46484	LNM 06/15, 8th Dist	63	11351_1	2/26/2015
11351	Add	Charenton Canal Buoy 28	R N "28" Priv	N 29 44' 10.000"	W 091 37' 27.000"	29.73611	-91.62417	LNM 04/15, 8th Dist	63	11351_1	2/5/2015
11351	Add	Charenton Canal Buoy 30	R N "30" Priv	N 29 44' 22.000"	W 091 37' 20.000"	29.73944	-91.62222	LNM 04/15, 8th Dist	63	11351_1	2/5/2015
11351	Add	Charenton Canal Buoy 32	R N "32" Priv	N 29 44' 35.000"	W 091 37' 13.000"	29.74306	-91.62028	LNM 04/15, 8th Dist	63	11351_1	2/5/2015
11351	Add	Charenton Canal Buoy 36	R N "36" Priv	N 29 44' 59.000"	W 091 37' 00.000"	29.74972	-91.61667	LNM 04/15, 8th Dist	63	11351_1	2/5/2015
11351	Add	Charenton Canal Buoy 34	R N "34" Priv	N 29 44' 47.000"	W 091 37' 07.000"	29.74639	-91.61861	LNM 04/15, 8th Dist	63	11351_1	2/5/2015
11351	Delete	Charenton Canal Access Channel Daybeacon 2	R "2" Priv	N 29 38' 11.000"	W 091 39' 46.000"	29.63639	-91.66278	LNM 04/15, 8th Dist	63	11351_1	2/5/2015
11351	Delete	Charenton Canal Access Channel Daybeacon 6	R "6" Priv	N 29 39' 42.000"	W 091 39' 15.000"	29.66167	-91.65417	LNM 04/15, 8th Dist	63	11351_1	2/5/2015
11351	Delete	Charenton Canal Access Channel Daybeacon 8	R "8" Priv	N 29 40' 11.000"	W 091 39' 02.000"	29.66972	-91.65056	LNM 04/15, 8th Dist	63	11351_1	2/5/2015
11351	Delete	Charenton Canal Access Channel Daybeacon 10	R "10" Priv	N 29 40' 40.000"	W 091 38' 50.000"	29.67778	-91.64722	LNM 04/15, 8th Dist	63	11351_1	2/5/2015
11351	Delete	Charenton Canal Access Channel Daybeacon 12	R "12" Priv	N 29 41' 01.000"	W 091 38' 42.000"	29.68361	-91.645	LNM 04/15, 8th Dist	63	11351_1	2/5/2015
11351	Delete	Charenton Canal Access Channel Daybeacon 14	R "14" Priv	N 29 41' 23.000"	W 091 38' 33.000"	29.68972	-91.6425	LNM 04/15, 8th Dist	63	11351_1	2/5/2015
11351	Delete	Charenton Canal Access Channel Daybeacon 16	R "16" Priv	N 29 41' 45.000"	W 091 38' 35.000"	29.69583	-91.64306	LNM 04/15, 8th Dist	63	11351_1	2/5/2015
11351	Delete	Charenton Canal Access Channel Daybeacon 18	R "18" Priv	N 29 41' 59.000"	W 091 38' 19.000"	29.69972	-91.63861	LNM 04/15, 8th Dist	63	11351_1	2/5/2015
11351	Delete	Charenton Canal Access Channel Daybeacon 20	R "20" Priv	N 29 42' 14.000"	W 091 38' 14.000"	29.70389	-91.63722	LNM 04/15, 8th Dist	63	11351_1	2/5/2015
11351	Delete	Charenton Canal Access Channel Daybeacon 22	R "22" Priv	N 29 42' 28.000"	W 091 38' 08.000"	29.70778	-91.63556	LNM 04/15, 8th Dist	63	11351_1	2/5/2015
11351	Delete	Charenton Canal Access Channel Daybeacon 24	R "24" Priv	N 29 42' 42.000"	W 091 38' 02.000"	29.71167	-91.63389	LNM 04/15, 8th Dist	63	11351_1	2/5/2015
11351	Delete	Charenton Canal Access Channel Daybeacon 26	R "26" Priv	N 29 42' 51.000"	W 091 37' 58.000"	29.71417	-91.63277	LNM 04/15, 8th Dist	63	11351_1	2/5/2015
11351	Delete	Charenton Canal Access Channel Daybeacon 28	R "28" Priv	N 29 43' 01.000"	W 091 37' 54.000"	29.71694	-91.63167	LNM 04/15, 8th Dist	63	11351_1	2/5/2015
11351	Delete	Charenton Canal Access Channel Daybeacon 32	R "32" Priv	N 29 43' 19.000"	W 091 37' 47.000"	29.72194	-91.62972	LNM 04/15, 8th Dist	63	11351_1	2/5/2015
11351	Delete	Charenton Canal Access Channel Daybeacon 30	R "30" Priv	N 29 43' 10.000"	W 091 37' 51.000"	29.71944	-91.63084	LNM 04/15, 8th Dist	63	11351_1	2/5/2015
11351	Delete	Charenton Canal Access Channel Daybeacon 34	R "34" Priv	N 29 43' 41.000"	W 091 37' 38.000"	29.72806	-91.62722	LNM 04/15, 8th Dist	63	11351_1	2/5/2015
11351	Delete	Charenton Canal Access Channel Daybeacon 36	R "36" Priv	N 29 43' 51.000"	W 091 37' 34.000"	29.73083	-91.62611	LNM 04/15, 8th Dist	63	11351_1	2/5/2015
11351	Delete	Charenton Canal Access Channel Daybeacon 38	R "38" Priv	N 29 44' 02.000"	W 091 37' 27.000"	29.73389	-91.62417	LNM 04/15, 8th Dist	63	11351_1	2/5/2015
11351	Delete	Charenton Canal Access Channel Daybeacon 40	R "40" Priv	N 29 44' 22.000"	W 091 37' 19.000"	29.73944	-91.62195	LNM 04/15, 8th Dist	63	11351_1	2/5/2015
11351	Delete	Charenton Canal Entrance Channel Daybeacon 42	R "42" Priv	N 29 44' 40.000"	W 091 37' 09.000"	29.74444	-91.61916	LNM 04/15, 8th Dist	63	11351_1	2/5/2015
11351	Delete	Charenton Canal Entrance Channel Daybeacon 44	R "44" Priv	N 29 45' 00.000"	W 091 37' 00.000"	29.75	-91.61667	LNM 04/15, 8th Dist	63	11351_1	2/5/2015
11351	Add	Charenton Canal Buoy 2	R N "2" Priv	N 29 41' 17.000"	W 091 38' 36.000"	29.68806	-91.64333	LNM 04/15, 8th Dist	63	11351_1	2/5/2015
11351	Add	Charenton Canal Buoy 4	R N "4" Priv	N 29 41' 32.000"	W 091 38' 32.000"	29.69222	-91.64222	LNM 04/15, 8th Dist	63	11351_1	2/5/2015
11351	Add	Charenton Canal Buoy 6	R N "6" Priv	N 29 41' 43.000"	W 091 38' 28.000"	29.69528	-91.64111	LNM 04/15, 8th Dist	63	11351_1	2/5/2015
11351	Add	Charenton Canal Buoy 8	R N "8" Priv	N 29 41' 58.000"	W 091 38' 25.000"	29.69944	-91.64027	LNM 04/15, 8th Dist	63	11351_1	2/5/2015
11351	Add	Charenton Canal Buoy 10	R N "10" Priv	N 29 42' 12.000"	W 091 38' 19.000"	29.70333	-91.63861	LNM 04/15, 8th Dist	63	11351_1	2/5/2015
11351	Add	Charenton Canal Buoy 12	R N "12" Priv	N 29 42' 26.000"	W 091 38' 13.000"	29.70722	-91.63695	LNM 04/15, 8th Dist	63	11351_1	2/5/2015
11351	Add	Charenton Canal Buoy 14	R N "14" Priv	N 29 42' 39.000"	W 091 38' 08.000"	29.71083	-91.63556	LNM 04/15, 8th Dist	63	11351_1	2/5/2015
11351	Add	Charenton Canal Buoy 16	R N "16" Priv	N 29 42' 51.000"	W 091 38' 03.000"	29.71417	-91.63416	LNM 04/15, 8th Dist	63	11351_1	2/5/2015
11351	Add	Charenton Canal Buoy 18	R N "18" Priv	N 29 43' 05.000"	W 091 37' 58.000"	29.71806	-91.63277	LNM 04/15, 8th Dist	63	11351_1	2/5/2015
11351	Add	Charenton Canal Buoy 20	R N "20" Priv	N 29 43' 17.000"	W 091 37' 53.000"	29.72139	-91.63139	LNM 04/15, 8th Dist	63	11351_1	2/5/2015
11351	Add	Charenton Canal Buoy 22	R N "22" Priv	N 29 43' 29.000"	W 091 37' 47.000"	29.72472	-91.62972	LNM 04/15, 8th Dist	63	11351_1	2/5/2015
11351	Add	Charenton Canal Buoy 24	R N "24" Priv	N 29 43' 44.000"	W 091 37' 40.000"	29.72889	-91.62778	LNM 04/15, 8th Dist	63	11351_1	2/5/2015
11351	Delete	Platform: (Fieldwood-103-500)	Chart No. 1: L10	N 28 59' 11.200"	W 091 28' 38.499"	28.98644	-91.47736	LNM 02/15, 8th Dist	63	11351_1	1/22/2015
11351	Delete	Platform: (Fieldwood-103-19)	Chart No. 1: L10	N 29 02' 27.646"	W 091 28' 14.977"	29.04101	-91.47083	LNM 01/15, 8th Dist	63	11351_1	1/15/2015
11351	Add	Platform: (WA30-340-1113) (Gulfport Energy)	Chart No. 1: L10	N 29 40' 37.140"	W 091 47' 43.340"	29.67698	-91.79537	LNM 51/14, 8th Dist	63	11351_1	1/8/2015
11351	Delete	Platform: (Fieldwood-103-17)	Chart No. 1: L10	N 29 02' 01.569"	W 091 27' 01.787"	29.03377	-91.45049	LNM 50/14, 8th Dist	63	11351_1	1/1/2015
11351	Delete	Platform: (Fieldwood-103-21)	Chart No. 1: L10	N 29 06' 14.497"	W 091 42' 25.852"	29.10403	-91.70718	LNM 50/14, 8th Dist	63	11351_1	1/1/2015
11351	Delete	Platform: (Fieldwood-103-22)	Chart No. 1: L10	N 29 01' 52.195"	W 091 26' 30.998"	29.03117	-91.44194	LNM 50/14, 8th Dist	63	11351_1	1/1/2015
11351	Change	Depth Legend - Lower Atchafalaya River to:	8 FT 2014	N 29 42' 59.900"	W 091 13' 24.000"	29.71664	-91.22334	LNM 51/14, 8th Dist	63	11351_1	12/25/2014
11351	Add	Platform: (WA30-340-1112) (Gulfport Energy)	Chart No 1: L-10	N 29 40' 49.690"	W 091 48' 04.980"	29.68047	-91.80138	LNM 49/14, 8th Dist	63	11351_1	12/25/2014
11351	Change	tabulation - ATCHAFALAYA RIVER	tabulation - ATCHAFALAYA RIVER	N 29 17' 15.000"	W 091 15' 06.000"	29.2875	-91.25166	LNM 51/14, 8th Dist	63	11351_1	12/25/2014
11351	Add	Platform: (WA30-340-1111) (Gulfport Energy)	Chart No 1: L-10	N 29 41' 33.560"	W 091 47' 47.930"	29.69266	-91.79665	LNM 48/14, 8th Dist	63	11351_1	12/11/2014
11351	Add	Platform: (WA30-340-1110) (Gulfport Energy)	Chart No 1: L-10	N 29 39' 49.940"	W 091 47' 01.560"	29.66387	-91.78377	LNM 48/14, 8th Dist	63	11351_1	12/11/2014
11351	Add	Platform; (WA30-340-875) (Gulfport Energy)	Chart No 1: L-10	N 29 41' 02.310"	W 091 47' 26.650"	29.68398	-91.79073	LNM 45/14, 8th Dist	63	11351_1	11/20/2014
11351	Add	Platform: (WA30-340-1109) (Gulfport Energy)	Chart No 1: L-10	N 29 40' 52.960"	W 091 47' 33.770"	29.68138	-91.79272	LNM 45/14, 8th Dist	63	11351_1	11/20/2014
11351	Add	Platform: (WA30-340-1107) (Gulfport Energy)	Chart No 1: L-10	N 29 40' 22.630"	W 091 47' 29.740"	29.67295	-91.7916	LNM 44/14, 8th Dist	63	11351_1	11/13/2014
11351	Add	Platform: (WA30-340-1108) (Gulfport Energy)	Chart No 1: L-10	N 29 40' 37.960"	W 091 47' 29.840"	29.67721	-91.79163	LNM 44/14, 8th Dist	63	11351_1	11/13/2014
11351	Add	Obstruction	Obstn PA         Chart No. 1: K40	N 29 35' 25.300"	W 091 42' 38.000"	29.59036	-91.71056	LNM 45/14, 8th Dist	63	11351_1	11/13/2014
11351	Delete	Atchafalaya River Buoy 39A	G C "39A"	N 29 37' 53.288"	W 091 14' 49.882"	29.63147	-91.24719	LNM 42/14, 8th Dist	63	11351_1	11/6/2014
11351	Delete	Atchafalaya River Shoal Buoy 39	G C "39"	N 29 37' 48.081"	W 091 15' 03.552"	29.63002	-91.25098	LNM 42/14, 8th Dist	63	11351_1	11/6/2014
11351	Delete	Atchafalaya River Buoy 33	G C "33"	N 29 35' 03.478"	W 091 13' 59.128"	29.5843	-91.23309	LNM 42/14, 8th Dist	63	11351_1	11/6/2014
11351	Delete	Atchafalaya River Buoy 29	G C "29"	N 29 34' 14.050"	W 091 13' 50.849"	29.57057	-91.23079	LNM 42/14, 8th Dist	63	11351_1	11/6/2014
11351	Delete	Atchafalaya River Buoy 27	G C "27"	N 29 33' 25.287"	W 091 14' 05.455"	29.55702	-91.23485	LNM 42/14, 8th Dist	63	11351_1	11/6/2014
11351	Delete	Atchafalaya River Buoy 25	G C "25"	N 29 33' 05.499"	W 091 14' 22.716"	29.55153	-91.23965	LNM 42/14, 8th Dist	63	11351_1	11/6/2014
11351	Delete	Atchafalaya River Light 23	Fl G 4s 17ft 4M "23" Ra Ref	N 29 32' 47.676"	W 091 14' 56.322"	29.54658	-91.24898	LNM 42/14, 8th Dist	63	11351_1	11/6/2014
11351	Delete	Avoca Island Cutoff Channel Buoy 1	G C "1"	N 29 32' 28.777"	W 091 14' 53.756"	29.54133	-91.24827	LNM 42/14, 8th Dist	63	11351_1	11/6/2014
11351	Delete	Avoca Island Cutoff Channel Light 3	Fl G 2.5s 17ft 3M "3"	N 29 32' 18.790"	W 091 14' 44.891"	29.53855	-91.2458	LNM 42/14, 8th Dist	63	11351_1	11/6/2014
11351	Delete	Atchafalaya Channel Buoy 56	R N "56"	N 29 27' 24.185"	W 091 17' 09.538"	29.45672	-91.28598	LNM 42/14, 8th Dist	63	11351_1	11/6/2014
11351	Delete	Atchafalaya Channel Buoy 57	G C "57"	N 29 28' 00.632"	W 091 16' 50.653"	29.46684	-91.28074	LNM 42/14, 8th Dist	63	11351_1	11/6/2014
11351	Delete	Atchafalaya River Buoy 2	R N "2"	N 29 28' 47.489"	W 091 16' 19.116"	29.47986	-91.27198	LNM 42/14, 8th Dist	63	11351_1	11/6/2014
11351	Delete	Atchafalaya River Buoy 9	G C "9"	N 29 30' 58.041"	W 091 16' 28.573"	29.51612	-91.2746	LNM 42/14, 8th Dist	63	11351_1	11/6/2014
11351	Delete	Atchafalaya River Buoy 10	R N "10"	N 29 31' 02.620"	W 091 16' 21.136"	29.5174	-91.27254	LNM 42/14, 8th Dist	63	11351_1	11/6/2014
11351	Delete	Atchafalaya River Buoy 8	R N "8"	N 29 30' 46.049"	W 091 16' 07.016"	29.51279	-91.26862	LNM 42/14, 8th Dist	63	11351_1	11/6/2014
11351	Delete	Atchafalaya River Buoy 14	R N "14"	N 29 31' 44.965"	W 091 16' 45.016"	29.52916	-91.27917	LNM 42/14, 8th Dist	63	11351_1	11/6/2014
11351	Delete	Atchafalaya River Buoy 16	R N "16"	N 29 31' 58.564"	W 091 16' 44.192"	29.53293	-91.27895	LNM 42/14, 8th Dist	63	11351_1	11/6/2014
11351	Delete	Atchafalaya River Buoy 19	G C "19"	N 29 32' 35.295"	W 091 16' 02.487"	29.54314	-91.26736	LNM 42/14, 8th Dist	63	11351_1	11/6/2014
11351	Delete	Atchafalaya River Buoy 20	R N "20"	N 29 32' 29.039"	W 091 16' 06.555"	29.5414	-91.26849	LNM 42/14, 8th Dist	63	11351_1	11/6/2014
11351	Delete	Atchafalaya River Buoy 22	R N "22"	N 29 32' 28.936"	W 091 15' 27.050"	29.54137	-91.25751	LNM 42/14, 8th Dist	63	11351_1	11/6/2014
11351	Delete	Atchafalaya River Light 44	Fl R 2.5s 17ft 3M "44" Ra Ref	N 29 39' 15.691"	W 091 14' 26.161"	29.65436	-91.2406	LNM 42/14, 8th Dist	63	11351_1	11/6/2014
11351	Delete	Atchafalaya River Light 42	Fl R 4s 17ft 3M "42" Ra Ref	N 29 38' 19.467"	W 091 14' 17.689"	29.63874	-91.23825	LNM 42/14, 8th Dist	63	11351_1	11/6/2014
11351	Delete	Atchafalaya River Light 41	Fl G 2.5s 17ft 4M "41" Ra Ref	N 29 37' 59.995"	W 091 14' 40.775"	29.63333	-91.24466	LNM 42/14, 8th Dist	63	11351_1	11/6/2014
11351	Delete	Atchafalaya River Light 38	Fl R 6s 17ft 4M "38" Ra Ref 	N 29 37' 29.748"	W 091 15' 21.375"	29.62493	-91.25594	LNM 42/14, 8th Dist	63	11351_1	11/6/2014
11351	Delete	Atchafalaya River Light 37	FL G 6s 17ft 4M "37" Ra Ref	N 29 37' 32.029"	W 091 15' 31.776"	29.62556	-91.25883	LNM 42/14, 8th Dist	63	11351_1	11/6/2014
11351	Delete	Atchafalaya River Light 36	Fl R 2.5s 17ft 4M "36" Ra Ref	N 29 36' 30.200"	W 091 14' 48.084"	29.60839	-91.24669	LNM 42/14, 8th Dist	63	11351_1	11/6/2014
11351	Delete	Atchafalaya River Light 35	Fl G 4s 17ft 4M "35" Ra Ref	N 29 35' 35.762"	W 091 14' 24.377"	29.59327	-91.2401	LNM 42/14, 8th Dist	63	11351_1	11/6/2014
11351	Delete	Atchafalaya River Light 34	Fl R 4s 17ft 4M "34" Ra Ref	N 29 35' 30.640"	W 091 13' 59.431"	29.59184	-91.23318	LNM 42/14, 8th Dist	63	11351_1	11/6/2014
11351	Delete	Bayou Shaffer Junction Lighted Buoy B	RG "B" Fl (2+1) R 6s	N 29 34' 47.764"	W 091 13' 45.376"	29.57994	-91.22927	LNM 42/14, 8th Dist	63	11351_1	11/6/2014
11351	Delete	Atchafalaya River Light 31	Fl G 2.5s 17ft 3M "31" Ra Ref	N 29 34' 35.321"	W 091 13' 53.534"	29.57648	-91.23154	LNM 42/14, 8th Dist	63	11351_1	11/6/2014
11351	Delete	Atchafalaya River Light 32	Fl R 4s 17ft 4M "32" Ra Ref	N 29 34' 25.408"	W 091 13' 38.916"	29.57372	-91.22748	LNM 42/14, 8th Dist	63	11351_1	11/6/2014
11351	Delete	Atchafalaya River Light 28	Fl R 6s 17ft 4M "28" Ra Ref	N 29 33' 20.542"	W 091 13' 54.327"	29.55571	-91.23176	LNM 42/14, 8th Dist	63	11351_1	11/6/2014
11351	Delete	Atchafalaya Channel Lighted Buoy 54	R "54" Fl R 4s	N 29 26' 54.714"	W 091 17' 50.010"	29.44853	-91.29723	LNM 42/14, 8th Dist	63	11351_1	11/6/2014
11351	Delete	Atchafalaya Channel Lighted Buoy 55	G "55" Q G	N 29 27' 13.770"	W 091 17' 28.852"	29.45382	-91.29135	LNM 42/14, 8th Dist	63	11351_1	11/6/2014
11351	Delete	Atchafalaya Channel Lighted Buoy 58	R "58" Fl R 2.5s	N 29 28' 02.045"	W 091 16' 40.421"	29.46724	-91.27789	LNM 42/14, 8th Dist	63	11351_1	11/6/2014
11351	Delete	Atchafalaya River Light 1	Fl G 4s 4M "1" Ra Ref	N 29 29' 01.800"	W 091 16' 31.200"	29.48383	-91.27533	LNM 42/14, 8th Dist	63	11351_1	11/6/2014
11351	Delete	Atchafalaya River Lighted Buoy 12	R "12" Fl R 2.5s 	N 29 31' 23.066"	W 091 16' 37.816"	29.52307	-91.27717	LNM 42/14, 8th Dist	63	11351_1	11/6/2014
11351	Delete	Atchafalaya River Light 15	Fl G 2.5s 17ft 4M "15" Ra Ref	N 29 32' 00.691"	W 091 16' 48.205"	29.53353	-91.28006	LNM 42/14, 8th Dist	63	11351_1	11/6/2014
11351	Delete	Atchafalaya River Light 17	Fl G 4s 17ft 4M "17" Ra Ref	N 29 32' 22.437"	W 091 16' 34.037"	29.53957	-91.27612	LNM 42/14, 8th Dist	63	11351_1	11/6/2014
11351	Delete	Atchafalaya River Lighted Buoy 18	R "18" Fl R 4s	N 29 32' 18.618"	W 091 16' 30.910"	29.53851	-91.27525	LNM 42/14, 8th Dist	63	11351_1	11/6/2014
11351	Relocate	Atchafalaya River Light 5	Fl G 4s 17ft 3M "5" Ra Ref	N 29 29' 59.980"	W 091 16' 15.564"	29.49999	-91.27099	LNM 42/14, 8th Dist	63	11351_1	11/6/2014
11351	Change	Atchafalaya River Light 5	Fl G 4s 17ft 3M "5" Ra Ref	N 29 29' 59.980"	W 091 16' 15.564"	29.49999	-91.27099	LNM 42/14, 8th Dist	63	11351_1	11/6/2014
11351	Add	Atchafalaya River Light 11	Fl G 4s 17ft 3M "11" Ra Ref: 	N 29 32' 20.703"	W 091 16' 01.882"	29.53908	-91.26719	LNM 42/14, 8th Dist	63	11351_1	11/6/2014
11351	Add	Atchafalaya Channel Light 54	Fl R 4s 17ft 3M "54" Ra Ref	N 29 26' 53.283"	W 091 17' 48.459"	29.44813	-91.29679	LNM 42/14, 8th Dist	63	11351_1	11/6/2014
11351	Add	Atchafalaya Channel Light 55	Fl G 6s 17ft 3M "55" Ra Ref	N 29 27' 16.679"	W 091 17' 29.708"	29.45463	-91.29159	LNM 42/14, 8th Dist	63	11351_1	11/6/2014
11351	Add	Atchafalaya Channel Daybeacon 56	R "56" Ra Ref	N 29 27' 17.412"	W 091 17' 02.323"	29.45484	-91.28398	LNM 42/14, 8th Dist	63	11351_1	11/6/2014
11351	Add	Atchafalaya Channel Daybeacon 57	G "57" Ra Ref	N 29 27' 49.223"	W 091 17' 03.556"	29.46367	-91.28432	LNM 42/14, 8th Dist	63	11351_1	11/6/2014
11351	Add	Avoca Island Cutoff Channel Daybeacon 1	G "1" Ra Ref	N 29 32' 18.790"	W 091 14' 44.891"	29.53855	-91.2458	LNM 42/14, 8th Dist	63	11351_1	11/6/2014
11351	Add	Port of Morgan City Special Light A	Fl Y 2.5s "A" Priv	N 29 19' 05.090"	W 091 25' 47.160"	29.31808	-91.42976	LNM 42/14, 8th Dist	63	11351_1	11/6/2014
11351	Add	Avoca Island Cutoff Channel Light 2	Fl R 2.5s 17ft 3M "2" Ra Ref	N 29 32' 12.017"	W 091 14' 47.013"	29.53667	-91.24639	LNM 42/14, 8th Dist	63	11351_1	11/6/2014
11351	Add	Atchafalaya River Light 33	Fl G 2.5s 17ft 3M "33" Ra Ref	N 29 38' 01.127"	W 091 14' 38.330"	29.63365	-91.24398	LNM 42/14, 8th Dist	63	11351_1	11/6/2014
11351	Add	Atchafalaya River Light 28	Q R 17ft 3M "28" Ra Ref	N 29 37' 29.193"	W 091 15' 21.967"	29.62477	-91.2561	LNM 42/14, 8th Dist	63	11351_1	11/6/2014
11351	Add	Atchafalaya River Light 29	Fl G 4s 17ft 3M "29" Ra Ref	N 29 37' 32.029"	W 091 15' 31.776"	29.62556	-91.25883	LNM 42/14, 8th Dist	63	11351_1	11/6/2014
11351	Add	Atchafalaya River Light 27	Fl G 6s 17ft 3M "27" Ra Ref	N 29 36' 42.207"	W 091 15' 14.599"	29.61172	-91.25406	LNM 42/14, 8th Dist	63	11351_1	11/6/2014
11351	Add	Atchafalaya River Light 25	Fl G 4s 17ft 3M "25" Ra Ref	N 29 35' 34.029"	W 091 14' 22.020"	29.59278	-91.23945	LNM 42/14, 8th Dist	63	11351_1	11/6/2014
11351	Add	Atchafalaya River Light 24	Fl R 4s 17ft 3M "24" Ra Ref	N 29 35' 30.640"	W 091 13' 59.431"	29.59184	-91.23318	LNM 42/14, 8th Dist	63	11351_1	11/6/2014
11351	Add	Atchafalaya River Light 19	Fl G 4s 17ft 3M "19" Ra Ref	N 29 34' 13.992"	W 091 13' 51.459"	29.57055	-91.23096	LNM 42/14, 8th Dist	63	11351_1	11/6/2014
11351	Add	Atchafalaya River Light 20	Fl R 4s 17ft 3M "20" Ra Ref	N 29 34' 25.408"	W 091 13' 38.916"	29.57372	-91.22748	LNM 42/14, 8th Dist	63	11351_1	11/6/2014
11351	Add	Atchafalaya River Light 16	Fl R 2.5s 17ft 3M "16" Ra Ref	N 29 33' 20.911"	W 091 13' 54.202"	29.55581	-91.23172	LNM 42/14, 8th Dist	63	11351_1	11/6/2014
11351	Add	Atchafalaya River Light 13	Fl G 6s 17ft 3M "13" Ra Ref	N 29 32' 47.783"	W 091 14' 56.665"	29.54661	-91.24908	LNM 42/14, 8th Dist	63	11351_1	11/6/2014
11351	Add	Atchafalaya River Light 2	Fl R 2.5s 17ft 3M "2" Ra Ref	N 29 28' 46.811"	W 091 16' 16.929"	29.47967	-91.27137	LNM 42/14, 8th Dist	63	11351_1	11/6/2014
11351	Add	Atchafalaya River Light 3	Fl G 2.5s 17ft 3M "3" Ra Ref	N 29 29' 12.053"	W 091 16' 27.962"	29.48668	-91.27444	LNM 42/14, 8th Dist	63	11351_1	11/6/2014
11351	Add	Atchafalaya River Light 9	Fl G 2.5s 17ft 3M "9" Ra Ref	N 29 32' 04.973"	W 091 16' 14.642"	29.53472	-91.27074	LNM 42/14, 8th Dist	63	11351_1	11/6/2014
11351	Add	Atchafalaya River Light 10	Fl R 2.5s 17ft 3M "10" Ra Ref	N 29 32' 05.788"	W 091 15' 56.193"	29.53494	-91.26561	LNM 42/14, 8th Dist	63	11351_1	11/6/2014
11351	Add	Atchafalaya River Light 8	Fl R 2.5s 17ft 3M "8" Ra Ref	N 29 31' 25.038"	W 091 16' 04.025"	29.52362	-91.26778	LNM 42/14, 8th Dist	63	11351_1	11/6/2014
11351	Add	Atchafalaya River Light 12	Fl R 6s 17ft 3M "12" Ra Ref	N 29 32' 21.840"	W 091 15' 39.555"	29.5394	-91.26099	LNM 42/14, 8th Dist	63	11351_1	11/6/2014
11351	Add	Atchafalaya River Daybeacon 15	G "15" Ra Ref	N 29 33' 05.511"	W 091 14' 23.608"	29.55153	-91.23989	LNM 42/14, 8th Dist	63	11351_1	11/6/2014
11351	Add	Atchafalaya River Daybeacon 17	G "17" Ra Ref	N 29 33' 26.620"	W 091 14' 08.037"	29.55739	-91.23557	LNM 42/14, 8th Dist	63	11351_1	11/6/2014
11351	Add	Atchafalaya River Daybeacon 23	G "23" Ra Ref	N 29 35' 03.440"	W 091 13' 59.201"	29.58429	-91.23311	LNM 42/14, 8th Dist	63	11351_1	11/6/2014
11351	Add	Atchafalaya River Daybeacon 31 	G "31" Ra Ref	N 29 37' 53.265"	W 091 14' 49.807"	29.63146	-91.24717	LNM 42/14, 8th Dist	63	11351_1	11/6/2014
11351	Add	Atchafalaya River Junction Light C	Fl (2+1) R 6s 17ft 3M "C" Ra Ref	N 29 32' 30.307"	W 091 14' 53.843"	29.54175	-91.24829	LNM 42/14, 8th Dist	63	11351_1	11/6/2014
11351	Add	Atchafalaya River Light 26	Fl R 2.5s 17ft 3M "26" Ra Ref	N 29 36' 30.450"	W 091 14' 48.359"	29.60846	-91.24677	LNM 42/14, 8th Dist	63	11351_1	11/6/2014
11351	Add	Atchafalaya River Light 21	Fl G 2.5s 17ft 3M "21" Ra Ref	N 29 34' 35.321"	W 091 13' 53.534"	29.57648	-91.23154	LNM 42/14, 8th Dist	63	11351_1	11/6/2014
11351	Add	Atchafalaya River Light 34	Fl R 4s 17ft 3M "34" Ra Ref	N 29 38' 19.499"	W 091 14' 17.933"	29.63875	-91.23831	LNM 42/14, 8th Dist	63	11351_1	11/6/2014
11351	Add	Atchafalaya River Light 36	Fl R 2.5s 17ft 3M "36" Ra Ref	N 29 39' 15.691"	W 091 14' 26.161"	29.65436	-91.2406	LNM 42/14, 8th Dist	63	11351_1	11/6/2014
11351	Add	Port of Morgan City Special Light B	Fl Y 2.5s "B" Priv	N 29 22' 23.100"	W 091 23' 02.040"	29.37308	-91.3839	LNM 42/14, 8th Dist	63	11351_1	11/6/2014
11351	Add	Atchafalaya Channel Light 58	Fl R 6s 17ft 3M "58" Ra Ref	N 29 28' 00.347"	W 091 16' 36.758"	29.46676	-91.27688	LNM 42/14, 8th Dist	63	11351_1	11/6/2014
11351	Delete	Atchafalaya River Light 11	Fl G 4s 17ft 3M "11" Ra Ref: 	N 29 31' 29.255"	W 091 16' 46.666"	29.52479	-91.27963	LNM 42/14, 8th Dist	63	11351_1	11/6/2014
11351	Delete	Ivanhoe Canal Buoy 1	G C "1" Priv	N 29 44' 08.700"	W 091 44' 11.900"	29.73575	-91.73664	LNM 41/14, 8th Dist	63	11351_1	10/23/2014
11351	Delete	Ivanhoe Canal Buoy 5	G C "5" Priv	N 29 44' 18.600"	W 091 44' 16.000"	29.7385	-91.73778	LNM 41/14, 8th Dist	63	11351_1	10/23/2014
11351	Delete	Ivanhoe Canal Buoy 6	R N "6"  Priv	N 29 44' 19.100"	W 091 44' 14.400"	29.73864	-91.73734	LNM 41/14, 8th Dist	63	11351_1	10/23/2014
11351	Delete	Ivanhoe Canal Buoy 9	G C "9" Priv	N 29 44' 29.200"	W 091 44' 18.100"	29.74144	-91.73836	LNM 41/14, 8th Dist	63	11351_1	10/23/2014
11351	Delete	Ivanhoe Canal Buoy 13	G C "13"  Priv	N 29 44' 39.500"	W 091 44' 18.000"	29.7443	-91.73833	LNM 41/14, 8th Dist	63	11351_1	10/23/2014
11351	Delete	Ivanhoe Canal Buoy 14	R N "14" Priv	N 29 44' 39.500"	W 091 44' 16.300"	29.7443	-91.73786	LNM 41/14, 8th Dist	63	11351_1	10/23/2014
11351	Delete	Ivanhoe Canal Buoy 17	G C "17" Priv	N 29 44' 50.000"	W 091 44' 17.800"	29.74722	-91.73828	LNM 41/14, 8th Dist	63	11351_1	10/23/2014
11351	Delete	NOTE B	A depth of 4 1/2 feet has been reported between the aids leading to Ivanhoe Canal May 1983	N 29 44' 46.000"	W 091 44' 50.000"	29.74611	-91.74722	LNM 41/14, 8th Dist	63	11351_1	10/23/2014
11351	Delete	legend	(see note B)	N 29 44' 46.000"	W 091 44' 50.000"	29.74611	-91.74722	LNM 41/14, 8th Dist	63	11351_1	10/23/2014
11351	Add	Platform: (WA30-340-1106) (Gulfport Energy)	Chart No 1: L-10	N 29 40' 31.270"	W 091 47' 24.320"	29.67535	-91.79009	LNM 40/14, 8th Dist	63	11351_1	10/23/2014
11351	Add	Platform: (WA30-340-1105) (Gulfport Energy)	Chart No 1: L-10	N 29 41' 26.210"	W 091 48' 12.420"	29.69061	-91.80345	LNM 40/14, 8th Dist	63	11351_1	10/23/2014
11351	Add	Low Water Area	Chart No. 1: K1	N 29 44' 59.910"	W 091 13' 53.590"	29.74998	-91.23155	LNM 42/14, 8th Dist	63	11351_1	10/23/2014
11351	Change	Depth Legend - Avoca I Cutoff to:	6 FT BY 150 FT JUN 2014	N 29 32' 51.000"	W 091 12' 56.000"	29.5475	-91.21555	LNM 40/14, 8th Dist	63	11351_1	10/9/2014
11351	Change	Depth Legend - Avoca I Cutoff to:	6 FT BY 150 FT JUN 2014	N 29 35' 40.000"	W 091 11' 37.000"	29.59444	-91.19361	LNM 40/14, 8th Dist	63	11351_1	10/9/2014
11351	Add	Sounding in Feet	17	N 29 30' 59.000"	W 091 16' 24.200"	29.51639	-91.27339	LNM 40/14, 8th Dist	63	11351_1	10/2/2014
11351	Add	Sounding in Feet	29	N 29 31' 14.200"	W 091 16' 35.100"	29.52061	-91.27641	LNM 40/14, 8th Dist	63	11351_1	10/2/2014
11351	Add	Sounding in Feet	25	N 29 31' 52.600"	W 091 16' 48.000"	29.53128	-91.28	LNM 40/14, 8th Dist	63	11351_1	10/2/2014
11351	Add	Sounding in Feet	24	N 29 32' 08.300"	W 091 16' 43.300"	29.53564	-91.27869	LNM 40/14, 8th Dist	63	11351_1	10/2/2014
11351	Add	Sounding in Feet	3	N 29 32' 21.600"	W 091 16' 12.300"	29.53933	-91.27008	LNM 40/14, 8th Dist	63	11351_1	10/2/2014
11351	Add	Sounding in Feet	33	N 29 31' 36.000"	W 091 16' 45.000"	29.52667	-91.27917	LNM 40/14, 8th Dist	63	11351_1	10/2/2014
11351	Delete	Channel Limits PT 1 OF 2	Chart No. 1: I20	N 29 30' 39.200"	W 091 16' 11.200"	29.51089	-91.26978	LNM 40/14, 8th Dist	63	11351_1	10/2/2014
11351	Delete	Channel Limits PT 2 OF 2	Chart No. 1: I20	N 29 32' 55.400"	W 091 14' 28.300"	29.54872	-91.2412	LNM 40/14, 8th Dist	63	11351_1	10/2/2014
11351	Add	Sounding in Feet	20	N 29 32' 26.500"	W 091 16' 24.800"	29.5407	-91.27355	LNM 40/14, 8th Dist	63	11351_1	10/2/2014
11351	Add	Sounding in Feet	15	N 29 32' 32.000"	W 091 16' 07.600"	29.54222	-91.26878	LNM 40/14, 8th Dist	63	11351_1	10/2/2014
11351	Add	Sounding in Feet	24	N 29 30' 43.000"	W 091 16' 12.000"	29.51194	-91.27	LNM 40/14, 8th Dist	63	11351_1	10/2/2014
11351	Add	Sounding in Feet	16	N 29 32' 34.600"	W 091 15' 43.900"	29.54294	-91.26219	LNM 40/14, 8th Dist	63	11351_1	10/2/2014
11351	Add	Platform: (WA30-340-J-5) (Gulfport Energy)	Chart No 1: L-10	N 29 41' 00.010"	W 091 48' 28.920"	29.68334	-91.80804	LNM 38/14, 8th Dist	63	11351_1	10/2/2014
11351	Add	Platform: (WA30-340-J-14) (Gulfport Energy)	Chart No 1: L-10	N 29 41' 11.780"	W 091 48' 28.960"	29.68661	-91.80804	LNM 38/14, 8th Dist	63	11351_1	10/2/2014
11351	Add	Platform: (WA30-340-J-15) (Gulfport Energy)	Chart No 1: L-10	N 29 41' 19.100"	W 091 48' 28.920"	29.68864	-91.80804	LNM 38/14, 8th Dist	63	11351_1	10/2/2014
11351	Add	Platform: (WA30-340-J-27) (Gulfport Energy)	Chart No 1: L-10	N 29 41' 20.210"	W 091 47' 35.970"	29.68895	-91.79333	LNM 38/14, 8th Dist	63	11351_1	10/2/2014
11351	Add	Platform: (Wa30-340-J-80) (Gulfport Energy)	Chart No 1: L-10	N 29 40' 13.620"	W 091 46' 59.700"	29.67045	-91.78325	LNM 38/14, 8th Dist	63	11351_1	10/2/2014
11351	Add	Platform: (WA30-340-J-82) (Gulfport Energy)	Chart No 1: L-10	N 29 39' 41.970"	W 091 46' 59.780"	29.66166	-91.78327	LNM 38/14, 8th Dist	63	11351_1	10/2/2014
11351	Add	Platform:  (WA30-340-J-81) (Gulfport Energy)	Chart No 1: L-10	N 29 39' 59.120"	W 091 46' 59.740"	29.66642	-91.78326	LNM 38/14, 8th Dist	63	11351_1	10/2/2014
11351	Change	tabulation - Atchafalaya River	tabulation - Atchafalaya River	N 29 17' 15.000"	W 091 15' 06.000"	29.2875	-91.25166	LNM 40/14, 8th Dist	63	11351_1	10/2/2014
11351	Add	Platform: (WA30-340-1100) (Gulfport Energy)	Chart No 1:L-10	N 29 40' 04.560"	W 091 47' 31.160"	29.66793	-91.79199	LNM 37/14, 8th Dist	63	11351_1	10/2/2014
11351	Add	Platform: WA30-340-878 (Gulfport Energy)	Chart No 1: L-10	N 29 41' 01.660"	W 091 48' 43.060"	29.68379	-91.81196	LNM 37/14, 8th Dist	63	11351_1	10/2/2014
11351	Add	Platform: (WA30-340-1099) (Gulfport Energy)	Chart No 1: L-10	N 29 40' 07.820"	W 091 47' 19.910"	29.66884	-91.78886	LNM 37/14, 8th Dist	63	11351_1	10/2/2014
11351	Add	Platform: WA30-340-879 (Gulfport Energy)	Chart No 1: L-10	N 29 40' 21.210"	W 091 47' 48.190"	29.67256	-91.79672	LNM 37/14, 8th Dist	63	11351_1	10/2/2014
11351	Add	Platform: (WA30-340-1098) (Gulfport Energy)	Chart No 1: L-10	N 29 39' 50.740"	W 091 46' 58.180"	29.66409	-91.78283	LNM 37/14, 8th Dist	63	11351_1	10/2/2014
11351	Add	Platform: WA30-340-881 (Gulfport Energy)	Chart No 1: L-10	N 29 40' 39.800"	W 091 47' 41.350"	29.67772	-91.79482	LNM 37/14, 8th Dist	63	11351_1	10/2/2014
11351	Add	Platform: WA30-340-882 (Gulfport Energy)	Chart No 1: L-10	N 29 40' 14.670"	W 091 47' 30.440"	29.67074	-91.79179	LNM 37/14, 8th Dist	63	11351_1	10/2/2014
11351	Add	Platform: WA30-340-883 (Gulfport Energy)	Chart No 1: L-10	N 29 40' 03.890"	W 091 47' 22.630"	29.66775	-91.78962	LNM 37/14, 8th Dist	63	11351_1	10/2/2014
11351	Delete	Platform: (EnVen-104-1)	Chart No 1: L-10	N 29 15' 11.000"	W 091 34' 31.000"	29.25306	-91.57528	LNM 37/14, 8th Dist	63	11351_1	10/2/2014
11351	Add	Platform (WA30-340-1102) (Gulfport Energy)	Chart No 1: L-10	N 29 39' 57.340"	W 091 47' 04.220"	29.66593	-91.78451	LNM 37/14, 8th Dist	63	11351_1	10/2/2014
11351	Add	Platform: (WA30-340-1104) (Gulfport Energy)	Chart No 1: L-10	N 29 41' 18.500"	W 091 47' 57.290"	29.68847	-91.79925	LNM 37/14, 8th Dist	63	11351_1	10/2/2014
11351	Add	Platform: (WA30-340-J-1A) (Gulfport Energy)	Chart No 1 ; L-10	N 29 41' 16.630"	W 091 47' 59.060"	29.68795	-91.79974	LNM 37/14, 8th Dist	63	11351_1	10/2/2014
11351	Add	Platform: WA30-340-J-66 (Gulfport Energy)	Chart No 1: L-10	N 29 41' 23.280"	W 091 47' 59.490"	29.6898	-91.79986	LNM 37/14, 8th Dist	63	11351_1	10/2/2014
11351	Add	Platform: WA30-340-J-52 (Gulfport Energy)	Chart No 1: L-10	N 29 40' 55.010"	W 091 47' 59.490"	29.68195	-91.79986	LNM 37/14, 8th Dist	63	11351_1	10/2/2014
11351	Add	Platform: WA30-340-J-38 (Gulfport Energy)	Chart No 1: L-10	N 29 40' 24.590"	W 091 47' 39.620"	29.6735	-91.79434	LNM 37/14, 8th Dist	63	11351_1	10/2/2014
11351	Add	Platform: (WA30-340-J-B2-South) (Gulfport Energy)	Chart No 1: L-10	N 29 41' 41.090"	W 091 47' 59.600"	29.69475	-91.79989	LNM 37/14, 8th Dist	63	11351_1	10/2/2014
11351	Add	Platform: WA30-340-J-29 (Gulfport Energy)	Chart No 1: L-10	N 29 41' 32.060"	W 091 47' 35.970"	29.69224	-91.79333	LNM 37/14, 8th Dist	63	11351_1	10/2/2014
11351	Add	Platform: (WA30-340-J-B3-North) (Gulfport Energy)	Chart No 1: L-10	N 29 40' 28.300"	W 091 47' 59.470"	29.67453	-91.79985	LNM 37/14, 8th Dist	63	11351_1	10/2/2014
11351	Add	Platform: WA30-340-J-B3-SOUTH (Gulfport Energy)	Chart No 1: L-10	N 29 40' 22.580"	W 091 47' 59.450"	29.67294	-91.79985	LNM 37/14, 8th Dist	63	11351_1	10/2/2014
11351	Add	Platform: WA30-340-J-32 (Gulfport Energy)	Chart No 1; L-10	N 29 41' 51.370"	W 091 47' 35.970"	29.6976	-91.79333	LNM 37/14, 8th Dist	63	11351_1	10/2/2014
11351	Add	Platform	Chart No 1; L-10	N 29 40' 34.790"	W 091 46' 57.780"	29.67633	-91.78271	LNM 36/14, 8th Dist	63	11351_1	9/18/2014
11351	Add	Platform	Chart no 1: L-10	N 29 40' 02.970"	W 091 47' 08.110"	29.66749	-91.78558	LNM 36/14, 8th Dist	63	11351_1	9/18/2014
11351	Add	Platform	Chart no 1: L-10	N 29 41' 27.630"	W 091 49' 13.960"	29.69101	-91.82054	LNM 36/14, 8th Dist	63	11351_1	9/18/2014
11351	Add	Platform	Chart No 1: L-10	N 29 41' 23.730"	W 091 47' 00.430"	29.68992	-91.78345	LNM 36/14, 8th Dist	63	11351_1	9/18/2014
11351	Add	Platform	Chart No 1: L-10	N 29 39' 48.500"	W 091 47' 33.430"	29.66347	-91.79262	LNM 36/14, 8th Dist	63	11351_1	9/18/2014
11351	Add	Platform	Chart No 1: L-10	N 29 41' 38.090"	W 091 48' 00.220"	29.69391	-91.80006	LNM 36/14, 8th Dist	63	11351_1	9/18/2014
11351	Add	Platform	Chart No 1: L-10	N 29 39' 39.370"	W 091 47' 02.360"	29.66094	-91.78399	LNM 36/14, 8th Dist	63	11351_1	9/18/2014
11351	Add	Platform	Chart No 1: L-10	N 29 41' 41.940"	W 091 47' 42.030"	29.69498	-91.79501	LNM 36/14, 8th Dist	63	11351_1	9/18/2014
11351	Add	Platform	Chart No 1: L-10	N 29 41' 01.490"	W 091 48' 27.250"	29.68375	-91.80757	LNM 36/14, 8th Dist	63	11351_1	9/18/2014
11351	Add	Platform	Chart No 1: L-10	N 29 42' 12.240"	W 091 48' 21.710"	29.7034	-91.80603	LNM 36/14, 8th Dist	63	11351_1	9/18/2014
11351	Add	Platform	Chart No 1: L-10	N 29 41' 56.400"	W 091 48' 21.580"	29.699	-91.80599	LNM 36/14, 8th Dist	63	11351_1	9/18/2014
11351	Delete	Platform: (W&T Offshore-116-30)	Chart No 1: L-10	N 29 00' 08.135"	W 091 33' 41.491"	29.00226	-91.56152	LNM 34/14, 8th Dist	63	11351_1	9/4/2014
11351	Relocate	Atchafalaya River Buoy 20	R N "20"	N 29 32' 29.039"	W 091 16' 06.555"	29.5414	-91.26849	LNM 33/14, 8th Dist	63	11351_1	8/28/2014
11351	Delete	Atchafalaya Channel Buoy 21	G C "21"	N 29 18' 40.322"	W 091 26' 18.315"	29.3112	-91.43842	LNM 25/14, 8th Dist	63	11351_1	7/3/2014
11351	Add	Atchafalaya Channel Daybeacon 21	G "21" Ra Ref	N 29 18' 40.355"	W 091 26' 18.323"	29.31121	-91.43842	LNM 25/14, 8th Dist	63	11351_1	7/3/2014
11351	Add	Platform: (Wa30-340-1097) (Gulfport Energy)	Chart No. 1: L10	N 29 40' 16.430"	W 091 47' 55.470"	29.67123	-91.79874	LNM 25/14, 8th Dist	63	11351_1	7/3/2014
11351	Delete	Platform: (Chevron-153-7)	Chart No. 1: L10	N 29 11' 45.500"	W 091 36' 42.600"	29.19597	-91.61183	LNM 24/14, 8th Dist	63	11351_1	6/26/2014
11351	Delete	Platform: (Chevron-153-3)	Chart No. 1: L10	N 29 08' 27.000"	W 091 38' 21.000"	29.14083	-91.63917	LNM 24/14, 8th Dist	63	11351_1	6/26/2014
11351	Delete	Platform: (Chevron-153-4)	Chart No. 1: L10	N 29 08' 10.200"	W 091 38' 07.700"	29.13617	-91.63548	LNM 24/14, 8th Dist	63	11351_1	6/26/2014
11351	Relocate	Atchafalaya Channel Buoy 57	G C "57"	N 29 28' 00.632"	W 091 16' 50.653"	29.46684	-91.28074	LNM 24/14, 8th Dist	63	11351_1	6/26/2014
11351	Relocate	Atchafalaya Channel Lighted Buoy 58	R "58" Fl R 2.5s	N 29 28' 02.045"	W 091 16' 40.421"	29.46724	-91.27789	LNM 24/14, 8th Dist	63	11351_1	6/26/2014
11351	Delete	Platform: (Chevron-209-23)	Chart No. 1: L10	N 29 09' 15.586"	W 091 37' 11.693"	29.15433	-91.61991	LNM 24/14, 8th Dist	63	11351_1	6/26/2014
11351	Delete	Platform: (Chevron-210-25)	Chart No. 1: L10	N 29 09' 42.524"	W 091 38' 43.367"	29.16181	-91.64538	LNM 24/14, 8th Dist	63	11351_1	6/26/2014
11351	Add	Platform: (Fieldwood-103-28)	Chart No. 1: L10	N 28 59' 04.996"	W 091 26' 57.379"	28.98472	-91.44927	LNM 23/14, 8th Dist	63	11351_1	6/19/2014
11351	Delete	Platform: (Fieldwood-103-200)	Chart No. 1: L10	N 28 59' 21.721"	W 091 28' 11.730"	28.98937	-91.46992	LNM 23/14, 8th Dist	63	11351_1	6/19/2014
11351	Change	tabulation - ATCHAFALAYA RIVER	tabulation - ATCHAFALAYA RIVER	N 29 17' 15.000"	W 091 15' 06.000"	29.2875	-91.25166	LNM 24/14, 8th Dist	63	11351_1	6/19/2014
11351	Add	Platform: (Fieldwood-103-25)	Chart No. 1: L10	N 28 59' 25.206"	W 091 28' 30.943"	28.99034	-91.47527	LNM 22/14, 8th Dist	63	11351_1	6/12/2014
11351	Add	Platform: (WA30-340-1094) (Gulfport Energy)	Chart No. 1: L10	N 29 42' 04.040"	W 091 47' 50.050"	29.70112	-91.79723	LNM 19/14, 8th Dist	63	11351_1	5/22/2014
11351	Add	Platform: (WA30-340-1095) (Gulfport Energy)	Chart No. 1: L10	N 29 40' 51.050"	W 091 47' 14.650"	29.68085	-91.7874	LNM 19/14, 8th Dist	63	11351_1	5/22/2014
11351	Add	Submarine Pipeline  PT 1 OF 2	Chart No. 1: L40.1	N 28 58' 01.240"	W 091 22' 59.340"	28.96701	-91.38315	LNM 20/14, 8th Dist	63	11351_1	5/22/2014
11351	Add	Submarine Pipeline  PT 2 OF 2	Chart No. 1: L40.1	N 29 02' 56.870"	W 091 22' 11.580"	29.04913	-91.36988	LNM 20/14, 8th Dist	63	11351_1	5/22/2014
11351	Add	Platform: (WA30-340-1087) (Gulfport Energy)	Chart No. 1: L10	N 29 41' 18.320"	W 091 48' 02.020"	29.68842	-91.80056	LNM 18/14, 8th Dist	63	11351_1	5/15/2014
11351	Add	Platform: (WA30-340-1088) (Gulfport Energy)	Chart No. 1: L10	N 29 40' 19.350"	W 091 47' 50.000"	29.67204	-91.79723	LNM 18/14, 8th Dist	63	11351_1	5/15/2014
11351	Add	Platform: (WA30-340-1091) (Gulfport Energy)	Chart No. 1: L10	N 29 41' 30.060"	W 091 48' 14.270"	29.69168	-91.80396	LNM 18/14, 8th Dist	63	11351_1	5/15/2014
11351	Add	Platform: (WA30-340-1092) (Gulfport Energy)	Chart No. 1: L10	N 29 41' 39.790"	W 091 48' 14.640"	29.69439	-91.80407	LNM 18/14, 8th Dist	63	11351_1	5/15/2014
11351	Add	Platform: (WA30-340-1093) (Gulfport Energy)	Chart No. 1: L10	N 29 41' 34.090"	W 091 48' 07.320"	29.6928	-91.80203	LNM 18/14, 8th Dist	63	11351_1	5/15/2014
11351	Add	Sounding in Feet	17	N 28 58' 11.600"	W 091 27' 49.500"	28.96989	-91.46375	LNM 17/14, 8th Dist	63	11351_1	4/24/2014
11351	Add	Sounding in Feet	15	N 28 58' 20.300"	W 091 27' 48.600"	28.97231	-91.4635	LNM 17/14, 8th Dist	63	11351_1	4/24/2014
11351	Add	Obstruction in Feet	33 Obstn       Chart No. 1: K41	N 28 58' 14.600"	W 091 28' 27.800"	28.97072	-91.47439	LNM 17/14, 8th Dist	63	11351_1	4/24/2014
11351	Add	Sounding in Feet	15	N 28 58' 21.800"	W 091 28' 00.700"	28.97272	-91.46686	LNM 17/14, 8th Dist	63	11351_1	4/24/2014
11351	Add	Obstruction in Feet	35 Obstn       Chart No. 1: K41	N 28 58' 06.200"	W 091 29' 02.400"	28.96839	-91.484	LNM 17/14, 8th Dist	63	11351_1	4/24/2014
11351	Change	tabulation - ATCHAFALAYA RIVER	tabulation - ATCHAFALAYA RIVER	N 29 17' 15.000"	W 091 15' 06.000"	29.2875	-91.25166	LNM 15/14, 8th Dist	63	11351_1	4/10/2014
11351	Add	Atchafalaya River & Bayous Chene, Boeuf, and Black - West dump site PT 1 OF 4	Chart No. 1 N24	N 29 22' 06.000"	W 091 27' 38.000"	29.36833	-91.46056	LNM 15/14, 8th Dist	63	11351_1	4/10/2014
11351	Add	Atchafalaya River & Bayous Chene, Boeuf, and Black - West dump site PT 2 OF 4	Chart No. 1 N24	N 29 20' 30.000"	W 091 25' 13.000"	29.34167	-91.42028	LNM 15/14, 8th Dist	63	11351_1	4/10/2014
11351	Add	Atchafalaya River & Bayous Chene, Boeuf, and Black - West dump site PT 3 OF 4	Chart No. 1 N24	N 29 09' 16.000"	W 091 35' 12.000"	29.15444	-91.58667	LNM 15/14, 8th Dist	63	11351_1	4/10/2014
11351	Add	Atchafalaya River & Bayous Chene, Boeuf, and Black - West dump site PT 4 OF 4	Chart No. 1 N24	N 29 10' 52.000"	W 091 37' 33.000"	29.18111	-91.62583	LNM 15/14, 8th Dist	63	11351_1	4/10/2014
11351	Add	Dump Site Label	Dump Site (dredged material) (see note S) Depths from surveys of 1935-2010	N 29 20' 19.090"	W 091 27' 11.580"	29.33864	-91.45322	LNM 15/14, 8th Dist	63	11351_1	4/10/2014
11351	Add	Dump Site Label	Dump Site (dredged material) (see note S) Depths from surveys of 1935-2010	N 29 11' 59.020"	W 091 34' 42.660"	29.19973	-91.57851	LNM 15/14, 8th Dist	63	11351_1	4/10/2014
11351	Add	Pipeline Area PT 1 OF 4	Pipeline Area, Chart No. 1: L40.2	N 29 28' 09.450"	W 091 17' 07.310"	29.46929	-91.28536	LNM 11/14, 8th Dist	63	11351_1	3/13/2014
11351	Add	Pipeline Area PT 2 OF 4	Pipeline Area, Chart No. 1: L40.2	N 29 27' 36.880"	W 091 16' 40.450"	29.46025	-91.2779	LNM 11/14, 8th Dist	63	11351_1	3/13/2014
11351	Add	Pipeline Area PT 3 OF 4	Pipeline Area, Chart No. 1: L40.2	N 29 27' 49.410"	W 091 16' 34.700"	29.46372	-91.27631	LNM 11/14, 8th Dist	63	11351_1	3/13/2014
11351	Add	Pipeline Area PT 4 OF 4	Pipeline Area, Chart No. 1: L40.2	N 29 28' 19.310"	W 091 16' 59.750"	29.47203	-91.28326	LNM 11/14, 8th Dist	63	11351_1	3/13/2014
11351	Delete	Platform: (Cochon-100-18)	Chart No. 1: L10	N 29 21' 28.439"	W 091 29' 34.799"	29.3579	-91.493	LNM 09/14, 8th Dist	63	11351_1	3/13/2014
11351	Delete	Platform: (Cochon-100-31)	Chart No. 1: L10	N 29 21' 12.312"	W 091 29' 40.278"	29.35342	-91.49452	LNM 09/14, 8th Dist	63	11351_1	3/13/2014
11351	Delete	Platform: (Cochon-100-3)	Chart No. 1: L10	N 29 22' 14.520"	W 091 30' 20.520"	29.3707	-91.5057	LNM 09/14, 8th Dist	63	11351_1	3/13/2014
11351	Delete	Platform: (Cochon-100-15)	Chart No. 1: L10	N 29 22' 09.672"	W 091 30' 24.834"	29.36935	-91.5069	LNM 09/14, 8th Dist	63	11351_1	3/13/2014
11351	Delete	Platform: (Cochon-100-47)	Chart No. 1: L10	N 29 22' 20.999"	W 091 30' 13.319"	29.3725	-91.5037	LNM 09/14, 8th Dist	63	11351_1	3/13/2014
11351	Delete	Platform: (Cochon-100-12)	Chart No. 1: L10	N 29 20' 56.040"	W 091 31' 11.640"	29.3489	-91.5199	LNM 09/14, 8th Dist	63	11351_1	3/13/2014
11351	Delete	Platform: (Cochon-100-10)	Chart No. 1: L10	N 29 20' 56.040"	W 091 30' 26.640"	29.3489	-91.5074	LNM 09/14, 8th Dist	63	11351_1	3/13/2014
11351	Add	Platform: (WA30-340-887) (Gulfport Energy)	Chart No. 1: L10	N 29 39' 29.000"	W 091 48' 33.000"	29.65806	-91.80917	LNM 08/14, 8th Dist	63	11351_1	3/6/2014
11351	Delete	Platform: (Cochon-100-19)	Chart No. 1: L10	N 29 21' 02.520"	W 091 30' 47.880"	29.3507	-91.5133	LNM 08/14, 8th Dist	63	11351_1	3/6/2014
11351	Delete	Platform: (Cochon-100-42)	Chart No. 1: L10	N 29 21' 42.479"	W 091 30' 24.840"	29.3618	-91.5069	LNM 08/14, 8th Dist	63	11351_1	3/6/2014
11351	Delete	Platform: (Cochon-100-41)	Chart No. 1: L10	N 29 21' 03.288"	W 091 30' 57.966"	29.35091	-91.5161	LNM 08/14, 8th Dist	63	11351_1	3/6/2014
11351	Delete	Platform: (Cochon-100-43)	Chart No. 1: L10	N 29 21' 10.440"	W 091 30' 38.159"	29.3529	-91.5106	LNM 08/14, 8th Dist	63	11351_1	3/6/2014
11351	Delete	Platform: (Cochon-100-2)	Chart No. 1: L10	N 29 20' 57.119"	W 091 31' 30.000"	29.3492	-91.525	LNM 08/14, 8th Dist	63	11351_1	3/6/2014
11351	Delete	Platform: (Cochon-100-24)	Chart No. 1: L10	N 29 21' 49.136"	W 091 29' 42.508"	29.36365	-91.49514	LNM 08/14, 8th Dist	63	11351_1	3/6/2014
11351	Delete	Platform: (Cochon-100-13)	Chart No. 1: L10	N 29 21' 21.959"	W 091 29' 42.000"	29.3561	-91.495	LNM 08/14, 8th Dist	63	11351_1	3/6/2014
11351	Delete	Platform: (Cochon-100-16)	Chart No. 1: L10	N 29 20' 53.519"	W 091 29' 25.800"	29.3482	-91.4905	LNM 08/14, 8th Dist	63	11351_1	3/6/2014
11351	Add	Platform: (WA30-340-1090) (Gulfport Energy)	Chart No. 1: L10	N 29 40' 51.730"	W 091 47' 39.810"	29.68104	-91.7944	LNM 07/14, 8th Dist	63	11351_1	2/27/2014
11351	Add	Platform: (Wa30-340-892)(Gulfport)	Chart No. 1: L10	N 29 41' 45.000"	W 091 47' 45.000"	29.69583	-91.79583	LNM 06/14, 8th Dist	63	11351_1	2/20/2014
11351	Add	Platform: (WA30-340-893) (Gulfport Energy)	Chart No. 1: L10	N 29 38' 04.000"	W 091 49' 17.000"	29.63445	-91.82139	LNM 06/14, 8th Dist	63	11351_1	2/20/2014
11351	Delete	Obstruction	Obstn PA         Chart No. 1: K40	N 29 00' 00.220"	W 091 17' 27.710"	29.00006	-91.29103	LNM 07/14, 8th Dist	63	11351_1	2/13/2014
11351	Delete	Dangerous Wreck	PA      Chart No. 1: K28	N 28 58' 55.440"	W 091 13' 06.410"	28.98207	-91.21844	LNM 07/14, 8th Dist	63	11351_1	2/13/2014
11351	Delete	Dangerous Wreck	PA      Chart No. 1: K28	N 28 58' 30.280"	W 091 13' 04.700"	28.97508	-91.21797	LNM 07/14, 8th Dist	63	11351_1	2/13/2014
11351	Add	Wreck in Feet	33 Wk      Chart No. 1: K26	N 28 58' 35.500"	W 091 29' 27.200"	28.97653	-91.49089	LNM 06/14, 8th Dist	63	11351_1	2/6/2014
11351	Change	tabulation - Atchafalaya River	tabulation - Atchafalaya River	N 29 17' 15.000"	W 091 15' 06.000"	29.2875	-91.25166	LNM 06/14, 8th Dist	63	11351_1	2/6/2014
11351	Add	Platform: (Wa30-340-4)(Gulfport Energy)	Chart No. 1: L10	N 29 40' 39.000"	W 091 48' 22.000"	29.6775	-91.80611	LNM 50/13, 8th Dist	63	11351_1	12/13/2013
11351	Add	Platform: (Wa30-340-886)(Gulfport Energy)	Chart No. 1: L10	N 29 40' 37.000"	W 091 48' 15.000"	29.67694	-91.80417	LNM 50/13, 8th Dist	63	11351_1	12/13/2013
11351	Add	Obstruction	Obstn PA         Chart No. 1: K40	N 29 08' 22.320"	W 091 13' 25.200"	29.13953	-91.22366	LNM 50/13, 8th Dist	63	11351_1	12/6/2013
11351	Change	tabulation - Atchafalaya River	tabulation - Atchafalaya River	N 29 17' 15.000"	W 091 15' 06.000"	29.2875	-91.25166	LNM 48/13, 8th Dist	63	11351_1	11/22/2013
11351	Delete	Platform: (Pisces-102-2)	Chart No. 1: L10	N 29 13' 19.033"	W 091 34' 47.150"	29.22195	-91.57977	LNM 47/13, 8th Dist	63	11351_1	11/22/2013
11351	Delete	Platform: (Apache-102-86)	Chart No. 1: L10	N 29 12' 57.830"	W 091 36' 03.740"	29.21606	-91.60104	LNM 45/13, 8th Dist	63	11351_1	11/8/2013
11351	Add	Platform: (Wa30-340-994) (Gulfport Energy)	Chart No. 1: L10	N 29 41' 31.000"	W 091 47' 33.000"	29.69194	-91.7925	LNM 44/13, 8th Dist	63	11351_1	11/4/2013
11351	Add	Platform: (Wa30-340-970)(Gulfport Energy)	Chart No. 1: L10	N 29 40' 24.000"	W 091 48' 02.000"	29.67333	-91.80055	LNM 44/13, 8th Dist	63	11351_1	11/4/2013
11351	Add	Platform: (Wa30-340-898)(Gulfport Energy)	Chart No. 1: L10	N 29 40' 13.000"	W 091 48' 18.000"	29.67028	-91.805	LNM 44/13, 8th Dist	63	11351_1	11/4/2013
11351	Add	Platform: (Wa30-340-966)(Gulfport Energy)	Chart No. 1: L10	N 29 42' 10.000"	W 091 47' 42.000"	29.70278	-91.795	LNM 44/13, 8th Dist	63	11351_1	11/4/2013
11351	Delete	Platform: (Tana-104-2)	Chart No. 1: L10	N 29 05' 39.640"	W 091 32' 19.300"	29.09435	-91.5387	LNM 43/13, 8th Dist	63	11351_1	10/28/2013
11351	Delete	Platform: (Tana-104-3)	Chart No. 1: L10	N 29 05' 27.590"	W 091 32' 04.350"	29.091	-91.53454	LNM 43/13, 8th Dist	63	11351_1	10/28/2013
11351	Relocate	Atchafalaya Channel Light 51	Fl G 2.5s 17ft 3M "51" Ra Ref	N 29 26' 51.484"	W 091 18' 29.677"	29.44763	-91.30824	LNM 42/13, 8th Dist	63	11351_1	10/21/2013
11351	Relocate	Atchafalaya Channel Buoy 57	G C "57"	N 29 27' 41.763"	W 091 16' 59.353"	29.4616	-91.28316	LNM 42/13, 8th Dist	63	11351_1	10/21/2013
11351	Delete	Platform: (Tana-104-4)	Chart No. 1: L10	N 29 04' 24.519"	W 091 33' 43.513"	29.07348	-91.56209	LNM 42/13, 8th Dist	63	11351_1	10/21/2013
11351	Change	Depth Legend - Avoca I Cutoff to:	7 FT BY 150 FT SEP 2013	N 29 35' 40.000"	W 091 11' 37.000"	29.59444	-91.19361	LNM 43/13, 8th Dist	63	11351_1	10/16/2013
11351	Change	Depth Legend - Avoca I Cutoff to:	7 FT BY 150 FT SEP 2013	N 29 32' 51.000"	W 091 12' 56.000"	29.5475	-91.21555	LNM 43/13, 8th Dist	63	11351_1	10/16/2013
11351	Delete	Platform: (Stone Energy-105-5)	Chart No. 1: L10	N 29 14' 50.179"	W 091 25' 05.272"	29.24727	-91.41813	LNM 41/13, 8th Dist	63	11351_1	10/11/2013
11351	Relocate	Dangerous Wreck - Mast	Mast PA      Chart No. 1: K25	N 29 19' 43.800"	W 091 30' 56.400"	29.32883	-91.51566	LNM 40/13, 8th Dist	63	11351_1	10/4/2013
11351	Add	Platform: (Wa30-340-1074)(Gulfport Energy)	Chart No. 1: L10	N 29 40' 25.000"	W 091 47' 50.000"	29.67361	-91.79723	LNM 38/13, 8th Dist	63	11351_1	9/20/2013
11351	Add	Platform: (Wa30-340-1077)(Gulfport Energy)	Chart No. 1: L10	N 29 41' 25.850"	W 091 47' 52.300"	29.69051	-91.79786	LNM 38/13, 8th Dist	63	11351_1	9/20/2013
11351	Add	Platform	Chart No. 1: L10	N 28 59' 13.420"	W 091 27' 53.800"	28.98706	-91.46494	LNM 39/13, 8th Dist	63	11351_1	9/18/2013
11351	Add	Platform	Chart No. 1: L10	N 28 59' 15.890"	W 091 27' 27.960"	28.98775	-91.45776	LNM 39/13, 8th Dist	63	11351_1	9/18/2013
11351	Add	Platform	Chart No. 1: L10	N 28 59' 18.760"	W 091 26' 56.980"	28.98854	-91.44916	LNM 39/13, 8th Dist	63	11351_1	9/18/2013
11351	Add	Platform	Chart No. 1: L10	N 28 59' 32.170"	W 091 28' 39.000"	28.99227	-91.4775	LNM 39/13, 8th Dist	63	11351_1	9/18/2013
11351	Add	Platform	Chart No. 1: L10	N 28 59' 07.890"	W 091 28' 50.790"	28.98553	-91.48077	LNM 39/13, 8th Dist	63	11351_1	9/18/2013
11351	Add	Platform	Chart No. 1: L10	N 28 59' 00.550"	W 091 27' 01.230"	28.98349	-91.45034	LNM 39/13, 8th Dist	63	11351_1	9/18/2013
11351	Change	Depth Legend - BERWICK BAY to:	8 FT 2013	N 29 42' 58.000"	W 091 13' 23.000"	29.71611	-91.22305	LNM 39/13, 8th Dist	63	11351_1	9/18/2013
11351	Add	Platform: (Wa30-340-935)(Gulfport Energy)	Chart No. 1: L10	N 29 40' 46.000"	W 091 48' 14.000"	29.67945	-91.80389	LNM 37/13, 8th Dist	63	11351_1	9/13/2013
11351	Add	Platform: (Wa30-340-940)(Gulfport Energy)	Chart No. 1: L10	N 29 41' 52.000"	W 091 48' 19.000"	29.69778	-91.80527	LNM 37/13, 8th Dist	63	11351_1	9/13/2013
11351	Add	Platform: (Wa30-340-956)(Gulfport Energy)	Chart No. 1: L10	N 29 41' 28.000"	W 091 48' 33.000"	29.69111	-91.80917	LNM 37/13, 8th Dist	63	11351_1	9/13/2013
11351	Add	Platform: (Wa30-340-960)(Gulfport Energy)	Chart No. 1: L10	N 29 40' 24.000"	W 091 46' 48.000"	29.67333	-91.78	LNM 37/13, 8th Dist	63	11351_1	9/13/2013
11351	Add	Platform: (Wa30-340-964)(Gulfport Energy)	Chart No. 1: L10	N 29 41' 55.000"	W 091 47' 40.000"	29.69861	-91.79444	LNM 37/13, 8th Dist	63	11351_1	9/13/2013
11351	Add	Platform: (Wa30-340-965)(Gulfport Energy)	Chart No. 1: L10	N 29 41' 39.000"	W 091 46' 52.000"	29.69417	-91.78111	LNM 37/13, 8th Dist	63	11351_1	9/13/2013
11351	Add	Platform: (Wa30-340-971)(Gulfport Energy)	Chart No. 1: L10	N 29 41' 43.000"	W 091 47' 16.000"	29.69528	-91.78778	LNM 37/13, 8th Dist	63	11351_1	9/13/2013
11351	Add	Platform: (Wa30-340-981)(Gulfport Energy)	Chart No. 1: L10	N 29 40' 56.000"	W 091 47' 35.000"	29.68222	-91.79305	LNM 37/13, 8th Dist	63	11351_1	9/13/2013
11351	Delete	Platform: (Apache-102-45)	Chart No. 1: L10	N 29 05' 55.784"	W 091 42' 04.485"	29.09883	-91.70125	LNM 36/13, 8th Dist	63	11351_1	9/9/2013
11351	Delete	Platform: (Apache-102-100)	Chart No. 1: L10	N 29 01' 43.730"	W 091 34' 47.834"	29.02881	-91.57996	LNM 36/13, 8th Dist	63	11351_1	9/9/2013
11351	Change	tabulation - Atchafalaya River	tabulation - Atchafalaya River	N 29 17' 15.000"	W 091 15' 06.000"	29.2875	-91.25166	LNM 34/13, 8th Dist	63	11351_1	8/12/2013
11351	Change	Depth Legend - Avoca I Cutoff to:	6 FT BY 150 FT MAY 2013	N 29 35' 40.000"	W 091 11' 37.000"	29.59444	-91.19361	LNM 29/13, 8th Dist	63	11351_1	7/10/2013
11351	Change	Depth Legend - Avoca I Cutoff to:	6 FT BY 150 FT MAY 2013	N 29 32' 51.000"	W 091 12' 56.000"	29.5475	-91.21555	LNM 29/13, 8th Dist	63	11351_1	7/10/2013
11351	Add	Platform: (WA30-340-863) (Gulfport Energy)	Chart No. 1: L10	N 29 40' 45.340"	W 091 47' 12.530"	29.67926	-91.78681	LNM 26/13, 8th Dist	63	11351_1	6/29/2013
11351	Add	Platform: (WA30-340-864) (Gulfport Energy)	Chart No. 1: L10	N 29 39' 44.280"	W 091 46' 41.970"	29.6623	-91.77833	LNM 26/13, 8th Dist	63	11351_1	6/29/2013
11351	Add	Platform: (WA30-340-865) (Gulfport Energy)	Chart No. 1: L10	N 29 42' 11.560"	W 091 48' 09.730"	29.70321	-91.8027	LNM 26/13, 8th Dist	63	11351_1	6/29/2013
11351	Add	Platform: (Wa30-340-852)( Gulfport Energy)	Chart No. 1: L10	N 29 42' 06.650"	W 091 48' 22.020"	29.70185	-91.80611	LNM 26/13, 8th Dist	63	11351_1	6/29/2013
11351	Add	Platform: (Wa30-340-855)( Gulfport Energy)	Chart No. 1: L10	N 29 40' 44.450"	W 091 47' 41.260"	29.67901	-91.79479	LNM 26/13, 8th Dist	63	11351_1	6/29/2013
11351	Add	Platform: (Wa30-340-858)( Gulfport Energy)	Chart No. 1: L10	N 29 40' 57.010"	W 091 47' 26.820"	29.6825	-91.79079	LNM 26/13, 8th Dist	63	11351_1	6/29/2013
11351	Add	Platform: (WA30-340-866) (Gulfport Energy)	Chart No. 1: L10	N 29 41' 06.760"	W 091 47' 33.500"	29.68521	-91.79264	LNM 26/13, 8th Dist	63	11351_1	6/29/2013
11351	Add	Platform: (WA30-340-867) (Gulfport Energy)	Chart No. 1: L10	N 29 42' 01.490"	W 091 48' 14.250"	29.70041	-91.80396	LNM 26/13, 8th Dist	63	11351_1	6/29/2013
11351	Add	Platform: (Cochon-100-49)	Chart No. 1: L10	N 29 21' 53.740"	W 091 29' 51.670"	29.36493	-91.49769	LNM 25/13, 8th Dist	63	11351_1	6/21/2013
11351	Relocate	Atchafalaya Channel Light 53	Fl G 4s 17ft 4M "53" Ra Ref	N 29 27' 06.275"	W 091 17' 55.623"	29.45174	-91.29878	LNM 25/13, 8th Dist	63	11351_1	6/21/2013
11351	Add	Platform: (WA30-340-860) (Gulfport Energy)	Chart No. 1: L10	N 29 40' 56.560"	W 091 47' 49.580"	29.68238	-91.7971	LNM 25/13, 8th Dist	63	11351_1	6/21/2013
11351	Add	Platform: (Wa30-340-803)(Gulfport Energy)	Chart No. 1: L10	N 29 39' 39.030"	W 091 46' 55.950"	29.66084	-91.78221	LNM 25/13, 8th Dist	63	11351_1	6/21/2013
11351	Add	Platform: (Wa30-340-804)(Gulfport Energy)	Chart No. 1: L10	N 29 39' 36.030"	W 091 46' 55.700"	29.66001	-91.78214	LNM 25/13, 8th Dist	63	11351_1	6/21/2013
11351	Add	Platform: (WA30-340-861) (Gulfport Energy)	Chart No. 1: L10	N 29 40' 49.800"	W 091 48' 14.550"	29.6805	-91.80404	LNM 25/13, 8th Dist	63	11351_1	6/21/2013
11351	Add	Platform: (WA30-340-862) (Gulfport Energy)	Chart No. 1: L10	N 29 41' 21.700"	W 091 47' 00.010"	29.68936	-91.78333	LNM 25/13, 8th Dist	63	11351_1	6/21/2013
11351	Change	tabulation - ATCHAFALAYA RIVER	tabulation - ATCHAFALAYA RIVER	N 29 17' 15.000"	W 091 15' 06.000"	29.2875	-91.25166	LNM 26/13, 8th Dist	63	11351_1	6/20/2013
11351	Add	Platform: (Cochon-100-23)	Chart No. 1: L10	N 29 22' 15.180"	W 091 30' 50.950"	29.37088	-91.51415	LNM 23/13, 8th Dist	63	11351_1	6/11/2013
11351	Add	Platform: (Cochon-100-25)	Chart No. 1: L10	N 29 21' 13.053"	W 091 29' 41.071"	29.35363	-91.49474	LNM 23/13, 8th Dist	63	11351_1	6/11/2013
11351	Add	Platform: (WA30-340-972) (Gulfport Energy)	Chart No. 1: L10	N 29 41' 20.850"	W 091 48' 14.830"	29.68913	-91.80412	LNM 23/13, 8th Dist	63	11351_1	6/11/2013
11351	Add	Platform: (Cochon-100-26)	Chart No. 1: L10	N 29 21' 41.760"	W 091 29' 08.159"	29.3616	-91.4856	LNM 23/13, 8th Dist	63	11351_1	6/11/2013
11351	Add	Platform: (Cochon-100-27)	Chart No. 1: L10	N 29 21' 35.280"	W 091 29' 27.240"	29.3598	-91.4909	LNM 23/13, 8th Dist	63	11351_1	6/11/2013
11351	Add	Platform: (WA30-340-975) (Gulfport Energy)	Chart No. 1: L10	N 29 41' 05.210"	W 091 48' 06.290"	29.68478	-91.80175	LNM 23/13, 8th Dist	63	11351_1	6/11/2013
11351	Add	Platform: (WA30-340-952) (Gulfport Energy)	Chart No. 1: L10	N 29 40' 39.060"	W 091 47' 54.750"	29.67752	-91.79854	LNM 23/13, 8th Dist	63	11351_1	6/11/2013
11351	Add	Platform: (Cochon-100-47)	Chart No. 1: L10	N 29 22' 20.999"	W 091 30' 13.319"	29.3725	-91.5037	LNM 23/13, 8th Dist	63	11351_1	6/11/2013
11351	Add	Visible Obstructions	Obstns PA      Chart No. 1: F22	N 29 44' 24.000"	W 091 38' 06.500"	29.74	-91.63514	LNM 22/13, 8th Dist	63	11351_1	6/4/2013
11351	Add	Platform: (WA30-340-976) (Gulfport Energy)	Chart No. 1: L10	N 29 41' 13.910"	W 091 48' 16.850"	29.6872	-91.80468	LNM 22/13, 8th Dist	63	11351_1	6/4/2013
11351	Add	Platform: (WA30-340-977) (Gulfport Energy)	Chart No. 1: L10	N 29 41' 05.790"	W 091 47' 38.370"	29.68494	-91.79399	LNM 22/13, 8th Dist	63	11351_1	6/4/2013
11351	Add	Platform: (WA30-340-983) (Gulfport Energy)	Chart No. 1: L10	N 29 41' 32.550"	W 091 48' 22.100"	29.69238	-91.80614	LNM 22/13, 8th Dist	63	11351_1	6/4/2013
11351	Add	Platform: (WA30-340-961) (Gulfport Energy)	Chart No. 1: L10	N 29 41' 28.230"	W 091 47' 44.260"	29.69118	-91.79563	LNM 22/13, 8th Dist	63	11351_1	6/4/2013
11351	Add	Platform: (WA30-340-929) (Gulfport Energy)	Chart No. 1: L10	N 29 41' 01.160"	W 091 47' 54.900"	29.68365	-91.79858	LNM 21/13, 8th Dist	63	11351_1	5/30/2013
11351	Add	Platform: (WA30-340-944) (Gulfport Energy)	Chart No. 1: L10	N 29 40' 24.700"	W 091 47' 43.890"	29.67353	-91.79552	LNM 21/13, 8th Dist	63	11351_1	5/30/2013
11351	Add	Platform: (WA30-340-949) (Gulfport Energy)	Chart No. 1: L10	N 29 40' 47.630"	W 091 47' 18.910"	29.6799	-91.78859	LNM 21/13, 8th Dist	63	11351_1	5/30/2013
11351	Add	Platform: (Apache-105-4)	Chart No. 1: L10	N 29 15' 03.045"	W 091 25' 10.927"	29.25084	-91.4197	LNM 20/13, 8th Dist	63	11351_1	5/20/2013
11351	Add	Platform: (Cochon-100-46)	Chart No. 1: L10	N 29 22' 11.000"	W 091 30' 36.000"	29.36972	-91.51	LNM 20/13, 8th Dist	63	11351_1	5/20/2013
11351	Add	Platform: (WA30-340-1071) (Gulfport Energy)	Chart No. 1: L10	N 29 40' 13.000"	W 091 47' 45.000"	29.67028	-91.79583	LNM 18/13, 8th Dist	63	11351_1	5/7/2013
11351	Add	Platform: (WA30-340-1062) (Gulfport Energy)	Chart No. 1: L10	N 29 42' 20.000"	W 091 48' 12.000"	29.70555	-91.80334	LNM 17/13, 8th Dist	63	11351_1	4/30/2013
11351	Add	Platform: (WA30-340-1063) (Gulfport Energy)	Chart No. 1: L10	N 29 42' 26.000"	W 091 48' 08.000"	29.70722	-91.80222	LNM 17/13, 8th Dist	63	11351_1	4/30/2013
11351	Add	Platform: (WA30-340-1065) (Gulfport Energy)	Chart No. 1: L10	N 29 40' 25.000"	W 091 47' 09.000"	29.67361	-91.78584	LNM 17/13, 8th Dist	63	11351_1	4/30/2013
11351	Add	Platform: (WA30-340-1067) (Gulfport Energy)	Chart No. 1: L10	N 29 41' 33.000"	W 091 47' 50.000"	29.6925	-91.79723	LNM 17/13, 8th Dist	63	11351_1	4/30/2013
11351	Add	Platform: (WA30-340-974) (Gulfport Energy)	Chart No. 1: L10	N 29 41' 05.660"	W 091 48' 20.490"	29.68491	-91.80569	LNM 15/13, 8th Dist	63	11351_1	4/15/2013
11351	Add	Platform: (WA30-340-967) (Gulfport Energy)	Chart No. 1: L10	N 29 41' 13.780"	W 091 47' 44.320"	29.68716	-91.79565	LNM 15/13, 8th Dist	63	11351_1	4/15/2013
11351	Add	Platform: (WA30-340-1057) (Gulfport Energy)	Chart No. 1: L10	N 29 41' 33.000"	W 091 48' 19.000"	29.6925	-91.80527	LNM 15/13, 8th Dist	63	11351_1	4/15/2013
11351	Add	Platform: (WA30-340-1059) (Gulfport Energy)	Chart No. 1: L10	N 29 41' 15.000"	W 091 47' 33.000"	29.6875	-91.7925	LNM 15/13, 8th Dist	63	11351_1	4/15/2013
11351	Add	Platform: (WA30-340-1060) (Gulfport Energy)	Chart No. 1: L10	N 29 40' 39.440"	W 091 47' 33.280"	29.67762	-91.79258	LNM 15/13, 8th Dist	63	11351_1	4/15/2013
11351	Add	Platform: (WA30-340-1061) (Gulfport Energy)	Chart No. 1: L10	N 29 42' 09.000"	W 091 48' 17.000"	29.7025	-91.80473	LNM 15/13, 8th Dist	63	11351_1	4/15/2013
11351	Add	Platform: (WA30-340-914) (Gulfport Energy)	Chart No. 1: L10	N 29 40' 21.620"	W 091 48' 43.150"	29.67267	-91.81199	LNM 14/13, 8th Dist	63	11351_1	4/5/2013
11351	Add	Platform: (WA30-340-925) (Gulfport Energy)	Chart No. 1: L10	N 29 40' 15.770"	W 091 47' 46.870"	29.67105	-91.79636	LNM 14/13, 8th Dist	63	11351_1	4/5/2013
11351	Add	Platform: (WA30-340-942) (Gulfport Energy)	Chart No. 1: L10	N 29 41' 07.380"	W 091 47' 24.770"	29.68538	-91.79021	LNM 14/13, 8th Dist	63	11351_1	4/5/2013
11351	Add	Platform: (WA30-340-958) (Gulfport Energy)	Chart No. 1: L10	N 29 40' 16.480"	W 091 48' 02.860"	29.67124	-91.8008	LNM 14/13, 8th Dist	63	11351_1	4/5/2013
11351	Add	Platform: (WA30-340-959) (Gulfport Energy)	Chart No. 1: L10	N 29 40' 13.920"	W 091 47' 52.830"	29.67053	-91.79801	LNM 14/13, 8th Dist	63	11351_1	4/5/2013
11351	Change	tabulation - Atchafalaya River	tabulation - Atchafalaya River	N 29 17' 15.000"	W 091 15' 06.000"	29.2875	-91.25166	LNM 15/13, 8th Dist	63	11351_1	4/5/2013
11351	Relocate	Atchafalaya River Lighted Buoy 18	R "18" Fl R 4s	N 29 32' 18.618"	W 091 16' 30.910"	29.53851	-91.27525	LNM 13/13, 8th Dist	63	11351_1	4/2/2013
11351	Relocate	Atchafalaya River Buoy 29	G C "29"	N 29 34' 14.050"	W 091 13' 50.849"	29.57057	-91.23079	LNM 13/13, 8th Dist	63	11351_1	4/2/2013
11351	Delete	Dangerous Wreck	PA      Chart No. 1: K28	N 29 25' 19.090"	W 091 48' 30.900"	29.42197	-91.80859	LNM 13/13, 8th Dist	63	11351_1	3/22/2013
11351	Delete	Platform: (Maritech-103-22)	Chart No. 1: L10	N 28 58' 02.000"	W 091 36' 40.500"	28.96722	-91.61125	LNM 12/13, 8th Dist	63	11351_1	3/22/2013
11351	Add	Submerged Obstruction	Obstn PA      Chart No. 1: K40	N 29 23' 31.700"	W 091 21' 58.200"	29.39214	-91.36617	LNM 10/13, 8th Dist	63	11351_1	3/13/2013
11351	Add	Platform: (WA30-340-J-24) (Gulfport Energy)	Chart No. 1: L10	N 29 40' 59.930"	W 091 47' 25.070"	29.68331	-91.7903	LNM 09/13, 8th Dist	63	11351_1	3/5/2013
11351	Add	Platform: (WA30-340-J-28) (Gulfport Energy)	Chart No. 1: L10	N 29 41' 26.170"	W 091 47' 35.990"	29.6906	-91.79333	LNM 09/13, 8th Dist	63	11351_1	3/5/2013
11351	Add	Platform: (WA30-340-J-30) (Gulfport Energy)	Chart No. 1: L10	N 29 41' 41.410"	W 091 47' 36.040"	29.69484	-91.79334	LNM 09/13, 8th Dist	63	11351_1	3/5/2013
11351	Add	Platform: (WA30-340-J-31) (Gulfport Energy)	Chart No. 1: L10	N 29 41' 45.760"	W 091 47' 36.030"	29.69604	-91.79334	LNM 09/13, 8th Dist	63	11351_1	3/5/2013
11351	Add	Platform: (WA30-340-J-84) (Gulfport Energy)	Chart No. 1: L10	N 29 40' 21.540"	W 091 48' 17.340"	29.67265	-91.80482	LNM 09/13, 8th Dist	63	11351_1	3/5/2013
11351	Add	Platform: (WA30-340-J-B2-North) (Gulfport Energy)	Chart No. 1: L10	N 29 41' 46.630"	W 091 47' 59.810"	29.69629	-91.79995	LNM 09/13, 8th Dist	63	11351_1	3/5/2013
11351	Change	tabulation - ATCHAFALAYA RIVER	tabulation - ATCHAFALAYA RIVER	N 29 17' 15.000"	W 091 15' 06.000"	29.2875	-91.25166	LNM 10/13, 8th Dist	63	11351_1	3/5/2013
11351	Delete	Platform: (W & T Offshore-113-10)	Chart No. 1: L10	N 29 04' 16.600"	W 091 16' 15.510"	29.07128	-91.27097	LNM 08/13, 8th Dist	63	11351_1	2/28/2013
11351	Change	Depth Legend - Avoca I Cutoff to:	10 FT BY 150 FT NOV 2012	N 29 35' 40.000"	W 091 11' 37.000"	29.59444	-91.19361	LNM 08/13, 8th Dist	63	11351_1	2/11/2013
11351	Change	Depth Legend - Avoca I Cutoff to:	10 FT BY 150 FT NOV 2012	N 29 32' 51.000"	W 091 12' 56.000"	29.5475	-91.21555	LNM 08/13, 8th Dist	63	11351_1	2/11/2013
11351	Add	Platform: (Cochon-100-31)	Chart No. 1: L10	N 29 21' 12.312"	W 091 29' 40.278"	29.35342	-91.49452	LNM 05/13, 8th Dist	63	11351_1	2/6/2013
11351	Add	Platform: (Cochon-100-33)	Chart No. 1: L10	N 29 21' 42.066"	W 091 30' 15.318"	29.36168	-91.50426	LNM 05/13, 8th Dist	63	11351_1	2/6/2013
11351	Add	Platform: (Cochon-100-6)	Chart No. 1: L10	N 29 21' 49.080"	W 091 30' 27.264"	29.36363	-91.50758	LNM 05/13, 8th Dist	63	11351_1	2/6/2013
11351	Add	Platform: (Cochon-100-34)	Chart No. 1: L10	N 29 22' 15.270"	W 091 29' 21.552"	29.37091	-91.48932	LNM 05/13, 8th Dist	63	11351_1	2/6/2013
11351	Add	Platform: (Cochon-100-35)	Chart No. 1: L10	N 29 20' 53.553"	W 091 28' 59.887"	29.34821	-91.4833	LNM 05/13, 8th Dist	63	11351_1	2/6/2013
11351	Add	Platform: (Cochon-100-36)	Chart No. 1: L10	N 29 21' 45.720"	W 091 30' 11.879"	29.3627	-91.5033	LNM 05/13, 8th Dist	63	11351_1	2/6/2013
11351	Add	Platform: (Cochon-100-37)	Chart No. 1: L10	N 29 21' 03.336"	W 091 30' 31.818"	29.35093	-91.50883	LNM 05/13, 8th Dist	63	11351_1	2/6/2013
11351	Add	Platform: (Cochon-100-38)	Chart No. 1: L10	N 29 22' 05.360"	W 091 29' 22.450"	29.36816	-91.48957	LNM 05/13, 8th Dist	63	11351_1	2/6/2013
11351	Add	Platform: (Cochon-100-39)	Chart No. 1: L10	N 29 21' 46.364"	W 091 29' 57.150"	29.36288	-91.49921	LNM 05/13, 8th Dist	63	11351_1	2/6/2013
11351	Add	Platform: (Cochon-100-40)	Chart No. 1: L10	N 29 22' 11.874"	W 091 30' 56.174"	29.36996	-91.5156	LNM 05/13, 8th Dist	63	11351_1	2/6/2013
11351	Add	Platform: (Cochon-100-10)	Chart No. 1: L10	N 29 20' 56.040"	W 091 30' 26.640"	29.3489	-91.5074	LNM 05/13, 8th Dist	63	11351_1	2/6/2013
11351	Add	Platform: (Cochon-100-11)	Chart No. 1: L10	N 29 22' 11.934"	W 091 30' 36.072"	29.36998	-91.51002	LNM 05/13, 8th Dist	63	11351_1	2/6/2013
11351	Add	Platform: (Cochon-100-12)	Chart No. 1: L10	N 29 20' 56.040"	W 091 31' 11.640"	29.3489	-91.5199	LNM 05/13, 8th Dist	63	11351_1	2/6/2013
11351	Add	Platform: (Cochon-100-41)	Chart No. 1: L10	N 29 21' 03.288"	W 091 30' 57.966"	29.35091	-91.5161	LNM 05/13, 8th Dist	63	11351_1	2/6/2013
11351	Add	Platform: (Cochon-100-42)	Chart No. 1: L10	N 29 21' 42.479"	W 091 30' 24.840"	29.3618	-91.5069	LNM 05/13, 8th Dist	63	11351_1	2/6/2013
11351	Add	Platform: (Cochon-100-13)	Chart No. 1: L10	N 29 21' 21.959"	W 091 29' 42.000"	29.3561	-91.495	LNM 05/13, 8th Dist	63	11351_1	2/6/2013
11351	Add	Platform: (Cochon-100-16)	Chart No. 1: L10	N 29 20' 53.519"	W 091 29' 25.800"	29.3482	-91.4905	LNM 05/13, 8th Dist	63	11351_1	2/6/2013
11351	Add	Platform: (Cochon-100-43)	Chart No. 1: L10	N 29 21' 10.440"	W 091 30' 38.159"	29.3529	-91.5106	LNM 05/13, 8th Dist	63	11351_1	2/6/2013
11351	Add	Platform: (Cochon-100-14)	Chart No. 1: L10	N 29 22' 06.599"	W 091 30' 27.719"	29.3685	-91.5077	LNM 05/13, 8th Dist	63	11351_1	2/6/2013
11351	Add	Platform: (Cochon-100-44)	Chart No. 1: L10	N 29 21' 23.400"	W 091 30' 05.399"	29.3565	-91.5015	LNM 05/13, 8th Dist	63	11351_1	2/6/2013
11351	Add	Platform: (Cochon-100-45)	Chart No. 1: L10	N 29 21' 02.520"	W 091 30' 19.440"	29.3507	-91.5054	LNM 05/13, 8th Dist	63	11351_1	2/6/2013
11351	Add	Platform: (Cochon-100-16)	Chart No. 1: L10	N 29 21' 09.000"	W 091 30' 56.519"	29.3525	-91.5157	LNM 05/13, 8th Dist	63	11351_1	2/6/2013
11351	Add	Platform: (Cochon-100-17)	Chart No. 1: L10	N 29 21' 42.839"	W 091 29' 36.240"	29.3619	-91.4934	LNM 05/13, 8th Dist	63	11351_1	2/6/2013
11351	Add	Platform: (Cochon-100-18)	Chart No. 1: L10	N 29 21' 28.439"	W 091 29' 34.799"	29.3579	-91.493	LNM 05/13, 8th Dist	63	11351_1	2/6/2013
11351	Add	Platform: (Cochon-100-19)	Chart No. 1: L10	N 29 21' 02.520"	W 091 30' 47.880"	29.3507	-91.5133	LNM 05/13, 8th Dist	63	11351_1	2/6/2013
11351	Add	Platform: (Cochon-100-20)	Chart No. 1: L10	N 29 21' 02.520"	W 091 30' 34.199"	29.3507	-91.5095	LNM 05/13, 8th Dist	63	11351_1	2/6/2013
11351	Add	Platform: (WA30-340-J-35) (Gulfport Energy)	Chart No. 1: L10	N 29 40' 46.540"	W 091 47' 25.600"	29.67959	-91.79044	LNM 02/13, 8th Dist	63	11351_1	1/23/2013
11351	Add	Platform: (WA30-340-J-26) (Gulfport Energy)	Chart No. 1: L10	N 29 41' 16.420"	W 091 47' 35.960"	29.68789	-91.79332	LNM 02/13, 8th Dist	63	11351_1	1/23/2013
11351	Add	Platform: (WA30-340-J-16) (Gulfport Energy)	Chart No. 1: L10	N 29 41' 32.250"	W 091 48' 28.990"	29.69229	-91.80805	LNM 02/13, 8th Dist	63	11351_1	1/23/2013
11351	Add	Platform: (WA30-340-J-17) (Gulfport Energy)	Chart No. 1: L10	N 29 41' 38.410"	W 091 48' 29.090"	29.694	-91.80808	LNM 02/13, 8th Dist	63	11351_1	1/23/2013
11351	Add	Platform: (WA30-340-J-18) (Gulfport Energy)	Chart No. 1: L10	N 29 41' 45.350"	W 091 48' 29.150"	29.69593	-91.8081	LNM 02/13, 8th Dist	63	11351_1	1/23/2013
11351	Add	Platform: (Arena Offshore-105-17)	Chart No. 1: L10	N 29 03' 40.329"	W 091 26' 46.817"	29.0612	-91.44633	LNM 02/13, 8th Dist	63	11351_1	1/23/2013
11351	Add	Platform: (WA30-340-J-37) (Gulfport Energy)	Chart No.1: L10	N 29 40' 25.010"	W 091 47' 25.610"	29.67361	-91.79044	LNM 01/13, 8th Dist	63	11351_1	1/9/2013
11351	Add	Platform: (WA30-340-J-41-A) (Gulfport Energy)	Chart No.1: L10	N 29 40' 13.610"	W 091 47' 20.140"	29.67045	-91.78893	LNM 01/13, 8th Dist	63	11351_1	1/9/2013
11351	Add	Platform: (WA30-340-J-36) (Gulfport Energy)	Chart No.1: L10	N 29 40' 40.410"	W 091 47' 25.900"	29.67789	-91.79053	LNM 01/13, 8th Dist	63	11351_1	1/9/2013
11351	Add	Platform: (WA30-340-J-68) (Gulfport Energy)	Chart No. 1: L10	N 29 41' 29.600"	W 091 47' 59.530"	29.69156	-91.79987	LNM 51/12, 8th Dist	63	11351_1	1/3/2013
11351	Add	Platform: (WA30-340-J-70) (Gulfport Energy)	Chart No. 1: L10	N 29 41' 36.500"	W 091 47' 59.010"	29.69347	-91.79973	LNM 51/12, 8th Dist	63	11351_1	1/3/2013
11351	Add	Platform: (WA30-340-J-48) (Gulfport Energy)	Chart No. 1: L10	N 29 41' 45.520"	W 091 48' 10.620"	29.69598	-91.80295	LNM 51/12, 8th Dist	63	11351_1	1/3/2013
11351	Add	Platform: (WA30-340-J-44) (Gulfport Energy)	Chart No. 1: L10	N 29 40' 32.760"	W 091 47' 59.180"	29.67577	-91.79977	LNM 51/12, 8th Dist	63	11351_1	1/3/2013
11351	Add	Platform: (WA30-340-J-42) (Gulfport Energy)	Chart No. 1: L10	N 29 40' 42.420"	W 091 47' 59.350"	29.67845	-91.79982	LNM 51/12, 8th Dist	63	11351_1	1/3/2013
11351	Add	Platform: (WA30-340-J-43) (Gulfport Energy)	Chart No. 1: L10	N 29 40' 34.920"	W 091 47' 59.300"	29.67637	-91.7998	LNM 51/12, 8th Dist	63	11351_1	1/3/2013
11351	Add	Platform: (WA30-340-J-78) (Gulfport Energy)	Chart No. 1: L10	N 29 42' 17.720"	W 091 48' 10.420"	29.70492	-91.80289	LNM 50/12, 8th Dist	63	11351_1	12/20/2012
11351	Delete	Platform: (Apache-102-100)	Chart No. 1: L10	N 28 59' 28.115"	W 091 29' 24.270"	28.99114	-91.49007	LNM 49/12, 8th Dist	63	11351_1	12/12/2012
11351	Delete	Platform: (Apache-102-101)	Chart No. 1: L10	N 28 59' 19.954"	W 091 29' 20.317"	28.98888	-91.48898	LNM 49/12, 8th Dist	63	11351_1	12/12/2012
11351	Add	Platform: (WA30-340-950) (Gulfport Energy)	Chart No. 1: L10	N 29 40' 59.820"	W 091 47' 18.930"	29.68328	-91.78859	LNM 47/12, 8th Dist	63	11351_1	11/29/2012
11351	Add	Platform: (WA30-340-943) (Gulfport Energy)	Chart No. 1: L10	N 29 40' 59.610"	W 091 47' 13.880"	29.68323	-91.78719	LNM 47/12, 8th Dist	63	11351_1	11/29/2012
11351	Delete	Platform: (Apache-102-82)	Chart No. 1: L10	N 29 02' 22.480"	W 091 34' 49.864"	29.03958	-91.58052	LNM 47/12, 8th Dist	63	11351_1	11/29/2012
11351	Add	Platform: (WA30-340-801) (Gulfport Energy)	Chart No. 1: L10	N 29 39' 45.000"	W 091 46' 57.000"	29.6625	-91.7825	LNM 46/12, 8th Dist	63	11351_1	11/16/2012
11351	Add	Platform: (WA30-340-811) (Gulfport Energy)	Chart No. 1: L10	N 29 40' 12.000"	W 091 47' 11.000"	29.67	-91.78639	LNM 46/12, 8th Dist	63	11351_1	11/16/2012
11351	Delete	Platform: (Apache-102-100)	Chart No. 1: L10	N 28 58' 47.967"	W 091 29' 28.370"	28.97999	-91.49121	LNM 46/12, 8th Dist	63	11351_1	11/16/2012
11351	Delete	Platform: (Apache-102-101)	Chart No. 1: L10	N 29 02' 50.219"	W 091 34' 50.901"	29.04728	-91.5808	LNM 46/12, 8th Dist	63	11351_1	11/16/2012
11351	Add	Platform: (Dynamic-100-11)	Chart No. 1: L10	N 29 08' 03.573"	W 091 46' 38.479"	29.13433	-91.77736	LNM 45/12, 8th Dist	63	11351_1	11/14/2012
11351	Add	Platform: (WA30-340-841) (Gulfport Energy)	Chart No. 1: L10	N 29 42' 13.000"	W 091 48' 09.000"	29.70361	-91.8025	LNM 45/12, 8th Dist	63	11351_1	11/14/2012
11351	Add	Platform: (WA30-340-845) (Gulfport Energy)	Chart No. 1: L10	N 29 41' 09.000"	W 091 47' 32.000"	29.68583	-91.79222	LNM 45/12, 8th Dist	63	11351_1	11/14/2012
11351	Add	Platform: (WA30-340-847) (Gulfport Energy)	Chart No. 1: L10	N 29 40' 08.900"	W 091 48' 15.600"	29.66914	-91.80434	LNM 45/12, 8th Dist	63	11351_1	11/14/2012
11351	Add	Platform: (WA30-340-849) (Gulfport Energy)	Chart No. 1: L10	N 29 42' 05.000"	W 091 48' 25.500"	29.70139	-91.80708	LNM 45/12, 8th Dist	63	11351_1	11/14/2012
11351	Add	Platform: (WA30-340-850) (Gulfport Energy)	Chart No. 1: L10	N 29 40' 39.100"	W 091 48' 10.900"	29.67753	-91.80302	LNM 45/12, 8th Dist	63	11351_1	11/14/2012
11351	Add	Platform: (WA30-340-820) (Gulfport Energy)	Chart No. 1: L10	N 29 40' 28.000"	W 091 47' 30.000"	29.67444	-91.79166	LNM 45/12, 8th Dist	63	11351_1	11/14/2012
11351	Add	Platform: (WA30-340-829) (Gulfport Energy)	Chart No. 1: L10	N 29 40' 00.000"	W 091 47' 03.000"	29.66667	-91.78416	LNM 45/12, 8th Dist	63	11351_1	11/14/2012
11351	Add	Platform: (WA30-340-832) (Gulfport Energy)	Chart No. 1: L10	N 29 40' 20.000"	W 091 47' 34.000"	29.67222	-91.79278	LNM 45/12, 8th Dist	63	11351_1	11/14/2012
11351	Add	Platform: (WA30-340-833) (Gulfport Energy)	Chart No. 1: L10	N 29 40' 19.000"	W 091 47' 48.000"	29.67194	-91.79667	LNM 45/12, 8th Dist	63	11351_1	11/14/2012
11351	Delete	Platform: (Apache-102-82)	Chart No. 1: L10	N 28 59' 48.674"	W 091 28' 55.026"	28.99685	-91.48195	LNM 45/12, 8th Dist	63	11351_1	11/14/2012
11351	Change	tabulation - Atchafalaya River	tabulation - Atchafalaya River	N 29 17' 15.000"	W 091 15' 06.000"	29.2875	-91.25166	LNM 46/12, 8th Dist	63	11351_1	11/13/2012
11351	Change	Depth Legend - AVOCA I CUTOFF to:	9 FT BY 150 FT SEP 2012	N 29 32' 51.000"	W 091 12' 56.000"	29.5475	-91.21555	LNM 46/12, 8th Dist	63	11351_1	11/13/2012
11351	Change	Depth Legend - AVOCA I CUTOFF to:	9 FT BY 150 FT SEP 2012	N 29 35' 40.000"	W 091 11' 37.000"	29.59444	-91.19361	LNM 46/12, 8th Dist	63	11351_1	11/13/2012
11351	Delete	Platform: (Apache-102-84)	Chart No. 1: L10	N 29 01' 58.047"	W 091 34' 29.485"	29.03279	-91.57486	LNM 44/12, 8th Dist	63	11351_1	11/2/2012
11351	Add	Submarine Pipeline  PT 1 OF 5	None	N 29 23' 01.690"	W 091 46' 07.770"	29.3838	-91.76882	LNM 44/12, 8th Dist	63	11351_1	10/31/2012
11351	Add	Submarine Pipeline  PT 2 OF 5	None	N 29 23' 02.110"	W 091 46' 08.250"	29.38392	-91.76896	LNM 44/12, 8th Dist	63	11351_1	10/31/2012
11351	Add	Submarine Pipeline  PT 3 OF 5	None	N 29 23' 02.380"	W 091 46' 07.880"	29.384	-91.76885	LNM 44/12, 8th Dist	63	11351_1	10/31/2012
11351	Add	Submarine Pipeline  PT 4 OF 5	None	N 29 22' 59.050"	W 091 45' 42.280"	29.38307	-91.76174	LNM 44/12, 8th Dist	63	11351_1	10/31/2012
11351	Add	Submarine Pipeline  PT 5 OF 5	None	N 29 22' 46.070"	W 091 45' 10.980"	29.37946	-91.75305	LNM 44/12, 8th Dist	63	11351_1	10/31/2012
11351	Add	Submarine Pipeline  PT 1 OF 4	None	N 29 22' 34.120"	W 091 47' 03.770"	29.37614	-91.78438	LNM 44/12, 8th Dist	63	11351_1	10/31/2012
11351	Add	Submarine Pipeline  PT 2 OF 4	None	N 29 22' 34.360"	W 091 46' 48.840"	29.37621	-91.78024	LNM 44/12, 8th Dist	63	11351_1	10/31/2012
11351	Add	Submarine Pipeline  PT 3 OF 4	None	N 29 22' 45.710"	W 091 45' 20.030"	29.37936	-91.75556	LNM 44/12, 8th Dist	63	11351_1	10/31/2012
11351	Add	Submarine Pipeline  PT 4 OF 4	None	N 29 22' 45.870"	W 091 45' 11.050"	29.37941	-91.75307	LNM 44/12, 8th Dist	63	11351_1	10/31/2012
11351	Add	Submarine Pipeline  PT 1 OF 5	None	N 29 22' 14.870"	W 091 46' 54.600"	29.3708	-91.78183	LNM 44/12, 8th Dist	63	11351_1	10/31/2012
11351	Add	Submarine Pipeline  PT 2 OF 5	None	N 29 22' 33.290"	W 091 45' 31.290"	29.37591	-91.75869	LNM 44/12, 8th Dist	63	11351_1	10/31/2012
11351	Add	Submarine Pipeline  PT 3 OF 5	None	N 29 22' 37.940"	W 091 45' 22.000"	29.3772	-91.75611	LNM 44/12, 8th Dist	63	11351_1	10/31/2012
11351	Add	Submarine Pipeline  PT 4 OF 5	None	N 29 22' 45.610"	W 091 45' 13.890"	29.37934	-91.75386	LNM 44/12, 8th Dist	63	11351_1	10/31/2012
11351	Add	Submarine Pipeline  PT 5 OF 5	None	N 29 22' 45.850"	W 091 45' 11.050"	29.3794	-91.75307	LNM 44/12, 8th Dist	63	11351_1	10/31/2012
11351	Delete	Platform (Apache-102-100)	Chart No. 1: L10	N 29 02' 36.982"	W 091 26' 52.868"	29.04361	-91.44802	LNM 41/12, 8th Dist	63	11351_1	10/15/2012
11351	Delete	Platform (Forest-130-1)	Chart No. 1: L10	N 29 16' 45.739"	W 091 37' 58.187"	29.27937	-91.63283	LNM 41/12, 8th Dist	63	11351_1	10/15/2012
11351	Add	Platform (Wa30-340-1033) (Gulfport Energy)	Platform	N 29 40' 22.000"	W 091 47' 38.000"	29.67278	-91.79389	LNM 40/12, 8th Dist	63	11351_1	10/10/2012
11351	Add	Platform (Wa30-340-1031) (Gulfport Energy)	Platform	N 29 39' 40.000"	W 091 47' 07.000"	29.66111	-91.78528	LNM 40/12, 8th Dist	63	11351_1	10/10/2012
11351	Add	Platform (WA30-340-930) (Gulfport Energy)	Chart No. 1: L10	N 29 41' 45.000"	W 091 48' 00.000"	29.69583	-91.8	LNM 38/12, 8th Dist	63	11351_1	9/20/2012
11351	Add	Platform (WA30-340-931) (Gulfport Energy)	Chart No. 1: L10	N 29 41' 34.000"	W 091 48' 10.000"	29.69278	-91.80278	LNM 38/12, 8th Dist	63	11351_1	9/20/2012
11351	Add	Platform (WA30-340-932) (Gulfport Energy)	Chart No. 1: L10	N 29 40' 59.000"	W 091 47' 27.000"	29.68306	-91.79083	LNM 38/12, 8th Dist	63	11351_1	9/20/2012
11351	Add	Platform (WA30-340-933) (Gulfport Energy)	Chart No. 1: L10	N 29 40' 47.000"	W 091 47' 34.000"	29.67972	-91.79278	LNM 38/12, 8th Dist	63	11351_1	9/20/2012
11351	Add	Platform (WA30-340-934) (Gulfport Energy)	Chart No. 1: L10	N 29 41' 48.000"	W 091 48' 28.000"	29.69667	-91.80778	LNM 38/12, 8th Dist	63	11351_1	9/20/2012
11351	Add	Platform (WA30-340-936) (Gulfport Energy)	Chart No. 1: L10	N 29 41' 25.000"	W 091 48' 02.000"	29.69028	-91.80055	LNM 38/12, 8th Dist	63	11351_1	9/20/2012
11351	Add	Platform (WA30-340-938) (Gulfport Energy)	Chart No. 1: L10	N 29 40' 27.000"	W 091 48' 42.000"	29.67417	-91.81167	LNM 38/12, 8th Dist	63	11351_1	9/20/2012
11351	Change	tabulation - ATCHAFALAYA RIVER	tabulation - ATCHAFALAYA RIVER	N 29 17' 15.000"	W 091 15' 06.000"	29.2875	-91.25166	LNM 39/12, 8th Dist	63	11351_1	9/17/2012
11351	Add	Platform (WA30-340-926) (Gulfport Energy)	Chart No. 1: L10	N 29 41' 05.000"	W 091 47' 27.000"	29.68472	-91.79083	LNM 37/12, 8th Dist	63	11351_1	9/14/2012
11351	Add	Platform (WA30-340-927) (Gulfport Energy)	Chart No. 1: L10	N 29 41' 01.000"	W 091 48' 11.000"	29.68361	-91.80305	LNM 37/12, 8th Dist	63	11351_1	9/14/2012
11351	Add	Platform (WA30-340-928) (Gulfport Energy)	Chart No. 1: L10	N 29 41' 06.000"	W 091 47' 50.000"	29.685	-91.79723	LNM 37/12, 8th Dist	63	11351_1	9/14/2012
11351	Change	Depth Legend - AVOCA I CUTOFF to:	7 FT BY 150 FT AUG 2012	N 29 32' 51.000"	W 091 12' 56.000"	29.5475	-91.21555	LNM 38/12, 8th Dist	63	11351_1	9/11/2012
11351	Change	Depth Legend - AVOCA I CUTOFF to:	7 FT BY 150 FT AUG 2012	N 29 35' 40.000"	W 091 11' 37.000"	29.59444	-91.19361	LNM 38/12, 8th Dist	63	11351_1	9/11/2012
11351	Add	Platform (WA30-340-910) (Gulfport Energy)	Chart No. 1: L10	N 29 41' 04.000"	W 091 48' 12.000"	29.68444	-91.80334	LNM 35/12, 8th Dist	63	11351_1	9/4/2012
11351	Add	Platform (WA30-340-911) (Gulfport Energy)	Chart No. 1: L10	N 29 41' 07.000"	W 091 47' 42.000"	29.68528	-91.795	LNM 35/12, 8th Dist	63	11351_1	9/4/2012
11351	Add	Platform (WA30-340-912) (Gulfport Energy)	Chart No. 1: L10	N 29 40' 08.000"	W 091 48' 19.000"	29.66889	-91.80527	LNM 35/12, 8th Dist	63	11351_1	9/4/2012
11351	Add	Platform (WA30-340-913) (Gulfport Energy)	Chart No. 1: L10	N 29 41' 13.000"	W 091 47' 37.000"	29.68694	-91.79361	LNM 35/12, 8th Dist	63	11351_1	9/4/2012
11351	Add	Platform (WA30-340-915) (Gulfport Energy)	Chart No. 1: L10	N 29 41' 02.000"	W 091 48' 42.000"	29.68389	-91.81167	LNM 35/12, 8th Dist	63	11351_1	9/4/2012
11351	Add	Platform (WA30-340-916) (Gulfport Energy)	Chart No. 1: L10	N 29 42' 45.000"	W 091 48' 08.000"	29.7125	-91.80222	LNM 35/12, 8th Dist	63	11351_1	9/4/2012
11351	Add	Platform (WA30-340-919) (Gulfport Energy)	Chart No. 1: L10	N 29 41' 22.000"	W 091 47' 39.000"	29.68944	-91.79417	LNM 35/12, 8th Dist	63	11351_1	9/4/2012
11351	Add	Platform (WA30-340-920) (Gulfport Energy)	Chart No. 1: L10	N 29 41' 23.000"	W 091 47' 25.000"	29.68972	-91.79028	LNM 35/12, 8th Dist	63	11351_1	9/4/2012
11351	Add	Platform (WA30-340-923) (Gulfport Energy)	Chart No. 1: L10	N 29 40' 15.000"	W 091 47' 49.000"	29.67083	-91.79694	LNM 35/12, 8th Dist	63	11351_1	9/4/2012
11351	Add	Platform (WA30-340-900) (Gulfport Energy)	Chart No. 1: L10	N 29 42' 09.000"	W 091 47' 42.000"	29.7025	-91.795	LNM 35/12, 8th Dist	63	11351_1	8/29/2012
11351	Add	Platform (WA30-340-901) (Gulfport Eneregy)	Chart No. 1: L10	N 29 40' 29.000"	W 091 47' 32.000"	29.67472	-91.79222	LNM 35/12, 8th Dist	63	11351_1	8/29/2012
11351	Add	Platform (WA30-340-902) (Gulfport Energy)	Chart No. 1: L10	N 29 41' 00.000"	W 091 48' 11.000"	29.68333	-91.80305	LNM 35/12, 8th Dist	63	11351_1	8/29/2012
11351	Add	Platform (WA30-340-903) (Gulfport Energy)	Chart No. 1: L10	N 29 40' 14.000"	W 091 47' 38.000"	29.67056	-91.79389	LNM 35/12, 8th Dist	63	11351_1	8/29/2012
11351	Add	Platform (WA30-340-904) (Gulfport Energy)	Chart No. 1: L10	N 29 41' 19.000"	W 091 48' 06.000"	29.68861	-91.80167	LNM 35/12, 8th Dist	63	11351_1	8/29/2012
11351	Add	Platform (WA30-340-906) (Gulfport Energy)	Chart No. 1: L10	N 29 41' 14.000"	W 091 48' 26.000"	29.68722	-91.80722	LNM 35/12, 8th Dist	63	11351_1	8/29/2012
11351	Add	Platform (WA30-340-907) (Gulfport Energy)	Chart No. 1: L10	N 29 40' 53.000"	W 091 47' 51.000"	29.68139	-91.7975	LNM 35/12, 8th Dist	63	11351_1	8/29/2012
11351	Add	Platform (WA30-340-908) (Gulfport Energy)	Chart No. 1: L10	N 29 41' 40.000"	W 091 47' 33.000"	29.69444	-91.7925	LNM 35/12, 8th Dist	63	11351_1	8/29/2012
11351	Add	Platform (WA30-340-909) (Gulfport Energy)	Chart No. 1: L10	N 29 41' 17.000"	W 091 47' 52.000"	29.68806	-91.79778	LNM 35/12, 8th Dist	63	11351_1	8/29/2012
11351	Add	Platform (Wa30-340-1053) (Gulfport Energy)	Chart No. 1: L10	N 29 41' 12.000"	W 091 48' 42.000"	29.68667	-91.81167	LNM 30/12, 8th Dist	63	11351_1	7/27/2012
11351	Add	Platform (Wa30-340-1054) (Gulfport Energy)	Chart No. 1: L10	N 29 41' 17.000"	W 091 48' 41.000"	29.68806	-91.81139	LNM 30/12, 8th Dist	63	11351_1	7/27/2012
11351	Add	Platform (Wa30-340-1055) (Gulfport Energy)	Chart No. 1: L10	N 29 41' 18.000"	W 091 48' 09.000"	29.68833	-91.8025	LNM 30/12, 8th Dist	63	11351_1	7/27/2012
11351	Add	Platform (Wa30-340-1018) (Gulfport Energy)	Chart No. 1: L10	N 29 41' 22.530"	W 091 48' 21.270"	29.68959	-91.80591	LNM 30/12, 8th Dist	63	11351_1	7/27/2012
11351	Delete	Platform (Maritech-103-30)	Chart No. 1: L10	N 28 58' 21.190"	W 091 37' 35.160"	28.97255	-91.62643	LNM 30/12, 8th Dist	63	11351_1	7/27/2012
11351	Delete	Platform (Maritech-103-31)	Chart No. 1: L10	N 28 58' 16.320"	W 091 36' 59.130"	28.9712	-91.61642	LNM 30/12, 8th Dist	63	11351_1	7/27/2012
11351	Delete	Platform (Maritech-103-32)	Chart No. 1: L10	N 28 58' 20.560"	W 091 38' 11.010"	28.97238	-91.63639	LNM 30/12, 8th Dist	63	11351_1	7/27/2012
11351	Add	Platform (Wa30-340-1044) (Gulfport Energy)	Chart No. 1: L10	N 29 41' 04.000"	W 091 47' 48.000"	29.68444	-91.79667	LNM 29/12, 8th Dist	63	11351_1	7/19/2012
11351	Add	Platform (Wa30-340-1045) (Gulfport Energy)	Chart No. 1: L10	N 29 41' 27.000"	W 091 48' 00.000"	29.69083	-91.8	LNM 29/12, 8th Dist	63	11351_1	7/19/2012
11351	Add	Platform (Wa30-340-1046) (Gulfport Energy)	Chart No. 1: L10	N 29 41' 26.000"	W 091 47' 57.000"	29.69056	-91.79916	LNM 29/12, 8th Dist	63	11351_1	7/19/2012
11351	Add	Platform (Wa30-340-1047) (Gulfport Energy)	Chart No. 1: L10	N 29 41' 23.000"	W 091 47' 45.000"	29.68972	-91.79583	LNM 29/12, 8th Dist	63	11351_1	7/19/2012
11351	Add	Platform (Wa30-340-1048) (Gulfport Energy)	Chart No. 1: L10	N 29 41' 39.000"	W 091 47' 48.000"	29.69417	-91.79667	LNM 29/12, 8th Dist	63	11351_1	7/19/2012
11351	Add	Platform (Wa30-340-1049) (Gulfport Energy)	Chart No. 1: L10	N 29 41' 43.000"	W 091 48' 04.000"	29.69528	-91.80111	LNM 29/12, 8th Dist	63	11351_1	7/19/2012
11351	Add	Platform (Wa30-340-1050) (Gulfport Energy)	Chart No. 1: L10	N 29 40' 48.000"	W 091 48' 01.000"	29.68	-91.80028	LNM 29/12, 8th Dist	63	11351_1	7/19/2012
11351	Add	Platform (Wa30-340-1051) (Gulfport Energy)	Chart No. 1: L10	N 29 41' 22.000"	W 091 47' 54.000"	29.68944	-91.79833	LNM 29/12, 8th Dist	63	11351_1	7/19/2012
11351	Add	Platform (Wa30-340-1052) (Gulfport Energy)	Chart No. 1: L10	N 29 40' 59.000"	W 091 47' 31.000"	29.68306	-91.79195	LNM 29/12, 8th Dist	63	11351_1	7/19/2012
11351	Add	Platform (Wa30-340-1028) (Gulfport Energy)	Chart No. 1: L10	N 29 41' 05.000"	W 091 47' 55.000"	29.68472	-91.79861	LNM 28/12, 8th Dist	63	11351_1	7/13/2012
11351	Add	Platform (Wa30-340-1029) (Gulfport Energy)	Chart No. 1: L10	N 29 40' 47.000"	W 091 47' 56.000"	29.67972	-91.79889	LNM 28/12, 8th Dist	63	11351_1	7/13/2012
11351	Add	Platform (Wa30-340-1030) (Gulfport Energy)	Chart No. 1: L10	N 29 41' 05.000"	W 091 47' 46.000"	29.68472	-91.79611	LNM 28/12, 8th Dist	63	11351_1	7/13/2012
11351	Add	Platform (Wa30-340-1035) (Gulfport Energy)	Chart No. 1: L10	N 29 40' 42.000"	W 091 48' 18.000"	29.67833	-91.805	LNM 28/12, 8th Dist	63	11351_1	7/13/2012
11351	Add	Platform (Wa30-340-1036) (Gulfport Energy)	Chart No. 1: L10	N 29 41' 48.000"	W 091 48' 07.000"	29.69667	-91.80194	LNM 28/12, 8th Dist	63	11351_1	7/13/2012
11351	Add	Platform (Wa30-340-1037) (Gulfport Energy)	Chart No. 1: L10	N 29 41' 38.000"	W 091 47' 56.000"	29.69389	-91.79889	LNM 28/12, 8th Dist	63	11351_1	7/13/2012
11351	Add	Platform (Wa30-340-1038) (Gulfport Energy)	Chart No. 1: L10	N 29 41' 10.000"	W 091 48' 34.000"	29.68611	-91.80945	LNM 28/12, 8th Dist	63	11351_1	7/13/2012
11351	Add	Platform (Wa30-340-1039) (Gulfport Energy)	Chart No. 1: L10	N 29 41' 08.000"	W 091 47' 46.000"	29.68556	-91.79611	LNM 28/12, 8th Dist	63	11351_1	7/13/2012
11351	Add	Platform (Wa30-340-1040) (Gulfport Energy)	Chart No. 1: L10	N 29 41' 52.000"	W 091 48' 03.000"	29.69778	-91.80083	LNM 28/12, 8th Dist	63	11351_1	7/13/2012
11351	Add	Platform (Wa30-340-1041) (Gulfport Energy)	Chart No. 1: L10	N 29 41' 01.000"	W 091 48' 59.000"	29.68361	-91.81639	LNM 28/12, 8th Dist	63	11351_1	7/13/2012
11351	Add	Platform (Wa30-340-1042) (Gulfport Energy)	Chart No. 1: L10	N 29 40' 58.000"	W 091 47' 43.000"	29.68278	-91.79528	LNM 28/12, 8th Dist	63	11351_1	7/13/2012
11351	Add	Platform (Wa30-340-1043) (Gulfport Energy)	Chart No. 1: L10	N 29 40' 11.000"	W 091 47' 22.000"	29.66972	-91.78944	LNM 28/12, 8th Dist	63	11351_1	7/13/2012
11351	Add	Platform (Wa30-340-1016) (Gulfport Energy)	Chart No. 1: L10	N 29 41' 28.000"	W 091 48' 12.000"	29.69111	-91.80334	LNM 27/12, 8th Dist	63	11351_1	7/9/2012
11351	Add	Platform (Wa30-340-1017) (Gulfport Energy)	Chart No. 1: L10	N 29 41' 02.000"	W 091 48' 14.000"	29.68389	-91.80389	LNM 27/12, 8th Dist	63	11351_1	7/9/2012
11351	Add	Platform (Wa30-340-1019) (Gulfport Energy)	Chart No. 1: L10	N 29 41' 20.000"	W 091 48' 23.000"	29.68889	-91.80639	LNM 27/12, 8th Dist	63	11351_1	7/9/2012
11351	Add	Platform (Wa30-340-1020) (Gulfport Energy)	Chart No. 1: L10	N 29 40' 54.000"	W 091 47' 44.000"	29.68167	-91.79556	LNM 27/12, 8th Dist	63	11351_1	7/9/2012
11351	Add	Platform (Wa30-340-1021) (Gulfport Energy)	Chart No. 1: L10	N 29 40' 30.000"	W 091 47' 33.000"	29.675	-91.7925	LNM 27/12, 8th Dist	63	11351_1	7/9/2012
11351	Add	Platform (Wa30-340-1022) (Gulfport Energy)	Chart No. 1: L10	N 29 40' 05.000"	W 091 46' 58.000"	29.66806	-91.78278	LNM 27/12, 8th Dist	63	11351_1	7/9/2012
11351	Add	Platform (Wa30-340-1023) (Gulfport Energy)	Chart No. 1: L10	N 29 40' 53.000"	W 091 48' 21.000"	29.68139	-91.80583	LNM 27/12, 8th Dist	63	11351_1	7/9/2012
11351	Add	Platform (Wa30-340-1024) (Gulfport Energy)	Chart No. 1: L10	N 29 40' 57.000"	W 091 48' 02.000"	29.6825	-91.80055	LNM 27/12, 8th Dist	63	11351_1	7/9/2012
11351	Add	Platform (Wa30-340-1025) (Gulfport Energy)	Chart No. 1: L10	N 29 40' 33.000"	W 091 47' 45.000"	29.67583	-91.79583	LNM 27/12, 8th Dist	63	11351_1	7/9/2012
11351	Add	Platform (Wa30-340-1026) (Gulfport Energy)	Chart No. 1: L10	N 29 41' 44.000"	W 091 48' 15.000"	29.69555	-91.80417	LNM 27/12, 8th Dist	63	11351_1	7/9/2012
11351	Add	Platform (Wa30-340-1027) (Gulfport Energy)	Chart No. 1: L10	N 29 40' 57.000"	W 091 47' 58.000"	29.6825	-91.79945	LNM 27/12, 8th Dist	63	11351_1	7/9/2012
11351	Relocate	Berwick Bay Bridge Approach Danger Range Front Light	Q Y 64ft	N 29 41' 46.704"	W 091 12' 54.837"	29.69631	-91.21523	LNM 25/12, 8th Dist	63	11351_1	6/25/2012
11351	Relocate	Berwick Bay Range Rear A Light	Iso R 6s 28ft "A"	N 29 41' 06.138"	W 091 12' 35.823"	29.68504	-91.20995	LNM 25/12, 8th Dist	63	11351_1	6/25/2012
11351	Relocate	Berwick Bay Range Front A Light	Q R 19ft "A"	N 29 41' 10.099"	W 091 12' 37.364"	29.68614	-91.21038	LNM 25/12, 8th Dist	63	11351_1	6/25/2012
11351	Add	Platform (Wa30-340-1004) (Gulfport Energy)	Chart No. 1: L10	N 29 41' 16.000"	W 091 48' 38.000"	29.68778	-91.81055	LNM 25/12, 8th Dist	63	11351_1	6/25/2012
11351	Add	Platform (Wa30-340-1005) (Gulfport Energy)	Chart No. 1: L10	N 29 41' 18.000"	W 091 48' 35.000"	29.68833	-91.80972	LNM 25/12, 8th Dist	63	11351_1	6/25/2012
11351	Add	Platform (Wa30-340-1006) (Gulfport Energy)	Chart No. 1: L10	N 29 41' 23.000"	W 091 48' 21.000"	29.68972	-91.80583	LNM 25/12, 8th Dist	63	11351_1	6/25/2012
11351	Add	Platform (Wa30-340-1007) (Gulfport Energy)	Chart No. 1: L10	N 29 41' 43.000"	W 091 47' 54.000"	29.69528	-91.79833	LNM 25/12, 8th Dist	63	11351_1	6/25/2012
11351	Add	Platform (Wa30-340-1008) (Gulfport Energy)	Chart No. 1: L10	N 29 40' 18.000"	W 091 47' 35.000"	29.67167	-91.79305	LNM 25/12, 8th Dist	63	11351_1	6/25/2012
11351	Add	Platform (Wa30-340-1009) (Gulfport Energy)	Chart No. 1: L10	N 29 41' 14.000"	W 091 47' 57.000"	29.68722	-91.79916	LNM 25/12, 8th Dist	63	11351_1	6/25/2012
11351	Add	Platform (Wa30-340-1010) (Gulfport Energy)	Chart No. 1: L10	N 29 41' 08.000"	W 091 47' 58.000"	29.68556	-91.79945	LNM 25/12, 8th Dist	63	11351_1	6/25/2012
11351	Add	Platform (Wa30-340-1011) (Gulfport Energy)	Chart No. 1: L10	N 29 41' 22.000"	W 091 47' 43.000"	29.68944	-91.79528	LNM 25/12, 8th Dist	63	11351_1	6/25/2012
11351	Add	Platform (Wa30-340-1012) (Gulfport Energy)	Chart No. 1: L10	N 29 40' 46.000"	W 091 47' 33.000"	29.67945	-91.7925	LNM 25/12, 8th Dist	63	11351_1	6/25/2012
11351	Add	Platform (Wa30-340-1013) (Gulfport Energy)	Chart No. 1: L10	N 29 40' 47.000"	W 091 47' 40.000"	29.67972	-91.79444	LNM 25/12, 8th Dist	63	11351_1	6/25/2012
11351	Add	Platform (Wa30-340-1014) (Gulfport Energy)	Chart No. 1: L10	N 29 41' 09.000"	W 091 48' 26.000"	29.68583	-91.80722	LNM 25/12, 8th Dist	63	11351_1	6/25/2012
11351	Add	Platform (Wa30-340-1015) (Gulfport Energy)	Chart No. 1: L10	N 29 40' 37.000"	W 091 48' 04.000"	29.67694	-91.80111	LNM 25/12, 8th Dist	63	11351_1	6/25/2012
11351	Change	tabulation - Atchafalaya River	tabulation - Atchafalaya River	N 29 17' 15.000"	W 091 15' 06.000"	29.2875	-91.25166	LNM 26/12, 8th Dist	63	11351_1	6/21/2012
11351	Change	Depth Legend - AVOCA I CUTOFF to:	8 FT BY 150 FT APR 2012	N 29 35' 40.000"	W 091 11' 37.000"	29.59444	-91.19361	LNM 26/12, 8th Dist	63	11351_1	6/21/2012
11351	Change	Depth Legend - AVOCA I CUTOFF to:	8 FT BY 150 FT APR 2012	N 29 32' 51.000"	W 091 12' 56.000"	29.5475	-91.21555	LNM 26/12, 8th Dist	63	11351_1	6/21/2012
11351	Relocate	Berwick Bay Bridge Approach Danger Range Rear Light	Iso Y 6s 86ft	N 29 41' 43.612"	W 091 12' 53.194"	29.69545	-91.21478	LNM 24/12, 8th Dist	63	11351_1	6/19/2012
11351	Add	Platform (Wa30-340-1000) (Gulfport Energy)	Chart No. 1: L10	N 29 40' 53.000"	W 091 47' 45.000"	29.68139	-91.79583	LNM 24/12, 8th Dist	63	11351_1	6/19/2012
11351	Add	Platform (Wa30-340-1001) (Gulfport Energy)	Chart No. 1: L10	N 29 40' 18.000"	W 091 47' 26.000"	29.67167	-91.79056	LNM 24/12, 8th Dist	63	11351_1	6/19/2012
11351	Add	Platform (Wa30-340-1002) (Gulfport Energy)	Chart No. 1: L10	N 29 40' 07.000"	W 091 47' 11.000"	29.66861	-91.78639	LNM 24/12, 8th Dist	63	11351_1	6/19/2012
11351	Add	Platform (Wa30-340-1003) (Gulfport Energy)	Chart No. 1: L10	N 29 41' 31.000"	W 091 48' 31.000"	29.69194	-91.80861	LNM 24/12, 8th Dist	63	11351_1	6/19/2012
11351	Relocate	Atchafalaya Channel Lighted Buoy 55	G "55" Q G	N 29 27' 13.770"	W 091 17' 28.852"	29.45382	-91.29135	LNM 23/12, 8th Dist	63	11351_1	6/11/2012
11351	Add	Obstruction	Obstn PA (Rep 2012)         Chart No. 1: K40	N 29 18' 43.800"	W 091 47' 25.700"	29.31217	-91.79047	LNM 18/12, 8th Dist	63	11351_1	4/30/2012
11351	Add	Obstruction	Obstn PA (Rep 2012)         Chart No. 1: K40	N 29 18' 20.000"	W 091 43' 50.000"	29.30556	-91.73055	LNM 18/12, 8th Dist	63	11351_1	4/30/2012
11351	Add	Platform: (WA30-340-1035) (Gulfport Energy)	Chart No. 1: L10	N 29 40' 04.000"	W 091 47' 28.000"	29.66778	-91.79111	LNM 15/12, 8th Dist	63	11351_1	4/18/2012
11351	Add	Platform: (WA30-340-1034)	Chart No. 1: L10	N 29 40' 56.000"	W 091 48' 03.000"	29.68222	-91.80083	LNM 15/12, 8th Dist	63	11351_1	4/18/2012
11351	Add	Little Wax Bayou Light 2	Fl R 2.5s 17ft 4M "2" Ra Ref	N 29 39' 27.864"	W 091 14' 55.547"	29.65774	-91.24876	LNM 15/12, 8th Dist	63	11351_1	4/18/2012
11351	Delete	Little Wax Bayou Light 2	Q R 17ft 4M "2" Ra Ref	N 29 39' 35.533"	W 091 14' 34.925"	29.65987	-91.24303	LNM 15/12, 8th Dist	63	11351_1	4/18/2012
11351	Delete	Obstruction	Obstns PA         Chart No. 1: K40	N 29 19' 29.900"	W 091 25' 20.100"	29.32497	-91.42225	LNM 12/12, 8th Dist	63	11351_1	3/28/2012
