Chart: 18022, Current Edition: 36, Print Date: Jun. /2011, San Diego to San Francisco Bay
Chart	Action	Item Name	Charting Label	Latitude	Longitude	LatDD	LongDD	Published Document	Kapp	RNC Panel	RNC Posted
18022	Relocate	Point Pinos Lighted Bell Buoy 2	R "2" Fl R 6s BELL	N 36 38' 50.983"	W 121 56' 38.762"	36.6475	-121.9441	LNM 16/17, 11th Dist	1655	18022_1	4/27/2017
18022	Add	Scripps Waverider CDIP Lighted Research Buoy 203	Y "203" Fl (5) Y 20s Priv	N 33 45' 36.180"	W 119 32' 58.500"	33.76005	-119.5496	LNM 04/17, 11th Dist	1655	18022_1	2/2/2017
18022	Add	Scripps Waverider CDIP Lighted Research Buoy 216	Y "216" Fl (5) Y 20s Priv	N 34 26' 19.800"	W 120 45' 56.460"	34.43884	-120.7657	LNM 03/17, 11th Dist	1655	18022_1	1/26/2017
18022	Add	Scripps Waverider CDIP Lighted Research Buoy 222	Y "222" Fl (5) Y 20s Priv	N 34 43' 54.420"	W 121 39' 51.420"	34.73178	-121.6643	LNM 03/17, 11th Dist	1655	18022_1	1/26/2017
18022	Relocate	Santa Cruz Light	Fl 5s Priv	N 36 57' 05.340"	W 122 01' 36.360"	36.95148	-122.0268	LNM 49/16, 11th Dist	1655	18022_1	12/15/2016
18022	Change	Santa Cruz Light	Fl 5s Priv	N 36 57' 05.340"	W 122 01' 36.360"	36.95148	-122.0268	LNM 49/16, 11th Dist	1655	18022_1	12/15/2016
18022	Relocate	South Point Light	Fl 6s 530ft 8M	N 33 53' 50.430"	W 120 07' 08.112"	33.89734	-120.1189	LNM 49/16, 11th Dist	1655	18022_1	12/15/2016
18022	Add	Wreck in Fathoms	10 Wk    Chart No. 1: K26	N 33 40' 24.500"	W 118 05' 33.000"	33.67347	-118.0925	LNM 47/16, 11th Dist	1655	18022_1	11/24/2016
18022	Add	Sounding in Fathoms 	10	N 34 03' 07.349"	W 120 15' 56.924"	34.05204	-120.2658	LNM 43/16, 11th Dist	1655	18022_1	10/20/2016
18022	Relocate	NOAA Environmental Lighted Buoy 46025	Y "46025" Fl (4) Y 20s	N 33 46' 01.690"	W 119 03' 10.015"	33.76714	-119.0528	LNM 33/16, 11th Dist	1655	18022_1	8/25/2016
18022	Relocate	Noonday Rock Lighted Bell Buoy 28	R "28" Fl R 4s BELL	N 37 47' 31.670"	W 123 10' 40.491"	37.79213	-123.1779	LNM 31/16, 11th Dist	1655	18022_1	8/11/2016
18022	Delete	NOTE O REMOTE ACTIVATED SOUND SIGNAL (RRASS)	The sound signal can be activated upon request to the Coast Guard via VHF-FM Ch 16.	N 34 35' 00.000"	W 117 05' 00.000"	34.58333	-117.0833	LNM 31/16, 11th Dist	1655	18022_1	8/11/2016
18022	Change	Oceanside South Jetty Light 2	Fl R 2.5s 5M "2" HORN MRASS (see Note N)	N 33 12' 21.732"	W 117 23' 58.548"	33.20604	-117.3996	LNM 31/16, 11th Dist	1655	18022_1	8/11/2016
18022	Add	Pt Mugu Radar Target Lighted Buoy	Y Fl Y 2s Priv	N 33 21' 45.000"	W 119 35' 45.600"	33.3625	-119.596	LNM 27/16, 11th Dist	1655	18022_1	7/14/2016
18022	Change	Oceanside South Jetty Light 2	Fl R 2.5s 26ft 5M "2" HORN RRASS (See Note O)	N 33 12' 21.732"	W 117 23' 58.548"	33.20604	-117.3996	LNM 06/16, 11th Dist	1655	18022_1	2/18/2016
18022	Add	NOTE O REMOTE ACTIVATED SOUND SIGNAL (RRASS)	The sound signal can be activated upon request to the Coast Guard via VHF-FM Ch 16.	N 34 38' 00.000"	W 116 50' 35.000"	34.63334	-116.8431	LNM 06/16, 13th Dist	1655	18022_1	2/18/2016
18022	Change	Point Bonita Light	Oc 4s 124ft 18M HORN MRASS (see note K) AIS	N 37 48' 56.120"	W 122 31' 46.266"	37.81559	-122.5295	LNM 05/16, 11th Dist	1655	18022_1	2/18/2016
18022	Change	Ship Rock Light	Fl 4s 75ft 5M	N 33 27' 47.514"	W 118 29' 30.036"	33.4632	-118.4917	LNM 49/15, 11th Dist	1655	18022_1	12/17/2015
18022	Change	San Nicolas Island East End Light	Fl 2.5s 55ft 5M	N 33 13' 47.111"	W 119 26' 07.739"	33.22975	-119.4355	LNM 47/15, 11th Dist	1655	18022_1	12/3/2015
18022	Relocate	San Nicolas Island East End Light	Fl 2.5s 55ft 5M	N 33 13' 47.111"	W 119 26' 07.739"	33.22975	-119.4355	LNM 47/15, 11th Dist	1655	18022_1	12/3/2015
18022	Relocate	Point Bonita Light	Oc 4s 124ft 18M HORN	N 37 48' 56.120"	W 122 31' 46.266"	37.81559	-122.5295	LNM 39/15, 11th Dist	1655	18022_1	10/15/2015
18022	Change	Point Bonita Light	Oc 4s 124ft 18M HORN MRASS (see Note N)	N 37 48' 56.120"	W 122 31' 46.266"	37.81559	-122.5295	LNM 39/15, 11th Dist	1655	18022_1	10/15/2015
18022	Change	Point Conception Light	Fl 30s 133ft 14M	N 34 26' 55.051"	W 120 28' 14.522"	34.44862	-120.4707	LNM 33/15, 11th Dist	1655	18022_1	8/27/2015
18022	Add	NOAA Environmental Lighted Buoy 46FLO	Y "46FLO" Fl (4) Y 20s	N 36 40' 05.523"	W 122 33' 44.089"	36.6682	-122.5622	LNM 31/15, 11th Dist	1655	18022_1	8/13/2015
18022	Change	San Luis Obispo Light	Fl 5s 116ft 14M	N 35 09' 36.828"	W 120 45' 37.770"	35.16023	-120.7605	LNM 30/15, 11th Dist	1655	18022_1	8/6/2015
18022	Change	Pigeon Point Light	Fl 10s 148ft 14M	N 37 10' 54.269"	W 122 23' 38.199"	37.18174	-122.3939	LNM 22/15, 11th Dist	1655	18022_1	6/25/2015
18022	Relocate	Scripps "CORDC" Lighted Research Buoy	Y "CORDC" Fl Y 4s Priv	N 32 54' 09.000"	W 117 24' 30.000"	32.9025	-117.4083	LNM 20/15, 13th Dist	1655	18022_1	5/28/2015
18022	Relocate	Scripps SB Channel CCE-2 Research Buoy	W Or "CCE-2" Fl (2) 4s Priv	N 34 18' 32.760"	W 120 48' 09.000"	34.3091	-120.8025	LNM 17/15, 11th Dist	1655	18022_1	5/7/2015
18022	Relocate	Morro Bay West Breakwater Light	Fl 4s 36ft 9M HORN	N 35 21' 46.284"	W 120 52' 11.364"	35.36286	-120.8698	LNM 15/15, 11th Dist	1655	18022_1	4/23/2015
18022	Change	Los Angeles Light	Fl G 15s 73ft 14M HORN	N 33 42' 30.798"	W 118 15' 05.934"	33.70855	-118.2516	LNM 13/15, 11th Dist	1655	18022_1	4/9/2015
18022	Relocate	Los Angeles Light	Fl G 15s 73ft 14M HORN	N 33 42' 30.798"	W 118 15' 05.934"	33.70855	-118.2516	LNM 13/15, 11th Dist	1655	18022_1	4/9/2015
18022	Change	Newport Bay West Jetty Light 3	Fl G 2.5s 39ft 5M "3" HORN (MRASS see note N) Ra Ref	N 33 35' 17.950"	W 117 52' 46.428"	33.58832	-117.8796	LNM 12/15, 11th Dist	1655	18022_1	4/2/2015
18022	Add	Scripps Waverider CDIP Lighted Research Buoy 138	Y "138" Fl (5) Y 20s	N 33 24' 21.600"	W 119 40' 01.200"	33.406	-119.667	LNM 11/15, 11th Dist	1655	18022_1	3/26/2015
18022	Relocate	NOAA Environmental Lighted Buoy 46025	Y "46025" Fl (4) Y 20s	N 33 45' 36.345"	W 119 02' 56.670"	33.7601	-119.0491	LNM 08/15, 11th Dist	1655	18022_1	3/5/2015
18022	Change	NOAA Environmental Lighted Buoy 46025	Y "46025" Fl (4) Y 20s	N 33 45' 36.345"	W 119 02' 56.670"	33.7601	-119.0491	LNM 08/15, 11th Dist	1655	18022_1	3/5/2015
18022	Change	Channel Islands Harbor South Jetty Light 2	Fl R 2.5s 35ft 5M "2" HORN (MRASS see note N)	N 34 09' 21.714"	W 119 13' 38.616"	34.15603	-119.2274	LNM 08/15, 11th Dist	1655	18022_1	3/5/2015
18022	Change	Channel Islands Harbor South Jetty Light 2	Fl R 2.5s 35ft 5M "2" HORN (MRASS see note N)	N 34 09' 21.714"	W 119 13' 38.616"	34.15603	-119.2274	LNM 08/15, 11th Dist	1655	18022_1	3/5/2015
18022	Change	San Joaquin River Light 3	Fl G 2.5s 16ft 3M "3"	N 38 01' 43.334"	W 121 49' 29.862"	38.02871	-121.825	LNM 07/15, 11th Dist	1655	18022_1	3/5/2015
18022	Change	Port Hueneme Light	Fl (5) 30s 52ft 14M HORN MRASS (see note N)	N 34 08' 42.612"	W 119 12' 35.868"	34.14517	-119.21	LNM 05/15, 11th Dist	1655	18022_1	2/12/2015
18022	Add	Obstruction with depth in fathoms	20 Subm Buoy	N 34 47' 51.000"	W 120 42' 21.000"	34.7975	-120.7058	LNM 03/15, 11th Dist	1655	18022_1	1/29/2015
18022	Add	Scripps CORDC Lighted Research Buoy	Y "CORDC" Fl Y 4s Priv	N 32 52' 23.880"	W 117 26' 25.860"	32.8733	-117.4405	LNM 49/14, 11th Dist	1655	18022_1	12/18/2014
18022	Change	Dana Point Breakwater Light 3	Fl G 4s 32ft 5M "3" HORN MRASS (see note N)	N 33 27' 15.690"	W 117 41' 29.575"	33.45436	-117.6916	LNM 48/14, 11th Dist	1655	18022_1	12/11/2014
18022	Add	NOTE N MARINER ACTIVATED SOUND SIGNAL (MRASS)	Horn is activated by keying the mic 5 times on VHF-FM Ch 81A - Horn will operate for thirty minutes. 	N 34 45' 45.690"	W 116 50' 37.360"	34.76269	-116.8437	LNM 48/14, 11th Dist	1655	18022_1	12/11/2014
18022	Change	Redondo Beach East Jetty Light 2	Fl R 4s 20ft 5M "2" HORN MRASS (see note N)	N 33 50' 30.678"	W 118 23' 38.935"	33.84185	-118.3941	LNM 48/14, 11th Dist	1655	18022_1	12/11/2014
18022	Delete	Scripps Waverider Lighted Research Lighted Buoy 167	Y "167" Fl (5) Y 20s Priv	N 33 45' 42.840"	W 119 33' 06.900"	33.7619	-119.5519	LNM 46/14, 11th Dist	1655	18022_1	11/27/2014
18022	Change	Scripps Offshore CCE-1 Research Lighted Buoy SIO	Y "SIO" Fl Y 4s Priv	N 33 30' 55.000"	W 122 30' 18.400"	33.51528	-122.5051	LNM 46/14, 11th Dist	1655	18022_1	11/27/2014
18022	Delete	Santa Cruz Island Oceanographic Lighted Buoy 2	Y "2" Fl (3) 20s Navy	N 33 23' 59.000"	W 119 39' 07.000"	33.39972	-119.6519	LNM 44/14, 11th Dist	1655	18022_1	11/13/2014
18022	Add	Submarine Cable  PT 1 OF 17	Chart No. 1: L30.1	N 33 53' 41.074"	W 118 25' 08.678"	33.89474	-118.4191	LNM 40/14, 11th Dist	1655	18022_1	11/13/2014
18022	Add	Submarine Cable  PT 2 OF 17	Chart No. 1: L30.1	N 33 50' 47.800"	W 118 29' 40.800"	33.84661	-118.4947	LNM 40/14, 11th Dist	1655	18022_1	11/13/2014
18022	Add	Submarine Cable  PT 3 OF 17	Chart No. 1: L30.1	N 33 50' 07.000"	W 118 30' 41.500"	33.83528	-118.5115	LNM 40/14, 11th Dist	1655	18022_1	11/13/2014
18022	Add	Submarine Cable  PT 4 OF 17	Chart No. 1: L30.1	N 33 48' 41.600"	W 118 32' 28.200"	33.81155	-118.5412	LNM 40/14, 11th Dist	1655	18022_1	11/13/2014
18022	Add	Submarine Cable  PT 5 OF 17	Chart No. 1: L30.1	N 33 46' 35.600"	W 118 33' 05.500"	33.77655	-118.5515	LNM 40/14, 11th Dist	1655	18022_1	11/13/2014
18022	Add	Submarine Cable  PT 6 OF 17	Chart No. 1: L30.1	N 33 44' 32.500"	W 118 32' 29.800"	33.74236	-118.5416	LNM 40/14, 11th Dist	1655	18022_1	11/13/2014
18022	Add	Submarine Cable  PT 7 OF 17	Chart No. 1: L30.1	N 33 40' 14.800"	W 118 30' 40.600"	33.67078	-118.5113	LNM 40/14, 11th Dist	1655	18022_1	11/13/2014
18022	Add	Submarine Cable  PT 8 OF 17	Chart No. 1: L30.1	N 33 33' 26.500"	W 118 21' 55.500"	33.55736	-118.3654	LNM 40/14, 11th Dist	1655	18022_1	11/13/2014
18022	Add	Submarine Cable  PT 9 OF 17	Chart No. 1: L30.1	N 33 31' 53.800"	W 118 17' 29.900"	33.53161	-118.2916	LNM 40/14, 11th Dist	1655	18022_1	11/13/2014
18022	Add	Submarine Cable  PT 10 OF 17	Chart No. 1: L30.1	N 33 30' 54.800"	W 118 12' 00.700"	33.51522	-118.2002	LNM 40/14, 11th Dist	1655	18022_1	11/13/2014
18022	Add	Submarine Cable  PT 11 OF 17	Chart No. 1: L30.1	N 33 29' 44.000"	W 118 06' 27.300"	33.49556	-118.1076	LNM 40/14, 11th Dist	1655	18022_1	11/13/2014
18022	Add	Submarine Cable  PT 12 OF 17	Chart No. 1: L30.1	N 33 27' 09.600"	W 117 58' 28.100"	33.45267	-117.9745	LNM 40/14, 11th Dist	1655	18022_1	11/13/2014
18022	Add	Submarine Cable  PT 13 OF 17	Chart No. 1: L30.1	N 33 24' 13.900"	W 117 52' 26.700"	33.40386	-117.8741	LNM 40/14, 11th Dist	1655	18022_1	11/13/2014
18022	Add	Submarine Cable  PT 14 OF 17	Chart No. 1: L30.1	N 33 05' 41.100"	W 117 32' 25.100"	33.09475	-117.5403	LNM 40/14, 11th Dist	1655	18022_1	11/13/2014
18022	Add	Submarine Cable  PT 15 OF 17	Chart No. 1: L30.1	N 32 54' 11.600"	W 117 28' 13.900"	32.90322	-117.4705	LNM 40/14, 11th Dist	1655	18022_1	11/13/2014
18022	Add	Submarine Cable  PT 16 OF 17	Chart No. 1: L30.1	N 32 49' 20.300"	W 117 22' 51.500"	32.8223	-117.381	LNM 40/14, 11th Dist	1655	18022_1	11/13/2014
18022	Add	Submarine Cable  PT 17 OF 17	Chart No. 1: L30.1	N 32 48' 10.200"	W 117 15' 54.200"	32.80283	-117.2651	LNM 40/14, 11th Dist	1655	18022_1	11/13/2014
18022	Delete	Submarine Cable  PT 1 OF 11	Chart No. 1: L30.1	N 33 53' 39.259"	W 118 25' 07.942"	33.89424	-118.4189	LNM 40/14, 11th Dist	1655	18022_1	11/13/2014
18022	Delete	Submarine Cable  PT 2 OF 11	Chart No. 1: L30.1	N 33 46' 39.528"	W 118 33' 04.875"	33.77765	-118.5514	LNM 40/14, 11th Dist	1655	18022_1	11/13/2014
18022	Delete	Submarine Cable  PT 3 OF 11	Chart No. 1: L30.1	N 33 44' 31.758"	W 118 32' 30.634"	33.74215	-118.5418	LNM 40/14, 11th Dist	1655	18022_1	11/13/2014
18022	Delete	Submarine Cable  PT 4 OF 11	Chart No. 1: L30.1	N 33 40' 04.802"	W 118 30' 27.273"	33.668	-118.5076	LNM 40/14, 11th Dist	1655	18022_1	11/13/2014
18022	Delete	Submarine Cable  PT 5 OF 11	Chart No. 1: L30.1	N 33 33' 24.828"	W 118 22' 06.435"	33.5569	-118.3685	LNM 40/14, 11th Dist	1655	18022_1	11/13/2014
18022	Delete	Submarine Cable  PT 6 OF 11	Chart No. 1: L30.1	N 33 30' 50.588"	W 118 11' 54.428"	33.51405	-118.1985	LNM 40/14, 11th Dist	1655	18022_1	11/13/2014
18022	Delete	Submarine Cable  PT 7 OF 11	Chart No. 1: L30.1	N 33 29' 35.233"	W 118 06' 18.435"	33.49312	-118.1051	LNM 40/14, 11th Dist	1655	18022_1	11/13/2014
18022	Delete	Submarine Cable  PT 8 OF 11	Chart No. 1: L30.1	N 33 05' 40.004"	W 117 32' 27.493"	33.09444	-117.541	LNM 40/11, 11th Dist	1655	18022_1	11/13/2014
18022	Delete	Submarine Cable  PT 9 OF 11	Chart No. 1: L30.1	N 32 54' 08.834"	W 117 28' 06.403"	32.90245	-117.4684	LNM 40/14, 11th Dist	1655	18022_1	11/13/2014
18022	Delete	Submarine Cable  PT 10 OF 11	Chart No. 1: L30.1	N 32 49' 19.624"	W 117 22' 43.250"	32.82212	-117.3787	LNM 40/14, 11th Dist	1655	18022_1	11/13/2014
18022	Delete	Submarine Cable  PT 11 OF 11	Chart No. 1: L30.1	N 32 48' 08.834"	W 117 15' 52.659"	32.80245	-117.2646	LNM 40/14, 11th Dist	1655	18022_1	11/13/2014
18022	Add	Non-dangerous Wreck	(cov 21 fms) Rep 1998	N 32 33' 17.000"	W 117 15' 33.000"	32.55472	-117.2592	WNM 36/14, NGA	1655	18022_1	9/4/2014
18022	Change	Duxbury Reef Lighted Buoy 1DR	G "1DR" Fl G 6s	N 37 51' 36.588"	W 122 41' 43.424"	37.86016	-122.6954	LNM 34/14, 11th Dist	1655	18022_1	9/4/2014
18022	Relocate	Duxbury Reef Lighted Buoy 1DR	G "1DR" Fl G 6s	N 37 51' 36.588"	W 122 41' 43.424"	37.86016	-122.6954	LNM 34/14, 11th Dist	1655	18022_1	9/4/2014
18022	Add	Wreck in Fathoms	10 Wk    Chart No. 1: K26	N 33 41' 44.700"	W 118 08' 42.700"	33.69575	-118.1452	LNM 25/14, 11th Dist	1655	18022_1	6/26/2014
18022	Relocate	NOAA Environmental Lighted Buoy 46047	Y ODAS "46047" Fl (4) Y 20s PA	N 32 24' 02.317"	W 119 32' 18.155"	32.40064	-119.5384	LNM 23/14, 11th Dist	1655	18022_1	6/19/2014
18022	Change	Point Arguello Light	Fl 15s 97ft 9M	N 34 34' 37.440"	W 120 38' 50.094"	34.57707	-120.6472	LNM 23/14, 11th Dist	1655	18022_1	6/19/2014
18022	Relocate	NOAA Environmental Lighted Buoy 46069	Y ODAS "46069" Fl (4) Y 20s PA	N 33 39' 48.504"	W 120 13' 37.918"	33.66348	-120.2272	LNM 21/14, 11th Dist	1655	18022_1	6/5/2014
18022	Relocate	NOAA Environmental Lighted Buoy 46086	Y ODAS "46086" Fl (4) Y 20s PA	N 32 30' 25.059"	W 118 02' 10.030"	32.50696	-118.0361	LNM 21/14, 11th Dist	1655	18022_1	6/5/2014
18022	Add	Submarine Cable  PT 1 OF 10	Chart No. 1: L30.1	N 34 24' 03.852"	W 119 41' 47.980"	34.40107	-119.6967	LNM 21/14, 11th Dist	1655	18022_1	5/29/2014
18022	Add	Submarine Cable  PT 2 OF 10	Chart No. 1: L30.1	N 34 13' 07.574"	W 119 36' 37.711"	34.21877	-119.6105	LNM 21/14, 11th Dist	1655	18022_1	5/29/2014
18022	Add	Submarine Cable  PT 3 OF 10	Chart No. 1: L30.1	N 34 06' 52.213"	W 119 24' 45.980"	34.1145	-119.4128	LNM 21/14, 11th Dist	1655	18022_1	5/29/2014
18022	Add	Submarine Cable  PT 4 OF 10	Chart No. 1: L30.1	N 34 05' 28.735"	W 119 15' 34.449"	34.09132	-119.2596	LNM 21/14, 11th Dist	1655	18022_1	5/29/2014
18022	Add	Submarine Cable  PT 5 OF 10	Chart No. 1: L30.1	N 33 52' 12.510"	W 118 59' 57.703"	33.87014	-118.9994	LNM 21/14, 11th Dist	1655	18022_1	5/29/2014
18022	Add	Submarine Cable  PT 6 OF 10	Chart No. 1: L30.1	N 33 52' 48.237"	W 118 57' 06.496"	33.88007	-118.9518	LNM 21/14, 11th Dist	1655	18022_1	5/29/2014
18022	Add	Submarine Cable  PT 7 OF 10	Chart No. 1: L30.1	N 33 54' 01.720"	W 118 52' 19.113"	33.90048	-118.872	LNM 21/14, 11th Dist	1655	18022_1	5/29/2014
18022	Add	Submarine Cable  PT 8 OF 10	Chart No. 1: L30.1	N 33 57' 19.626"	W 118 39' 21.345"	33.95545	-118.6559	LNM 21/14, 11th Dist	1655	18022_1	5/29/2014
18022	Add	Submarine Cable  PT 9 OF 10	Chart No. 1: L30.1	N 33 53' 26.001"	W 118 31' 46.424"	33.89056	-118.5296	LNM 21/14, 11th Dist	1655	18022_1	5/29/2014
18022	Add	Submarine Cable  PT 10 OF 10	Chart No. 1: L30.1	N 33 53' 41.310"	W 118 25' 05.310"	33.89481	-118.4181	LNM 21/14, 11th Dist	1655	18022_1	5/29/2014
18022	Add	Submarine Cable  PT 1 OF 11	Chart No. 1: L30.1	N 33 53' 39.259"	W 118 25' 07.942"	33.89424	-118.4189	LNM 21/14, 11th Dist	1655	18022_1	5/29/2014
18022	Add	Submarine Cable  PT 2 OF 11	Chart No. 1: L30.1	N 33 46' 39.528"	W 118 33' 04.875"	33.77765	-118.5514	LNM 21/14, 11th Dist	1655	18022_1	5/29/2014
18022	Add	Submarine Cable  PT 3 OF 11	Chart No. 1: L30.1	N 33 44' 31.758"	W 118 32' 30.634"	33.74215	-118.5418	LNM 21/14, 11th Dist	1655	18022_1	5/29/2014
18022	Add	Submarine Cable  PT 4 OF 11	Chart No. 1: L30.1	N 33 40' 04.802"	W 118 30' 27.273"	33.668	-118.5076	LNM 21/14, 11th Dist	1655	18022_1	5/29/2014
18022	Add	Submarine Cable  PT 5 OF 11	Chart No. 1: L30.1	N 33 33' 24.828"	W 118 22' 06.435"	33.5569	-118.3685	LNM 21/14, 11th Dist	1655	18022_1	5/29/2014
18022	Add	Submarine Cable  PT 6 OF 11	Chart No. 1: L30.1	N 33 30' 50.588"	W 118 11' 54.428"	33.51405	-118.1985	LNM 21/14, 11th Dist	1655	18022_1	5/29/2014
18022	Add	Submarine Cable  PT 7 OF 11	Chart No. 1: L30.1	N 33 29' 35.233"	W 118 06' 18.435"	33.49312	-118.1051	LNM 21/14, 11th Dist	1655	18022_1	5/29/2014
18022	Add	Submarine Cable  PT 8 OF 11	Chart No. 1: L30.1	N 33 05' 40.004"	W 117 32' 27.493"	33.09444	-117.541	LNM 21/14, 11th Dist	1655	18022_1	5/29/2014
18022	Add	Submarine Cable  PT 9 OF 11	Chart No. 1: L30.1	N 32 54' 08.834"	W 117 28' 06.403"	32.90245	-117.4684	LNM 21/14, 11th Dist	1655	18022_1	5/29/2014
18022	Add	Submarine Cable  PT 10 OF 11	Chart No. 1: L30.1	N 32 49' 19.624"	W 117 22' 43.250"	32.82212	-117.3787	LNM 21/14, 11th Dist	1655	18022_1	5/29/2014
18022	Add	Submarine Cable  PT 11 OF 11	Chart No. 1: L30.1	N 32 48' 08.834"	W 117 15' 52.659"	32.80245	-117.2646	LNM 21/14, 11th Dist	1655	18022_1	5/29/2014
18022	Relocate	VENTURA MARINA SOUTH JETTY LIGHT 6	Fl R 4s 26ft 5M "6" HORN	N 34 14' 46.362"	W 119 16' 12.918"	34.24621	-119.2703	LNM 17/14, 11th Dist	1655	18022_1	5/8/2014
18022	Change	VENTURA MARINA SOUTH JETTY LIGHT 6	Fl R 4s 26ft 5M "6" HORN	N 34 14' 46.362"	W 119 16' 12.918"	34.24621	-119.2703	LNM 17/14, 11th Dist	1655	18022_1	5/8/2014
18022	Change	CHANNEL ISLANDS HARBOR SOUTH JETTY LT 2	Fl R 2.5s 35ft 5M "2" HORN	N 34 09' 21.714"	W 119 13' 38.616"	34.15603	-119.2274	LNM 15/14, 11th Dist	1655	18022_1	4/24/2014
18022	Change	SAN DIEGO BAY APPROACH LTD WHISTLE BUOY SD	RW "SD" Mo (A) WHIS RACON (--) AIS	N 32 37' 20.192"	W 117 14' 45.128"	32.62228	-117.2459	LNM 14/14, 11th Dist	1655	18022_1	4/17/2014
18022	Change	POINT ARGUELLO LIGHT	Fl 15s 97ft 10M	N 34 34' 37.440"	W 120 38' 50.094"	34.57707	-120.6472	LNM 12/14, 11th Dist	1655	18022_1	4/3/2014
18022	Change	MORRO BAY WEST BKW LIGHT	Fl 4s 36ft 9M HORN	N 35 21' 46.457"	W 120 52' 11.297"	35.3629	-120.8698	LNM 11/14, 11th Dist	1655	18022_1	3/27/2014
18022	Change	South Coronado Island North Light	Fl (3) 12s 387ft 10M	N 32 24' 58.520"	W 117 14' 53.280"	32.41626	-117.2481	LNM 13/14, 11th Dist	1655	18022_1	3/27/2014
18022	Change	POINT REYES LIGHT	Fl 5s 265ft 14M HORN	N 37 59' 44.193"	W 123 01' 23.358"	37.99561	-123.0232	LNM 07/14, 11th Dist	1655	18022_1	3/6/2014
18022	Change	MILE ROCKS LIGHT	Fl 5s 49ft 14M HORN AIS	N 37 47' 34.159"	W 122 30' 37.350"	37.79282	-122.5104	LNM 06/14, 11th Dist	1655	18022_1	2/27/2014
18022	Change	SAN FRANCISCO APPROACH LTD WHIS BUOY SF	RW "SF" Mo (A) WHIS RACON (--) AIS	N 37 44' 59.749"	W 122 41' 33.940"	37.74993	-122.6928	LNM 06/14, 11th Dist	1655	18022_1	2/27/2014
18022	Delete	MONTEREY BAY SPECIAL PURPOSE BUOY MY4	Y SP "MY4"	N 36 40' 00.000"	W 121 54' 24.000"	36.66667	-121.9067	LNM 06/14, 11th Dist	1655	18022_1	2/27/2014
18022	Relocate	South Coronado Island South Light To	Fl(2)10s 173ft 10M	N 32 23' 28.970"	W 117 14' 29.410"	32.39138	-117.2415	LNM 02/14, 11th Dist	1655	18022_1	1/16/2014
18022	Relocate	South Coronado Island South Light From	Fl(2)10s 173ft 10M	N 32 23' 24.571"	W 117 14' 26.500"	32.39016	-117.2407	LNM 02/14, 11th Dist	1655	18022_1	1/16/2014
18022	Relocate	South Coronado Island North Light From	Fl(3)12s 387ft 10M	N 32 24' 51.520"	W 117 14' 40.202"	32.41431	-117.2445	LNM 02/14, 11th Dist	1655	18022_1	1/16/2014
18022	Relocate	South Coronado Island North Light To	Fl(3)12s 387ft 10M	N 32 24' 58.520"	W 117 14' 53.280"	32.41626	-117.2481	LNM 02/14, 11th Dist	1655	18022_1	1/16/2014
18022	Change	South Coronado Island North Light	Fl(3)12s 387ft 10M	N 32 24' 58.520"	W 117 14' 53.280"	32.41626	-117.2481	LNM 02/14, 11th Dist	1655	18022_1	1/16/2014
18022	Change	South Coronado Island South Light	Fl(2)10s 173ft 10M	N 32 23' 28.970"	W 117 14' 29.410"	32.39138	-117.2415	LNM 02/14, 11th Dist	1655	18022_1	1/16/2014
18022	Add	Racon	RACON (-.-.)	N 32 23' 51.130"	W 117 14' 32.210"	32.39754	-117.2423	LNM 02/14, 11th Dist	1655	18022_1	1/16/2014
18022	Relocate	NOAA LTD BUOY 46053	Y ODAS "46053" Fl (4) Y 20s PA	N 34 15' 41.780"	W 119 52' 42.973"	34.2616	-119.8786	LNM 52/13, 11th Dist	1655	18022_1	1/9/2014
18022	Relocate	NOAA LTD BUOY 46054	Y ODAS "46054" Fl (4) Y 20s PA	N 34 15' 53.248"	W 120 28' 37.148"	34.26479	-120.477	LNM 52/13, 11th Dist	1655	18022_1	1/9/2014
18022	Relocate	NOAA LTD BUOY 46011	Y ODAS "46011" Fl (4) Y 20s PA	N 35 00' 10.493"	W 120 59' 39.061"	35.00291	-120.9942	LNM 47/13, 11th Dist	1655	18022_1	12/3/2013
18022	Change	NEWPORT BAY WEST JETTY LT 3	Fl G 2.5s 39 ft 5M "3" HORN Ra Ref	N 33 35' 17.950"	W 117 52' 46.428"	33.58832	-117.8796	LNM 47/13, 11th Dist	1655	18022_1	12/3/2013
18022	Change	NEWPORT BAY WEST JETTY LIGHT 3	Fl G 2.5s 44ft 5M "3" HORN Ra Ref	N 33 35' 17.950"	W 117 52' 46.428"	33.58832	-117.8796	LNM 46/13, 11th Dist	1655	18022_1	11/14/2013
18022	Change	SANTA CRUZ LIGHT	Fl 5s 60ft Priv	N 36 57' 05.340"	W 122 01' 36.360"	36.95148	-122.0268	LNM 45/13, 11th Dist	1655	18022_1	11/14/2013
18022	Change	ANACAPA ISLAND LIGHT	Fl (2) 60s 14M HORN	N 34 00' 57.016"	W 119 21' 34.409"	34.01584	-119.3596	LNM 45/13, 11th Dist	1655	18022_1	11/14/2013
18022	Relocate	ANACAPA ISLAND LIGHT	Fl (2) 60s 14M HORN	N 34 00' 57.016"	W 119 21' 34.409"	34.01584	-119.3596	LNM 45/13, 11th Dist	1655	18022_1	11/14/2013
18022	Relocate	SCRIPPS OFFSHORE CC-1 RESEARCH BUOY SIO	Y "SIO" Fl (2) Y 4s Priv	N 33 30' 55.000"	W 122 30' 18.400"	33.51528	-122.5051	LNM 44/13, 11th Dist	1655	18022_1	11/6/2013
18022	Change	SCRIPPS OFFSHORE CC-1 RESEARCH BUOY SIO	Y "SIO" Fl (2) Y 4s Priv	N 33 30' 55.000"	W 122 30' 18.400"	33.51528	-122.5051	LNM 44/13, 11th Dist	1655	18022_1	11/6/2013
18022	Change	SANTA CATALINA ISLAND EAST END LIGHT	Fl 6s 212ft 9M	N 33 18' 06.972"	W 118 19' 03.420"	33.30194	-118.3176	LNM 44/13, 11th Dist	1655	18022_1	11/6/2013
18022	Change	LONG POINT LIGHT	Fl 6s 71ft 9M	N 33 24' 22.778"	W 118 21' 59.397"	33.40633	-118.3665	LNM 44/13, 11th Dist	1655	18022_1	11/6/2013
18022	Delete	CORDELL BANK LTD RESEARCH BUOY	Y Fl (5) Y 20s Priv	N 38 03' 00.600"	W 123 27' 22.800"	38.05017	-123.4563	LNM 36/13, 11th Dist	1655	18022_1	9/11/2013
18022	Delete	CAMP PENDLETON CALIBRATION LTD BUOY	Y Fl Y 4s	N 33 20' 18.002"	W 117 37' 06.548"	33.33833	-117.6185	LNM 32/13, 11th Dist	1655	18022_1	8/12/2013
18022	Delete	SANTA ANA LTD BELL BUOY 4SA	R "4SA" Fl R 4s BELL	N 33 35' 12.079"	W 117 57' 15.211"	33.58669	-117.9542	LNM 32/13, 11th Dist	1655	18022_1	8/12/2013
18022	Add	Pilot Station	Pilots      Chart No. 1: T1.1	N 34 06' 42.000"	W 119 14' 30.000"	34.11167	-119.2417	LNM 33/13, 11th Dist	1655	18022_1	8/7/2013
18022	Change	PORT HUENEME LIGHT	Fl (5) 30s 52ft 14M HORN	N 34 08' 42.612"	W 119 12' 35.868"	34.14517	-119.21	LNM 31/13, 11th Dist	1655	18022_1	8/5/2013
18022	Change	SAN LUIS OBISPO LIGHT	Fl 5s 116ft 20M	N 35 09' 36.828"	W 120 45' 37.770"	35.16023	-120.7605	LNM 30/13, 11th Dist	1655	18022_1	8/5/2013
18022	Relocate	SCRIPPS LIGHTED BUOY 167	Y "167" Fl (5) Y 20s Priv	N 33 45' 42.840"	W 119 33' 06.900"	33.7619	-119.5519	LNM 28/13, 11th Dist	1655	18022_1	7/30/2013
18022	Relocate	NOAA LTD BUOY 46025	Y ODAS "46025" Fl (4) Y 20s PA	N 33 44' 49.138"	W 119 03' 32.494"	33.74698	-119.059	LNM 26/13, 11th Dist	1655	18022_1	7/17/2013
18022	Relocate	NOAA LTD BUOY 46047	Y ODAS "46047" Fl (4) Y 20s PA	N 32 24' 03.568"	W 119 31' 34.430"	32.40099	-119.5262	LNM 26/13, 11th Dist	1655	18022_1	7/17/2013
18022	Relocate	NOAA LTD BUOY 46069	Y ODAS "46069" Fl (4) Y 20s PA	N 33 40' 28.227"	W 120 12' 42.791"	33.67451	-120.2119	LNM 26/13, 11th Dist	1655	18022_1	7/17/2013
18022	Add	NOAA LTD BUOY 46044	Y ODAS "46044" Fl (4) Y 20s PA	N 36 42' 01.000"	W 122 23' 24.000"	36.70028	-122.39	LNM 26/13, 11th Dist	1655	18022_1	7/17/2013
18022	Delete	NOAA ODAS BUOY 46062	Y ODAS "46062" Fl (4) Y 20s PA	N 35 06' 03.000"	W 121 00' 36.000"	35.10083	-121.01	LNM 25/13, 11th Dist	1655	18022_1	7/10/2013
18022	Add	IMO AMENDED TRAFFIC SEPARATION SCHEME note	IMO AMENDED TRAFFIC SEPARATION SCHEMEPortions of the traffic separation scheme shown on this chart have been amended by the IMO. See IMO COLREG.2/Circ.64. Please be advised that these portions have not been revised by the United States Coast Guard and that the corresponding changes have not been updated in the Code of Federal Regulations (33 CFR part 167). There are differences between the two traffic separation schemes and caution is advised.	N 35 38' 42.700"	W 118 28' 17.300"	35.6452	-118.4715	LNM 23/13, 11th Dist	1655	18022_1	5/28/2013
18022	Delete	Traffic lane PT 3 OF 4	Chart No.1: M15	N 33 35' 28.800"	W 118 23' 24.600"	33.59133	-118.3902	LNM 23/13, 11th Dist	1655	18022_1	5/28/2013
18022	Delete	Traffic lane PT 4 OF 4	Chart No.1: M15	N 33 35' 30.500"	W 118 17' 33.800"	33.5918	-118.2927	LNM 23/13, 11th Dist	1655	18022_1	5/28/2013
18022	Delete	Southbound Coastwise Traffic Lane Label	SOUTHBOUND COASTWISE TRAFFIC LANE	N 34 12' 58.000"	W 120 06' 33.000"	34.21611	-120.1092	LNM 23/13, 11th Dist	1655	18022_1	5/28/2013
18022	Delete	Traffic lane PT 1 OF 4	Chart No.1: M15	N 34 22' 46.500"	W 120 52' 36.500"	34.37958	-120.8768	LNM 23/13, 11th Dist	1655	18022_1	5/28/2013
18022	Delete	Traffic lane PT 2 OF 4	Chart No.1: M15	N 34 01' 22.000"	W 119 18' 06.600"	34.02278	-119.3018	LNM 23/13, 11th Dist	1655	18022_1	5/28/2013
18022	Delete	Directional flow arrow	Chart No.1: M10	N 33 59' 34.800"	W 119 05' 12.700"	33.993	-119.0869	LNM 23/13, 11th Dist	1655	18022_1	5/28/2013
18022	Add	Directional flow arrow	Chart No.1: M10	N 33 44' 19.100"	W 118 32' 53.200"	33.73864	-118.5481	LNM 23/13, 11th Dist	1655	18022_1	5/28/2013
18022	Add	Directional flow arrow	Chart No.1: M10	N 33 42' 22.100"	W 118 34' 15.100"	33.70614	-118.5709	LNM 23/13, 11th Dist	1655	18022_1	5/28/2013
18022	Add	North-Westbound Traffic Lane Label	NORTH-WESTBOUND TRAFFIC LANE	N 33 53' 07.000"	W 118 52' 04.300"	33.88528	-118.8679	LNM 23/13, 11th Dist	1655	18022_1	5/28/2013
18022	Add	Separation Zone Label	SEPARATION ZONE (see note F)	N 34 18' 57.600"	W 120 24' 09.600"	34.316	-120.4027	LNM 23/13, 11th Dist	1655	18022_1	5/28/2013
18022	Add	Directional flow arrow	Chart No.1: M10	N 34 24' 51.200"	W 120 45' 48.100"	34.41422	-120.7634	LNM 23/13, 11th Dist	1655	18022_1	5/28/2013
18022	Delete	Northbound Coastwise Traffic Lane Label	NORTHBOUND COASTWISE TRAFFIC LANE	N 33 53' 46.500"	W 118 53' 23.100"	33.89625	-118.8897	LNM 23/13, 11th Dist	1655	18022_1	5/28/2013
18022	Delete	Traffic lane PT 1 OF 4	Chart No.1: M15	N 34 26' 37.800"	W 120 51' 18.100"	34.44383	-120.855	LNM 23/13, 11th Dist	1655	18022_1	5/28/2013
18022	Delete	Traffic lane PT 2 OF 4	Chart No.1: M15	N 34 04' 41.700"	W 119 14' 47.500"	34.07825	-119.2465	LNM 23/13, 11th Dist	1655	18022_1	5/28/2013
18022	Delete	Traffic lane PT 3 OF 4	Chart No.1: M15	N 33 38' 41.300"	W 118 20' 25.800"	33.64481	-118.3405	LNM 23/13, 11th Dist	1655	18022_1	5/28/2013
18022	Delete	Traffic lane PT 4 OF 4	Chart No.1: M15	N 33 38' 42.400"	W 118 17' 37.900"	33.64511	-118.2939	LNM 23/13, 11th Dist	1655	18022_1	5/28/2013
18022	Delete	Separation Zone Label	SEPARATION ZONE	N 34 15' 44.100"	W 120 12' 11.300"	34.26225	-120.2031	LNM 23/13, 11th Dist	1655	18022_1	5/28/2013
18022	Add	Traffic lane PT 1 OF 4	Chart No.1: M15	N 34 26' 40.530"	W 120 51' 27.570"	34.44459	-120.8577	LNM 23/13, 11th Dist	1655	18022_1	5/28/2013
18022	Add	Traffic lane PT 2 OF 4	Chart No.1: M15	N 34 04' 48.000"	W 119 15' 09.600"	34.08	-119.2527	LNM 23/13, 11th Dist	1655	18022_1	5/28/2013
18022	Add	Traffic lane PT 3 OF 4	Chart No.1: M15	N 33 38' 42.000"	W 118 20' 14.230"	33.645	-118.3373	LNM 23/13, 11th Dist	1655	18022_1	5/28/2013
18022	Add	Traffic lane PT 4 OF 4	Chart No.1: M15	N 33 37' 42.030"	W 118 17' 34.260"	33.62834	-118.2928	LNM 23/13, 11th Dist	1655	18022_1	5/28/2013
18022	Add	Directional flow arrow	Chart No.1: M10	N 33 58' 43.400"	W 119 03' 36.600"	33.97872	-119.0602	LNM 23/13, 11th Dist	1655	18022_1	5/28/2013
18022	Add	Directional flow arrow	Chart No.1: M10	N 33 57' 13.600"	W 119 05' 07.200"	33.95378	-119.0853	LNM 23/13, 11th Dist	1655	18022_1	5/28/2013
18022	Delete	Separation screen PT 1 OF 8	Chart No. 1: M13	N 34 25' 45.100"	W 120 51' 46.500"	34.4292	-120.8629	LNM 23/13, 11th Dist	1655	18022_1	5/28/2013
18022	Delete	Separation screen PT 2 OF 8	Chart No. 1: M13	N 34 04' 04.100"	W 119 15' 58.800"	34.06781	-119.2663	LNM 23/13, 11th Dist	1655	18022_1	5/28/2013
18022	Delete	Separation screen PT 3 OF 8	Chart No. 1: M13	N 33 37' 44.000"	W 118 20' 51.500"	33.62889	-118.3476	LNM 23/13, 11th Dist	1655	18022_1	5/28/2013
18022	Delete	Separation screen PT 4 OF 8	Chart No. 1: M13	N 33 37' 45.200"	W 118 17' 30.100"	33.62922	-118.2917	LNM 23/13, 11th Dist	1655	18022_1	5/28/2013
18022	Delete	Separation screen PT 5 OF 8	Chart No. 1: M13	N 33 36' 32.600"	W 118 17' 32.100"	33.60905	-118.2923	LNM 23/13, 11th Dist	1655	18022_1	5/28/2013
18022	Delete	Separation screen PT 6 OF 8	Chart No. 1: M13	N 33 36' 30.200"	W 118 23' 05.900"	33.60839	-118.385	LNM 23/13, 11th Dist	1655	18022_1	5/28/2013
18022	Delete	Separation screen PT 7 OF 8	Chart No. 1: M13	N 34 02' 09.900"	W 119 17' 24.700"	34.03608	-119.2902	LNM 23/13, 11th Dist	1655	18022_1	5/28/2013
18022	Delete	Separation screen PT 8 OF 8	Chart No. 1: M13	N 34 23' 45.400"	W 120 52' 29.100"	34.39594	-120.8747	LNM 23/13, 11th Dist	1655	18022_1	5/28/2013
18022	Delete	Separation Zone Label	SEPARATION ZONE	N 33 53' 42.800"	W 118 56' 49.000"	33.89522	-118.9469	LNM 23/13, 11th Dist	1655	18022_1	5/28/2013
18022	Delete	Northbound Coastwise Traffic Lane Label	NORTHBOUND COASTWISE TRAFFIC LANE	N 34 17' 06.700"	W 120 11' 22.000"	34.28519	-120.1894	LNM 23/13, 11th Dist	1655	18022_1	5/28/2013
18022	Add	South-Eastbound Traffic Lane Label	SOUTH-EASTBOUND TRAFFIC LANE	N 33 51' 47.700"	W 118 53' 25.500"	33.86325	-118.8904	LNM 23/13, 11th Dist	1655	18022_1	5/28/2013
18022	Delete	Southbound Coastwise Traffic Lane	SOUTHBOUND COASTWISE TRAFFIC LANE	N 33 51' 56.500"	W 118 56' 30.100"	33.8657	-118.9417	LNM 23/13, 11th Dist	1655	18022_1	5/28/2013
18022	Delete	Directional flow arrow	Chart No.1: M10	N 34 19' 50.300"	W 120 23' 48.900"	34.33064	-120.3969	LNM 23/13, 11th Dist	1655	18022_1	5/28/2013
18022	Delete	Directional flow arrow	Chart No.1: M10	N 34 16' 04.700"	W 120 19' 33.000"	34.26797	-120.3258	LNM 23/13, 11th Dist	1655	18022_1	5/28/2013
18022	Add	Directional flow arrow	Chart No.1: M10	N 34 16' 56.600"	W 120 11' 05.300"	34.28239	-120.1848	LNM 23/13, 11th Dist	1655	18022_1	5/28/2013
18022	Add	Directional flow arrow	Chart No.1: M10	N 34 15' 04.500"	W 120 11' 35.900"	34.25125	-120.1933	LNM 23/13, 11th Dist	1655	18022_1	5/28/2013
18022	Add	Directional flow arrow	Chart No.1: M10	N 34 23' 06.400"	W 120 46' 37.400"	34.38511	-120.7771	LNM 23/13, 11th Dist	1655	18022_1	5/28/2013
18022	Delete	see note F label	(see note F)	N 33 46' 03.700"	W 118 39' 28.600"	33.76769	-118.6579	LNM 23/13, 11th Dist	1655	18022_1	5/28/2013
18022	Add	Separation screen PT 1 OF 8	Chart No. 1: M13	N 34 25' 42.930"	W 120 51' 46.690"	34.42859	-120.863	LNM 23/13, 11th Dist	1655	18022_1	5/28/2013
18022	Add	Separation screen PT 2 OF 8	Chart No. 1: M13	N 34 03' 52.170"	W 119 15' 37.620"	34.06449	-119.2605	LNM 23/13, 11th Dist	1655	18022_1	5/28/2013
18022	Add	Separation screen PT 3 OF 8	Chart No. 1: M13	N 33 37' 42.030"	W 118 20' 34.170"	33.62834	-118.3428	LNM 23/13, 11th Dist	1655	18022_1	5/28/2013
18022	Add	Separation screen PT 4 OF 8	Chart No. 1: M13	N 33 37' 42.030"	W 118 17' 34.260"	33.62834	-118.2928	LNM 23/13, 11th Dist	1655	18022_1	5/28/2013
18022	Add	Separation screen PT 5 OF 8	Chart No. 1: M13	N 33 36' 29.990"	W 118 17' 35.990"	33.60833	-118.2933	LNM 23/13, 11th Dist	1655	18022_1	5/28/2013
18022	Add	Separation screen PT 6 OF 8	Chart No. 1: M13	N 33 36' 29.990"	W 118 20' 28.770"	33.60833	-118.3413	LNM 23/13, 11th Dist	1655	18022_1	5/28/2013
18022	Add	Separation screen PT 7 OF 8	Chart No. 1: M13	N 34 02' 56.350"	W 119 16' 05.630"	34.04898	-119.2682	LNM 23/13, 11th Dist	1655	18022_1	5/28/2013
18022	Add	Separation screen PT 8 OF 8	Chart No. 1: M13	N 34 24' 45.300"	W 120 52' 05.790"	34.41258	-120.8683	LNM 23/13, 11th Dist	1655	18022_1	5/28/2013
18022	Add	Traffic lane PT 1 OF 4	Chart No.1: M15	N 34 23' 47.740"	W 120 52' 24.900"	34.3966	-120.8736	LNM 23/13, 11th Dist	1655	18022_1	5/28/2013
18022	Add	Traffic lane PT 2 OF 4	Chart No.1: M15	N 34 02' 00.530"	W 119 16' 33.660"	34.03348	-119.276	LNM 23/13, 11th Dist	1655	18022_1	5/28/2013
18022	Add	Traffic lane PT 3 OF 4	Chart No.1: M15	N 33 35' 30.000"	W 118 20' 48.630"	33.59167	-118.3468	LNM 23/13, 11th Dist	1655	18022_1	5/28/2013
18022	Add	Traffic lane PT 4 OF 4	Chart No.1: M15	N 33 35' 30.000"	W 118 17' 35.990"	33.59167	-118.2933	LNM 23/13, 11th Dist	1655	18022_1	5/28/2013
18022	Delete	 SAN NICOLAS ISLAND EAST END LTD BELL BUOY 3	G "3" Fl G 4s BELL	N 33 13' 23.172"	W 119 23' 52.077"	33.2231	-119.3978	LNM 21/13, 11th Dist	1655	18022_1	5/24/2013
18022	Change	POINT BUCHON LTD WHISTLE BUOY 16	R "16" Fl R 6s WHIS	N 35 14' 26.983"	W 120 54' 34.994"	35.24083	-120.9097	LNM 21/13, 11th Dist	1655	18022_1	5/24/2013
18022	Delete	SAN PEDRO CHANNEL TRAFFIC LANE LTD BELL BUOY W	Y "W" Fl Y 6s BELL	N 33 37' 05.875"	W 118 17' 37.275"	33.6183	-118.2937	LNM 20/13, 11th Dist	1655	18022_1	5/17/2013
18022	Delete	SAN PEDRO CHANNEL LTD BUOY SP	Y "SP" Fl Y 4s	N 33 36' 50.075"	W 118 22' 25.098"	33.61391	-118.3736	LNM 17/13, 11th Dist	1655	18022_1	5/6/2013
18022	Delete	NOAA BUOY 46023	Y ODAS "46023" Fl (4) Y 20s PA	N 34 42' 12.489"	W 120 57' 25.079"	34.70347	-120.957	LNM 09/13, 11th Dist	1655	18022_1	3/5/2013
18022	Change	POINT LOMA LIGHT	Fl 15s 88ft 14M HORN	N 32 39' 54.246"	W 117 14' 33.552"	32.66507	-117.2427	LNM 07/13, 11th Dist	1655	18022_1	2/15/2013
18022	Relocate	NOAA LTD BUOY 46026	Y ODAS "46026" Fl (4) Y 20s PA	N 37 45' 18.206"	W 122 50' 20.835"	37.75506	-122.8391	LNM 02/13, 11th Dist	1655	18022_1	1/23/2013
18022	Delete	SCRIPPS OFFSHORE GEOCE RESEARCH BUOY	Y Fl (2) Y 4s Priv	N 33 12' 34.800"	W 118 23' 31.800"	33.20967	-118.3922	LNM 51/12, 11th Dist	1655	18022_1	1/7/2013
18022	Delete	SCRIPPS WAVERIDER LTD BUOY 182	Y "182" Fl (5) Y 20s Priv	N 33 49' 17.000"	W 119 42' 30.000"	33.82139	-119.7083	LNM 51/12, 11th Dist	1655	18022_1	1/7/2013
18022	Add	dashed fish pen PT 1 OF 4	None	N 31 38' 06.000"	W 116 51' 54.000"	31.635	-116.865	LNM 51/12, 11th Dist	1655	18022_1	12/12/2012
18022	Add	dashed fish pen PT 2 OF 4	None	N 31 38' 42.000"	W 116 50' 42.000"	31.645	-116.845	LNM 51/12, 11th Dist	1655	18022_1	12/12/2012
18022	Add	dashed fish pen PT 3 OF 4	None	N 31 37' 54.000"	W 116 48' 24.000"	31.63167	-116.8067	LNM 51/12, 11th Dist	1655	18022_1	12/12/2012
18022	Add	dashed fish pen PT 4 OF 4	None	N 31 36' 42.000"	W 116 50' 48.000"	31.61167	-116.8467	LNM 51/12, 11th Dist	1655	18022_1	12/12/2012
18022	Add	fish pen label	Fish pen	N 31 37' 52.000"	W 116 50' 23.600"	31.63111	-116.8399	LNM 51/12, 11th Dist	1655	18022_1	12/12/2012
18022	Relocate	SAN PEDRO CHNL TRAFFIC LANE LTD BUOY SP	Y "SP" Fl Y 4s	N 33 36' 50.075"	W 118 22' 25.098"	33.61391	-118.3736	LNM 39/12, 11th Dist	1655	18022_1	10/3/2012
18022	Change	PORT HUENEME LIGHT	Fl (5) 30s 52ft 17M HORN	N 34 08' 42.612"	W 119 12' 35.868"	34.14517	-119.21	LNM 35/12, 11th Dist	1655	18022_1	9/4/2012
18022	Delete	GULL ISLAND LIGHT	Fl 6s 73ft 9M	N 33 57' 00.360"	W 119 49' 32.628"	33.9501	-119.8257	LNM 35/12, 11th Dist	1655	18022_1	9/4/2012
18022	Relocate	POINT LOMA LIGHT	Fl 15s 88ft 22M HORN	N 32 39' 54.246"	W 117 14' 33.552"	32.66507	-117.2427	LNM 33/12, 11th Dist	1655	18022_1	8/22/2012
18022	Add	Submarine Cable  PT 1 OF 6	Chart No. 1: L30.1	N 37 23' 10.800"	W 123 09' 55.500"	37.38633	-123.1654	LNM 25/12, 11th Dist	1655	18022_1	6/13/2012
18022	Add	Submarine Cable  PT 2 OF 6	Chart No. 1: L30.1	N 37 22' 46.500"	W 123 12' 26.800"	37.37958	-123.2074	LNM 25/12, 11th Dist	1655	18022_1	6/13/2012
18022	Add	Submarine Cable  PT 3 OF 6	Chart No. 1: L30.1	N 37 23' 32.200"	W 123 22' 56.200"	37.39228	-123.3823	LNM 25/12, 11th Dist	1655	18022_1	6/13/2012
18022	Add	Submarine Cable  PT 4 OF 6	Chart No. 1: L30.1	N 37 22' 13.900"	W 123 25' 04.900"	37.37053	-123.418	LNM 25/12, 11th Dist	1655	18022_1	6/13/2012
18022	Add	Submarine Cable  PT 5 OF 6	Chart No. 1: L30.1	N 37 21' 21.100"	W 123 25' 26.600"	37.35586	-123.4241	LNM 25/12, 11th Dist	1655	18022_1	6/13/2012
18022	Add	Submarine Cable  PT 6 OF 6	Chart No. 1: L30.1	N 37 20' 41.600"	W 123 26' 44.000"	37.34489	-123.4456	LNM 25/12, 11th Dist	1655	18022_1	6/13/2012
18022	Delete	Submarine Cable  PT 1 OF 5	Chart No. 1: L30.1	N 37 29' 38.700"	W 122 29' 52.600"	37.49408	-122.4979	LNM 25/12, 11th Dist	1655	18022_1	6/13/2012
18022	Delete	Submarine Cable  PT 2 OF 5	Chart No. 1: L30.1	N 37 27' 51.300"	W 122 55' 03.600"	37.46425	-122.9177	LNM 25/12, 11th Dist	1655	18022_1	6/13/2012
18022	Delete	Submarine Cable  PT 3 OF 5	Chart No. 1: L30.1	N 37 22' 15.600"	W 123 10' 10.500"	37.371	-123.1696	LNM 25/12, 11th Dist	1655	18022_1	6/13/2012
18022	Delete	Submarine Cable  PT 4 OF 5	Chart No. 1: L30.1	N 37 22' 52.400"	W 123 23' 41.600"	37.38122	-123.3949	LNM 25/12, 11th Dist	1655	18022_1	6/13/2012
18022	Delete	Submarine Cable  PT 5 OF 5	Chart No. 1: L30.1	N 37 20' 04.500"	W 123 27' 02.500"	37.33458	-123.4507	LNM 25/12, 11th Dist	1655	18022_1	6/13/2012
18022	Relocate	SAN PEDRO CHANNEL LTD BELL BUOY W	Y "W" Fl Y 6s BELL	N 33 37' 05.875"	W 118 17' 37.275"	33.6183	-118.2937	LNM 23/12, 11th Dist	1655	18022_1	6/13/2012
18022	Relocate	SAN PEDRO CHANNEL LBB W	Y"W" Fl Y 6s BELL	N 33 37' 05.923"	W 118 17' 37.550"	33.61831	-118.2938	LNM 21/12, 11th Dist	1655	18022_1	5/30/2012
18022	Delete	UNLIGHTED MOORING BUOY	None	N 34 24' 08.000"	W 119 53' 13.000"	34.40222	-119.8869	LNM 17/12, 11th Dist	1655	18022_1	4/30/2012
18022	Delete	PLATFORM HARVEST LIGHT	Fl 6s 60ft 9M	N 34 28' 09.198"	W 120 40' 57.156"	34.46922	-120.6825	LNM 07/12, 11th Dist	1655	18022_1	2/23/2012
18022	Relocate	NOAA LTD BUOY 46042	Y ODAS '46042" Fl (4) Y 20s PA	N 36 47' 03.718"	W 122 27' 54.857"	36.78437	-122.4652	LNM 06/12, 11th Dist	1655	18022_1	2/13/2012
18022	Relocate	Scripps Waverider Lighted Research Buoy 071	Y "071" Fl (5) Y 20s Priv	N 34 27' 15.600"	W 120 46' 55.800"	34.45433	-120.7822	LNM 51/11, 11th Dist	1655	18022_1	1/5/2012
18022	Delete	ODAS buoy	Y ODAS Fl (5) Y 20s Priv PA	N 32 59' 36.000"	W 118 42' 18.000"	32.99333	-118.705	LNM 49/11, 11th Dist	1655	18022_1	12/5/2011
18022	Delete	BEGG ROCK LTD WHISTLE BUOY 4BR	R "4BR" Fl R 4s WHIS	N 33 21' 58.089"	W 119 41' 48.412"	33.36613	-119.6968	LNM 46/11, 11th Dist	1655	18022_1	11/18/2011
18022	Relocate	NOAA LIGHTED BUOY 46054	Y ODAS "46054" Fl (4) Y 20s PA	N 34 16' 27.812"	W 120 27' 33.842"	34.27439	-120.4594	LNM 44/11, 11th Dist	1655	18022_1	11/9/2011
18022	Delete	MONTEREY BAY LTD BUOY M2	Y "M2" Fl Y 4s Priv	N 36 41' 45.000"	W 122 23' 48.060"	36.69584	-122.3967	LNM 41/11, 11th Dist	1655	18022_1	10/17/2011
18022	Add	SCRIPPS WAVERIDER LTD BUOY 167	Y "167" Fl (5) Y 20s Priv	N 33 29' 57.000"	W 119 29' 23.160"	33.49917	-119.4898	LNM 39/11, 11th Dist	1655	18022_1	9/30/2011
18022	Change	MILES ROCKS LIGHT	Fl 5s 49ft 14M HORN	N 37 47' 34.159"	W 122 30' 37.350"	37.79282	-122.5104	LNM 35/11, 11th Dist	1655	18022_1	9/6/2011
18022	Delete	POINT DUME LTD BELL BUOY 12PD	R "12PD" Fl R 4s BELL	N 33 59' 36.029"	W 118 48' 17.320"	33.99334	-118.8048	LNM 30/11, 11th Dist	1655	18022_1	8/1/2011
18022	Delete	SCRIPPS WAVERIDER LTD BUOY 167	Y "167" Fl (5) Y 20s Priv	N 33 24' 08.760"	W 119 27' 59.820"	33.40243	-119.4666	LNM 29/11, 11th Dist	1655	18022_1	7/25/2011
18022	Delete	Obstn (See Note L) & Note L Text	Obstn (See Note L) & Note L Text	N 32 55' 50.000"	W 119 22' 45.000"	32.93056	-119.3792	LNM 28/11, 11th Dist	1655	18022_1	7/18/2011
18022	Change	DANA POINT BKW LIGHT 3	Fl G 4s 32ft 5M "3" HORN	N 33 27' 15.690"	W 117 41' 29.575"	33.45436	-117.6916	LNM 27/11, 11th Dist	1655	18022_1	7/11/2011
18022	Delete	SCORE SUB-SURFACE INSTRUMENT MOORING	Subm buoy (cov 14 fms)	N 32 55' 43.000"	W 118 35' 34.740"	32.92861	-118.593	LNM 27/11, 11th Dist	1655	18022_1	7/11/2011
18022	Change	SANTA BARBARA LIGHT	Fl 10s 142ft 14M	N 34 23' 46.992"	W 119 43' 21.487"	34.39639	-119.7226	LNM 25/11, 11th Dist	1655	18022_1	6/28/2011
18022	Change	POINT CONCEPTION LIGHT	Fl 30s 133ft 20M	N 34 26' 55.051"	W 120 28' 14.522"	34.44862	-120.4707	LNM 24/11, 11th Dist	1655	18022_1	6/22/2011
18022	Change	POINT VINCENT LIGHT	Fl (2) 20s 185ft 24M 	N 33 44' 31.060"	W 118 24' 38.263"	33.74196	-118.4106	LNM 24/11, 11th Dist	1655	18022_1	6/22/2011
18022	Add	SCRIPPS WAVERIDER LTD BUOY 182	Y "182" Fl (5) Y 20s Priv	N 33 49' 17.000"	W 119 42' 30.000"	33.82139	-119.7083	LNM 24/11, 11th Dist	1655	18022_1	6/22/2011
