Chart: 12343, Current Edition: 20, Print Date: Mar. /2013, Hudson River New York to Wappinger Creek
Chart	Action	Item Name	Charting Label	Latitude	Longitude	LatDD	LongDD	Published Document	Kapp	RNC Panel	RNC Posted
12343	Relocate	HUDSON RIVER LTD BUOY 40	R "40" Fl R 2.5s	N 41 23' 53.495"	W 073 56' 50.308"	41.39819	-73.94731	LNM 24/17, 1st Dist	2229	12343_2	6/22/2017
12343	Add	Submarine Pipeline  PT 1 OF 3	Chart No. 1: L40.1	N 41 15' 44.110"	W 073 58' 44.760"	41.26225	-73.9791	LNM 11/17, 1st Dist	2229	12343_2	3/9/2017
12343	Add	Submarine Pipeline  PT 2 OF 3	Chart No. 1: L40.1	N 41 15' 33.430"	W 073 58' 17.680"	41.25928	-73.97158	LNM 11/17, 1st Dist	2229	12343_2	3/9/2017
12343	Add	Submarine Pipeline  PT 3 OF 3	Chart No. 1: L40.1	N 41 15' 29.250"	W 073 57' 54.570"	41.25813	-73.96516	LNM 11/17, 1st Dist	2229	12343_2	3/9/2017
12343	Relocate	HUDSON RIVER LTD BUOY 31	G "31" Q G AIS	N 41 18' 46.208"	W 073 58' 51.340"	41.31284	-73.98093	LNM 50/16, 1st Dist	2229	12343_2	12/22/2016
12343	Add	Bridge Abutment	None	N 41 04' 12.410"	W 073 53' 20.740"	41.07011	-73.88909	LNM 50/16, 7th Dist	2230	12343_1	12/8/2016
12343	Delete	Bridge Abutment	None	N 41 04' 13.160"	W 073 53' 04.930"	41.07032	-73.8847	LNM 50/16, 7th Dist	2230	12343_1	12/8/2016
12343	Relocate	Bridge Abutment From	None	N 41 04' 11.760"	W 073 52' 57.800"	41.06993	-73.88272	LNM 50/16, 7th Dist	2230	12343_1	12/8/2016
12343	Relocate	Bridge Abutment To	None	N 41 04' 12.410"	W 073 52' 59.880"	41.07011	-73.8833	LNM 50/16, 7th Dist	2230	12343_1	12/8/2016
12343	Relocate	Bridge Abutment From	None	N 41 04' 11.660"	W 073 52' 34.690"	41.0699	-73.8763	LNM 50/16, 7th Dist	2230	12343_1	12/8/2016
12343	Relocate	Bridge Abutment To	None	N 41 04' 12.480"	W 073 52' 36.180"	41.07013	-73.87672	LNM 50/16, 7th Dist	2230	12343_1	12/8/2016
12343	Relocate	Bridge Abutment From	None	N 41 04' 11.760"	W 073 52' 41.550"	41.06993	-73.87821	LNM 50/16, 7th Dist	2230	12343_1	12/8/2016
12343	Relocate	Bridge Abutment To	None	N 41 04' 12.410"	W 073 52' 43.990"	41.07011	-73.87888	LNM 50/16, 7th Dist	2230	12343_1	12/8/2016
12343	Add	Bridge Abutment	None	N 41 04' 12.410"	W 073 53' 07.690"	41.07011	-73.88547	LNM 50/16, 7th Dist	2230	12343_1	12/8/2016
12343	Add	Bridge Abutment	None	N 41 04' 12.410"	W 073 53' 14.280"	41.07011	-73.8873	LNM 50/16, 7th Dist	2230	12343_1	12/8/2016
12343	Add	Bridge Abutment	None	N 41 04' 12.410"	W 073 53' 10.890"	41.07011	-73.88636	LNM 50/16, 7th Dist	2230	12343_1	12/8/2016
12343	Add	Bridge Abutment	None	N 41 04' 12.410"	W 073 53' 17.440"	41.07011	-73.88818	LNM 50/16, 7th Dist	2230	12343_1	12/8/2016
12343	Delete	UPPER HUDSON RIVER RESEARCH LTD BUOY B	Y "B" Fl Y 6s Priv	N 40 58' 53.878"	W 073 53' 17.112"	40.98163	-73.88808	LNM 31/16, 1st Dist	2230	12343_1	8/11/2016
12343	Add	HOOK MTN YACHT CLUB HAZARD LTD BUOY A	W Or "A" Fl 6s Priv	N 41 05' 47.000"	W 073 54' 30.000"	41.09639	-73.90833	LNM 24/16, 1st Dist	2230	12343_1	6/23/2016
12343	Add	HOOK MTN YACHT CLUB HAZARD LTD BUOY B	W Or "B" Fl 6s Priv	N 41 05' 47.000"	W 073 54' 46.000"	41.09639	-73.91278	LNM 24/16, 1st Dist	2230	12343_1	6/23/2016
12343	Delete	HUDSON RIVER BUOY 50	R N "50"	N 41 30' 56.338"	W 073 59' 57.503"	41.51565	-73.99931	LNM 51/15, 1st Dist	2229	12343_2	12/31/2015
12343	Relocate	HUDSON RIVER LTD BUOY 4	R "4" Fl R 4s	N 40 53' 35.158"	W 073 55' 19.192"	40.8931	-73.922	LNM 47/15, 1st Dist	2230	12343_1	12/3/2015
12343	Add	LIGHTED BUOY	Fl Priv	N 41 04' 59.700"	W 073 54' 00.420"	41.08325	-73.90012	LNM 35/15, 1st Dist	2230	12343_1	9/10/2015
12343	Add	LIGHTED BUOY	Fl Priv	N 41 03' 08.100"	W 073 53' 40.800"	41.05225	-73.89467	LNM 35/15, 1st Dist	2230	12343_1	9/10/2015
12343	Add	LIGHTED BUOY	Fl Priv	N 41 03' 32.220"	W 073 53' 18.180"	41.05895	-73.88838	LNM 35/15, 1st Dist	2230	12343_1	9/10/2015
12343	Change	HOOK MTN YACHT CLUB LB 3	G "3" Fl G 3s Priv	N 41 05' 39.000"	W 073 54' 32.000"	41.09417	-73.90889	LNM 33/15, 1st Dist	2230	12343_1	8/27/2015
12343	Change	HOOK MTN YACHT CLUB LB 4	R "4" Fl R 3s Priv	N 41 05' 42.000"	W 073 54' 32.000"	41.095	-73.90889	LNM 33/15, 1st Dist	2230	12343_1	8/27/2015
12343	Change	TARRYTOWN LIGHT	Fl 6s 54ft Priv	N 41 05' 03.180"	W 073 52' 28.380"	41.08422	-73.87455	LNM 20/15, 1st Dist	2230	12343_1	5/28/2015
12343	Delete	anchorage area PT 1 OF 6	None	N 40 56' 27.000"	W 073 55' 12.000"	40.94083	-73.92	LNM 17/15, 1st Dist	2230	12343_1	4/23/2015
12343	Delete	anchorage area PT 2 OF 6	None	N 40 56' 20.500"	W 073 54' 37.400"	40.93903	-73.91039	LNM 17/15, 1st Dist	2230	12343_1	4/23/2015
12343	Delete	anchorage area PT 3 OF 6	None	N 40 54' 18.000"	W 073 55' 21.000"	40.905	-73.9225	LNM 17/15, 1st Dist	2230	12343_1	4/23/2015
12343	Delete	anchorage area PT 4 OF 6	None	N 40 52' 27.500"	W 073 56' 14.300"	40.87431	-73.93731	LNM 17/15, 1st Dist	2230	12343_1	4/23/2015
12343	Delete	anchorage area PT 5 OF 6	None	N 40 51' 34.200"	W 073 56' 52.600"	40.8595	-73.94794	LNM 17/15, 1st Dist	2230	12343_1	4/23/2015
12343	Delete	anchorage area PT 6 OF 6	None	N 40 51' 20.500"	W 073 57' 31.700"	40.85569	-73.95881	LNM 17/15, 1st Dist	2230	12343_1	4/23/2015
12343	Add	anchorage area label	ANCHORAGE AREA NO. 18 110.155 (see note A)	N 40 56' 31.000"	W 073 54' 40.000"	40.94194	-73.91111	LNM 17/15, 1st Dist	2230	12343_1	4/23/2015
12343	Change	anchorage area label	ANCHORAGE AREA NO. 18A 110.155 (see note A)	N 40 53' 34.000"	W 073 55' 11.000"	40.89278	-73.91972	LNM 17/15, 1st Dist	2230	12343_1	4/23/2015
12343	Change	anchorage area label	ANCHORAGE AREA NO. 17 110.155 (see note A)	N 40 53' 44.500"	W 073 55' 52.000"	40.89569	-73.93111	LNM 17/15, 1st Dist	2230	12343_1	4/23/2015
12343	Change	anchorage area label	ANCHORAGE AREA NO. 19E 110.155 (see note A)	N 40 50' 46.000"	W 073 56' 55.000"	40.84611	-73.94861	LNM 17/15, 1st Dist	2230	12343_1	4/23/2015
12343	Add	anchorage area PT 1 OF 8	None	N 40 56' 26.660"	W 073 55' 12.060"	40.94074	-73.92001	LNM 17/15, 1st Dist	2230	12343_1	4/23/2015
12343	Add	anchorage area PT 2 OF 8	None	N 40 56' 22.540"	W 073 54' 49.770"	40.93959	-73.91383	LNM 17/15, 1st Dist	2230	12343_1	4/23/2015
12343	Add	anchorage area PT 3 OF 8	None	N 40 55' 56.000"	W 073 54' 58.000"	40.93222	-73.91611	LNM 17/15, 1st Dist	2230	12343_1	4/23/2015
12343	Add	anchorage area PT 4 OF 8	None	N 40 55' 54.150"	W 073 54' 46.960"	40.93171	-73.91305	LNM 17/15, 1st Dist	2230	12343_1	4/23/2015
12343	Add	anchorage area PT 5 OF 8	None	N 40 54' 18.430"	W 073 55' 21.120"	40.90512	-73.92253	LNM 17/15, 1st Dist	2230	12343_1	4/23/2015
12343	Add	anchorage area PT 6 OF 8	None	N 40 52' 27.590"	W 073 56' 14.320"	40.87433	-73.93731	LNM 17/15, 1st Dist	2230	12343_1	4/23/2015
12343	Add	anchorage area PT 7 OF 8	None	N 40 51' 34.200"	W 073 56' 52.640"	40.8595	-73.94795	LNM 17/15, 1st Dist	2230	12343_1	4/23/2015
12343	Add	anchorage area PT 8 OF 8	None	N 40 51' 20.760"	W 073 57' 31.750"	40.85577	-73.95882	LNM 17/15, 1st Dist	2230	12343_1	4/23/2015
12343	Add	anchorage area PT 1 OF 4	None	N 40 56' 54.000"	W 073 54' 40.000"	40.94833	-73.91111	LNM 17/15, 1st Dist	2230	12343_1	4/23/2015
12343	Add	anchorage area PT 2 OF 4	None	N 40 56' 51.000"	W 073 54' 24.000"	40.9475	-73.90667	LNM 17/15, 1st Dist	2230	12343_1	4/23/2015
12343	Add	anchorage area PT 3 OF 4	None	N 40 55' 53.000"	W 073 54' 40.000"	40.93139	-73.91111	LNM 17/15, 1st Dist	2230	12343_1	4/23/2015
12343	Add	anchorage area PT 4 OF 4	None	N 40 55' 56.000"	W 073 54' 58.000"	40.93222	-73.91611	LNM 17/15, 1st Dist	2230	12343_1	4/23/2015
12343	Change	tabulation - Tarrytown Harbor Channel Depths	tabulation - Tarrytown Harbor Channel Depths	N 41 04' 39.000"	W 073 58' 15.000"	41.0775	-73.97083	LNM 10/15, 1st Dist	2230	12343_1	3/12/2015
12343	Change	Depth Legend - Haverstraw Bay	29 1/2 FEET NOV 2014	N 41 13' 00.000"	W 073 57' 05.000"	41.21667	-73.95139	LNM 05/15, 1st Dist	2229	12343_2	1/29/2015
12343	Change	Depth Legend - Haverstraw Bay	29 1/2 FEET FOR MID-WIDTH OF 300 FEET NOV 2014	N 41 12' 10.000"	W 073 56' 43.000"	41.20278	-73.94527	LNM 05/15, 1st Dist	2230	12343_1	1/29/2015
12343	Change	HUDSON RIVER LTD BUOY 11	G "11" Fl G 4s AIS	N 41 07' 32.585"	W 073 52' 51.970"	41.12572	-73.8811	LNM 50/14, 1st Dist	2230	12343_1	1/8/2015
12343	Relocate	HUDSON RIVER LTD BUOY 11	G "11" Fl G 4s AIS	N 41 07' 32.585"	W 073 52' 51.970"	41.12572	-73.8811	LNM 50/14, 1st Dist	2230	12343_1	1/8/2015
12343	Change	HUDSON RIVER LTD BUOY 15	G "15" Fl G 2.5s AIS	N 41 08' 46.944"	W 073 53' 18.341"	41.14637	-73.88843	LNM 50/14, 1st Dist	2230	12343_1	1/8/2015
12343	Change	HUDSON RIVER LTD BUOY 23	G "23" Fl G 2.5s AIS	N 41 12' 07.411"	W 073 56' 47.139"	41.20206	-73.94643	LNM 50/14, 1st Dist	2230	12343_1	1/8/2015
12343	Change	HUDSON RIVER LTD BUOY 25	G "25" Fl G 4s AIS	N 41 13' 16.259"	W 073 57' 16.507"	41.22118	-73.95458	LNM 50/14, 1st Dist	2229	12343_2	1/8/2015
12343	Change	HUDSON RIVER LTD BUOY 27	G "27" Fl G 2.5s AIS	N 41 16' 34.238"	W 073 57' 35.002"	41.27618	-73.95972	LNM 50/14, 1st Dist	2229	12343_2	1/8/2015
12343	Relocate	HUDSON RIVER LTD BUOY 27	G "27" Fl G 2.5s AIS	N 41 16' 34.238"	W 073 57' 35.002"	41.27618	-73.95972	LNM 50/14, 1st Dist	2229	12343_2	1/8/2015
12343	Change	HUDSON RIVER LTD BUOY 31	G "31" Q G AIS	N 41 18' 47.248"	W 073 58' 48.884"	41.31313	-73.98025	LNM 50/14, 1st Dist	2229	12343_2	1/8/2015
12343	Change	HUDSON RIVER LTD BUOY 33	G "33" Fl G 4s AIS	N 41 20' 46.338"	W 073 57' 50.501"	41.34621	-73.96403	LNM 50/14, 1st Dist	2229	12343_2	1/8/2015
12343	Change	HUDSON RIVER LTD BUOY 46	R "46" Fl R 2.5s AIS	N 41 24' 29.338"	W 073 57' 43.500"	41.40815	-73.96208	LNM 50/14, 1st Dist	2229	12343_2	1/8/2015
12343	Add	Clarkson University Lighted Research Buoy	Y Fl Y 4s Priv	N 41 13' 07.920"	W 073 56' 01.020"	41.21887	-73.93362	LNM 38/14, 1st Dist	2229	12343_2	10/2/2014
12343	Add	Regulated Navigation Area PT 1 OF 8	Chart No. 1: N1.2	N 41 04' 39.160"	W 073 55' 00.680"	41.07755	-73.91685	LNM 37/14, 1st Dist	2230	12343_1	9/11/2014
12343	Add	Regulated Navigation Area PT 2 OF 8	Chart No. 1: N1.2	N 41 04' 28.340"	W 073 54' 47.180"	41.07454	-73.91311	LNM 37/14, 1st Dist	2230	12343_1	9/11/2014
12343	Add	Regulated Navigation Area PT 3 OF 8	Chart No. 1: N1.2	N 41 04' 11.280"	W 073 54' 48.000"	41.0698	-73.91333	LNM 37/14, 1st Dist	2230	12343_1	9/11/2014
12343	Add	Regulated Navigation Area PT 4 OF 8	Chart No. 1: N1.2	N 41 03' 57.260"	W 073 54' 40.730"	41.06591	-73.91132	LNM 37/14, 1st Dist	2230	12343_1	9/11/2014
12343	Add	Regulated Navigation Area PT 5 OF 8	Chart No. 1: N1.2	N 41 03' 57.360"	W 073 54' 47.380"	41.06593	-73.91316	LNM 37/14, 1st Dist	2230	12343_1	9/11/2014
12343	Add	Regulated Navigation Area PT 6 OF 8	Chart No. 1: N1.2	N 41 03' 58.660"	W 073 54' 56.140"	41.0663	-73.9156	LNM 37/14, 1st Dist	2230	12343_1	9/11/2014
12343	Add	Regulated Navigation Area PT 7 OF 8	Chart No. 1: N1.2	N 41 04' 03.000"	W 073 55' 07.600"	41.0675	-73.91878	LNM 37/14, 1st Dist	2230	12343_1	9/11/2014
12343	Add	Regulated Navigation Area PT 8 OF 8	Chart No. 1: N1.2	N 41 04' 06.690"	W 073 55' 14.100"	41.06852	-73.92059	LNM 37/14, 1st Dist	2230	12343_1	9/11/2014
12343	Delete	Regulated Navigation Area PT 1 OF 18	Chart No. 1: N1.2	N 41 04' 17.370"	W 073 55' 13.160"	41.07149	-73.92032	LNM 37/14, 1st Dist	2230	12343_1	9/11/2014
12343	Delete	Regulated Navigation Area PT 2 OF 18	Chart No. 1: N1.2	N 41 04' 10.970"	W 073 55' 05.050"	41.06971	-73.91807	LNM 37/14, 1st Dist	2230	12343_1	9/11/2014
12343	Delete	Regulated Navigation Area PT 3 OF 18	Chart No. 1: N1.2	N 41 04' 10.030"	W 073 55' 03.420"	41.06945	-73.91762	LNM 37/14, 1st Dist	2230	12343_1	9/11/2014
12343	Delete	Regulated Navigation Area PT 4 OF 18	Chart No. 1: N1.2	N 41 04' 07.140"	W 073 54' 54.480"	41.06865	-73.91513	LNM 37/14, 1st Dist	2230	12343_1	9/11/2014
12343	Delete	Regulated Navigation Area PT 5 OF 18	Chart No. 1: N1.2	N 41 04' 05.300"	W 073 54' 43.180"	41.06814	-73.91199	LNM 37/14, 1st Dist	2230	12343_1	9/11/2014
12343	Delete	Regulated Navigation Area PT 6 OF 18	Chart No. 1: N1.2	N 41 04' 04.720"	W 073 52' 22.520"	41.06798	-73.87292	LNM 37/14, 1st Dist	2230	12343_1	9/11/2014
12343	Delete	Regulated Navigation Area PT 7 OF 18	Chart No. 1: N1.2	N 41 04' 02.520"	W 073 52' 16.130"	41.06737	-73.87115	LNM 37/14, 1st Dist	2230	12343_1	9/11/2014
12343	Delete	Regulated Navigation Area PT 8 OF 18	Chart No. 1: N1.2	N 41 03' 59.740"	W 073 52' 10.830"	41.06659	-73.86967	LNM 37/14, 1st Dist	2230	12343_1	9/11/2014
12343	Delete	Regulated Navigation Area PT 9 OF 18	Chart No. 1: N1.2	N 41 03' 54.390"	W 073 52' 03.260"	41.06511	-73.86757	LNM 37/14, 1st Dist	2230	12343_1	9/11/2014
12343	Delete	Regulated Navigation Area PT 10 OF 18	Chart No. 1: N1.2	N 41 04' 34.790"	W 073 55' 03.260"	41.07633	-73.91757	LNM 37/14, 1st Dist	2230	12343_1	9/11/2014
12343	Delete	Regulated Navigation Area PT 11 OF 18	Chart No. 1: N1.2	N 41 04' 33.620"	W 073 55' 01.520"	41.076	-73.91709	LNM 37/14, 1st Dist	2230	12343_1	9/11/2014
12343	Delete	Regulated Navigation Area PT 12 OF 18	Chart No. 1: N1.2	N 41 04' 26.140"	W 073 54' 53.960"	41.07393	-73.91499	LNM 37/14, 1st Dist	2230	12343_1	9/11/2014
12343	Delete	Regulated Navigation Area PT 13 OF 18	Chart No. 1: N1.2	N 41 04' 23.760"	W 073 54' 50.570"	41.07327	-73.91405	LNM 37/14, 1st Dist	2230	12343_1	9/11/2014
12343	Delete	Regulated Navigation Area PT 14 OF 18	Chart No. 1: N1.2	N 41 04' 21.580"	W 073 54' 43.770"	41.07266	-73.91216	LNM 37/14, 1st Dist	2230	12343_1	9/11/2014
12343	Delete	Regulated Navigation Area PT 15 OF 18	Chart No. 1: N1.2	N 41 04' 20.960"	W 073 52' 20.170"	41.07249	-73.87227	LNM 37/14, 1st Dist	2230	12343_1	9/11/2014
12343	Delete	Regulated Navigation Area PT 16 OF 18	Chart No. 1: N1.2	N 41 04' 20.310"	W 073 52' 15.830"	41.07231	-73.87106	LNM 37/14, 1st Dist	2230	12343_1	9/11/2014
12343	Delete	Regulated Navigation Area PT 17 OF 18	Chart No. 1: N1.2	N 41 04' 16.760"	W 073 52' 04.520"	41.07132	-73.86792	LNM 37/14, 1st Dist	2230	12343_1	9/11/2014
12343	Delete	Regulated Navigation Area PT 18 OF 18	Chart No. 1: N1.2	N 41 04' 13.840"	W 073 51' 59.440"	41.07051	-73.86651	LNM 37/14, 1st Dist	2230	12343_1	9/11/2014
12343	Add	Safety Zone PT 1 OF 6	Chart No. 1: N1.2	N 41 04' 59.700"	W 073 54' 45.540"	41.08325	-73.91265	LNM 37/14, 1st Dist	2230	12343_1	9/11/2014
12343	Add	Safety Zone PT 2 OF 6	Chart No. 1: N1.2	N 41 05' 00.180"	W 073 53' 21.480"	41.08338	-73.8893	LNM 37/14, 1st Dist	2230	12343_1	9/11/2014
12343	Add	Safety Zone PT 3 OF 6	Chart No. 1: N1.2	N 41 03' 09.240"	W 073 53' 16.860"	41.05257	-73.88802	LNM 37/14, 1st Dist	2230	12343_1	9/11/2014
12343	Add	Safety Zone PT 4 OF 6	Chart No. 1: N1.2	N 41 03' 07.080"	W 073 54' 14.700"	41.05197	-73.90408	LNM 37/14, 1st Dist	2230	12343_1	9/11/2014
12343	Add	Safety Zone PT 5 OF 6	Chart No. 1: N1.2	N 41 04' 11.280"	W 073 54' 48.000"	41.0698	-73.91333	LNM 37/14, 1st Dist	2230	12343_1	9/11/2014
12343	Add	Safety Zone PT 6 OF 6	Chart No. 1: N1.2	N 41 04' 59.700"	W 073 54' 45.540"	41.08325	-73.91265	LNM 37/14, 1st Dist	2230	12343_1	9/11/2014
12343	Add	Safety Zone Label	SAFETY ZONE 165.T01-0174 (see note A)	N 41 04' 31.270"	W 073 54' 10.750"	41.07535	-73.90298	LNM 37/14, 1st Dist	2230	12343_1	9/11/2014
12343	Delete	Regulated Navigation Area Label	REGULATED NAVIGATION AREA 165.T01-0174 (see note A)	N 41 03' 57.000"	W 073 53' 02.000"	41.06583	-73.88389	LNM 37/14, 1st Dist	2230	12343_1	9/11/2014
12343	Add	Regulated Navigation Area Label	REGULATED NAVIGATION AREA 165.T01-0174 (see note A)	N 41 03' 52.940"	W 073 54' 50.210"	41.0647	-73.91395	LNM 37/14, 1st Dist	2230	12343_1	9/11/2014
12343	Add	Regulated Navigation Area PT 1 OF 6	Chart No. 1: N1.2	N 41 04' 21.960"	W 073 52' 03.250"	41.07277	-73.86757	LNM 37/14, 1st Dist	2230	12343_1	9/11/2014
12343	Add	Regulated Navigation Area PT 2 OF 6	Chart No. 1: N1.2	N 41 04' 26.270"	W 073 52' 19.820"	41.07396	-73.87217	LNM 37/14, 1st Dist	2230	12343_1	9/11/2014
12343	Add	Regulated Navigation Area PT 3 OF 6	Chart No. 1: N1.2	N 41 04' 26.530"	W 073 53' 20.070"	41.07404	-73.88891	LNM 37/14, 1st Dist	2230	12343_1	9/11/2014
12343	Add	Regulated Navigation Area PT 4 OF 6	Chart No. 1: N1.2	N 41 03' 56.920"	W 073 53' 18.840"	41.06581	-73.88857	LNM 37/14, 1st Dist	2230	12343_1	9/11/2014
12343	Add	Regulated Navigation Area PT 5 OF 6	Chart No. 1: N1.2	N 41 03' 56.690"	W 073 52' 24.750"	41.06575	-73.87354	LNM 37/14, 1st Dist	2230	12343_1	9/11/2014
12343	Add	Regulated Navigation Area PT 6 OF 6	Chart No. 1: N1.2	N 41 03' 46.910"	W 073 52' 05.890"	41.06303	-73.8683	LNM 37/14, 1st Dist	2230	12343_1	9/11/2014
12343	Add	Regulated Navigation Area Label	REGULATED NAVIGATION AREA 165.T01-0174 (see note A)	N 41 03' 47.570"	W 073 52' 53.240"	41.06321	-73.88145	LNM 37/14, 1st Dist	2230	12343_1	9/11/2014
12343	Add	Buoy, flashing white	Fl Priv	N 41 04' 59.700"	W 073 54' 45.540"	41.08325	-73.91265	LNM 32/14, 1st Dist	2230	12343_1	9/4/2014
12343	Add	Buoy, flashing white	Fl Priv	N 41 05' 00.180"	W 073 53' 21.481"	41.08338	-73.8893	LNM 32/14, 1st Dist	2230	12343_1	9/4/2014
12343	Add	Buoy, flashing white	Fl Priv	N 41 04' 11.280"	W 073 54' 48.000"	41.0698	-73.91333	LNM 32/14, 1st Dist	2230	12343_1	9/4/2014
12343	Add	Buoy, flashing white	Fl Priv	N 41 04' 08.280"	W 073 53' 19.320"	41.06897	-73.8887	LNM 32/14, 1st Dist	2230	12343_1	9/4/2014
12343	Add	Buoy, flashing white	Fl Priv	N 41 03' 07.080"	W 073 54' 14.700"	41.05197	-73.90408	LNM 32/14, 1st Dist	2230	12343_1	9/4/2014
12343	Add	Buoy, flashing white	Fl Priv	N 41 03' 09.240"	W 073 53' 16.860"	41.05257	-73.88802	LNM 32/14, 1st Dist	2230	12343_1	9/4/2014
12343	Delete	GRASSY POINT LIGHT	F R Priv	N 41 13' 09.180"	W 073 57' 42.120"	41.21922	-73.9617	LNM 26/14, 1st Dist	2229	12343_2	7/10/2014
12343	Change	PEEKSKILL BAY LIGHT P	Fl (2) 6s 47ft 4M "P"	N 41 16' 56.600"	W 073 56' 36.900"	41.28239	-73.94358	LNM 24/14, 1st Dist	2229	12343_2	6/26/2014
12343	Add	Stony Point Bay Channel Lighted Buoy 4	R "4" Q R Priv	N 41 13' 38.000"	W 073 58' 00.700"	41.22722	-73.96686	LNM 18/14, 1st Dist	2229	12343_2	5/15/2014
12343	Relocate	Stony Point Bay Channel Lighted Buoy 1	G "1" Q G Priv	N 41 13' 36.000"	W 073 57' 55.000"	41.22667	-73.96528	LNM 18/14, 1st Dist	2229	12343_2	5/15/2014
12343	Relocate	Stony Point Bay Channel Lighted Buoy 2	R "2" Q R Priv	N 41 13' 37.000"	W 073 57' 54.000"	41.22694	-73.965	LNM 18/14, 1st Dist	2229	12343_2	5/15/2014
12343	Relocate	Stony Point Bay Channel Lighted Buoy 3	G "3" Q G Priv	N 41 13' 37.000"	W 073 58' 00.700"	41.22694	-73.96686	LNM 18/14, 1st Dist	2229	12343_2	5/15/2014
12343	Change	Stony Point Bay Channel Lighted Buoy 3	G "3" Q G Priv	N 41 13' 37.000"	W 073 58' 00.700"	41.22694	-73.96686	LNM 18/14, 1st Dist	2229	12343_2	5/15/2014
12343	Relocate	Stony Point Bay Channel Lighted Buoy 7	G "7" Q G Priv	N 41 13' 37.000"	W 073 58' 08.000"	41.22694	-73.96889	LNM 18/14, 1st Dist	2229	12343_2	5/15/2014
12343	Relocate	Stony Point Bay Channel Lighted Buoy 8	R "8" Q R Priv	N 41 13' 40.000"	W 073 58' 09.000"	41.22778	-73.96917	LNM 18/14, 1st Dist	2229	12343_2	5/15/2014
12343	Change	Stony Point Bay Channel Lighted Buoy 5	G "5" Q G Priv	N 41 13' 38.000"	W 073 58' 05.000"	41.22722	-73.96806	LNM 18/14, 1st Dist	2229	12343_2	5/15/2014
12343	Relocate	Stony Point Bay Channel Lighted Buoy 5	G "5" Q G Priv	N 41 13' 38.000"	W 073 58' 05.000"	41.22722	-73.96806	LNM 18/14, 1st Dist	2229	12343_2	5/15/2014
12343	Change	Stony Point Bay Channel Lighted Buoy 6	R "6" Q R Priv	N 41 13' 39.000"	W 073 58' 05.000"	41.2275	-73.96806	LNM 18/14, 1st Dist	2229	12343_2	5/15/2014
12343	Relocate	Stony Point Bay Channel Lighted Buoy 6	R "6" Q R Priv	N 41 13' 39.000"	W 073 58' 05.000"	41.2275	-73.96806	LNM 18/14, 1st Dist	2229	12343_2	5/15/2014
12343	Delete	Mooring Buoy	(Chart No. 1: Q40)	N 41 04' 35.640"	W 073 53' 37.320"	41.07656	-73.8937	LNM 16/14, 1st Dist	2230	12343_1	5/1/2014
12343	Delete	Mooring Buoy	(Chart No. 1: Q40)	N 41 04' 45.060"	W 073 54' 03.240"	41.07918	-73.9009	LNM 16/14, 1st Dist	2230	12343_1	5/1/2014
12343	Add	Lighted Mooring Buoy	(Chart No. 1: Q41)	N 41 03' 59.940"	W 073 53' 53.640"	41.06665	-73.89823	LNM 16/14, 1st Dist	2230	12343_1	5/1/2014
12343	Add	Lighted Mooring Buoy	(Chart No. 1: Q41)	N 41 04' 28.020"	W 073 53' 40.140"	41.07445	-73.89449	LNM 16/14, 1st Dist	2230	12343_1	5/1/2014
12343	Add	Lighted Mooring Buoy	(Chart No. 1: Q41)	N 41 04' 28.380"	W 073 54' 07.080"	41.07455	-73.90197	LNM 16/14, 1st Dist	2230	12343_1	5/1/2014
12343	Add	Lighted Mooring Buoy	(Chart No. 1: Q41)	N 41 04' 28.320"	W 073 54' 33.781"	41.07453	-73.90939	LNM 16/14, 1st Dist	2230	12343_1	5/1/2014
12343	Add	Lighted Mooring Buoy	(Chart No. 1: Q41)	N 41 04' 38.880"	W 073 53' 53.700"	41.07747	-73.89825	LNM 16/14, 1st Dist	2230	12343_1	5/1/2014
12343	Add	Lighted Mooring Buoy	(Chart No. 1: Q41)	N 41 04' 39.000"	W 073 54' 20.400"	41.0775	-73.90567	LNM 16/14, 1st Dist	2230	12343_1	5/1/2014
12343	Add	Lighted Mooring Buoy	(Chart No. 1: Q41)	N 41 04' 49.740"	W 073 53' 40.200"	41.08048	-73.8945	LNM 16/14, 1st Dist	2230	12343_1	5/1/2014
12343	Add	Lighted Mooring Buoy	(Chart No. 1: Q41)	N 41 04' 49.500"	W 073 54' 07.080"	41.08042	-73.90197	LNM 16/14, 1st Dist	2230	12343_1	5/1/2014
12343	Add	Lighted Mooring Buoy	(Chart No. 1: Q41)	N 41 04' 49.260"	W 073 54' 33.720"	41.08035	-73.90937	LNM 16/14, 1st Dist	2230	12343_1	5/1/2014
12343	Change	Hudson River Light 39	Q G 39ft 4M "39"	N 41 23' 45.900"	W 073 57' 04.100"	41.39608	-73.95114	LNM 16/14, 1st Dist	2229	12343_2	5/1/2014
12343	Change	Hudson River Light 37	Fl G 4s 26ft 4M "37"	N 41 23' 36.900"	W 073 57' 02.400"	41.39359	-73.95067	LNM 16/14, 1st Dist	2229	12343_2	5/1/2014
12343	Delete	Mooring Buoy	(Chart No. 1: Q40)	N 41 03' 34.320"	W 073 53' 40.020"	41.05953	-73.89445	LNM 04/14, 1st Dist	2230	12343_1	2/6/2014
12343	Delete	Mooring Buoy	(Chart No. 1: Q40)	N 41 03' 52.860"	W 073 53' 40.140"	41.06468	-73.89449	LNM 04/14, 1st Dist	2230	12343_1	2/6/2014
12343	Add	Lighted Mooring Buoy	(Chart No. 1: Q41)	N 41 03' 56.940"	W 073 54' 17.100"	41.06581	-73.90475	LNM 04/14, 1st Dist	2230	12343_1	2/6/2014
12343	Add	Lighted Mooring Buoy	(Chart No. 1: Q41)	N 41 03' 52.320"	W 073 53' 32.400"	41.06453	-73.89233	LNM 04/14, 1st Dist	2230	12343_1	2/6/2014
12343	Add	Lighted Mooring Buoy	(Chart No. 1: Q41)	N 41 03' 41.760"	W 073 54' 12.120"	41.0616	-73.90337	LNM 04/14, 1st Dist	2230	12343_1	2/6/2014
12343	Add	Lighted Mooring Buoy	(Chart No. 1: Q41)	N 41 03' 41.280"	W 073 53' 49.199"	41.06147	-73.897	LNM 04/14, 1st Dist	2230	12343_1	2/6/2014
12343	Add	Lighted Mooring Buoy	(Chart No. 1: Q41)	N 41 03' 32.520"	W 073 53' 29.160"	41.05903	-73.89143	LNM 04/14, 1st Dist	2230	12343_1	2/6/2014
12343	Add	Lighted Mooring Buoy	(Chart No. 1: Q41)	N 41 03' 24.360"	W 073 54' 05.520"	41.05677	-73.90154	LNM 04/14, 1st Dist	2230	12343_1	2/6/2014
12343	Add	Lighted Mooring Buoy	(Chart No. 1: Q41)	N 41 03' 19.020"	W 073 53' 44.220"	41.05528	-73.89561	LNM 04/14, 1st Dist	2230	12343_1	2/6/2014
12343	Add	Note - CAUTION:	Fixed and floating obstructions, some submerged, may exist between the mooring buoys upstream and downstream from the bridge. Mariners are advised to proceed with caution.	N 41 04' 17.000"	W 073 50' 49.000"	41.07139	-73.84695	LNM 02/14, 1st Dist	2230	12343_1	1/16/2014
12343	Add	Bridge Construction PT 1 OF 11	Chart No. 1: D.d, with magenta screen extending to the limits of Regulated Navigation Area 165.T01-0174	N 41 04' 27.500"	W 073 55' 11.500"	41.07431	-73.91986	LNM 02/14, 1st Dist	2230	12343_1	1/16/2014
12343	Add	Bridge Construction PT 2 OF 11	Chart No. 1: D.d, with magenta screen extending to the limits of Regulated Navigation Area 165.T01-0174	N 41 04' 23.500"	W 073 55' 07.300"	41.07319	-73.91869	LNM 02/14, 1st Dist	2230	12343_1	1/16/2014
12343	Add	Bridge Construction PT 3 OF 11	Chart No. 1: D.d, with magenta screen extending to the limits of Regulated Navigation Area 165.T01-0174	N 41 04' 19.600"	W 073 55' 00.400"	41.07211	-73.91678	LNM 02/14, 1st Dist	2230	12343_1	1/16/2014
12343	Add	Bridge Construction PT 4 OF 11	Chart No. 1: D.d, with magenta screen extending to the limits of Regulated Navigation Area 165.T01-0174	N 41 04' 17.300"	W 073 54' 54.600"	41.07147	-73.91517	LNM 02/14, 1st Dist	2230	12343_1	1/16/2014
12343	Add	Bridge Construction PT 5 OF 11	Chart No. 1: D.d, with magenta screen extending to the limits of Regulated Navigation Area 165.T01-0174	N 41 04' 15.600"	W 073 54' 46.200"	41.071	-73.91283	LNM 02/14, 1st Dist	2230	12343_1	1/16/2014
12343	Add	Bridge Construction PT 6 OF 11	Chart No. 1: D.d, with magenta screen extending to the limits of Regulated Navigation Area 165.T01-0174	N 41 04' 15.400"	W 073 52' 31.800"	41.07095	-73.8755	LNM 02/14, 1st Dist	2230	12343_1	1/16/2014
12343	Add	Bridge Construction PT 7 OF 11	Chart No. 1: D.d, with magenta screen extending to the limits of Regulated Navigation Area 165.T01-0174	N 41 04' 14.800"	W 073 52' 25.000"	41.07078	-73.87361	LNM 02/14, 1st Dist	2230	12343_1	1/16/2014
12343	Add	Bridge Construction PT 8 OF 11	Chart No. 1: D.d, with magenta screen extending to the limits of Regulated Navigation Area 165.T01-0174	N 41 04' 13.000"	W 073 52' 17.700"	41.07028	-73.87158	LNM 02/14, 1st Dist	2230	12343_1	1/16/2014
12343	Add	Bridge Construction PT 9 OF 11	Chart No. 1: D.d, with magenta screen extending to the limits of Regulated Navigation Area 165.T01-0174	N 41 04' 10.100"	W 073 52' 11.000"	41.06947	-73.86972	LNM 02/14, 1st Dist	2230	12343_1	1/16/2014
12343	Add	Bridge Construction PT 10 OF 11	Chart No. 1: D.d, with magenta screen extending to the limits of Regulated Navigation Area 165.T01-0174	N 41 04' 06.800"	W 073 52' 06.000"	41.06855	-73.86833	LNM 02/14, 1st Dist	2230	12343_1	1/16/2014
12343	Add	Bridge Construction PT 11 OF 11	Chart No. 1: D.d, with magenta screen extending to the limits of Regulated Navigation Area 165.T01-0174	N 41 04' 02.600"	W 073 52' 01.400"	41.06739	-73.86706	LNM 02/14, 1st Dist	2230	12343_1	1/16/2014
12343	Add	Bridge Construction Label	Bridge under construction (see note)	N 41 04' 08.500"	W 073 54' 06.000"	41.06903	-73.90166	LNM 02/14, 1st Dist	2230	12343_1	1/16/2014
12343	Add	Regulated Navigation Area PT 1 OF 9	(Chart No. 1: N1.2)	N 41 04' 17.370"	W 073 55' 13.160"	41.07149	-73.92032	LNM 02/14, 1st Dist	2230	12343_1	1/16/2014
12343	Add	Regulated Navigation Area PT 2 OF 9	(Chart No. 1: N1.2)	N 41 04' 10.970"	W 073 55' 05.050"	41.06971	-73.91807	LNM 02/14, 1st Dist	2230	12343_1	1/16/2014
12343	Add	Regulated Navigation Area PT 3 OF 9	(Chart No. 1: N1.2)	N 41 04' 10.030"	W 073 55' 03.420"	41.06945	-73.91762	LNM 02/14, 1st Dist	2230	12343_1	1/16/2014
12343	Add	Regulated Navigation Area PT 4 OF 9	(Chart No. 1: N1.2)	N 41 04' 07.140"	W 073 54' 54.480"	41.06865	-73.91513	LNM 02/14, 1st Dist	2230	12343_1	1/16/2014
12343	Add	Regulated Navigation Area PT 5 OF 9	(Chart No. 1: N1.2)	N 41 04' 05.300"	W 073 54' 43.180"	41.06814	-73.91199	LNM 02/14, 1st Dist	2230	12343_1	1/16/2014
12343	Add	Regulated Navigation Area PT 6 OF 9	(Chart No. 1: N1.2)	N 41 04' 04.720"	W 073 52' 22.520"	41.06798	-73.87292	LNM 02/14, 1st Dist	2230	12343_1	1/16/2014
12343	Add	Regulated Navigation Area PT 7 OF 9	(Chart No. 1: N1.2)	N 41 04' 02.520"	W 073 52' 16.130"	41.06737	-73.87115	LNM 02/14, 1st Dist	2230	12343_1	1/16/2014
12343	Add	Regulated Navigation Area PT 8 OF 9	(Chart No. 1: N1.2)	N 41 03' 59.740"	W 073 52' 10.830"	41.06659	-73.86967	LNM 02/14, 1st Dist	2230	12343_1	1/16/2014
12343	Add	Regulated Navigation Area PT 9 OF 9	(Chart No. 1: N1.2)	N 41 03' 54.390"	W 073 52' 03.260"	41.06511	-73.86757	LNM 02/14, 1st Dist	2230	12343_1	1/16/2014
12343	Add	Regulated Navigation Area PT 1 OF 9	(Chart No. 1: N1.2)	N 41 04' 34.790"	W 073 55' 03.260"	41.07633	-73.91757	LNM 02/14, 1st Dist	2230	12343_1	1/16/2014
12343	Add	Regulated Navigation Area PT 2 OF 9	(Chart No. 1: N1.2)	N 41 04' 33.620"	W 073 55' 01.520"	41.076	-73.91709	LNM 02/14, 1st Dist	2230	12343_1	1/16/2014
12343	Add	Regulated Navigation Area PT 3 OF 9	(Chart No. 1: N1.2)	N 41 04' 26.140"	W 073 54' 53.960"	41.07393	-73.91499	LNM 02/14, 1st Dist	2230	12343_1	1/16/2014
12343	Add	Regulated Navigation Area PT 4 OF 9	(Chart No. 1: N1.2)	N 41 04' 23.760"	W 073 54' 50.570"	41.07327	-73.91405	LNM 02/14, 1st Dist	2230	12343_1	1/16/2014
12343	Add	Regulated Navigation Area PT 5 OF 9	(Chart No. 1: N1.2)	N 41 04' 21.580"	W 073 54' 43.770"	41.07266	-73.91216	LNM 02/14, 1st Dist	2230	12343_1	1/16/2014
12343	Add	Regulated Navigation Area PT 6 OF 9	(Chart No. 1: N1.2)	N 41 04' 20.960"	W 073 52' 20.170"	41.07249	-73.87227	LNM 02/14, 1st Dist	2230	12343_1	1/16/2014
12343	Add	Regulated Navigation Area PT 7 OF 9	(Chart No. 1: N1.2)	N 41 04' 20.310"	W 073 52' 15.830"	41.07231	-73.87106	LNM 02/14, 1st Dist	2230	12343_1	1/16/2014
12343	Add	Regulated Navigation Area PT 8 OF 9	(Chart No. 1: N1.2)	N 41 04' 16.760"	W 073 52' 04.520"	41.07132	-73.86792	LNM 02/14, 1st Dist	2230	12343_1	1/16/2014
12343	Add	Regulated Navigation Area PT 9 OF 9	(Chart No. 1: N1.2)	N 41 04' 13.840"	W 073 51' 59.440"	41.07051	-73.86651	LNM 02/14, 1st Dist	2230	12343_1	1/16/2014
12343	Add	Regulated Navigation Area Label	REGULATED NAVIGATION AREA 165.T01-0174 (see note A)	N 41 03' 57.000"	W 073 53' 02.000"	41.06583	-73.88389	LNM 02/14, 1st Dist	2230	12343_1	1/16/2014
12343	Delete	Accurate Landmark	STACK   (Chart No. 1: E2)	N 40 56' 51.211"	W 073 54' 01.682"	40.94756	-73.90047	LNM 50/13, 1st Dist	2230	12343_1	12/16/2013
12343	Delete	Important Building	(Chart No. 1: D6)	N 40 56' 50.752"	W 073 54' 00.547"	40.94743	-73.90015	LNM 50/13, 1st Dist	2230	12343_1	12/16/2013
12343	Delete	Important Building	(Chart No. 1: D6)	N 40 56' 48.412"	W 073 54' 02.242"	40.94678	-73.90062	LNM 50/13, 1st Dist	2230	12343_1	12/16/2013
12343	Delete	Important Building	(Chart No. 1: D6)	N 40 56' 46.898"	W 073 54' 03.391"	40.94636	-73.90094	LNM 50/13, 1st Dist	2230	12343_1	12/16/2013
12343	Change	Tabulation - Tarrytown Harbor Channel Depths	Tabulation - Tarrytown Harbor Channel Depths	N 41 04' 39.000"	W 073 58' 28.200"	41.0775	-73.9745	LNM 51/13, 1st Dist	2230	12343_1	12/13/2013
12343	Add	Mooring Buoy	(Chart No. 1: Q40)	N 41 04' 45.060"	W 073 54' 03.240"	41.07918	-73.9009	LNM 32/13, 1st Dist	2230	12343_1	8/8/2013
12343	Add	Mooring Buoy	(Chart No. 1: Q40)	N 41 03' 34.320"	W 073 53' 40.020"	41.05953	-73.89445	LNM 32/13, 1st Dist	2230	12343_1	8/8/2013
12343	Add	Submarine Cable  PT 1 OF 5	Chart No. 1: L30.1	N 41 02' 36.200"	W 073 53' 47.600"	41.04339	-73.89655	LNM 33/13, 1st Dist	2230	12343_1	8/5/2013
12343	Add	Submarine Cable  PT 2 OF 5	Chart No. 1: L30.1	N 41 02' 37.700"	W 073 53' 46.600"	41.0438	-73.89628	LNM 33/13, 1st Dist	2230	12343_1	8/5/2013
12343	Add	Submarine Cable  PT 3 OF 5	Chart No. 1: L30.1	N 41 02' 26.400"	W 073 52' 30.800"	41.04067	-73.87522	LNM 33/13, 1st Dist	2230	12343_1	8/5/2013
12343	Add	Submarine Cable  PT 4 OF 5	Chart No. 1: L30.1	N 41 02' 24.700"	W 073 52' 29.900"	41.0402	-73.87497	LNM 33/13, 1st Dist	2230	12343_1	8/5/2013
12343	Add	Submarine Cable  PT 5 OF 5	Chart No. 1: L30.1	N 41 02' 24.400"	W 073 52' 28.200"	41.04011	-73.8745	LNM 33/13, 1st Dist	2230	12343_1	8/5/2013
12343	Relocate	Bowline Point Marine Terminal South Dolphin Light	Q 15ft Priv	N 41 12' 10.920"	W 073 57' 21.540"	41.20303	-73.95599	LNM 25/13, 1st Dist	2230	12343_1	6/21/2013
12343	Relocate	Bowline Point Marine Terminal North Dolphin Light	Q 15ft Priv	N 41 12' 17.760"	W 073 57' 23.100"	41.20493	-73.95641	LNM 25/13, 1st Dist	2230	12343_1	6/21/2013
12343	Delete	HDR Research Lighted Buoy	Y Fl Y 4s Priv	N 41 12' 46.440"	W 073 57' 26.160"	41.2129	-73.95727	LNM 24/13, 1st Dist	2229	12343_2	6/20/2013
12343	Delete	HDR Research Lighted Buoy	Y Fl Y 4s Priv	N 41 12' 46.440"	W 073 57' 26.160"	41.2129	-73.95727	LNM 24/13, 1st Dist	2230	12343_1	6/20/2013
12343	Delete	Tarrytown South Channel Buoy 1	G C "1"	N 41 04' 19.748"	W 073 52' 34.758"	41.07215	-73.87632	LNM 20/13, 1st Dist	2230	12343_1	5/21/2013
12343	Delete	Tarrytown South Channel Buoy 2	R N "2"	N 41 04' 17.198"	W 073 52' 33.358"	41.07145	-73.87593	LNM 20/13, 1st Dist	2230	12343_1	5/21/2013
12343	Change	Tarrytown South Channel Buoy 1	G C "1"	N 41 04' 25.548"	W 073 52' 26.287"	41.07376	-73.87397	LNM 20/13, 1st Dist	2230	12343_1	5/21/2013
12343	Change	Tarrytown South Channel Buoy 3	G C "3"	N 41 04' 32.898"	W 073 52' 15.607"	41.07581	-73.871	LNM 20/13, 1st Dist	2230	12343_1	5/21/2013
12343	Change	Tarrytown South Channel Buoy 2	R N "2"	N 41 04' 23.678"	W 073 52' 24.197"	41.07324	-73.87339	LNM 20/13, 1st Dist	2230	12343_1	5/21/2013
12343	Change	Tarrytown South Channel Buoy 4	R N "4"	N 41 04' 29.338"	W 073 52' 14.867"	41.07482	-73.8708	LNM 20/13, 1st Dist	2230	12343_1	5/21/2013
12343	Change	Cortlandt Yacht Club Channel Lighted Buoy 1	G "1" Fl G 2s Priv	N 41 14' 44.000"	W 073 57' 24.000"	41.24556	-73.95667	LNM 20/13, 1st Dist	2229	12343_2	5/21/2013
12343	Relocate	Cortlandt Yacht Club Channel Lighted Buoy 1	G "1" Fl G 2s Priv	N 41 14' 44.000"	W 073 57' 24.000"	41.24556	-73.95667	LNM 20/13, 1st Dist	2229	12343_2	5/21/2013
12343	Change	Cortlandt Yacht Club Channel Lighted Buoy 2	R "2" Fl R 2s Priv	N 41 14' 42.000"	W 073 57' 23.000"	41.245	-73.95639	LNM 20/13, 1st Dist	2229	12343_2	5/21/2013
12343	Relocate	Cortlandt Yacht Club Channel Lighted Buoy 2	R "2" Fl R 2s Priv	N 41 14' 42.000"	W 073 57' 23.000"	41.245	-73.95639	LNM 20/13, 1st Dist	2229	12343_2	5/21/2013
12343	Relocate	Tarrytown South Channel Buoy 1	G C "1"	N 41 04' 25.548"	W 073 52' 26.287"	41.07376	-73.87397	LNM 20/13, 1st Dist	2230	12343_1	5/21/2013
12343	Relocate	Tarrytown South Channel Buoy 2	R N "2"	N 41 04' 23.678"	W 073 52' 24.197"	41.07324	-73.87339	LNM 20/13, 1st Dist	2230	12343_1	5/21/2013
12343	Relocate	Tarrytown South Channel Buoy 3	G C "3"	N 41 04' 32.898"	W 073 52' 15.607"	41.07581	-73.871	LNM 20/13, 1st Dist	2230	12343_1	5/21/2013
12343	Relocate	Tarrytown South Channel Buoy 4	R N "4"	N 41 04' 29.338"	W 073 52' 14.867"	41.07482	-73.8708	LNM 20/13, 1st Dist	2230	12343_1	5/21/2013
12343	Delete	Accurate Landmark	TOWER ABAND LT HO	N 41 05' 03.180"	W 073 52' 28.380"	41.08422	-73.87455	LNM 18/13, 1st Dist	2230	12343_1	5/8/2013
12343	Add	Tarrytown Light	Fl 3s 54ft Priv	N 41 05' 03.180"	W 073 52' 28.380"	41.08422	-73.87455	LNM 18/13, 1st Dist	2230	12343_1	5/8/2013
12343	Change	HDR Research Lighted Buoy	W Or Fl 4s Priv	N 41 13' 13.200"	W 073 57' 37.800"	41.22033	-73.9605	LNM 17/13, 1st Dist	2229	12343_2	4/30/2013
12343	Add	Mooring Buoy	(Chart No. 1: Q40)	N 41 04' 35.640"	W 073 53' 37.320"	41.07656	-73.8937	LNM 16/13, 1st Dist	2230	12343_1	4/23/2013
12343	Add	Mooring Buoy	(Chart No. 1: Q40)	N 41 03' 52.860"	W 073 53' 40.140"	41.06468	-73.89449	LNM 16/13, 1st Dist	2230	12343_1	4/23/2013
12343	Change	UWNY Pilot Intake Lighted Hazard Buoy	W Or Fl 4s Priv	N 41 13' 13.200"	W 073 57' 37.680"	41.22033	-73.96046	LNM 16/13, 1st Dist	2229	12343_2	4/23/2013
12343	Relocate	Grassy Point Light	F R Priv	N 41 13' 09.180"	W 073 57' 42.120"	41.21922	-73.9617	LNM 16/13, 1st Dist	2229	12343_2	4/23/2013
12343	Relocate	UWNY Pilot Intake Lighted Hazard Buoy	W Or Fl 4s Priv	N 41 13' 13.200"	W 073 57' 37.680"	41.22033	-73.96046	LNM 16/13, 1st Dist	2229	12343_2	4/23/2013
12343	Change	Chelsea Yacht Club Anchorage Lighted Buoy N	W Or "N" Fl 2s Priv	N 41 33' 21.000"	W 073 58' 16.000"	41.55583	-73.97111	LNM 15/13, 1st Dist	2229	12343_2	4/18/2013
12343	Change	Chelsea Yacht Club Anchorage Lighted Buoy W	W Or "W" Fl 2s Priv	N 41 32' 54.000"	W 073 58' 40.000"	41.54833	-73.97778	LNM 15/13, 1st Dist	2229	12343_2	4/18/2013
12343	Change	Chelsea Yacht Club Obstruction Lighted Buoy S	W Or "S" Fl 2s Priv	N 41 33' 14.000"	W 073 58' 24.000"	41.55389	-73.97334	LNM 15/13, 1st Dist	2229	12343_2	4/18/2013
