Chart	Action	ItemName	ChartingLa	Latitude	Longitude	LatDD	LongDD	PublishedD	Kapp	RNCPanel	RNCPosted
12300	Change	BLOCK ISLAND BKW LIGHT 3	Q G 27ft 6M "3" HORN (MRASS)	N 41 10' 38.492"	W 071 33' 14.538"	41.17736	-71.55404	LNM 24/17, 1st Dist	666	12300_1	6/22/2017
12300	Delete	SAKONNET RIVER ENTRANCE LTD BUOY SR	RW "SR" Mo (A) WHIS	N 41 25' 45.374"	W 071 13' 23.166"	41.42927	-71.2231	LNM 20/17, 1st Dist	666	12300_1	5/25/2017
12300	Add	CARIBBEAN WIND LTD RESEARCH BUOY BW1	Y "BW1" Fl Y 4s Priv	N 40 55' 03.270"	W 070 55' 55.150"	40.91758	-70.93198	LNM 15/17, 1st Dist	666	12300_1	4/20/2017
12300	Add	CARIBBEAN WIND LTD RESEARCH BUOY BW2	Y "BW2" Fl Y 4s Priv	N 41 07' 05.170"	W 070 39' 34.500"	41.1181	-70.65958	LNM 15/17, 1st Dist	666	12300_1	4/20/2017
12300	Add	CARIBBEAN WIND LTD RESEARCH BUOY BW3	Y "BW3" Fl Y 10s Priv	N 41 07' 05.170"	W 070 34' 24.500"	41.1181	-70.57347	LNM 15/17, 1st Dist	666	12300_1	4/20/2017
12300	Add	Obstruction	Unexploded ordnance (reported 2017)	N 39 45' 01.200"	W 073 23' 29.400"	39.75033	-73.3915	LNM 13/17, 1st Dist	666	12300_1	3/30/2017
12300	Add	Submarine Cable  PT 1 OF 10	Chart No. 1: L30.1	N 41 06' 24.650"	W 071 32' 15.390"	41.10685	-71.53761	LNM 05/17, 1st Dist	666	12300_1	1/26/2017
12300	Add	Submarine Cable  PT 2 OF 10	Chart No. 1: L30.1	N 41 06' 36.540"	W 071 31' 45.140"	41.11015	-71.52921	LNM 05/17, 1st Dist	666	12300_1	1/26/2017
12300	Add	Submarine Cable  PT 3 OF 10	Chart No. 1: L30.1	N 41 06' 53.080"	W 071 31' 16.690"	41.11475	-71.5213	LNM 05/17, 1st Dist	666	12300_1	1/26/2017
12300	Add	Submarine Cable  PT 4 OF 10	Chart No. 1: L30.1	N 41 07' 13.870"	W 071 30' 50.510"	41.12052	-71.51403	LNM 05/17, 1st Dist	666	12300_1	1/26/2017
12300	Add	Submarine Cable  PT 5 OF 10	Chart No. 1: L30.1	N 41 07' 32.890"	W 071 30' 28.140"	41.1258	-71.50782	LNM 05/17, 1st Dist	666	12300_1	1/26/2017
12300	Add	Submarine Cable  PT 6 OF 10	Chart No. 1: L30.1	N 41 07' 55.160"	W 071 30' 08.250"	41.13199	-71.50229	LNM 05/17, 1st Dist	666	12300_1	1/26/2017
12300	Add	Submarine Cable  PT 7 OF 10	Chart No. 1: L30.1	N 41 10' 02.120"	W 071 30' 58.090"	41.16726	-71.51614	LNM 05/17, 1st Dist	666	12300_1	1/26/2017
12300	Add	Submarine Cable  PT 8 OF 10	Chart No. 1: L30.1	N 41 10' 33.920"	W 071 31' 34.700"	41.17609	-71.52631	LNM 05/17, 1st Dist	666	12300_1	1/26/2017
12300	Add	Submarine Cable  PT 9 OF 10	Chart No. 1: L30.1	N 41 11' 13.150"	W 071 33' 05.460"	41.18699	-71.55151	LNM 05/17, 1st Dist	666	12300_1	1/26/2017
12300	Add	Submarine Cable  PT 10 OF 10	Chart No. 1: L30.1	N 41 11' 01.230"	W 071 33' 55.050"	41.18367	-71.56529	LNM 05/17, 1st Dist	666	12300_1	1/26/2017
12300	Add	Rock in Fathoms (Within Corresponding Depth Area)	4 3/4 Rk     	N 41 19' 30.700"	W 070 43' 54.400"	41.3252	-70.73178	LNM 02/17, 1st Dist	666	12300_1	1/5/2017
12300	Delete	WHOI LTD BUOY V	Y "V" Fl Y 4s Priv	N 41 15' 36.000"	W 071 02' 17.000"	41.26	-71.03806	LNM 49/16, 1st Dist	666	12300_1	12/15/2016
12300	Delete	WHOI LTD BUOY W	Y "W" Fl Y 4s Priv	N 41 15' 39.000"	W 071 01' 43.000"	41.26083	-71.02861	LNM 49/16, 1st Dist	666	12300_1	12/15/2016
12300	Delete	WHOI LTD BUOY X	Y "X" Fl Y 4s Priv	N 41 15' 56.000"	W 071 01' 54.000"	41.26556	-71.03167	LNM 49/16, 1st Dist	666	12300_1	12/15/2016
12300	Delete	WHOI LTD BUOY Z	Y "Z" Fl Y 4s Priv	N 41 15' 57.000"	W 071 01' 54.000"	41.26583	-71.03167	LNM 49/16, 1st Dist	666	12300_1	12/15/2016
12300	Delete	SHREWSBURY ROCKS LTD BUOY 1	G "1" Fl G 2s	N 40 20' 27.896"	W 073 55' 34.489"	40.34108	-73.92625	LNM 46/16, 1st Dist	666	12300_1	11/24/2016
12300	Relocate	Absecon Inlet Lighted Buoy 1	G "1" Fl G 4s	N 39 20' 47.393"	W 074 24' 01.337"	39.3465	-74.40037	LNM 20/16, 5th Dist	666	12300_1	5/26/2016
12300	Delete	USGS RESEARCH LTD BUOY W	Y "W" Fl Y 4s Priv	N 40 35' 04.210"	W 073 06' 24.220"	40.5845	-73.10673	LNM 08/16, 1st Dist	666	12300_1	3/3/2016
12300	Delete	Superbuoy DART 44402	Y "44402" Fl (4) Y 20s (DART) PA	N 39 23' 54.000"	W 070 56' 30.000"	39.39833	-70.94167	WNM 05/16, NGA	666	12300_1	1/28/2016
12300	Add	Superbuoy DART 44402	Y "44402" Fl (4) Y 20s (DART) PA	N 39 17' 54.000"	W 070 39' 36.000"	39.29833	-70.66	WNM 05/16, NGA	666	12300_1	1/28/2016
12300	Change	BLOCK ISLAND WIND FARM WTG-1	Q Y "WTG-1" Priv	N 41 07' 32.740"	W 071 30' 27.040"	41.12576	-71.50751	LNM 49/15, 1st Dist	666	12300_1	12/17/2015
12300	Relocate	BLOCK ISLAND WIND FARM WTG-1	Q Y "WTG-1" Priv	N 41 07' 32.740"	W 071 30' 27.040"	41.12576	-71.50751	LNM 49/15, 1st Dist	666	12300_1	12/17/2015
12300	Change	BLOCK ISLAND WIND FARM WTG-2	Q Y "WTG-2" Priv	N 41 07' 11.570"	W 071 30' 50.220"	41.11988	-71.51395	LNM 49/15, 1st Dist	666	12300_1	12/17/2015
12300	Relocate	BLOCK ISLAND WIND FARM WTG-2	Q Y "WTG-2" Priv	N 41 07' 11.570"	W 071 30' 50.220"	41.11988	-71.51395	LNM 49/15, 1st Dist	666	12300_1	12/17/2015
12300	Change	BLOCK ISLAND WIND FARM WTG-3	Q Y "WTG-3" HORN (MRASS) Priv	N 41 06' 52.960"	W 071 31' 16.180"	41.11471	-71.52116	LNM 49/15, 1st Dist	666	12300_1	12/17/2015
12300	Relocate	BLOCK ISLAND WIND FARM WTG-3	Q Y "WTG-3" HORN (MRASS) Priv	N 41 06' 52.960"	W 071 31' 16.180"	41.11471	-71.52116	LNM 49/15, 1st Dist	666	12300_1	12/17/2015
12300	Change	BLOCK ISLAND WIND FARM WTG-4	Q Y "WTG-4" Priv	N 41 06' 36.540"	W 071 31' 44.620"	41.11015	-71.52906	LNM 49/15, 1st Dist	666	12300_1	12/17/2015
12300	Relocate	BLOCK ISLAND WIND FARM WTG-4	Q Y "WTG-4" Priv	N 41 06' 36.540"	W 071 31' 44.620"	41.11015	-71.52906	LNM 49/15, 1st Dist	666	12300_1	12/17/2015
12300	Change	BLOCK ISLAND WIND FARM WTG-5	Q Y "WTG-5" Priv	N 41 06' 22.790"	W 071 32' 15.500"	41.10633	-71.53764	LNM 49/15, 1st Dist	666	12300_1	12/17/2015
12300	Relocate	BLOCK ISLAND WIND FARM WTG-5	Q Y "WTG-5" Priv	N 41 06' 22.790"	W 071 32' 15.500"	41.10633	-71.53764	LNM 49/15, 1st Dist	666	12300_1	12/17/2015
12300	Relocate	NOAA Lighted Data Buoy 44066 (ODAS)	Y ODAS "44066" Fl (4) Y 20s PA	N 39 34' 05.000"	W 072 35' 06.000"	39.56805	-72.585	LNM 47/15, 5th Dist	666	12300_1	12/3/2015
12300	Relocate	GAY HEAD LIGHT	Al WR 15s 175ft 20M	N 41 20' 54.420"	W 070 50' 03.676"	41.34845	-70.83436	LNM 46/15, 1st Dist	666	12300_1	11/26/2015
12300	Delete	Garden State Offshore Energy Lighted Data Buoy GS	Y "GS" Fl Y 2s RACON G (--.) Priv	N 39 04' 36.000"	W 074 18' 36.000"	39.07667	-74.31	LNM 43/15, 5th Dist	666	12300_1	10/29/2015
12300	Relocate	MORICHES INLET APPROACH LTD WHISTLE BUOY M	RW "M" Mo (A) WHIS AIS	N 40 44' 07.858"	W 072 45' 11.860"	40.73552	-72.7533	LNM 41/15, 1st Dist	666	12300_1	10/22/2015
12300	Change	MORICHES INLET APPROACH LTD WHISTLE BUOY M	RW "M" Mo (A) WHIS AIS	N 40 44' 07.858"	W 072 45' 11.860"	40.73552	-72.7533	LNM 41/15, 1st Dist	666	12300_1	10/22/2015
12300	Change	NARRAGANSETT BAY ENT LTD WHISTLE BUOY NB	RW "NB" Mo (A) WHIS RACON (-...) AIS	N 41 23' 00.000"	W 071 23' 21.470"	41.38334	-71.3893	LNM 41/15, 1st Dist	666	12300_1	10/22/2015
12300	Change	SHINNECOCK INLET APPROACH LTD WHISTLE BUOY SH	RW "SH" Mo (A) WHIS  AIS	N 40 49' 00.161"	W 072 28' 34.519"	40.81671	-72.47626	LNM 41/15, 1st Dist	666	12300_1	10/22/2015
12300	Add	wind turbine	None	N 41 06' 36.720"	W 071 31' 44.820"	41.1102	-71.52911	LNM 41/15, 1st Dist	666	12300_1	10/8/2015
12300	Add	wind turbine	None	N 41 06' 53.160"	W 071 31' 16.080"	41.11477	-71.52113	LNM 41/15, 1st Dist	666	12300_1	10/8/2015
12300	Add	wind turbine	None	N 41 07' 11.760"	W 071 30' 50.220"	41.11993	-71.51395	LNM 41/15, 1st Dist	666	12300_1	10/8/2015
12300	Add	wind turbine	None	N 41 07' 32.640"	W 071 30' 27.240"	41.12573	-71.50757	LNM 41/15, 1st Dist	666	12300_1	10/8/2015
12300	Add	wind turbine	None	N 41 06' 22.980"	W 071 32' 15.540"	41.10638	-71.53765	LNM 41/15, 1st Dist	666	12300_1	10/8/2015
12300	Add	Sounding in Fathoms 	6	N 41 13' 02.300"	W 070 51' 27.400"	41.2173	-70.85761	LNM 40/15, 1st Dist	666	12300_1	10/1/2015
12300	Add	Sounding in Fathoms 	6	N 41 19' 23.100"	W 070 42' 28.200"	41.32308	-70.70783	LNM 40/15, 1st Dist	666	12300_1	10/1/2015
12300	Add	Sounding in Fathoms 	7	N 41 15' 32.600"	W 070 51' 44.400"	41.25906	-70.86234	LNM 40/15, 1st Dist	666	12300_1	10/1/2015
12300	Delete	Sounding in Fathoms 	8	N 41 12' 54.400"	W 070 51' 46.400"	41.21511	-70.86289	LNM 40/15, 1st Dist	666	12300_1	10/1/2015
12300	Delete	Sounding in Fathoms & Fractions	8 1/4	N 41 19' 41.000"	W 070 42' 25.000"	41.32806	-70.70695	LNM 40/15, 1st Dist	666	12300_1	10/1/2015
12300	Change	GAY HEAD LIGHT	Al WR 15s 175ft 20M	N 41 20' 53.993"	W 070 50' 04.240"	41.34833	-70.83451	LNM 37/15, 1st Dist	666	12300_1	9/24/2015
12300	Delete	Natural shoreline PT 1 OF 4	None	N 40 43' 08.690"	W 072 54' 18.490"	40.71908	-72.90514	LNM 38/15, 1st Dist	666	12300_1	9/17/2015
12300	Delete	Natural shoreline PT 2 OF 4	None	N 40 43' 24.630"	W 072 53' 24.890"	40.72351	-72.89024	LNM 38/15, 1st Dist	666	12300_1	9/17/2015
12300	Delete	Natural shoreline PT 3 OF 4	None	N 40 43' 30.580"	W 072 53' 56.160"	40.72516	-72.89893	LNM 38/15, 1st Dist	666	12300_1	9/17/2015
12300	Delete	Natural shoreline PT 4 OF 4	None	N 40 43' 35.890"	W 072 53' 46.390"	40.72663	-72.89622	LNM 38/15, 1st Dist	666	12300_1	9/17/2015
12300	Add	Natural shoreline PT 1 OF 4	None	N 40 43' 08.690"	W 072 54' 18.490"	40.71908	-72.90514	LNM 38/15, 1st Dist	666	12300_1	9/17/2015
12300	Add	Natural shoreline PT 2 OF 4	None	N 40 43' 30.580"	W 072 53' 56.160"	40.72516	-72.89893	LNM 38/15, 1st Dist	666	12300_1	9/17/2015
12300	Add	Natural shoreline PT 3 OF 4	None	N 40 43' 24.630"	W 072 53' 24.890"	40.72351	-72.89024	LNM 38/15, 1st Dist	666	12300_1	9/17/2015
12300	Add	Natural shoreline PT 4 OF 4	None	N 40 43' 35.890"	W 072 53' 46.390"	40.72663	-72.89622	LNM 38/15, 1st Dist	666	12300_1	9/17/2015
12300	Relocate	GAY HEAD LIGHT	Al WR 15s 170ft 20M	N 41 20' 53.993"	W 070 50' 04.240"	41.34833	-70.83451	LNM 32/15, 1st Dist	666	12300_1	8/27/2015
12300	Relocate	WHOI LTD RESEARCH BUOY ISSP	Y "ISSP" Fl Y 4s Priv	N 40 21' 51.720"	W 070 53' 17.280"	40.36437	-70.88813	LNM 31/15, 1st Dist	666	12300_1	8/13/2015
12300	Add	WHOI LTD RESEARCH BUOY CNSP	Y "CNSP" Fl Y 4s Priv	N 40 08' 02.700"	W 070 46' 12.480"	40.13408	-70.77013	LNM 31/15, 1st Dist	666	12300_1	8/13/2015
12300	Add	USGS Research Lighted Buoy W	Y "W" FI Y 4s Priv	N 40 35' 04.210"	W 073 06' 24.220"	40.5845	-73.10673	LNM 29/15, 1st Dist	666	12300_1	8/6/2015
12300	Relocate	Little Egg Inlet Outer Lighted Whistle Buoy LE	RW "LE" Mo (A) WHIS	N 39 28' 12.390"	W 074 16' 08.941"	39.47011	-74.26915	LNM 30/15, 5th Dist	666	12300_1	8/6/2015
12300	Delete	NEW YORK BIGHT DUMPING GROUND LTD BUOY 3	G "3" Fl G 4s	N 40 22' 56.783"	W 073 49' 49.396"	40.38244	-73.83039	LNM 23/15, 1st Dist	666	12300_1	6/25/2015
12300	Change	FISHING GROUNDS OBSTRUCTION LB 5	G "5" Fl G 4s	N 40 25' 41.494"	W 073 50' 53.151"	40.42819	-73.8481	LNM 23/15, 1st Dist	666	12300_1	6/25/2015
12300	Change	SOUTHWEST LEDGE LTD WHISTLE BUOY 2	R "2" Fl R 2.5s WHIS	N 41 06' 22.649"	W 071 40' 14.042"	41.10629	-71.67057	LNM 22/15, 1st Dist	666	12300_1	6/18/2015
12300	Relocate	WHOI LTD RESEARCH BUOY ISSP	Y "ISSP" Fl Y 4s Priv	N 40 21' 52.560"	W 070 53' 19.380"	40.3646	-70.88872	LNM 21/15, 1st Dist	666	12300_1	6/4/2015
12300	Relocate	WHOI LTD RESEARCH BUOY OSSM	Y "OSSM" Fl Y 4s Priv	N 39 56' 26.280"	W 070 52' 42.780"	39.94063	-70.87855	LNM 21/15, 1st Dist	666	12300_1	6/4/2015
12300	Relocate	WHOI LTD RESEARCH BUOY ISSM	Y "ISSM" Fl Y 4s Priv	N 40 21' 33.780"	W 070 53' 07.080"	40.35938	-70.8853	LNM 21/15, 1st Dist	666	12300_1	6/4/2015
12300	Add	WHOI LTD RESEARCH BUOY CNSM	Y "CNSM" Fl Y 4s Priv	N 40 08' 24.780"	W 070 46' 16.620"	40.14022	-70.77129	LNM 21/15, 1st Dist	666	12300_1	6/4/2015
12300	Add	WHOI LTD RESEARCH BUOY OSPM	Y "OSPM" Fl Y 4s Priv	N 39 56' 34.920"	W 070 53' 07.320"	39.94304	-70.88537	LNM 21/15, 1st Dist	666	12300_1	6/4/2015
12300	Add	WHOI LTD RESEARCH BUOY PMCI	Y "PMCI" Fl Y 4s Priv	N 40 13' 36.120"	W 070 53' 19.740"	40.2267	-70.88882	LNM 21/15, 1st Dist	666	12300_1	6/4/2015
12300	Add	WHOI LTD RESEARCH BUOY PMCO	Y "PMCO" Fl Y 4s Priv	N 40 05' 48.060"	W 070 52' 45.840"	40.09668	-70.8794	LNM 21/15, 1st Dist	666	12300_1	6/4/2015
12300	Add	WHOI LTD RESEARCH BUOY PMUI	Y "PMUI" Fl Y 4s Priv	N 40 21' 55.500"	W 070 46' 59.460"	40.36542	-70.78318	LNM 21/15, 1st Dist	666	12300_1	6/4/2015
12300	Add	WHOI LTD RESEARCH BUOY PMUO	Y "PMUO" Fl Y 4s Priv	N 39 56' 29.820"	W 070 46' 51.060"	39.94162	-70.78085	LNM 21/15, 1st Dist	666	12300_1	6/4/2015
12300	Change	Manasquan Inlet Light 3	Fl G 6s 35ft 8M "3" HORN (MRASS)	N 40 06' 01.374"	W 074 01' 54.240"	40.10038	-74.03173	LNM 17/15, 5th Dist	666	12300_1	5/7/2015
12300	Relocate	Manasquan Inlet Light 3	Fl G 6s 35ft 8M "3" HORN (MRASS)	N 40 06' 01.374"	W 074 01' 54.240"	40.10038	-74.03173	LNM 17/15, 5th Dist	666	12300_1	5/7/2015
12300	Add	Precautionary Area PT 1 OF 2	None	N 41 29' 09.150"	W 071 23' 09.670"	41.48587	-71.38602	LNM 18/15, 1st Dist	666	12300_1	4/30/2015
12300	Add	Precautionary Area PT 2 OF 2	None	N 41 29' 07.750"	W 071 22' 44.640"	41.48549	-71.37907	LNM 18/15, 1st Dist	666	12300_1	4/30/2015
12300	Add	Precautionary Area PT 1 OF 3	None	N 41 28' 53.010"	W 071 21' 30.190"	41.48139	-71.35838	LNM 18/15, 1st Dist	666	12300_1	4/30/2015
12300	Add	Precautionary Area PT 2 OF 3	None	N 41 28' 44.110"	W 071 21' 05.050"	41.47892	-71.3514	LNM 18/15, 1st Dist	666	12300_1	4/30/2015
12300	Add	Precautionary Area PT 3 OF 3	None	N 41 28' 32.570"	W 071 20' 39.050"	41.47572	-71.34418	LNM 18/15, 1st Dist	666	12300_1	4/30/2015
12300	Add	Precautionary Area PT 1 OF 3	None	N 41 24' 10.460"	W 071 27' 37.450"	41.4029	-71.4604	LNM 18/15, 1st Dist	666	12300_1	4/30/2015
12300	Add	Precautionary Area PT 2 OF 3	None	N 41 23' 19.670"	W 071 26' 56.630"	41.3888	-71.44907	LNM 18/15, 1st Dist	666	12300_1	4/30/2015
12300	Add	Precautionary Area PT 3 OF 3	None	N 41 22' 42.300"	W 071 26' 02.470"	41.37842	-71.43402	LNM 18/15, 1st Dist	666	12300_1	4/30/2015
12300	Add	Precautionary Area PT 1 OF 3	None	N 41 28' 53.530"	W 071 25' 04.760"	41.48154	-71.41799	LNM 18/15, 1st Dist	666	12300_1	4/30/2015
12300	Add	Precautionary Area PT 2 OF 3	None	N 41 29' 01.890"	W 071 24' 30.740"	41.48386	-71.40854	LNM 18/15, 1st Dist	666	12300_1	4/30/2015
12300	Add	Precautionary Area PT 3 OF 3	None	N 41 29' 07.680"	W 071 23' 51.930"	41.48547	-71.39776	LNM 18/15, 1st Dist	666	12300_1	4/30/2015
12300	Delete	Obstruction in Fathoms with Basket	10 Obstn       Chart No. 1: K42	N 38 49' 10.020"	W 074 31' 15.850"	38.81945	-74.52107	LNM 17/15, 5th Dist	666	12300_1	4/30/2015
12300	Add	WHOI RESEARCH LTD BUOY DMON	Y "DMON" Fl Y 4s Priv	N 41 08' 49.000"	W 070 56' 41.000"	41.14695	-70.94473	LNM 13/15, 1st Dist	666	12300_1	4/9/2015
12300	Add	BLOCK ISLAND BKW LIGHT 3	F G 27ft 11M "3" HORN (MRASS)	N 41 10' 38.492"	W 071 33' 14.538"	41.17736	-71.55404	LNM 10/15, 1st Dist	666	12300_1	4/2/2015
12300	Change	CASTLE HILL LIGHT	Iso R 6s 40ft 12M HORN (MRASS)	N 41 27' 43.800"	W 071 21' 46.500"	41.46217	-71.36292	LNM 10/15, 1st Dist	666	12300_1	4/2/2015
12300	Add	MRASS NOTE	 CELL RASS01	N 41 24' 30.000"	W 071 39' 35.000"	41.40833	-71.65972	LNM 08/15, 1st Dist	666	12300_1	3/5/2015
12300	Change	BUZZARDS BAY ENTRANCE LIGHT	Fl 2.5s 67ft 14M HORN RACON (-...) (MRASS)	N 41 23' 49.118"	W 071 02' 04.866"	41.39698	-71.03468	LNM 05/15, 1st Dist	666	12300_1	2/12/2015
12300	Change	AMBROSE CHANNEL LTD WHISTLE BUOY A	RW "A" Mo (A) WHIS RACON (-.) AIS	N 40 27' 27.991"	W 073 50' 12.228"	40.45778	-73.83673	LNM 50/14, 1st Dist	666	12300_1	1/8/2015
12300	Add	WHOI LTD RESEARCH BUOY ISSP	Y "ISSP" Fl Y 4s Priv	N 40 21' 53.160"	W 070 53' 17.880"	40.36477	-70.8883	LNM 50/14, 1st Dist	666	12300_1	1/8/2015
12300	Add	WHOI LTD RESEARCH BUOY OSSM	Y "OSSM" Fl Y 4s Priv	N 39 56' 09.480"	W 070 52' 43.320"	39.93597	-70.8787	LNM 50/14, 1st Dist	666	12300_1	1/8/2015
12300	Add	WHOI LTD RESEARCH BUOY ISSM	Y "ISSM" Fl Y 4s Priv	N 40 21' 42.840"	W 070 52' 40.920"	40.3619	-70.87804	LNM 50/14, 1st Dist	666	12300_1	1/8/2015
12300	Relocate	GAY HEAD LTD GONG BUOY 31	G "31" Fl G 4s GONG	N 41 21' 49.397"	W 070 51' 47.615"	41.36372	-70.86323	LNM 41/14, 1st Dist	666	12300_1	10/23/2014
12300	Relocate	Five Fathom Bank Northeast Lighted Bell Buoy 2FB	R "2FB" Fl R 4s BELL	N 38 58' 12.411"	W 074 31' 34.554"	38.97012	-74.52627	LNM 40/14, 5th Dist	666	12300_1	10/9/2014
12300	Add	Jones Inlet Light	Fl 2.5s 33ft 4M	N 40 34' 23.568"	W 073 34' 32.364"	40.57321	-73.57565	LNM 36/14, 1st Dist	666	12300_1	9/18/2014
12300	Delete	Obstruction with Sounding in Fathoms 	12 Obstn	N 39 13' 13.920"	W 074 17' 16.230"	39.22053	-74.28784	LNM 37/14, 5th Dist	666	12300_1	9/11/2014
12300	Add	Wreck with Sounding in Fathoms 	12 Wk	N 39 13' 13.920"	W 074 17' 16.230"	39.22053	-74.28784	LNM 37/14, 5th Dist	666	12300_1	9/11/2014
12300	Delete	Jones Inlet Light	Fl 2.5s 33ft 4M	N 40 34' 23.568"	W 073 34' 32.364"	40.57321	-73.57565	LNM 35/14, 1st Dist	666	12300_1	9/11/2014
12300	Change	Buzzards Bay Entrance Light	Fl 2.5s 67ft 14M HORN RACON (-...)	N 41 23' 49.118"	W 071 02' 04.866"	41.39698	-71.03468	LNM 32/14, 1st Dist	666	12300_1	9/4/2014
12300	Change	JONES INLET LIGHT	Fl 2.5s 33ft 4M	N 40 34' 23.568"	W 073 34' 32.364"	40.57321	-73.57565	LNM 31/14, 1st Dist	666	12300_1	8/28/2014
12300	Delete	Narragansett-Buzzards Bay Approach Lighted Whistle Buoy A Racon	RACON (- .)	N 41 06' 00.383"	W 071 23' 22.171"	41.10011	-71.38949	LNM 14/14, 1st Dist	666	12300_1	4/17/2014
12300	Delete	Narragansett-Buzzards Bay Approach Lighted Whistle Buoy A	RW "A" Mo (A) WHIS	N 41 06' 00.383"	W 071 23' 22.171"	41.10011	-71.38949	LNM 14/14, 1st Dist	666	12300_1	4/17/2014
12300	Delete	Non Dangerous Wreck	PA   (Chart No. 1: K29)	N 40 24' 16.000"	W 070 27' 12.000"	40.40445	-70.45333	LNM 08/14, 1st Dist	666	12300_1	3/6/2014
12300	Add	Non Dangerous Wreck	PA   (Chart No. 1: K29)	N 40 24' 16.000"	W 070 27' 12.000"	40.40445	-70.45333	LNM 07/14, 1st Dist	666	12300_1	2/27/2014
12300	Add	Obstruction in Fathoms	9 Obstn       Chart No. 1: K41	N 40 22' 04.429"	W 073 54' 45.230"	40.3679	-73.91257	LNM 07/14, 1st Dist	666	12300_1	2/13/2014
12300	Add	Obstruction in Fathoms	9 Obstn       Chart No. 1: K41	N 40 21' 40.075"	W 073 55' 17.990"	40.36113	-73.92166	LNM 07/14, 1st Dist	666	12300_1	2/13/2014
12300	Delete	Block Island Breakwater Light 3	F G 27ft 11M "3" HORN	N 41 10' 38.492"	W 071 33' 14.538"	41.17736	-71.55404	LNM 05/14, 1st Dist	666	12300_1	2/13/2014
12300	Add	Sounding in Fathoms & Fractions	8 3/4	N 40 23' 36.500"	W 073 53' 26.000"	40.39347	-73.89056	LNM 04/14, 1st Dist	666	12300_1	1/30/2014
12300	Add	Sounding in Fathoms & Fractions	8 3/4	N 40 22' 57.200"	W 073 53' 24.700"	40.38256	-73.8902	LNM 04/14, 1st Dist	666	12300_1	1/30/2014
12300	Add	Sounding in Fathoms & Fractions	9 3/4	N 40 24' 31.400"	W 073 53' 19.000"	40.40872	-73.88861	LNM 04/14, 1st Dist	666	12300_1	1/30/2014
12300	Delete	Obstruction in Fathoms	11 Obstn       Chart No. 1: K41	N 40 23' 38.500"	W 073 53' 37.700"	40.39403	-73.89381	LNM 04/14, 1st Dist	666	12300_1	1/30/2014
12300	Delete	Sounding in Fathoms 	11	N 40 24' 11.300"	W 073 52' 41.900"	40.40314	-73.8783	LNM 04/14, 1st Dist	666	12300_1	1/30/2014
12300	Add	Sounding in Fathoms & Fractions	10 1/2	N 40 22' 42.100"	W 073 52' 44.000"	40.37836	-73.87889	LNM 04/14, 1st Dist	666	12300_1	1/30/2014
12300	Delete	Sounding in Fathoms	13	N 40 22' 40.100"	W 073 52' 51.800"	40.3778	-73.88106	LNM 04/14, 1st Dist	666	12300_1	1/30/2014
12300	Change	Avalon Shoal Lighted Buoy 2	R "2" Fl R 6s	N 39 05' 23.412"	W 074 33' 56.559"	39.08984	-74.56571	LNM 51/13, 5th Dist	666	12300_1	12/23/2013
12300	Relocate	Fishermans Energy Research Lighted Data Buoy B	Y "B" Fl Y 2.5s Priv	N 39 10' 08.160"	W 074 23' 57.780"	39.16893	-74.39938	LNM 23/13, 5th Dist	666	12300_1	6/10/2013
12300	Add	Submarine Cable  PT 1 OF 6	Chart No. 1: L30.1	N 39 30' 44.210"	W 074 06' 03.480"	39.51228	-74.10097	LNM 24/13, 5th Dist	666	12300_1	6/7/2013
12300	Add	Submarine Cable  PT 2 OF 6	Chart No. 1: L30.1	N 39 27' 07.080"	W 073 53' 10.660"	39.45197	-73.88629	LNM 24/13, 5th Dist	666	12300_1	6/7/2013
12300	Add	Submarine Cable  PT 3 OF 6	Chart No. 1: L30.1	N 39 18' 41.820"	W 073 46' 55.560"	39.31161	-73.7821	LNM 24/13, 5th Dist	666	12300_1	6/7/2013
12300	Add	Submarine Cable  PT 4 OF 6	Chart No. 1: L30.1	N 39 16' 26.960"	W 073 46' 15.650"	39.27415	-73.77101	LNM 24/13, 5th Dist	666	12300_1	6/7/2013
12300	Add	Submarine Cable  PT 5 OF 6	Chart No. 1: L30.1	N 38 57' 04.740"	W 073 35' 55.460"	38.95132	-73.59874	LNM 24/13, 5th Dist	666	12300_1	6/7/2013
12300	Add	Submarine Cable  PT 6 OF 6	Chart No. 1: L30.1	N 38 46' 05.240"	W 073 26' 59.650"	38.76812	-73.44991	LNM 24/13, 5th Dist	666	12300_1	6/7/2013
12300	Add	Fishermans Energy Research Lighted Data Buoy B	Y "B" Fl Y 2.5s Priv	N 39 10' 07.730"	W 074 23' 58.610"	39.16882	-74.39961	LNM 22/13, 5th Dist	666	12300_1	5/30/2013
12300	Add	Submarine Cable  PT 1 OF 6	Chart No. 1: L30.1	N 39 30' 44.210"	W 074 06' 03.480"	39.51228	-74.10097	LNM 21/13, 1st Dist	666	12300_1	5/15/2013
12300	Add	Submarine Cable  PT 2 OF 6	Chart No. 1: L30.1	N 39 27' 07.080"	W 073 53' 10.660"	39.45197	-73.88629	LNM 21/13, 1st Dist	666	12300_1	5/15/2013
12300	Add	Submarine Cable  PT 3 OF 6	Chart No. 1: L30.1	N 39 18' 41.820"	W 073 46' 55.560"	39.31161	-73.7821	LNM 21/13, 1st Dist	666	12300_1	5/15/2013
12300	Add	Submarine Cable  PT 4 OF 6	Chart No. 1: L30.1	N 39 16' 26.960"	W 073 46' 15.650"	39.27415	-73.77101	LNM 21/13, 1st Dist	666	12300_1	5/15/2013
12300	Add	Submarine Cable  PT 5 OF 6	Chart No. 1: L30.1	N 38 57' 04.740"	W 073 35' 55.460"	38.95132	-73.59874	LNM 21/13, 1st Dist	666	12300_1	5/15/2013
12300	Add	Submarine Cable  PT 6 OF 6	Chart No. 1: L30.1	N 38 46' 05.240"	W 073 26' 59.650"	38.76812	-73.44991	LNM 21/13, 1st Dist	666	12300_1	5/15/2013
12300	Relocate	Gay Head Light	Al WR 15s 170ft 20M	N 41 20' 54.402"	W 070 50' 05.838"	41.34845	-70.83495	LNM 16/13, 1st Dist	666	12300_1	4/23/2013
12300	Change	Garden State Offshore Energy Lighted Data Buoy GS	Y "GS" Fl Y 2s RACON G (--.) Priv	N 39 04' 36.000"	W 074 18' 36.000"	39.07667	-74.31	LNM 16/13, 5th Dist	666	12300_1	4/22/2013
12300	Delete	Submarine Cable  PT 1 OF 2	Chart No. 1: L30.1	N 39 33' 15.300"	W 074 03' 52.800"	39.55425	-74.06467	LNM 14/13, 5th Dist	666	12300_1	4/2/2013
12300	Delete	Submarine Cable  PT 2 OF 2	Chart No. 1: L30.1	N 38 46' 05.700"	W 073 46' 39.300"	38.76825	-73.77758	LNM 14/13, 5th Dist	666	12300_1	4/2/2013
12300	Add	Obstruction in Fathoms	10 Obstn       Chart No. 1: K41	N 41 15' 24.448"	W 071 58' 09.613"	41.25679	-71.96934	LNM 13/13, 1st Dist	666	12300_1	3/22/2013
12300	Relocate	Nantucket (Great Point) Light	Fl 5s 71ft 12M	N 41 23' 24.600"	W 070 02' 53.800"	41.39017	-70.04828	LNM 09/13, 1st Dist	666	12300_1	3/20/2013
12300	Delete	Barnegat Traffic Lane Lighted Whistle Buoy BA	Y "BA" Fl Y 6s WHIS	N 40 20' 02.293"	W 073 47' 37.254"	40.33397	-73.79368	LNM 09/13, 1st Dist	666	12300_1	3/20/2013
12300	Relocate	Endeavor Shoals Lighted Gong Buoy 1	G "1" Fl G 4s GONG	N 41 06' 03.438"	W 071 46' 14.704"	41.10096	-71.77075	LNM 09/13, 1st Dist	666	12300_1	3/20/2013
12300	Relocate	Shrewsbury Rocks Lighted Buoy 1	G "1" Fl G 2.5s	N 40 20' 27.896"	W 073 55' 34.489"	40.34108	-73.92625	LNM 09/13, 1st Dist	666	12300_1	3/20/2013
12300	Change	Shrewsbury Rocks Lighted Buoy 1	G "1" Fl G 2.5s (delete BELL)	N 40 20' 27.896"	W 073 55' 34.489"	40.34108	-73.92625	LNM 09/13, 1st Dist	666	12300_1	3/20/2013
12300	Delete	Fishermens Energy Research Lighted Data Buoy B	Y "B" Fl Y 2.5s Priv	N 39 10' 07.730"	W 074 23' 58.610"	39.16882	-74.39961	LNM 11/13, 5th Dist	666	12300_1	3/18/2013
12300	Add	Wreck in Fathoms	10 1/2 Wk    Chart No. 1: K26	N 41 19' 51.100"	W 071 31' 56.400"	41.33086	-71.53233	LNM 12/13, 1st Dist	666	12300_1	3/18/2013
12300	Delete	Wreck in Fathoms	12 Wk    Chart No. 1: K26	N 41 19' 46.000"	W 071 32' 51.000"	41.32944	-71.5475	LNM 12/13, 1st Dist	666	12300_1	3/18/2013
12300	Delete	Wreck in Fathoms	10 1/2 Wk    Chart No. 1: K26	N 41 19' 56.000"	W 071 31' 58.000"	41.33222	-71.53278	LNM 12/13, 1st Dist	666	12300_1	3/18/2013
12300	Change	Ocean Power Lighted Data Buoy A	Y "A" Fl Y 4s Priv	N 40 01' 59.971"	W 073 40' 00.019"	40.03333	-73.66667	LNM 10/13, 5th Dist	666	12300_1	3/7/2013
12300	Relocate	NOAA Lighted Data Buoy 44066 (ODAS)	Y ODAS "44066" Fl (4) Y 20s	N 39 35' 00.705"	W 072 35' 57.636"	39.58353	-72.59934	LNM 10/13, 5th Dist	666	12300_1	3/7/2013
12300	Change	Ocean Power Lighted Data Buoy A	Y "A" Fl Y 6s Priv	N 40 01' 59.971"	W 073 40' 00.019"	40.03333	-73.66667	LNM 09/13, 5th Dist	666	12300_1	3/5/2013
12300	Delete	Nomans Land Lighted Whistle Buoy 2	R "2" Fl R 4s WHIS	N 41 12' 12.213"	W 070 49' 58.104"	41.20339	-70.83281	LNM 04/13, 1st Dist	666	12300_1	2/6/2013
12300	Add	Fishermans Energy Research Lighted Data Buoy B	Y "B" Fl Y 2.5s Priv	N 39 10' 07.730"	W 074 23' 58.610"	39.16882	-74.39961	LNM 05/13, 5th Dist	666	12300_1	1/31/2013
12300	Relocate	Manasquan Inlet Lighted Bell Buoy 2M	R "2M" Fl R 4s BELL	N 40 05' 32.217"	W 074 00' 48.188"	40.09228	-74.01338	LNM 05/13, 5th Dist	666	12300_1	1/31/2013
12300	Delete	Nantucket Traffic Lane Lighted Whistle Buoy NA Racon	RACON (- .)	N 40 25' 42.372"	W 073 11' 28.419"	40.42844	-73.19123	LNM 03/13, 1st Dist	666	12300_1	1/31/2013
12300	Delete	Nantucket Traffic Lane Lighted Whistle Buoy NA	Y "NA" Fl Y 6s WHIS	N 40 25' 42.372"	W 073 11' 28.419"	40.42844	-73.19123	LNM 03/13, 1st Dist	666	12300_1	1/31/2013
12300	Relocate	NOAA Data Lighted Buoy 44017	Y ODAS "44017" Fl (4) Y 20s PA	N 40 41' 34.815"	W 072 02' 52.200"	40.693	-72.04784	LNM 03/13, 1st Dist	666	12300_1	1/31/2013
12300	Delete	Montauk Point Lighted Whistle Buoy MP	RW "MP" Mo (A) WHIS	N 41 01' 48.161"	W 071 45' 40.258"	41.03004	-71.76118	LNM 52/12, 1st Dist	666	12300_1	1/15/2013
12300	Delete	Montauk Point Lighted Whistle Buoy MP Racon	RACON (- -)    (Chart No. 1: S3.6)	N 41 01' 48.161"	W 071 45' 40.258"	41.03004	-71.76118	LNM 52/12, 1st Dist	666	12300_1	1/15/2013
12300	Add	Sounding in Fathoms & Feet	2_1/4	N 41 15' 29.400"	W 070 27' 08.400"	41.25817	-70.45233	LNM 40/12, 1st Dist	666	12300_1	10/1/2012
12300	Change	Highlands Light	Iso 10s Priv	N 40 23' 47.640"	W 073 59' 09.000"	40.39657	-73.98583	LNM 38/12, 1st Dist	666	12300_1	9/26/2012
12300	Add	Obstruction	Unexploded ordnance (reported 2010) PA     (Chart No. 1: K40)	N 40 07' 24.000"	W 072 38' 48.000"	40.12333	-72.64667	LNM 38/12, 1st Dist	666	12300_1	9/14/2012
12300	Add	General Anchorage Area PT 1 OF 4	(Chart No. 1: N12.1)	N 41 22' 37.100"	W 071 14' 40.300"	41.37697	-71.24453	LNM 38/12, 1st Dist	666	12300_1	9/12/2012
12300	Add	General Anchorage Area PT 2 OF 4	(Chart No. 1: N12.1)	N 41 20' 42.800"	W 071 14' 40.300"	41.34522	-71.24453	LNM 38/12, 1st Dist	666	12300_1	9/12/2012
12300	Add	General Anchorage Area PT 3 OF 4	(Chart No. 1: N12.1)	N 41 18' 24.100"	W 071 20' 32.500"	41.30669	-71.34236	LNM 38/12, 1st Dist	666	12300_1	9/12/2012
12300	Add	General Anchorage Area PT 4 OF 4	(Chart No. 1: N12.1)	N 41 20' 22.600"	W 071 20' 32.500"	41.33961	-71.34236	LNM 38/12, 1st Dist	666	12300_1	9/12/2012
12300	Add	General Anchorage Area label:	ANCH AREA 110.149 (see note A)	N 41 20' 33.000"	W 071 17' 33.000"	41.3425	-71.2925	LNM 38/12, 1st Dist	666	12300_1	9/12/2012
12300	Delete	NOAA Data Lighted Buoy 44070	Y ODAS "44070" Fl (4) Y 20s PA	N 41 23' 33.000"	W 071 00' 13.000"	41.3925	-71.00361	LNM 31/12, 1st Dist	666	12300_1	8/6/2012
12300	Delete	Restricted Area PT 1 OF 4	RESTRICTED AREA 334.78 (see note A) (Chart No. 1: N2.1)	N 41 20' 30.000"	W 071 19' 53.000"	41.34167	-71.33139	LNM 30/12, 1st Dist	666	12300_1	8/6/2012
12300	Delete	Restricted Area PT 2 OF 4	RESTRICTED AREA 334.78 (see note A) (Chart No. 1: N2.1)	N 41 20' 30.000"	W 071 18' 34.000"	41.34167	-71.30945	LNM 30/12, 1st Dist	666	12300_1	8/6/2012
12300	Delete	Restricted Area PT 3 OF 4	RESTRICTED AREA 334.78 (see note A) (Chart No. 1: N2.1)	N 41 18' 57.000"	W 071 18' 34.000"	41.31583	-71.30945	LNM 30/12, 1st Dist	666	12300_1	8/6/2012
12300	Delete	Restricted Area PT 4 OF 4	RESTRICTED AREA 334.78 (see note A) (Chart No. 1: N2.1)	N 41 18' 57.000"	W 071 19' 53.000"	41.31583	-71.33139	LNM 30/12, 1st Dist	666	12300_1	8/6/2012
12300	Delete	Hudson Canyon Traffic Lane Lighted Whistle Buoy HA, RACON	RACON (-.-.)	N 40 07' 36.397"	W 073 21' 22.427"	40.12678	-73.35623	LNM 28/12, 1st Dist	666	12300_1	7/16/2012
12300	Delete	Hudson Canyon Traffic Lane Lighted Whistle Buoy HA	Y "HA" Fl Y 4s WHIS	N 40 07' 36.397"	W 073 21' 22.427"	40.12678	-73.35623	LNM 28/12, 1st Dist	666	12300_1	7/16/2012
12300	Relocate	Highlands Light	Oc 10s 246ft Priv	N 40 23' 47.640"	W 073 59' 09.000"	40.39657	-73.98583	LNM 28/12, 1st Dist	666	12300_1	7/16/2012
12300	Relocate	Highlands Light	Oc 10s 246ft Priv	N 40 23' 47.500"	W 073 59' 09.000"	40.39653	-73.98583	LNM 27/12, 1st Dist	666	12300_1	7/12/2012
12304	Change	Tabulation - DELAWARE RIVER CHANNEL DEPTHS	Tabulation - DELAWARE RIVER CHANNEL DEPTHS	N 39 18' 46.000"	W 075 05' 53.000"	39.31278	-75.09805	LNM 16/17, 5th Dist	667	12304_1	4/13/2017
12304	Add	Anchorage Area 1 PT 1 OF 4	(Chart No. 1 N12.1)	N 39 20' 53.500"	W 075 26' 28.000"	39.34819	-75.44111	LNM 13/17, 5th Dist	667	12304_1	3/23/2017
12304	Add	Anchorage Area 1 PT 2 OF 4	(Chart No. 1 N12.1)	N 39 17' 14.000"	W 075 22' 21.000"	39.28722	-75.3725	LNM 13/17, 5th Dist	667	12304_1	3/23/2017
12304	Add	Anchorage Area 1 PT 3 OF 4	(Chart No. 1 N12.1)	N 39 16' 55.200"	W 075 22' 50.500"	39.282	-75.38069	LNM 13/17, 5th Dist	667	12304_1	3/23/2017
12304	Add	Anchorage Area 1 PT 4 OF 4	(Chart No. 1 N12.1)	N 39 20' 34.100"	W 075 26' 56.800"	39.3428	-75.44911	LNM 13/17, 5th Dist	667	12304_1	3/23/2017
12304	Delete	Anchorage Area 1 PT 1 OF 4	(Chart No. 1 N12.1)	N 39 20' 53.850"	W 075 26' 25.390"	39.34829	-75.44038	LNM 13/17, 5th Dist	667	12304_1	3/23/2017
12304	Delete	Anchorage Area 1 PT 2 OF 4	(Chart No. 1 N12.1)	N 39 18' 00.250"	W 075 23' 02.300"	39.30007	-75.38397	LNM 13/17, 5th Dist	667	12304_1	3/23/2017
12304	Delete	Anchorage Area 1 PT 3 OF 4	(Chart No. 1 N12.1)	N 39 17' 20.530"	W 075 23' 58.330"	39.28904	-75.39954	LNM 13/17, 5th Dist	667	12304_1	3/23/2017
12304	Delete	Anchorage Area 1 PT 4 OF 4	(Chart No. 1 N12.1)	N 39 20' 15.430"	W 075 27' 23.170"	39.33762	-75.45644	LNM 13/17, 5th Dist	667	12304_1	3/23/2017
12304	Add	Submerged Obstruction	Obstn PA  (Chart No. 1: K40)	N 38 49' 04.680"	W 074 50' 07.680"	38.81797	-74.83546	LNM 10/17, 5th Dist	667	12304_1	3/16/2017
12304	Add	Harbor of Refuge Lighted Mooring Buoy CG	W Bu "CG" Fl 4s	N 38 47' 47.720"	W 075 07' 54.300"	38.79659	-75.13175	LNM 09/17, 5th Dist	667	12304_1	3/9/2017
12304	Delete	Harbor of Refuge Lighted Mooring Buoy CG	"CG" Fl 4s	N 38 48' 58.052"	W 075 10' 00.921"	38.81612	-75.16692	LNM 09/17, 5th Dist	667	12304_1	3/9/2017
12304	Relocate	Maurice River Channel Lighted Buoy 8	R "8" Q R	N 39 12' 12.410"	W 075 02' 28.642"	39.20345	-75.04129	LNM 05/17, 5th Dist	667	12304_1	2/9/2017
12311	Change	Tabulation - DELAWARE RIVER CHANNEL DEPTHS	Tabulation - DELAWARE RIVER CHANNEL DEPTHS	N 39 29' 14.000"	W 075 21' 49.000"	39.48722	-75.36361	LNM 25/17, 5th Dist	668	12311_1	6/15/2017
12311	Change	Tabulation - DELAWARE RIVER CHANNEL DEPTHS	Tabulation - DELAWARE RIVER CHANNEL DEPTHS	N 39 29' 14.000"	W 075 21' 49.000"	39.48722	-75.36361	LNM 16/17, 5th Dist	668	12311_1	4/20/2017
12311	Delete	Anchorage Area 3 PT 1 OF 6	(Chart No. 1 N12.1)	N 39 33' 24.190"	W 075 32' 59.650"	39.55672	-75.5499	LNM 13/17, 5th Dist	668	12311_1	3/23/2017
12311	Delete	Anchorage Area 3 PT 2 OF 6	(Chart No. 1 N12.1)	N 39 33' 17.750"	W 075 32' 40.750"	39.55493	-75.54465	LNM 13/17, 5th Dist	668	12311_1	3/23/2017
12311	Delete	Anchorage Area 3 PT 3 OF 6	(Chart No. 1 N12.1)	N 39 33' 06.470"	W 075 32' 36.900"	39.5518	-75.54359	LNM 13/17, 5th Dist	668	12311_1	3/23/2017
12311	Delete	Anchorage Area 3 PT 4 OF 6	(Chart No. 1 N12.1)	N 39 32' 34.840"	W 075 32' 38.690"	39.54301	-75.54408	LNM 13/17, 5th Dist	668	12311_1	3/23/2017
12311	Delete	Anchorage Area 3 PT 5 OF 6	(Chart No. 1 N12.1)	N 39 31' 44.020"	W 075 32' 56.590"	39.5289	-75.54905	LNM 13/17, 5th Dist	668	12311_1	3/23/2017
12311	Delete	Anchorage Area 3 PT 6 OF 6	(Chart No. 1 N12.1)	N 39 32' 15.290"	W 075 33' 08.450"	39.53758	-75.55235	LNM 13/17, 5th Dist	668	12311_1	3/23/2017
12311	Add	Anchorage Area 3 PT 1 OF 6	(Chart No. 1 N12.1)	N 39 33' 09.000"	W 075 32' 38.000"	39.5525	-75.54389	LNM 13/17, 5th Dist	668	12311_1	3/23/2017
12311	Add	Anchorage Area 3 PT 2 OF 6	(Chart No. 1 N12.1)	N 39 32' 34.600"	W 075 32' 38.200"	39.54295	-75.54395	LNM 13/17, 5th Dist	668	12311_1	3/23/2017
12311	Add	Anchorage Area 3 PT 3 OF 6	(Chart No. 1 N12.1)	N 39 31' 29.000"	W 075 33' 01.000"	39.52472	-75.55028	LNM 13/17, 5th Dist	668	12311_1	3/23/2017
12311	Add	Anchorage Area 3 PT 4 OF 6	(Chart No. 1 N12.1)	N 39 31' 31.800"	W 075 33' 16.200"	39.5255	-75.5545	LNM 13/17, 5th Dist	668	12311_1	3/23/2017
12311	Add	Anchorage Area 3 PT 5 OF 6	(Chart No. 1 N12.1)	N 39 32' 14.600"	W 075 33' 08.300"	39.53739	-75.55231	LNM 13/17, 5th Dist	668	12311_1	3/23/2017
12311	Add	Anchorage Area 3 PT 6 OF 6	(Chart No. 1 N12.1)	N 39 33' 09.000"	W 075 33' 10.000"	39.5525	-75.55278	LNM 13/17, 5th Dist	668	12311_1	3/23/2017
12311	Add	Anchorage Area 6 PT 1 OF 6	(Chart No. 1 N12.1)	N 39 43' 00.000"	W 075 30' 20.000"	39.71667	-75.50555	LNM 13/17, 5th Dist	668	12311_1	3/23/2017
12311	Add	Anchorage Area 6 PT 2 OF 6	(Chart No. 1 N12.1)	N 39 42' 51.500"	W 075 29' 44.900"	39.71431	-75.4958	LNM 13/17, 5th Dist	668	12311_1	3/23/2017
12311	Add	Anchorage Area 6 PT 3 OF 6	(Chart No. 1 N12.1)	N 39 42' 05.400"	W 075 30' 25.200"	39.7015	-75.507	LNM 13/17, 5th Dist	668	12311_1	3/23/2017
12311	Add	Anchorage Area 6 PT 4 OF 6	(Chart No. 1 N12.1)	N 39 41' 47.300"	W 075 30' 37.500"	39.69647	-75.51041	LNM 13/17, 5th Dist	668	12311_1	3/23/2017
12311	Add	Anchorage Area 6 PT 5 OF 6	(Chart No. 1 N12.1)	N 39 41' 34.700"	W 075 30' 39.900"	39.69297	-75.51109	LNM 13/17, 5th Dist	668	12311_1	3/23/2017
12311	Add	Anchorage Area 6 PT 6 OF 6	(Chart No. 1 N12.1)	N 39 41' 36.600"	W 075 30' 51.100"	39.6935	-75.51419	LNM 13/17, 5th Dist	668	12311_1	3/23/2017
12311	Delete	Anchorage Area 6 PT 1 OF 6	(Chart No. 1 N12.1)	N 39 42' 50.540"	W 075 30' 23.380"	39.71404	-75.50649	LNM 13/17, 5th Dist	668	12311_1	3/23/2017
12311	Delete	Anchorage Area 6 PT 2 OF 6	(Chart No. 1 N12.1)	N 39 42' 40.710"	W 075 29' 52.550"	39.71131	-75.49793	LNM 13/17, 5th Dist	668	12311_1	3/23/2017
12311	Delete	Anchorage Area 6 PT 3 OF 6	(Chart No. 1 N12.1)	N 39 42' 05.490"	W 075 30' 24.800"	39.70153	-75.50689	LNM 13/17, 5th Dist	668	12311_1	3/23/2017
12311	Delete	Anchorage Area 6 PT 4 OF 6	(Chart No. 1 N12.1)	N 39 41' 42.880"	W 075 30' 36.940"	39.69524	-75.51026	LNM 13/17, 5th Dist	668	12311_1	3/23/2017
12311	Delete	Anchorage Area 6 PT 5 OF 6	(Chart No. 1 N12.1)	N 39 41' 29.130"	W 075 30' 38.100"	39.69143	-75.51058	LNM 13/17, 5th Dist	668	12311_1	3/23/2017
12311	Delete	Anchorage Area 6 PT 6 OF 6	(Chart No. 1 N12.1)	N 39 41' 32.380"	W 075 30' 53.240"	39.69233	-75.51479	LNM 13/17, 5th Dist	668	12311_1	3/23/2017
12311	Add	Bridge Construction Label	Bridge under construction (see note)	N 39 43' 06.000"	W 075 34' 40.000"	39.71833	-75.57777	LNM 09/17, 5th Dist	668	12311_1	3/2/2017
12311	Add	Bridge Construction PT 1 OF 2	Chart No. 1: D.d, with magenta screen extending 500 feet from bridge	N 39 43' 04.160"	W 075 34' 40.360"	39.71782	-75.57788	LNM 09/17, 5th Dist	668	12311_1	3/2/2017
12311	Add	Bridge Construction PT 2 OF 2	Chart No. 1: D.d, with magenta screen extending 500 feet from bridge	N 39 43' 07.410"	W 075 34' 39.740"	39.71872	-75.57771	LNM 09/17, 5th Dist	668	12311_1	3/2/2017
12311	Add	Bridge Construction Note	CAUTION Fixed and floating obstructions, some submerged, may exist within the magenta tinted bridge construction area. Mariners are advised to proceed with caution.	N 39 30' 58.030"	W 075 23' 21.220"	39.51612	-75.38923	LNM 09/17, 5th Dist	668	12311_1	3/2/2017
12311	Delete	Ruins PT 1 OF 2	Subm ruins    Chart No. 1: F33.1 \ F33.2	N 39 43' 04.290"	W 075 34' 40.670"	39.71786	-75.57796	LNM 09/17, 5th Dist	668	12311_1	3/2/2017
12311	Delete	Ruins PT 2 OF 2	Subm ruins    Chart No. 1: F33.1 \ F33.2	N 39 43' 07.700"	W 075 34' 40.060"	39.71881	-75.5778	LNM 09/17, 5th Dist	668	12311_1	3/2/2017
12311	Change	Tabulation - SALEM RIVER CHANNEL	Tabulation - SALEM RIVER CHANNEL	N 39 32' 10.000"	W 075 21' 35.000"	39.53611	-75.35973	LNM 09/17, 5th Dist	668	12311_1	3/2/2017
12311	Change	Delaware River Lighted Buoy 27	G "27" Q G (delete BELL)	N 39 40' 29.287"	W 075 31' 38.010"	39.6748	-75.52722	LNM 07/17, 5th Dist	668	12311_1	2/23/2017
12311	Change	Delaware River Lighted Buoy 28	R "28" Fl R 2.5s	N 39 40' 22.407"	W 075 31' 21.717"	39.67289	-75.5227	LNM 07/17, 5th Dist	668	12311_1	2/23/2017
12311	Change	Delaware River Lighted Buoy 29	G "29" Fl G 4s	N 39 42' 10.658"	W 075 30' 53.214"	39.70296	-75.51478	LNM 07/17, 5th Dist	668	12311_1	2/23/2017
12311	Add	Delaware River Lighted Buoy 32	R "32" Q R	N 39 44' 09.000"	W 075 29' 53.770"	39.73583	-75.49827	LNM 07/17, 5th Dist	668	12311_1	2/23/2017
12311	Change	Delaware River Buoy 31	G C "31"	N 39 43' 12.009"	W 075 30' 28.412"	39.72	-75.50789	LNM 07/17, 5th Dist	668	12311_1	2/23/2017
12311	Change	Delaware River Buoy 33	G C "33"	N 39 43' 43.409"	W 075 30' 16.211"	39.72873	-75.5045	LNM 07/17, 5th Dist	668	12311_1	2/23/2017
12311	Change	Delaware River Buoy 35	G C "35"	N 39 44' 23.610"	W 075 30' 00.710"	39.73989	-75.5002	LNM 07/17, 5th Dist	668	12311_1	2/23/2017
12311	Add	Delaware River Lighted Buoy 36	R "36" Fl R 2.5s	N 39 44' 50.560"	W 075 29' 27.150"	39.74738	-75.49088	LNM 07/17, 5th Dist	668	12311_1	2/23/2017
12311	Relocate	Delaware River Lighted Buoy 29	G "29" Fl G 4s	N 39 42' 10.658"	W 075 30' 53.214"	39.70296	-75.51478	LNM 07/17, 5th Dist	668	12311_1	2/23/2017
12311	Relocate	Delaware River Buoy 31	G C "31"	N 39 43' 12.009"	W 075 30' 28.412"	39.72	-75.50789	LNM 07/17, 5th Dist	668	12311_1	2/23/2017
12311	Relocate	Delaware River Buoy 33	G C "33"	N 39 43' 43.409"	W 075 30' 16.211"	39.72873	-75.5045	LNM 07/17, 5th Dist	668	12311_1	2/23/2017
12311	Relocate	Delaware River Buoy 35	G C "35"	N 39 44' 23.610"	W 075 30' 00.710"	39.73989	-75.5002	LNM 07/17, 5th Dist	668	12311_1	2/23/2017
12311	Relocate	Cherry Island Range Junction Lighted Bell Buoy CR	RG "CR" Fl (2+1) R 6s BELL	N 39 43' 08.609"	W 075 30' 16.511"	39.71906	-75.50459	LNM 07/17, 5th Dist	668	12311_1	2/23/2017
12311	Delete	Cherry Island Range Buoy 4C	R N "4C"	N 39 43' 40.409"	W 075 30' 04.410"	39.72789	-75.50123	LNM 07/17, 5th Dist	668	12311_1	2/23/2017
12311	Delete	Bellevue Range Lighted Buoy 2B	R "2B" Q R	N 39 44' 29.909"	W 075 29' 38.708"	39.74164	-75.49409	LNM 07/17, 5th Dist	668	12311_1	2/23/2017
12311	Change	Delaware River Lighted Buoy 21	G "21" Fl G 2.5s	N 39 37' 44.105"	W 075 34' 39.530"	39.62892	-75.57764	LNM 06/17, 5th Dist	668	12311_1	2/16/2017
12311	Change	Delaware River Lighted Buoy 22	R "22" Q R (delete BELL)	N 39 37' 45.405"	W 075 34' 22.029"	39.62928	-75.57278	LNM 06/17, 5th Dist	668	12311_1	2/16/2017
12311	Change	Delaware River Lighted Buoy 24	R "24" Fl R 4s	N 39 38' 25.706"	W 075 33' 35.727"	39.64047	-75.55992	LNM 06/17, 5th Dist	668	12311_1	2/16/2017
12311	Delete	New Castle Flats Buoy 29	G C "29"	N 39 40' 11.407"	W 075 32' 06.720"	39.66983	-75.5352	LNM 06/17, 5th Dist	668	12311_1	2/16/2017
12311	Change	Delaware River Lighted Buoy 25	G "25" Fl G 4s	N 39 39' 21.907"	W 075 32' 49.724"	39.65609	-75.54714	LNM 06/17, 5th Dist	668	12311_1	2/16/2017
12311	Change	Delaware River Lighted Buoy 26	R "26" Fl R 4s	N 39 39' 24.156"	W 075 32' 27.222"	39.65671	-75.54089	LNM 06/17, 5th Dist	668	12311_1	2/16/2017
12311	Relocate	Delaware River Lighted Buoy 21	G "21" Fl G 2.5s	N 39 37' 44.105"	W 075 34' 39.530"	39.62892	-75.57764	LNM 06/17, 5th Dist	668	12311_1	2/16/2017
12311	Relocate	Delaware River Lighted Buoy 24	R "24" Fl R 4s	N 39 38' 25.706"	W 075 33' 35.727"	39.64047	-75.55992	LNM 06/17, 5th Dist	668	12311_1	2/16/2017
12311	Relocate	Delaware River Lighted Buoy 25	G "25" Fl G 4s	N 39 39' 21.907"	W 075 32' 49.724"	39.65609	-75.54714	LNM 06/17, 5th Dist	668	12311_1	2/16/2017
12311	Relocate	Delaware River Lighted Buoy 26	R "26" Fl R 4s	N 39 39' 24.156"	W 075 32' 27.222"	39.65671	-75.54089	LNM 06/17, 5th Dist	668	12311_1	2/16/2017
12312	Relocate	Mantua Creek Anchorage Buoy B	Y N "B"	N 39 52' 09.941"	W 075 12' 15.321"	39.86943	-75.20425	LNM 18/17, 5th Dist	669	12312_1	5/11/2017
12312	Change	Raccoon Creek Jetty Light 2RC	Fl R 4s 15ft 5M "2RC"	N 39 48' 34.101"	W 075 23' 02.740"	39.80947	-75.38409	LNM 16/17, 5th Dist	669	12312_1	4/27/2017
12312	Relocate	Upper Delaware River Channel Lighted Buoy 2	R "2" Fl R 2.5s	N 39 59' 15.204"	W 075 03' 45.422"	39.98756	-75.06261	LNM 16/17, 5th Dist	669	12312_1	4/27/2017
12312	Change	Tabulation - DELAWARE RIVER CHANNEL DEPTHS	Tabulation - DELAWARE RIVER CHANNEL DEPTHS	N 39 58' 16.000"	W 075 22' 42.000"	39.97111	-75.37833	LNM 16/17, 5th Dist	669	12312_1	4/20/2017
12312	Delete	Anchorage Area 6 PT 1 OF 4	(Chart No. 1 N12.1)	N 39 42' 31.030"	W 075 30' 31.070"	39.70862	-75.50863	LNM 13/17, 5th Dist	669	12312_1	3/23/2017
12312	Delete	Anchorage Area 6 PT 2 OF 4	(Chart No. 1 N12.1)	N 39 42' 50.080"	W 075 30' 23.740"	39.71391	-75.50659	LNM 13/17, 5th Dist	669	12312_1	3/23/2017
12312	Delete	Anchorage Area 6 PT 3 OF 4	(Chart No. 1 N12.1)	N 39 42' 40.780"	W 075 29' 53.460"	39.71133	-75.49818	LNM 13/17, 5th Dist	669	12312_1	3/23/2017
12312	Delete	Anchorage Area 6 PT 4 OF 4	(Chart No. 1 N12.1)	N 39 42' 31.030"	W 075 30' 02.010"	39.70862	-75.50056	LNM 13/17, 5th Dist	669	12312_1	3/23/2017
12312	Delete	Anchorage Area 8 PT 1 OF 4	(Chart No. 1 N12.1)	N 39 50' 51.110"	W 075 17' 53.310"	39.84753	-75.29814	LNM 13/17, 5th Dist	669	12312_1	3/23/2017
12312	Delete	Anchorage Area 8 PT 2 OF 4	(Chart No. 1 N12.1)	N 39 50' 43.410"	W 075 17' 52.290"	39.84539	-75.29786	LNM 13/17, 5th Dist	669	12312_1	3/23/2017
12312	Delete	Anchorage Area 8 PT 3 OF 4	(Chart No. 1 N12.1)	N 39 50' 39.380"	W 075 18' 23.190"	39.84427	-75.30644	LNM 13/17, 5th Dist	669	12312_1	3/23/2017
12312	Delete	Anchorage Area 8 PT 4 OF 4	(Chart No. 1 N12.1)	N 39 50' 51.620"	W 075 18' 23.260"	39.84767	-75.30646	LNM 13/17, 5th Dist	669	12312_1	3/23/2017
12312	Add	Anchorage Area 8 PT 1 OF 4	(Chart No. 1 N12.1)	N 39 50' 52.000"	W 075 18' 23.000"	39.84778	-75.30639	LNM 13/17, 5th Dist	669	12312_1	3/23/2017
12312	Add	Anchorage Area 8 PT 2 OF 4	(Chart No. 1 N12.1)	N 39 50' 51.100"	W 075 17' 41.000"	39.84753	-75.29472	LNM 13/17, 5th Dist	669	12312_1	3/23/2017
12312	Add	Anchorage Area 8 PT 3 OF 4	(Chart No. 1 N12.1)	N 39 50' 44.500"	W 075 17' 41.600"	39.8457	-75.29489	LNM 13/17, 5th Dist	669	12312_1	3/23/2017
12312	Add	Anchorage Area 8 PT 4 OF 4	(Chart No. 1 N12.1)	N 39 50' 46.000"	W 075 18' 23.000"	39.84611	-75.30639	LNM 13/17, 5th Dist	669	12312_1	3/23/2017
12312	Add	Anchorage Area 6 PT 1 OF 4	(Chart No. 1 N12.1)	N 39 42' 31.030"	W 075 30' 30.800"	39.70862	-75.50855	LNM 13/17, 5th Dist	669	12312_1	3/23/2017
12312	Add	Anchorage Area 6 PT 2 OF 4	(Chart No. 1 N12.1)	N 39 43' 00.000"	W 075 30' 20.000"	39.71667	-75.50555	LNM 13/17, 5th Dist	669	12312_1	3/23/2017
12312	Add	Anchorage Area 6 PT 3 OF 4	(Chart No. 1 N12.1)	N 39 42' 51.500"	W 075 29' 44.900"	39.71431	-75.4958	LNM 13/17, 5th Dist	669	12312_1	3/23/2017
12312	Add	Anchorage Area 6 PT 4 OF 4	(Chart No. 1 N12.1)	N 39 42' 31.030"	W 075 30' 02.800"	39.70862	-75.50078	LNM 13/17, 5th Dist	669	12312_1	3/23/2017
12312	Add	Delaware River Lighted Buoy 32	R "32" Q R	N 39 44' 09.000"	W 075 29' 53.770"	39.73583	-75.49827	LNM 07/17, 5th Dist	669	12312_1	2/23/2017
12312	Change	Delaware River Buoy 31	G C "31"	N 39 43' 12.009"	W 075 30' 28.412"	39.72	-75.50789	LNM 07/17, 5th Dist	669	12312_1	2/23/2017
12312	Change	Delaware River Buoy 33	G C "33"	N 39 43' 43.409"	W 075 30' 16.211"	39.72873	-75.5045	LNM 07/17, 5th Dist	669	12312_1	2/23/2017
12312	Change	Delaware River Buoy 35	G C "35"	N 39 44' 23.610"	W 075 30' 00.710"	39.73989	-75.5002	LNM 07/17, 5th Dist	669	12312_1	2/23/2017
12312	Add	Delaware River Lighted Buoy 36	R "36" Fl R 2.5s	N 39 44' 50.560"	W 075 29' 27.150"	39.74738	-75.49088	LNM 07/17, 5th Dist	669	12312_1	2/23/2017
12312	Relocate	Delaware River Buoy 31	G C "31"	N 39 43' 12.009"	W 075 30' 28.412"	39.72	-75.50789	LNM 07/17, 5th Dist	669	12312_1	2/23/2017
12312	Relocate	Delaware River Buoy 33	G C "33"	N 39 43' 43.409"	W 075 30' 16.211"	39.72873	-75.5045	LNM 07/17, 5th Dist	669	12312_1	2/23/2017
12312	Relocate	Delaware River Buoy 35	G C "35"	N 39 44' 23.610"	W 075 30' 00.710"	39.73989	-75.5002	LNM 07/17, 5th Dist	669	12312_1	2/23/2017
12312	Relocate	Cherry Island Range Junction Lighted Bell Buoy CR	RG "CR" Fl (2+1) R 6s BELL	N 39 43' 08.609"	W 075 30' 16.511"	39.71906	-75.50459	LNM 07/17, 5th Dist	669	12312_1	2/23/2017
12312	Delete	Cherry Island Range Buoy 4C	R N "4C"	N 39 43' 40.409"	W 075 30' 04.410"	39.72789	-75.50123	LNM 07/17, 5th Dist	669	12312_1	2/23/2017
12312	Delete	Bellevue Range Lighted Buoy 2B	R "2B" Q R	N 39 44' 29.909"	W 075 29' 38.708"	39.74164	-75.49409	LNM 07/17, 5th Dist	669	12312_1	2/23/2017
12312	Change	Fixed Bridge Label	BENJAMIN FRANKLIN FIXED BRIDGE HOR CL 1686 FT VERT CL 128 FT VERT CL 135 FT FOR MIDDLE 800 FT OF SPAN	N 39 57' 12.000"	W 075 08' 12.000"	39.95333	-75.13667	LNM 09/17, 5th Dist	669	12312_1	2/23/2017
12312	Change	Fixed Bridge	Chart No. 1: D22	N 39 57' 12.000"	W 075 08' 12.000"	39.95333	-75.13667	LNM 09/17, 5th Dist	669	12312_1	2/23/2017
12312	Change	Tabulation - DELAWARE RIVER CHANNEL DEPTHS	Tabulation - DELAWARE RIVER CHANNEL DEPTHS	N 39 58' 16.000"	W 075 22' 42.000"	39.97111	-75.37833	LNM 06/17, 5th Dist	669	12312_1	2/2/2017
12312	Change	Tabulation - DELAWARE RIVER CHANNEL DEPTHS	Tabulation - DELAWARE RIVER CHANNEL DEPTHS	N 39 58' 16.000"	W 075 22' 42.000"	39.97111	-75.37833	LNM 02/17, 5th Dist	669	12312_1	1/12/2017
12312	Change	Chester Range Rear Light	Iso G 6s 110ft	N 39 51' 24.757"	W 075 19' 36.978"	39.85688	-75.32693	LNM 29/16, 5th Dist	669	12312_1	8/4/2016
12312	Delete	Anchorage Area 10 PT 1 OF 4	(Chart No. 1: N12.1)	N 39 53' 10.560"	W 075 10' 30.520"	39.88626	-75.17515	LNM 29/16, 5th Dist	669	12312_1	7/14/2016
12312	Delete	Anchorage Area 10 PT 2 OF 4	(Chart No. 1: N12.1)	N 39 52' 57.750"	W 075 10' 28.660"	39.88271	-75.17463	LNM 29/16, 5th Dist	669	12312_1	7/14/2016
12312	Delete	Anchorage Area 10 PT 3 OF 4	(Chart No. 1: N12.1)	N 39 52' 55.930"	W 075 09' 54.690"	39.8822	-75.16519	LNM 29/16, 5th Dist	669	12312_1	7/14/2016
12312	Delete	Anchorage Area 10 PT 4 OF 4	(Chart No. 1: N12.1)	N 39 53' 11.270"	W 075 09' 56.860"	39.88646	-75.16579	LNM 29/16, 5th Dist	669	12312_1	7/14/2016
12312	Add	Anchorage Area 10 PT 1 OF 4	(Chart No. 1: N12.1)	N 39 53' 07.000"	W 075 10' 30.000"	39.88528	-75.175	LNM 29/16, 5th Dist	669	12312_1	7/14/2016
12312	Add	Anchorage Area 10 PT 2 OF 4	(Chart No. 1: N12.1)	N 39 52' 58.000"	W 075 10' 29.000"	39.88278	-75.17472	LNM 29/16, 5th Dist	669	12312_1	7/14/2016
12312	Add	Anchorage Area 10 PT 3 OF 4	(Chart No. 1: N12.1)	N 39 52' 56.000"	W 075 09' 53.000"	39.88222	-75.16472	LNM 29/16, 5th Dist	669	12312_1	7/14/2016
12312	Add	Anchorage Area 10 PT 4 OF 4	(Chart No. 1: N12.1)	N 39 53' 07.000"	W 075 09' 54.000"	39.88528	-75.165	LNM 29/16, 5th Dist	669	12312_1	7/14/2016
12312	Change	Anchorage Area Label to:	10 GENERAL ANCHORAGE	N 39 44' 15.450"	W 075 16' 31.550"	39.73763	-75.27543	LNM 29/16, 5th Dist	669	12312_1	7/14/2016
12312	Relocate	Marcus Hook Range Lighted Buoy 9M	G "9M" Fl G 2.5s	N 39 49' 03.396"	W 075 23' 40.484"	39.81761	-75.39458	LNM 19/16, 5th Dist	669	12312_1	5/19/2016
12312	Delete	Pipeline Area  PT 1 OF 2	Chart No. 1: L40.2	N 39 48' 22.890"	W 075 25' 11.960"	39.80636	-75.41999	LNM 08/16, 5th Dist	669	12312_1	2/25/2016
12312	Delete	Pipeline Area  PT 2 OF 2	Chart No. 1: L40.2	N 39 47' 39.900"	W 075 24' 25.860"	39.79442	-75.40718	LNM 08/16, 5th Dist	669	12312_1	2/25/2016
12312	Add	Pipeline Area  PT 1 OF 2	Chart No. 1: L40.2	N 39 48' 25.600"	W 075 25' 06.760"	39.80711	-75.41854	LNM 08/16, 5th Dist	669	12312_1	2/25/2016
12312	Add	Pipeline Area  PT 2 OF 2	Chart No. 1: L40.2	N 39 47' 42.190"	W 075 24' 20.260"	39.79505	-75.40562	LNM 08/16, 5th Dist	669	12312_1	2/25/2016
12312	Delete	Obstruction in Feet	32 Obstn       Chart No. 1: K41	N 39 48' 15.070"	W 075 25' 02.260"	39.80419	-75.4173	LNM 08/16, 5th Dist	669	12312_1	2/25/2016
12312	Add	Obstruction in Feet	41 Obstn       Chart No. 1: K41	N 39 48' 15.070"	W 075 25' 02.260"	39.80419	-75.4173	LNM 08/16, 5th Dist	669	12312_1	2/25/2016
12312	Change	Tabulation - CHRISTINA RIVER CHANNEL DEPTHS	Tabulation - CHRISTINA RIVER CHANNEL DEPTHS	N 39 46' 50.000"	W 075 31' 47.000"	39.78056	-75.52972	LNM 04/16, 5th Dist	669	12312_1	1/21/2016
12312	Add	Obstruction in Feet	32 Obstn       Chart No. 1: K41	N 39 48' 15.070"	W 075 25' 02.260"	39.80419	-75.4173	LNM 01/16, 5th Dist	669	12312_1	12/31/2015
12312	Change	Tabulation - Christina River Channel Depths	Tabulation - Christina River Channel Depths	N 39 46' 50.000"	W 075 31' 47.000"	39.78056	-75.52972	LNM 46/15, 5th Dist	669	12312_1	11/19/2015
12312	Relocate	Marcus Hook Anchorage Buoy A	Y N "A"	N 39 47' 47.590"	W 075 25' 03.127"	39.79655	-75.41753	LNM 40/15, 5th Dist	669	12312_1	10/22/2015
12312	Change	Tabulation - Christina River Channel Depths	Tabulation - Christina River Channel Depths	N 39 46' 50.000"	W 075 31' 47.000"	39.78056	-75.52972	LNM 39/15, 5th Dist	669	12312_1	10/22/2015
12312	Change	Grubbs Landing Light	Fl 4s 16ft 6M (delete RED SECTOR)	N 39 47' 08.517"	W 075 27' 51.385"	39.7857	-75.46427	LNM 35/15, 5th Dist	669	12312_1	9/10/2015
12312	Change	Depth Legend - Approach Channel to Excelon Power Generating Station to:	27 FT 2014	N 39 51' 13.100"	W 075 19' 34.100"	39.85364	-75.32614	LNM 36/15, 5th Dist	669	12312_1	9/3/2015
12312	Add	Dangerous Submerged Rock	Rk PA   (Chart No. 1: K13)	N 39 51' 08.600"	W 075 19' 39.300"	39.85239	-75.32758	LNM 36/15, 5th Dist	669	12312_1	9/3/2015
12312	Change	Tabulation - DELAWARE RIVER CHANNEL DEPTHS	Tabulation - DELAWARE RIVER CHANNEL DEPTHS	N 39 58' 16.000"	W 075 22' 42.000"	39.97111	-75.37833	LNM 16/15, 5th Dist	669	12312_1	4/23/2015
12312	Change	Tabulation - CHRISTINA RIVER CHANNEL DEPTHS	Tabulation - CHRISTINA RIVER CHANNEL DEPTHS	N 39 46' 50.000"	W 075 31' 47.000"	39.78056	-75.52972	LNM 14/15, 5th Dist	669	12312_1	4/2/2015
12312	Change	NOTE D to:	Depths outside the USACE authorized channels refer to Christina River Datum.	N 39 42' 42.450"	W 075 33' 18.450"	39.71179	-75.55512	LNM 14/15, 5th Dist	669	12312_1	4/2/2015
12312	Relocate	Marcus Hook Range Lighted Buoy 1M	G "1M" Fl G 2.5s	N 39 47' 23.907"	W 075 26' 58.702"	39.78997	-75.44964	LNM 06/15, 5th Dist	669	12312_1	2/19/2015
12312	Change	Tabulation - CHRISTINA RIVER CHANNEL DEPTHS	Tabulation - CHRISTINA RIVER CHANNEL DEPTHS	N 39 46' 50.000"	W 075 31' 47.000"	39.78056	-75.52972	LNM 51/14, 5th Dist	669	12312_1	12/18/2014
12312	Change	Marcus Hook Range Lighted Buoy 2M	R "2M" Q R (delete BELL)	N 39 46' 54.708"	W 075 27' 27.000"	39.78186	-75.4575	LNM 49/14, 5th Dist	669	12312_1	12/18/2014
12312	Add	Obstruction in Feet	37 Obstns       Chart No. 1: K41	N 39 48' 59.310"	W 075 23' 05.650"	39.81647	-75.3849	LNM 49/14, 5th Dist	669	12312_1	12/4/2014
12312	Relocate	Eagle Point Buoy 46	R N "46"	N 39 52' 47.816"	W 075 10' 00.189"	39.87995	-75.16672	LNM 42/14, 5th Dist	669	12312_1	10/23/2014
12312	Relocate	Eagle Point Lighted Buoy 44A	R "44A" Q R	N 39 52' 49.126"	W 075 10' 25.074"	39.88031	-75.17363	LNM 42/14, 5th Dist	669	12312_1	10/23/2014
12312	Relocate	Mifflin Range Buoy 3F	G C "3F"	N 39 51' 53.080"	W 075 13' 31.904"	39.86475	-75.22553	LNM 42/14, 5th Dist	669	12312_1	10/23/2014
12312	Relocate	Elbow Lighted Bell Buoy 44	R "44" Q R BELL	N 39 52' 42.681"	W 075 11' 45.372"	39.87852	-75.19594	LNM 42/14, 5th Dist	669	12312_1	10/23/2014
12312	Relocate	Mantua Creek Anchorage Buoy C	Y N "C"	N 39 52' 32.856"	W 075 12' 01.161"	39.87579	-75.20033	LNM 42/14, 5th Dist	669	12312_1	10/23/2014
12312	Change	Tabulation - DELAWARE RIVER CHANNEL DEPTHS	Tabulation - DELAWARE RIVER CHANNEL DEPTHS	N 39 58' 16.000"	W 075 22' 42.000"	39.97111	-75.37833	LNM 42/14, 5th Dist	669	12312_1	10/16/2014
12312	Change	Tabulation - CHRISTINA RIVER CHANNEL DEPTHS	Tabulation - CHRISTINA RIVER CHANNEL DEPTHS	N 39 46' 50.000"	W 075 31' 47.000"	39.78056	-75.52972	LNM 40/14, 5th Dist	669	12312_1	10/9/2014
12312	Change	Tabulation - CHRISTINA RIVER CHANNEL DEPTHS	Tabulation - CHRISTINA RIVER CHANNEL DEPTHS	N 39 46' 50.000"	W 075 31' 47.000"	39.78056	-75.52972	LNM 26/14, 5th Dist	669	12312_1	7/3/2014
12312	Relocate	Petty Island Lower End Buoy P	RG N "P"	N 39 57' 44.432"	W 075 07' 26.209"	39.96234	-75.12395	LNM 22/14, 5th Dist	669	12312_1	6/12/2014
12312	Add	Bridge Construction PT 1 OF 2	Chart No. 1: D.d, with magenta screen extending 500 feet from bridge	N 39 57' 13.700"	W 075 08' 21.900"	39.9538	-75.13942	LNM 20/14, 5th Dist	669	12312_1	5/22/2014
12312	Add	Bridge Construction PT 2 OF 2	Chart No. 1: D.d, with magenta screen extending 500 feet from bridge	N 39 57' 07.300"	W 075 07' 45.600"	39.95203	-75.12933	LNM 20/14, 5th Dist	669	12312_1	5/22/2014
12312	Change	Text - BENJAMIN FRANKLIN BRIDGE to:	Bridge under construction (see note)	N 39 57' 10.700"	W 075 08' 05.100"	39.95297	-75.13475	LNM 20/14, 5th Dist	669	12312_1	5/22/2014
12312	Change	tabulation - CHRISTINA RIVER CHANNEL DEPTHS	tabulation - CHRISTINA RIVER CHANNEL DEPTHS	N 39 46' 50.000"	W 075 31' 47.000"	39.78056	-75.52972	LNM 15/14, 5th Dist	669	12312_1	4/17/2014
12312	Add	Bridge Construction PT 1 OF 2	Chart No. 1: D.d, with magenta screen extending 500 feet from bridge	N 39 50' 29.100"	W 075 13' 57.670"	39.84142	-75.23269	LNM 14/14, 5th Dist	669	12312_1	4/10/2014
12312	Add	Bridge Construction PT 2 OF 2	Chart No. 1: D.d, with magenta screen extending 500 feet from bridge	N 39 50' 24.680"	W 075 13' 55.740"	39.84019	-75.23215	LNM 14/14, 5th Dist	669	12312_1	4/10/2014
12312	Add	Bridge Construction Note	CAUTION Fixed and floating obstructions, some submerged, may exist within the magenta tinted bridge construction area. Mariners are advised to proceed with caution.	N 39 49' 38.700"	W 075 12' 06.700"	39.82742	-75.20186	LNM 14/14, 5th Dist	669	12312_1	4/10/2014
12312	Add	Bridge Construction Label	Bridge under construction (see note)	N 39 50' 27.000"	W 075 13' 56.700"	39.84083	-75.23241	LNM 14/14, 5th Dist	669	12312_1	4/10/2014
12312	Change	Depth Legend - DELAWARE RIVER to:	27 1/2 FT DEC 2013	N 39 51' 16.000"	W 075 19' 31.000"	39.85444	-75.32528	LNM 14/14, 5th Dist	669	12312_1	4/10/2014
12312	Relocate	Delaware River Lighted Buoy 52	R "52" Fl R 2.5s	N 39 58' 26.894"	W 075 05' 41.986"	39.97414	-75.09499	LNM 11/14, 5th Dist	669	12312_1	3/27/2014
12312	Delete	Big Timber Creek Light 1	Q G 23ft 4M "1"	N 39 53' 12.524"	W 075 08' 04.339"	39.88681	-75.13454	LNM 10/14, 5th Dist	669	12312_1	3/13/2014
12312	Change	Mantua Creek Upper Jetty Light 1M	Fl G 2.5s 15ft 3M "1M"	N 39 51' 12.857"	W 075 13' 47.965"	39.85357	-75.22999	LNM 10/14, 5th Dist	669	12312_1	3/13/2014
12312	Change	Bellevue Range Rear Light	F G 60ft (Day) F G 63ft (Night)	N 39 43' 41.209"	W 075 30' 38.440"	39.72812	-75.51068	LNM 09/14, 5th Dist	669	12312_1	3/13/2014
12312	Delete	Big Timber Creek Channel Buoy 2	R N "2"	N 39 53' 11.408"	W 075 08' 06.635"	39.8865	-75.13518	LNM 09/14, 5th Dist	669	12312_1	3/13/2014
12312	Delete	Big Timber Creek Channel Buoy 4	R N "4"	N 39 53' 03.830"	W 075 07' 54.063"	39.8844	-75.13168	LNM 09/14, 5th Dist	669	12312_1	3/13/2014
12312	Delete	Big Timber Creek Channel Buoy 6	R N "6"	N 39 53' 02.410"	W 075 07' 46.335"	39.884	-75.12954	LNM 09/14, 5th Dist	669	12312_1	3/13/2014
12312	Delete	Fisher Point Jetty Buoy 2	R N "2"	N 39 58' 22.905"	W 075 05' 01.926"	39.97303	-75.08387	LNM 09/14, 5th Dist	669	12312_1	3/13/2014
12312	Delete	Mantua Creek Channel Buoy 4	R N "4"	N 39 51' 10.007"	W 075 13' 48.155"	39.85278	-75.23004	LNM 09/14, 5th Dist	669	12312_1	3/13/2014
12312	Change	Mantua Creek Channel Buoy 2	R N "2"	N 39 51' 04.307"	W 075 13' 42.455"	39.8512	-75.22846	LNM 09/14, 5th Dist	669	12312_1	3/13/2014
12312	Add	Sounding in Feet	37	N 39 48' 40.320"	W 075 23' 26.130"	39.8112	-75.39059	LNM 01/14, 5th Dist	669	12312_1	1/9/2014
12312	Change	tabulation - Delaware River Channel	tabulation - Delaware River Channel	N 39 58' 16.000"	W 075 22' 42.000"	39.97111	-75.37833	LNM 52/13, 5th Dist	669	12312_1	12/17/2013
12312	Delete	Anchorage Area PT 1 OF 2	Anchorage Area, (use Chart No. 1 N12.1)	N 39 51' 12.680"	W 075 14' 24.200"	39.85352	-75.24006	LNM 40/13, 5th Dist	669	12312_1	9/30/2013
12312	Delete	Anchorage Area PT 2 OF 2	Anchorage Area, (use Chart No. 1 N12.1)	N 39 51' 35.810"	W 075 13' 43.340"	39.85995	-75.22871	LNM 40/13, 5th Dist	669	12312_1	9/30/2013
12312	Add	Anchorage Area PT 1 OF 3	Anchorage Area, (use Chart No. 1 N12.1)	N 39 51' 12.610"	W 075 14' 24.260"	39.8535	-75.24007	LNM 40/13, 5th Dist	669	12312_1	9/30/2013
12312	Add	Anchorage Area PT 2 OF 3	Anchorage Area, (use Chart No. 1 N12.1)	N 39 51' 14.310"	W 075 14' 17.550"	39.85397	-75.2382	LNM 40/13, 5th Dist	669	12312_1	9/30/2013
12312	Add	Anchorage Area PT 3 OF 3	Anchorage Area, (use Chart No. 1 N12.1)	N 39 51' 40.330"	W 075 13' 35.360"	39.8612	-75.22649	LNM 40/13, 5th Dist	669	12312_1	9/30/2013
12312	Delete	Channel Limits PT 1 OF 6	Chart No. 1: I20	N 39 52' 55.840"	W 075 09' 52.950"	39.88218	-75.16471	LNM 40/13, 5th Dist	669	12312_1	9/30/2013
12312	Delete	Channel Limits PT 2 OF 6	Chart No. 1: I20	N 39 52' 53.810"	W 075 09' 14.660"	39.88161	-75.15408	LNM 40/13, 5th Dist	669	12312_1	9/30/2013
12312	Delete	Channel Limits PT 4 OF 6	Chart No. 1: I20	N 39 52' 59.330"	W 075 08' 40.660"	39.88315	-75.14463	LNM 40/13, 5th Dist	669	12312_1	9/30/2013
12312	Delete	Channel Limits PT 5 OF 6	Chart No. 1: I20	N 39 53' 04.590"	W 075 08' 33.330"	39.88461	-75.14259	LNM 40/13, 5th Dist	669	12312_1	9/30/2013
12312	Delete	Channel Limits PT 6 OF 6	Chart No. 1: I20	N 39 53' 19.150"	W 075 08' 24.200"	39.88865	-75.14005	LNM 40/13, 5th Dist	669	12312_1	9/30/2013
12312	Add	Channel Limits PT 1 OF 6	Chart No. 1: I20	N 39 52' 55.840"	W 075 09' 52.950"	39.88218	-75.16471	LNM 40/13, 5th Dist	669	12312_1	9/30/2013
12312	Add	Channel Limits PT 2 OF 6	Chart No. 1: I20	N 39 52' 56.310"	W 075 09' 02.130"	39.88231	-75.15059	LNM 40/13, 5th Dist	669	12312_1	9/30/2013
12312	Add	Channel Limits PT 3 OF 6	Chart No. 1: I20	N 39 53' 00.460"	W 075 08' 49.560"	39.88346	-75.1471	LNM 40/13, 5th Dist	669	12312_1	9/30/2013
12312	Add	Channel Limits PT 4 OF 6	Chart No. 1: I20	N 39 53' 08.490"	W 075 08' 35.310"	39.88569	-75.14314	LNM 40/13, 5th Dist	669	12312_1	9/30/2013
12312	Add	Channel Limits PT 5 OF 6	Chart No. 1: I20	N 39 53' 18.090"	W 075 08' 24.910"	39.88836	-75.14025	LNM 40/13, 5th Dist	669	12312_1	9/30/2013
12312	Add	Channel Limits PT 6 OF 6	Chart No. 1: I20	N 39 53' 19.150"	W 075 08' 24.200"	39.88865	-75.14005	LNM 40/13, 5th Dist	669	12312_1	9/30/2013
12312	Delete	Channel Limits PT 1 OF 2	Chart No. 1: I20	N 39 51' 12.610"	W 075 14' 24.710"	39.8535	-75.2402	LNM 40/13, 5th Dist	669	12312_1	9/30/2013
12312	Delete	Channel Limits PT 2 OF 2	Chart No. 1: I20	N 39 51' 39.040"	W 075 13' 38.110"	39.86084	-75.22725	LNM 40/13, 5th Dist	669	12312_1	9/30/2013
12312	Add	Channel Limits PT 1 OF 3	Chart No. 1: I20	N 39 51' 12.610"	W 075 14' 24.710"	39.8535	-75.2402	LNM 40/13, 5th Dist	669	12312_1	9/30/2013
12312	Add	Channel Limits PT 2 OF 3	Chart No. 1: I20	N 39 51' 14.500"	W 075 14' 17.800"	39.85403	-75.23828	LNM 40/13, 5th Dist	669	12312_1	9/30/2013
12312	Add	Channel Limits PT 3 OF 3	Chart No. 1: I20	N 39 51' 39.040"	W 075 13' 38.110"	39.86084	-75.22725	LNM 40/13, 5th Dist	669	12312_1	9/30/2013
12312	Delete	Sounding in Feet	38	N 39 52' 55.890"	W 075 09' 33.830"	39.88219	-75.1594	LNM 40/13, 5th Dist	669	12312_1	9/30/2013
12312	Delete	Sounding in Feet	38	N 39 52' 56.500"	W 075 08' 58.150"	39.88236	-75.14948	LNM 40/13, 5th Dist	669	12312_1	9/30/2013
12312	Delete	Sounding in Feet	42	N 39 53' 03.280"	W 075 08' 36.710"	39.88424	-75.14353	LNM 40/13, 5th Dist	669	12312_1	9/30/2013
12312	Delete	Channel Limits PT 3 OF 6	Chart No. 1: I20	N 39 52' 54.910"	W 075 08' 50.910"	39.88192	-75.14748	LNM 40/13, 5th Dist	669	12312_1	12/2/2013
12312	Change	tabulation - DELAWARE RIVER CHANNEL	tabulation - DELAWARE RIVER CHANNEL	N 39 58' 16.000"	W 075 22' 42.000"	39.97111	-75.37833	LNM 40/13, 5th Dist	669	12312_1	9/30/2013
12312	Change	Depth Legend - SCHUYLKILL RIVER (Range 1) to:	32 FT APR 2013	N 39 52' 58.300"	W 075 11' 46.900"	39.88286	-75.19636	LNM 35/13, 5th Dist	669	12312_1	8/29/2013
12312	Change	Depth Legend - SCHUYLKILL RIVER (Range 2) to:	29 FT 2013	N 39 53' 19.300"	W 075 11' 41.300"	39.88869	-75.19481	LNM 35/13, 5th Dist	669	12312_1	8/29/2013
12312	Change	Depth Legend - SCHUYLKILL RIVER (Range 3) to:	30 FT	N 39 53' 31.100"	W 075 11' 45.300"	39.89197	-75.19592	LNM 35/13, 5th Dist	669	12312_1	8/29/2013
12312	Change	tabulation - Deleware River Channel Depths	tabulation - Deleware River Channel Depths	N 39 58' 16.000"	W 075 22' 42.000"	39.97111	-75.37833	LNM 34/13, 5th Dist	669	12312_1	8/14/2013
12312	Change	tabulation - Christina River Channel Depths	tabulation - Christina River Channel Depths	N 39 46' 50.000"	W 075 31' 47.000"	39.78056	-75.52972	LNM 34/13, 5th Dist	669	12312_1	8/14/2013
12312	Change	tabulation - DELAWARE RIVER CHANNEL DEPTHS	tabulation - DELAWARE RIVER CHANNEL DEPTHS	N 39 58' 16.000"	W 075 22' 42.000"	39.97111	-75.37833	LNM 26/13, 5th Dist	669	12312_1	6/21/2013
12312	Change	Raccoon Creek Jetty Light 2	Fl R 4s 15ft 4M "2RC"	N 39 48' 34.101"	W 075 23' 02.740"	39.80947	-75.38409	LNM 24/13, 5th Dist	669	12312_1	6/17/2013
12312	Delete	Raccoon Creek Jetty Lighted Buoy 2	R "2" Fl R 4s	N 39 48' 34.098"	W 075 23' 02.730"	39.80947	-75.38409	LNM 21/13, 5th Dist	669	12312_1	5/24/2013
12312	Add	Raccoon Creek Jetty Light 2	Fl R 4s 15ft 4M "2"	N 39 48' 34.101"	W 075 23' 02.740"	39.80947	-75.38409	LNM 21/13, 5th Dist	669	12312_1	5/24/2013
12312	Change	tabulation - Christina River Channel Depths	tabulation - Christina River Channel Depths	N 39 46' 50.000"	W 075 31' 47.000"	39.78056	-75.52972	LNM 14/13, 5th Dist	669	12312_1	4/2/2013
12312	Change	Back Channel Light 1BC	Fl G 2.5s 15ft 3M "1BC"	N 39 57' 29.816"	W 075 06' 27.972"	39.95828	-75.10777	LNM 07/13, 5th Dist	669	12312_1	2/21/2013
12312	Delete	Schuylkill River Entrance Fog Signal	Horn	N 39 53' 06.000"	W 075 11' 48.000"	39.885	-75.19666	LNM 06/13, 5th Dist	669	12312_1	2/15/2013
12312	Change	Cherry Island Range Front Passing Lights (2)	2 Fl 4s 15ft 4M	N 39 45' 02.168"	W 075 29' 39.054"	39.7506	-75.49418	LNM 04/13, 5th Dist	669	12312_1	1/23/2013
12312	Change	Christina River South Jetty Light 1CR	Fl G 2.5s 21ft 6M "1CR"	N 39 42' 54.908"	W 075 30' 45.013"	39.71525	-75.5125	LNM 04/13, 5th Dist	669	12312_1	1/23/2013
12312	Relocate	Horseshoe Lighted Buoy 37	G "37" Q G	N 39 53' 08.599"	W 075 08' 35.452"	39.88572	-75.14318	LNM 01/13, 5th Dist	669	12312_1	1/7/2013
12312	Relocate	Horseshoe Lower Lighted Buoy 35	G "35" Q G	N 39 53' 00.670"	W 075 08' 49.700"	39.88352	-75.14714	LNM 01/13, 5th Dist	669	12312_1	1/7/2013
12312	Change	Horseshoe Lower Lighted Buoy 35	G "35" Fl G 2.5s	N 39 53' 00.670"	W 075 08' 49.700"	39.88352	-75.14714	LNM 01/13, 5th Dist	669	12312_1	1/7/2013
12312	Add	Horseshoe Lower Lighted Buoy 33	G "33" Q G	N 39 52' 56.349"	W 075 09' 05.379"	39.88232	-75.1515	LNM 01/13, 5th Dist	669	12312_1	1/7/2013
12312	Change	tabulation - Christina River Channel Depths	tabulation - Christina River Channel Depths	N 39 46' 50.000"	W 075 31' 47.000"	39.78056	-75.52972	LNM 49/12, 5th Dist	669	12312_1	11/29/2012
12312	Delete	Obstruction	Obstn PA         Chart No. 1: K40	N 39 48' 00.000"	W 075 24' 41.700"	39.8	-75.41158	LNM 48/12, 5th Dist	669	12312_1	11/20/2012
12312	Add	Pier in Ruins PT 1 OF 4	Ruins    Chart No. 1 F33.1 \ F33.2	N 39 56' 16.950"	W 075 08' 24.600"	39.93804	-75.14017	LNM 42/12, 5th Dist	669	12312_1	10/15/2012
12312	Add	Pier in Ruins PT 2 OF 4	Ruins    Chart No. 1 F33.1 \ F33.2	N 39 56' 16.700"	W 075 08' 23.200"	39.93797	-75.13978	LNM 42/12, 5th Dist	669	12312_1	10/15/2012
12312	Add	Pier in Ruins PT 3 OF 4	Ruins    Chart No. 1 F33.1 \ F33.2	N 39 56' 17.700"	W 075 08' 23.200"	39.93825	-75.13978	LNM 42/12, 5th Dist	669	12312_1	10/15/2012
12312	Add	Pier in Ruins PT 4 OF 4	Ruins    Chart No. 1 F33.1 \ F33.2	N 39 56' 17.940"	W 075 08' 24.600"	39.93832	-75.14017	LNM 42/12, 5th Dist	669	12312_1	10/15/2012
12312	Add	Obstruction in Feet	Obstn (24 ft)       Chart No. 1: K41	N 39 57' 47.000"	W 075 07' 50.300"	39.96305	-75.13064	LNM 42/12, 5th Dist	669	12312_1	10/15/2012
12312	Delete	Dolphin	Dol   Chart No. 1: F20	N 39 57' 47.000"	W 075 07' 50.300"	39.96305	-75.13064	LNM 42/12, 5th Dist	669	12312_1	10/15/2012
12312	Delete	Obstruction in Feet	16 Obstn       Chart No. 1: K41	N 39 58' 09.700"	W 075 06' 18.400"	39.96936	-75.10511	LNM 42/12, 5th Dist	669	12312_1	10/15/2012
12312	Add	Sounding in Feet	14	N 39 58' 30.600"	W 075 05' 02.000"	39.97517	-75.08389	LNM 42/12, 5th Dist	669	12312_1	10/15/2012
12312	Delete	Obstruction in Feet	33 Obstn       Chart No. 1: K41	N 39 58' 58.200"	W 075 04' 11.700"	39.98283	-75.06992	LNM 42/12, 5th Dist	669	12312_1	10/15/2012
12312	Add	Sounding in Feet	6	N 39 59' 04.500"	W 075 04' 11.500"	39.98458	-75.06986	LNM 42/12, 5th Dist	669	12312_1	10/15/2012
12312	Add	Sounding in Feet	10	N 39 59' 05.100"	W 075 03' 47.200"	39.98475	-75.06311	LNM 42/12, 5th Dist	669	12312_1	10/15/2012
12312	Change	tabulation - Delaware River Channel Depths	tabulation - Delaware River Channel Depths	N 39 58' 16.000"	W 075 22' 42.000"	39.97111	-75.37833	LNM 41/12, 5th Dist	669	12312_1	10/10/2012
12312	Relocate	Bellevue Range Front Light	Fl G 2.5s 39ft (Day) Fl G 2.5s 36ft (Night)	N 39 44' 07.338"	W 075 30' 14.298"	39.73537	-75.50397	LNM 33/12, 5th Dist	669	12312_1	8/22/2012
12312	Relocate	Bellevue Range Rear Light	F G 90ft (Day) F G 93ft (Night)	N 39 43' 41.209"	W 075 30' 38.440"	39.72812	-75.51068	LNM 33/12, 5th Dist	669	12312_1	8/22/2012
12312	Add	Eagle Point Range Lighted Research Buoy B	Y "B" Fl Y 4s Priv	N 39 52' 48.090"	W 075 10' 14.962"	39.88002	-75.17082	LNM 29/12, 5th Dist	669	12312_1	7/19/2012
12312	Add	Marcus Hook Lighted Research Buoy C	Y "C" Fl Y 4s Priv	N 39 47' 31.880"	W 075 26' 21.412"	39.79219	-75.43928	LNM 29/12, 5th Dist	669	12312_1	7/19/2012
12312	Change	tabulation - Delaware River Channel Depths	tabulation - Delaware River Channel Depths	N 39 58' 16.000"	W 075 22' 42.000"	39.97111	-75.37833	LNM 24/12, 5th Dist	669	12312_1	6/11/2012
12312	Relocate	Tinicum Island Range Lighted Buoy 5T	G "5T" Q G	N 39 50' 59.307"	W 075 15' 53.463"	39.84981	-75.26485	LNM 20/12, 5th Dist	669	12312_1	5/30/2012
12313	Relocate	Mantua Creek Anchorage Buoy B	Y N "B"	N 39 52' 09.941"	W 075 12' 15.321"	39.86943	-75.20425	LNM 18/17, 5th Dist	670	12313_1	5/11/2017
12313	Change	Tabulation - DELAWARE RIVER CHANNEL DEPTHS	Tabulation - DELAWARE RIVER CHANNEL DEPTHS	N 39 54' 33.000"	W 075 09' 47.000"	39.90917	-75.16306	LNM 16/17, 5th Dist	670	12313_1	4/20/2017
12313	Delete	Restricted Anchorage Area PT 5 OF 5	(Chart No. 1 N20)	N 39 54' 52.920"	W 075 07' 34.560"	39.9147	-75.12627	LNM 13/17, 5th Dist	670	12313_1	3/30/2017
12313	Add	Anchorage Area 11 PT 7 OF 7	(Chart No. 1 N12.1)	N 39 53' 59.290"	W 075 07' 42.910"	39.8998	-75.12859	LNM 13/17, 5th Dist	670	12313_1	3/30/2017
12313	Delete	Restricted Anchorage Area Label	RESTRICTED ANCHORAGE	N 39 55' 01.580"	W 075 07' 42.610"	39.91711	-75.1285	LNM 13/17, 5th Dist	670	12313_1	3/23/2017
12313	Add	Anchorage Area 11 PT 1 OF 7	(Chart No. 1 N12.1)	N 39 54' 04.360"	W 075 07' 41.420"	39.90121	-75.12817	LNM 13/17, 5th Dist	670	12313_1	3/23/2017
12313	Add	Anchorage Area 11 PT 2 OF 7	(Chart No. 1 N12.1)	N 39 54' 09.400"	W 075 07' 43.000"	39.90261	-75.12861	LNM 13/17, 5th Dist	670	12313_1	3/23/2017
12313	Add	Anchorage Area 11 PT 3 OF 7	(Chart No. 1 N12.1)	N 39 54' 10.000"	W 075 07' 45.000"	39.90278	-75.12917	LNM 13/17, 5th Dist	670	12313_1	3/23/2017
12313	Add	Anchorage Area 11 PT 4 OF 7	(Chart No. 1 N12.1)	N 39 53' 36.600"	W 075 08' 00.600"	39.8935	-75.1335	LNM 13/17, 5th Dist	670	12313_1	3/23/2017
12313	Add	Anchorage Area 11 PT 5 OF 7	(Chart No. 1 N12.1)	N 39 53' 09.600"	W 075 08' 17.000"	39.886	-75.13805	LNM 13/17, 5th Dist	670	12313_1	3/23/2017
12313	Add	Anchorage Area 11 PT 6 OF 7	(Chart No. 1 N12.1)	N 39 53' 30.500"	W 075 07' 57.700"	39.8918	-75.1327	LNM 13/17, 5th Dist	670	12313_1	3/23/2017
12313	Delete	Anchorage Area 12 PT 1 OF 4	(Chart No. 1 N12.1)	N 39 54' 09.120"	W 075 07' 42.560"	39.90253	-75.12849	LNM 13/17, 5th Dist	670	12313_1	3/23/2017
12313	Delete	Anchorage Area 12 PT 2 OF 4	(Chart No. 1 N12.1)	N 39 54' 16.110"	W 075 07' 43.670"	39.90448	-75.1288	LNM 13/17, 5th Dist	670	12313_1	3/23/2017
12313	Delete	Anchorage Area 12 PT 3 OF 4	(Chart No. 1 N12.1)	N 39 56' 32.810"	W 075 08' 09.640"	39.94245	-75.13601	LNM 13/17, 5th Dist	670	12313_1	3/23/2017
12313	Delete	Anchorage Area 12 PT 4 OF 4	(Chart No. 1 N12.1)	N 39 56' 27.850"	W 075 08' 02.490"	39.94107	-75.13403	LNM 13/17, 5th Dist	670	12313_1	3/23/2017
12313	Add	Anchorage Area 12 PT 1 OF 19	(Chart No. 1 N12.1)	N 39 54' 26.130"	W 075 07' 41.920"	39.90726	-75.12831	LNM 13/17, 5th Dist	670	12313_1	3/23/2017
12313	Add	Anchorage Area 12 PT 2 OF 19	(Chart No. 1 N12.1)	N 39 54' 30.400"	W 075 07' 41.130"	39.90844	-75.12809	LNM 13/17, 5th Dist	670	12313_1	3/23/2017
12313	Add	Anchorage Area 12 PT 3 OF 19	(Chart No. 1 N12.1)	N 39 54' 44.280"	W 075 07' 41.890"	39.9123	-75.1283	LNM 13/17, 5th Dist	670	12313_1	3/23/2017
12313	Add	Anchorage Area 12 PT 4 OF 19	(Chart No. 1 N12.1)	N 39 54' 55.520"	W 075 07' 44.860"	39.91542	-75.12913	LNM 13/17, 5th Dist	670	12313_1	3/23/2017
12313	Add	Anchorage Area 12 PT 5 OF 19	(Chart No. 1 N12.1)	N 39 55' 30.070"	W 075 08' 01.110"	39.92502	-75.13364	LNM 13/17, 5th Dist	670	12313_1	3/23/2017
12313	Add	Anchorage Area 12 PT 6 OF 19	(Chart No. 1 N12.1)	N 39 55' 51.640"	W 075 08' 08.070"	39.93101	-75.13557	LNM 13/17, 5th Dist	670	12313_1	3/23/2017
12313	Add	Anchorage Area 12 PT 7 OF 19	(Chart No. 1 N12.1)	N 39 56' 03.230"	W 075 08' 09.790"	39.93423	-75.13605	LNM 13/17, 5th Dist	670	12313_1	3/23/2017
12313	Add	Anchorage Area 12 PT 8 OF 19	(Chart No. 1 N12.1)	N 39 56' 37.030"	W 075 08' 09.730"	39.94362	-75.13604	LNM 13/17, 5th Dist	670	12313_1	3/23/2017
12313	Add	Anchorage Area 12 PT 9 OF 19	(Chart No. 1 N12.1)	N 39 56' 50.450"	W 075 08' 07.150"	39.94735	-75.13532	LNM 13/17, 5th Dist	670	12313_1	3/23/2017
12313	Add	Anchorage Area 12 PT 10 OF 19	(Chart No. 1 N12.1)	N 39 57' 02.070"	W 075 08' 04.310"	39.95058	-75.13453	LNM 13/17, 5th Dist	670	12313_1	3/23/2017
12313	Add	Anchorage Area 12 PT 11 OF 19	(Chart No. 1 N12.1)	N 39 57' 04.920"	W 075 08' 03.370"	39.95137	-75.13427	LNM 13/17, 5th Dist	670	12313_1	3/23/2017
12313	Add	Anchorage Area 12 PT 12 OF 19	(Chart No. 1 N12.1)	N 39 57' 04.300"	W 075 07' 57.300"	39.95119	-75.13258	LNM 13/17, 5th Dist	670	12313_1	3/23/2017
12313	Add	Anchorage Area 12 PT 13 OF 19	(Chart No. 1 N12.1)	N 39 56' 51.700"	W 075 08' 01.300"	39.94769	-75.1337	LNM 13/17, 5th Dist	670	12313_1	3/23/2017
12313	Add	Anchorage Area 12 PT 14 OF 19	(Chart No. 1 N12.1)	N 39 56' 35.500"	W 075 08' 03.100"	39.9432	-75.13419	LNM 13/17, 5th Dist	670	12313_1	3/23/2017
12313	Add	Anchorage Area 12 PT 15 OF 19	(Chart No. 1 N12.1)	N 39 56' 02.800"	W 075 08' 02.000"	39.93411	-75.13389	LNM 13/17, 5th Dist	670	12313_1	3/23/2017
12313	Add	Anchorage Area 12 PT 16 OF 19	(Chart No. 1 N12.1)	N 39 55' 34.700"	W 075 07' 54.500"	39.9263	-75.13181	LNM 13/17, 5th Dist	670	12313_1	3/23/2017
12313	Add	Anchorage Area 12 PT 17 OF 19	(Chart No. 1 N12.1)	N 39 54' 45.700"	W 075 07' 32.500"	39.91269	-75.12569	LNM 13/17, 5th Dist	670	12313_1	3/23/2017
12313	Add	Anchorage Area 12 PT 18 OF 19	(Chart No. 1 N12.1)	N 39 54' 33.800"	W 075 07' 32.900"	39.90939	-75.12581	LNM 13/17, 5th Dist	670	12313_1	3/23/2017
12313	Add	Anchorage Area 12 PT 19 OF 19	(Chart No. 1 N12.1)	N 39 54' 25.200"	W 075 07' 36.100"	39.907	-75.12669	LNM 13/17, 5th Dist	670	12313_1	3/23/2017
12313	Delete	Anchorage Area 13 PT 1 OF 6	(Chart No. 1 N12.1)	N 39 56' 32.810"	W 075 08' 09.670"	39.94245	-75.13602	LNM 13/17, 5th Dist	670	12313_1	3/23/2017
12313	Delete	Anchorage Area 13 PT 2 OF 6	(Chart No. 1 N12.1)	N 39 57' 22.660"	W 075 07' 56.700"	39.9563	-75.13242	LNM 13/17, 5th Dist	670	12313_1	3/23/2017
12313	Delete	Anchorage Area 13 PT 3 OF 6	(Chart No. 1 N12.1)	N 39 57' 39.700"	W 075 07' 40.080"	39.96103	-75.1278	LNM 13/17, 5th Dist	670	12313_1	3/23/2017
12313	Delete	Anchorage Area 13 PT 4 OF 6	(Chart No. 1 N12.1)	N 39 57' 35.170"	W 075 07' 35.130"	39.95977	-75.12643	LNM 13/17, 5th Dist	670	12313_1	3/23/2017
12313	Delete	Anchorage Area 13 PT 5 OF 6	(Chart No. 1 N12.1)	N 39 57' 21.770"	W 075 07' 50.570"	39.95605	-75.13071	LNM 13/17, 5th Dist	670	12313_1	3/23/2017
12313	Delete	Anchorage Area 13 PT 6 OF 6	(Chart No. 1 N12.1)	N 39 56' 27.850"	W 075 08' 02.480"	39.94107	-75.13403	LNM 13/17, 5th Dist	670	12313_1	3/23/2017
12313	Add	Anchorage Area 13 PT 1 OF 7	(Chart No. 1 N12.1)	N 39 57' 17.000"	W 075 07' 58.000"	39.95472	-75.13277	LNM 13/17, 5th Dist	670	12313_1	3/23/2017
12313	Add	Anchorage Area 13 PT 2 OF 7	(Chart No. 1 N12.1)	N 39 57' 22.300"	W 075 07' 55.900"	39.9562	-75.13219	LNM 13/17, 5th Dist	670	12313_1	3/23/2017
12313	Add	Anchorage Area 13 PT 3 OF 7	(Chart No. 1 N12.1)	N 39 57' 32.000"	W 075 07' 49.400"	39.95889	-75.13039	LNM 13/17, 5th Dist	670	12313_1	3/23/2017
12313	Add	Anchorage Area 13 PT 4 OF 7	(Chart No. 1 N12.1)	N 39 57' 39.200"	W 075 07' 39.700"	39.96089	-75.12769	LNM 13/17, 5th Dist	670	12313_1	3/23/2017
12313	Add	Anchorage Area 13 PT 5 OF 7	(Chart No. 1 N12.1)	N 39 57' 34.900"	W 075 07' 34.700"	39.95969	-75.1263	LNM 13/17, 5th Dist	670	12313_1	3/23/2017
12313	Add	Anchorage Area 13 PT 6 OF 7	(Chart No. 1 N12.1)	N 39 57' 21.200"	W 075 07' 49.800"	39.95589	-75.1305	LNM 13/17, 5th Dist	670	12313_1	3/23/2017
12313	Add	Anchorage Area 13 PT 7 OF 7	(Chart No. 1 N12.1)	N 39 57' 15.100"	W 075 07' 52.700"	39.95419	-75.1313	LNM 13/17, 5th Dist	670	12313_1	3/23/2017
12313	Delete	Anchorage Area 11 PT 1 OF 4	(Chart No. 1 N12.1)	N 39 54' 03.180"	W 075 07' 41.780"	39.90088	-75.12827	LNM 13/17, 5th Dist	670	12313_1	3/23/2017
12313	Delete	Anchorage Area 11 PT 2 OF 4	(Chart No. 1 N12.1)	N 39 54' 16.110"	W 075 07' 43.670"	39.90448	-75.1288	LNM 13/17, 5th Dist	670	12313_1	3/23/2017
12313	Delete	Anchorage Area 11 PT 3 OF 4	(Chart No. 1 N12.1)	N 39 53' 10.030"	W 075 08' 18.090"	39.88612	-75.13836	LNM 13/17, 5th Dist	670	12313_1	3/23/2017
12313	Delete	Anchorage Area 11 PT 4 OF 4	(Chart No. 1 N12.1)	N 39 53' 59.460"	W 075 07' 43.090"	39.89985	-75.12864	LNM 13/17, 5th Dist	670	12313_1	3/23/2017
12313	Delete	Restricted Anchorage Area PT 1 OF 5	(Chart No. 1 N20)	N 39 55' 07.490"	W 075 07' 40.000"	39.91875	-75.12778	LNM 13/17, 5th Dist	670	12313_1	3/23/2017
12313	Delete	Restricted Anchorage Area PT 2 OF 5	(Chart No. 1 N20)	N 39 55' 07.500"	W 075 07' 49.950"	39.91875	-75.13054	LNM 13/17, 5th Dist	670	12313_1	3/23/2017
12313	Delete	Restricted Anchorage Area PT 3 OF 5	(Chart No. 1 N20)	N 39 54' 58.340"	W 075 07' 45.640"	39.91621	-75.12934	LNM 13/17, 5th Dist	670	12313_1	3/23/2017
12313	Delete	Restricted Anchorage Area PT 4 OF 5	(Chart No. 1 N20)	N 39 54' 52.980"	W 075 07' 43.900"	39.91471	-75.12886	LNM 13/17, 5th Dist	670	12313_1	3/23/2017
12313	Delete	Bridge Construction Note	CAUTION Fixed and floating obstructions, some submerged, may exist within the magenta tinted bridge construction area.  Mariners are advised to proceed with caution.	N 39 57' 08.480"	W 075 07' 10.970"	39.95235	-75.11971	LNM 09/17, 5th Dist	670	12313_1	2/23/2017
12313	Change	Fixed Bridge Label	BENJAMIN FRANKLIN FIXED BRIDGE HOR CL 1686 FT VERT CL 128 FT VERT CL 135 FT FOR MIDDLE 800 FT OF SPAN	N 39 57' 12.000"	W 075 08' 12.000"	39.95333	-75.13667	LNM 09/17, 5th Dist	670	12313_1	2/23/2017
12313	Change	Fixed Bridge	Chart No. 1: D22	N 39 57' 12.000"	W 075 08' 12.000"	39.95333	-75.13667	LNM 09/17, 5th Dist	670	12313_1	2/23/2017
12313	Change	Tabulation - DELAWARE RIVER CHANNEL DEPTHS	Tabulation - DELAWARE RIVER CHANNEL DEPTHS	N 39 54' 33.000"	W 075 09' 47.000"	39.90917	-75.16306	LNM 06/17, 5th Dist	670	12313_1	2/2/2017
12313	Change	Tabulation - DELAWARE RIVER CHANNEL DEPTHS	Tabulation - DELAWARE RIVER CHANNEL DEPTHS	N 39 54' 35.090"	W 075 09' 45.530"	39.90975	-75.16264	LNM 02/17, 5th Dist	670	12313_1	1/12/2017
12313	Delete	Anchorage Area 10 PT 1 OF 4	(Chart No. 1: N12.1)	N 39 53' 10.560"	W 075 10' 30.520"	39.88626	-75.17515	LNM 29/16, 5th Dist	670	12313_1	7/14/2016
12313	Delete	Anchorage Area 10 PT 2 OF 4	(Chart No. 1: N12.1)	N 39 52' 57.750"	W 075 10' 28.660"	39.88271	-75.17463	LNM 29/16, 5th Dist	670	12313_1	7/14/2016
12313	Delete	Anchorage Area 10 PT 3 OF 4	(Chart No. 1: N12.1)	N 39 52' 55.930"	W 075 09' 54.690"	39.8822	-75.16519	LNM 29/16, 5th Dist	670	12313_1	7/14/2016
12313	Delete	Anchorage Area 10 PT 4 OF 4	(Chart No. 1: N12.1)	N 39 53' 11.270"	W 075 09' 56.860"	39.88646	-75.16579	LNM 29/16, 5th Dist	670	12313_1	7/14/2016
12313	Add	Anchorage Area 10 PT 1 OF 4	(Chart No. 1: N12.1)	N 39 53' 07.000"	W 075 10' 30.000"	39.88528	-75.175	LNM 29/16, 5th Dist	670	12313_1	7/14/2016
12313	Add	Anchorage Area 10 PT 2 OF 4	(Chart No. 1: N12.1)	N 39 52' 58.000"	W 075 10' 29.000"	39.88278	-75.17472	LNM 29/16, 5th Dist	670	12313_1	7/14/2016
12313	Add	Anchorage Area 10 PT 3 OF 4	(Chart No. 1: N12.1)	N 39 52' 56.000"	W 075 09' 53.000"	39.88222	-75.16472	LNM 29/16, 5th Dist	670	12313_1	7/14/2016
12313	Add	Anchorage Area 10 PT 4 OF 4	(Chart No. 1: N12.1)	N 39 53' 07.000"	W 075 09' 54.000"	39.88528	-75.165	LNM 29/16, 5th Dist	670	12313_1	7/14/2016
12313	Change	Anchorage Area Label to:	10 GENERAL ANCHORAGE	N 39 53' 53.910"	W 075 05' 46.200"	39.89831	-75.09617	LNM 29/16, 5th Dist	670	12313_1	7/14/2016
12313	Add	Safety Zone PT 1 OF 4	Chart No. 1: N1.2	N 39 54' 50.000"	W 075 12' 12.000"	39.91389	-75.20333	LNM 46/15, 5th Dist	670	12313_1	11/19/2015
12313	Add	Safety Zone PT 2 OF 4	Chart No. 1: N1.2	N 39 54' 50.000"	W 075 12' 15.000"	39.91389	-75.20417	LNM 46/15, 5th Dist	670	12313_1	11/19/2015
12313	Add	Safety Zone PT 3 OF 4	Chart No. 1: N1.2	N 39 55' 10.000"	W 075 12' 05.000"	39.91945	-75.20139	LNM 46/15, 5th Dist	670	12313_1	11/19/2015
12313	Add	Safety Zone PT 4 OF 4	Chart No. 1: N1.2	N 39 55' 10.000"	W 075 12' 03.750"	39.91945	-75.20104	LNM 46/15, 5th Dist	670	12313_1	11/19/2015
12313	Add	Safety Zone Label	SAFETY ZONE 165.784 (see note A)	N 39 54' 58.000"	W 075 12' 10.000"	39.91611	-75.20277	LNM 46/15, 5th Dist	670	12313_1	11/19/2015
12313	Change	Tabulation - DELAWARE RIVER CHANNEL DEPTHS	Tabulation - DELAWARE RIVER CHANNEL DEPTHS	N 39 54' 33.000"	W 075 09' 47.000"	39.90917	-75.16306	LNM 16/15, 5th Dist	670	12313_1	4/23/2015
12313	Add	Schuylkill River Buoy 7	G C "7"	N 39 53' 44.917"	W 075 12' 36.986"	39.89581	-75.21027	LNM 43/14, 5th Dist	670	12313_1	11/6/2014
12313	Relocate	Eagle Point Buoy 46	R N "46"	N 39 52' 47.816"	W 075 10' 00.189"	39.87995	-75.16672	LNM 42/14, 5th Dist	670	12313_1	10/23/2014
12313	Relocate	Eagle Point Lighted Buoy 44A	R "44A" Q R	N 39 52' 49.126"	W 075 10' 25.074"	39.88031	-75.17363	LNM 42/14, 5th Dist	670	12313_1	10/23/2014
12313	Relocate	Mifflin Range Buoy 3F	G C "3F"	N 39 51' 53.080"	W 075 13' 31.904"	39.86475	-75.22553	LNM 42/14, 5th Dist	671	12313_2	10/23/2014
12313	Relocate	Elbow Lighted Bell Buoy 44	R "44" Q R BELL	N 39 52' 42.681"	W 075 11' 45.372"	39.87852	-75.19594	LNM 42/14, 5th Dist	670	12313_1	10/23/2014
12313	Relocate	Mantua Creek Anchorage Buoy C	Y N "C"	N 39 52' 32.856"	W 075 12' 01.161"	39.87579	-75.20033	LNM 42/14, 5th Dist	670	12313_1	10/23/2014
12313	Change	Tabulation - DELAWARE RIVER CHANNEL DEPTHS	Tabulation - DELAWARE RIVER CHANNEL DEPTHS	N 39 54' 33.000"	W 075 09' 47.000"	39.90917	-75.16306	LNM 42/14, 5th Dist	670	12313_1	10/16/2014
12313	Delete	Schuylkill River Buoy 7	G C "7"	N 39 53' 44.917"	W 075 12' 36.986"	39.89581	-75.21027	LNM 38/14, 5th Dist	670	12313_1	10/2/2014
12313	Relocate	Petty Island Lower End Buoy P	RG N "P"	N 39 57' 44.432"	W 075 07' 26.209"	39.96234	-75.12395	LNM 22/14, 5th Dist	670	12313_1	6/12/2014
12313	Delete	Schuylkill River Buoy 13	G C "13"	N 39 55' 50.406"	W 075 12' 36.749"	39.93067	-75.21021	LNM 21/14, 5th Dist	670	12313_1	6/5/2014
12313	Delete	Schuylkill River Buoy 14	R N "14"	N 39 55' 49.406"	W 075 12' 34.249"	39.93039	-75.20951	LNM 21/14, 5th Dist	670	12313_1	6/5/2014
12313	Delete	Schuylkill River Buoy 6	R N "6"	N 39 53' 46.650"	W 075 12' 32.070"	39.89629	-75.20891	LNM 21/14, 5th Dist	670	12313_1	6/5/2014
12313	Delete	Schuylkill River Buoy 12	R N "12"	N 39 55' 22.810"	W 075 12' 42.546"	39.923	-75.21181	LNM 21/14, 5th Dist	670	12313_1	6/5/2014
12313	Add	Bridge Construction PT 1 OF 2	Chart No. 1: D.d, with magenta screen extending 500 feet from bridge	N 39 57' 13.700"	W 075 08' 21.900"	39.9538	-75.13942	LNM 20/14, 5th Dist	670	12313_1	5/22/2014
12313	Add	Bridge Construction PT 2 OF 2	Chart No. 1: D.d, with magenta screen extending 500 feet from bridge	N 39 57' 07.300"	W 075 07' 45.600"	39.95203	-75.12933	LNM 20/14, 5th Dist	670	12313_1	5/22/2014
12313	Change	Text - BENJAMIN FRANKLIN BRIDGE to:	Bridge under construction (see note)	N 39 57' 10.700"	W 075 08' 05.100"	39.95297	-75.13475	LNM 20/14, 5th Dist	670	12313_1	5/22/2014
12313	Add	Note - CAUTION:	Fixed and floating obstructions, some submerged, may exist within the magenta tinted bridge construction area. Mariners are advised to proceed with caution.	N 39 57' 08.400"	W 075 07' 11.400"	39.95233	-75.11983	LNM 20/14, 5th Dist	670	12313_1	5/22/2014
12313	Relocate	Delaware River Lighted Buoy 52	R "52" Fl R 2.5s	N 39 58' 26.894"	W 075 05' 41.986"	39.97414	-75.09499	LNM 11/14, 5th Dist	670	12313_1	3/27/2014
12313	Delete	Big Timber Creek Light 1	Q G 23ft 4M "1"	N 39 53' 12.524"	W 075 08' 04.339"	39.88681	-75.13454	LNM 10/14, 5th Dist	670	12313_1	3/13/2014
12313	Change	Mantua Creek Upper Jetty Light 1M	Fl G 2.5s 15ft 3M "1M"	N 39 51' 12.857"	W 075 13' 47.965"	39.85357	-75.22999	LNM 10/14, 5th Dist	671	12313_2	3/13/2014
12313	Delete	Big Timber Creek Channel Buoy 2	R N "2"	N 39 53' 11.408"	W 075 08' 06.635"	39.8865	-75.13518	LNM 09/14, 5th Dist	670	12313_1	3/13/2014
12313	Delete	Big Timber Creek Channel Buoy 4	R N "4"	N 39 53' 03.830"	W 075 07' 54.063"	39.8844	-75.13168	LNM 09/14, 5th Dist	670	12313_1	3/13/2014
12313	Delete	Big Timber Creek Channel Buoy 6	R N "6"	N 39 53' 02.410"	W 075 07' 46.335"	39.884	-75.12954	LNM 09/14, 5th Dist	670	12313_1	3/13/2014
12313	Delete	Fisher Point Jetty Buoy 2	R N "2"	N 39 58' 22.905"	W 075 05' 01.926"	39.97303	-75.08387	LNM 09/14, 5th Dist	670	12313_1	3/13/2014
12313	Delete	Mantua Creek Channel Buoy 4	R N "4"	N 39 51' 10.007"	W 075 13' 48.155"	39.85278	-75.23004	LNM 09/14, 5th Dist	671	12313_2	3/13/2014
12313	Change	Mantua Creek Channel Buoy 2	R N "2"	N 39 51' 04.307"	W 075 13' 42.455"	39.8512	-75.22846	LNM 09/14, 5th Dist	671	12313_2	3/13/2014
12313	Delete	Sounding in Feet	35	N 39 53' 04.180"	W 075 08' 40.640"	39.88449	-75.14462	LNM 40/13, 5th Dist	670	12313_1	9/30/2013
12313	Delete	Sounding in Feet	42	N 39 51' 23.300"	W 075 14' 03.380"	39.85647	-75.23428	LNM 40/13, 5th Dist	671	12313_2	9/30/2013
12313	Delete	Sounding in Feet	45	N 39 53' 00.160"	W 075 08' 41.050"	39.88338	-75.14474	LNM 40/13, 5th Dist	670	12313_1	9/30/2013
12313	Delete	Anchorage Area PT 1 OF 2	Anchorage Area, (use Chart No. 1 N12.1)	N 39 51' 12.680"	W 075 14' 24.200"	39.85352	-75.24006	LNM 40/13, 5th Dist	671	12313_2	9/30/2013
12313	Delete	Anchorage Area PT 2 OF 2	Anchorage Area, (use Chart No. 1 N12.1)	N 39 51' 35.810"	W 075 13' 43.340"	39.85995	-75.22871	LNM 40/13, 5th Dist	671	12313_2	9/30/2013
12313	Add	Anchorage Area PT 1 OF 3	Anchorage Area, (use Chart No. 1 N12.1)	N 39 51' 12.610"	W 075 14' 24.260"	39.8535	-75.24007	LNM 40/13, 5th Dist	671	12313_2	9/30/2013
12313	Add	Anchorage Area PT 2 OF 3	Anchorage Area, (use Chart No. 1 N12.1)	N 39 51' 14.310"	W 075 14' 17.550"	39.85397	-75.2382	LNM 40/13, 5th Dist	671	12313_2	9/30/2013
12313	Add	Anchorage Area PT 3 OF 3	Anchorage Area, (use Chart No. 1 N12.1)	N 39 51' 40.330"	W 075 13' 35.360"	39.8612	-75.22649	LNM 40/13, 5th Dist	671	12313_2	9/30/2013
12313	Delete	Channel Limits PT 1 OF 6	Chart No. 1: I20	N 39 52' 55.840"	W 075 09' 52.950"	39.88218	-75.16471	LNM 40/13, 5th Dist	670	12313_1	9/30/2013
12313	Delete	Channel Limits PT 2 OF 6	Chart No. 1: I20	N 39 52' 53.810"	W 075 09' 14.660"	39.88161	-75.15408	LNM 40/13, 5th Dist	670	12313_1	9/30/2013
12313	Delete	Channel Limits PT 3 OF 6	Chart No. 1: I20	N 39 52' 54.910"	W 075 08' 50.910"	39.88192	-75.14748	LNM 40/13, 5th Dist	670	12313_1	9/30/2013
12313	Delete	Channel Limits PT 4 OF 6	Chart No. 1: I20	N 39 52' 59.330"	W 075 08' 40.660"	39.88315	-75.14463	LNM 40/13, 5th Dist	670	12313_1	9/30/2013
12313	Delete	Channel Limits PT 5 OF 6	Chart No. 1: I20	N 39 53' 04.590"	W 075 08' 33.330"	39.88461	-75.14259	LNM 40/13, 5th Dist	670	12313_1	9/30/2013
12313	Delete	Channel Limits PT 6 OF 6	Chart No. 1: I20	N 39 53' 19.150"	W 075 08' 24.200"	39.88865	-75.14005	LNM 40/13, 5th Dist	670	12313_1	9/30/2013
12313	Add	Channel Limits PT 1 OF 6	Chart No. 1: I20	N 39 52' 55.840"	W 075 09' 52.950"	39.88218	-75.16471	LNM 40/13, 5th Dist	670	12313_1	9/30/2013
12313	Add	Channel Limits PT 2 OF 6	Chart No. 1: I20	N 39 52' 56.310"	W 075 09' 02.130"	39.88231	-75.15059	LNM 40/13, 5th Dist	670	12313_1	9/30/2013
12313	Add	Channel Limits PT 3 OF 6	Chart No. 1: I20	N 39 53' 00.460"	W 075 08' 49.560"	39.88346	-75.1471	LNM 40/13, 5th Dist	670	12313_1	9/30/2013
12313	Add	Channel Limits PT 4 OF 6	Chart No. 1: I20	N 39 53' 08.490"	W 075 08' 35.310"	39.88569	-75.14314	LNM 40/13, 5th Dist	670	12313_1	9/30/2013
12313	Add	Channel Limits PT 5 OF 6	Chart No. 1: I20	N 39 53' 18.090"	W 075 08' 24.910"	39.88836	-75.14025	LNM 40/13, 5th Dist	670	12313_1	9/30/2013
12313	Add	Channel Limits PT 6 OF 6	Chart No. 1: I20	N 39 53' 19.150"	W 075 08' 24.200"	39.88865	-75.14005	LNM 40/13, 5th Dist	670	12313_1	9/30/2013
12313	Delete	Channel Limits PT 1 OF 2	Chart No. 1: I20	N 39 51' 12.610"	W 075 14' 24.710"	39.8535	-75.2402	LNM 40/13, 5th Dist	671	12313_2	9/30/2013
12313	Delete	Channel Limits PT 2 OF 2	Chart No. 1: I20	N 39 51' 39.040"	W 075 13' 38.110"	39.86084	-75.22725	LNM 40/13, 5th Dist	671	12313_2	9/30/2013
12313	Add	Channel Limits PT 1 OF 3	Chart No. 1: I20	N 39 51' 12.610"	W 075 14' 24.710"	39.8535	-75.2402	LNM 40/13, 5th Dist	671	12313_2	9/30/2013
12313	Add	Channel Limits PT 2 OF 3	Chart No. 1: I20	N 39 51' 14.500"	W 075 14' 17.800"	39.85403	-75.23828	LNM 40/13, 5th Dist	671	12313_2	9/30/2013
12313	Add	Channel Limits PT 3 OF 3	Chart No. 1: I20	N 39 51' 39.040"	W 075 13' 38.110"	39.86084	-75.22725	LNM 40/13, 5th Dist	671	12313_2	9/30/2013
12313	Delete	Sounding in Feet	38	N 39 52' 55.890"	W 075 09' 33.830"	39.88219	-75.1594	LNM 40/13, 5th Dist	670	12313_1	9/30/2013
12313	Delete	Sounding in Feet	36	N 39 52' 55.650"	W 075 09' 29.470"	39.88213	-75.15819	LNM 40/13, 5th Dist	670	12313_1	9/30/2013
12313	Delete	Sounding in Feet	21	N 39 52' 55.960"	W 075 09' 12.370"	39.88221	-75.15343	LNM 40/13, 5th Dist	670	12313_1	9/30/2013
12313	Delete	Sounding in Feet	35	N 39 52' 54.700"	W 075 09' 21.190"	39.88186	-75.15588	LNM 40/13, 5th Dist	670	12313_1	9/30/2013
12313	Delete	Sounding in Feet	33	N 39 52' 54.500"	W 075 09' 09.750"	39.88181	-75.15271	LNM 40/13, 5th Dist	670	12313_1	9/30/2013
12313	Delete	Sounding in Feet	28	N 39 52' 56.450"	W 075 09' 02.550"	39.88235	-75.15071	LNM 40/13, 5th Dist	670	12313_1	9/30/2013
12313	Delete	Sounding in Feet	38	N 39 52' 56.500"	W 075 08' 58.150"	39.88236	-75.14948	LNM 40/13, 5th Dist	670	12313_1	9/30/2013
12313	Delete	Sounding in Feet	45	N 39 52' 57.010"	W 075 08' 52.730"	39.8825	-75.14798	LNM 40/13, 5th Dist	670	12313_1	9/30/2013
12313	Delete	Sounding in Feet	45	N 39 52' 57.310"	W 075 08' 47.350"	39.88259	-75.14648	LNM 40/13, 5th Dist	670	12313_1	9/30/2013
12313	Delete	Sounding in Feet	42	N 39 53' 03.280"	W 075 08' 36.710"	39.88424	-75.14353	LNM 40/13, 5th Dist	670	12313_1	9/30/2013
12313	Delete	Sounding in Feet	35	N 39 53' 06.960"	W 075 08' 37.680"	39.88527	-75.1438	LNM 40/13, 5th Dist	670	12313_1	9/30/2013
12313	Delete	Sounding in Feet	42	N 39 53' 12.980"	W 075 08' 29.250"	39.88694	-75.14146	LNM 40/13, 5th Dist	670	12313_1	9/30/2013
12313	Delete	Sounding in Feet	40	N 39 53' 16.710"	W 075 08' 26.500"	39.88797	-75.14069	LNM 40/13, 5th Dist	670	12313_1	9/30/2013
12313	Delete	Sounding in Feet	39	N 39 53' 07.860"	W 075 08' 32.790"	39.88552	-75.14244	LNM 40/13, 5th Dist	670	12313_1	9/30/2013
12313	Delete	Sounding in Feet	47	N 39 51' 28.860"	W 075 13' 54.500"	39.85802	-75.2318	LNM 40/13, 5th Dist	671	12313_2	9/30/2013
12313	Delete	Sounding in Feet	37	N 39 53' 00.730"	W 075 08' 46.540"	39.88354	-75.14626	LNM 40/13, 5th Dist	670	12313_1	9/30/2013
12313	Change	tabulation - DELAWARE RIVER CHANNEL 	tabulation - DELAWARE RIVER CHANNEL 	N 39 54' 33.000"	W 075 09' 47.000"	39.90917	-75.16306	LNM 40/13, 5th Dist	670	12313_1	9/30/2013
12313	Change	tabulation - SCHUYLKILL RIVER CHANNEL DEPTHS	tabulation - SCHUYLKILL RIVER CHANNEL DEPTHS	N 39 54' 40.000"	W 075 11' 06.000"	39.91111	-75.185	LNM 39/13, 5th Dist	670	12313_1	9/20/2013
12313	Change	Depth Legend - SCHUYLKILL RIVER to:	23 FT 2005-2013	N 39 54' 35.700"	W 075 12' 58.000"	39.90992	-75.21611	LNM 35/13, 5th Dist	670	12313_1	8/29/2013
12313	Change	tabulation - DELAWARE RIVER CHANNEL DEPTHS	tabulation - DELAWARE RIVER CHANNEL DEPTHS	N 39 54' 33.000"	W 075 09' 47.000"	39.90917	-75.16306	LNM 26/13, 5th Dist	670	12313_1	6/21/2013
12313	Relocate	Schuylkill River Buoy 6	R N "6"	N 39 53' 46.650"	W 075 12' 32.070"	39.89629	-75.20891	LNM 21/13, 5th Dist	670	12313_1	5/24/2013
12313	Change	Back Channel Light 1BC	Fl G 2.5s 15ft 3M "1BC"	N 39 57' 29.816"	W 075 06' 27.972"	39.95828	-75.10777	LNM 07/13, 5th Dist	670	12313_1	2/21/2013
12313	Delete	Schuylkill River Entrance Fog Signal	Horn	N 39 53' 06.000"	W 075 11' 48.000"	39.885	-75.19666	LNM 06/13, 5th Dist	670	12313_1	2/15/2013
12313	Change	Fixed Bridge Label	FIXED BRIDGE HOR CL 105 FT VERT CL 35 FT	N 39 56' 48.500"	W 075 11' 12.500"	39.9468	-75.18681	LNM 08/13, 5th Dist	670	12313_1	2/11/2013
12313	Relocate	Horseshoe Lighted Buoy 37	G "37" Q G	N 39 53' 08.599"	W 075 08' 35.452"	39.88572	-75.14318	LNM 01/13, 5th Dist	670	12313_1	1/7/2013
12313	Relocate	Horseshoe Lower Lighted Buoy 35	G "35" Q G	N 39 53' 00.670"	W 075 08' 49.700"	39.88352	-75.14714	LNM 01/13, 5th Dist	670	12313_1	1/7/2013
12313	Change	Horseshoe Lower Lighted Buoy 35	G "35" Fl G 2.5s	N 39 53' 00.670"	W 075 08' 49.700"	39.88352	-75.14714	LNM 01/13, 5th Dist	670	12313_1	1/7/2013
12313	Add	Horseshoe Lower Lighted Buoy 33	G "33" Q G	N 39 52' 56.349"	W 075 09' 05.379"	39.88232	-75.1515	LNM 01/13, 5th Dist	670	12313_1	1/7/2013
12313	Add	Pier in Ruins PT 1 OF 4	Ruins    Chart No. 1 F33.1 \ F33.2	N 39 56' 16.950"	W 075 08' 24.600"	39.93804	-75.14017	LNM 42/12, 5th Dist	670	12313_1	10/15/2012
12313	Add	Pier in Ruins PT 2 OF 4	Ruins    Chart No. 1 F33.1 \ F33.2	N 39 56' 16.700"	W 075 08' 23.200"	39.93797	-75.13978	LNM 42/12, 5th Dist	670	12313_1	10/15/2012
12313	Add	Pier in Ruins PT 3 OF 4	Ruins    Chart No. 1 F33.1 \ F33.2	N 39 56' 17.700"	W 075 08' 23.200"	39.93825	-75.13978	LNM 42/12, 5th Dist	670	12313_1	10/15/2012
12313	Add	Pier in Ruins PT 4 OF 4	Ruins    Chart No. 1 F33.1 \ F33.2	N 39 56' 17.940"	W 075 08' 24.600"	39.93832	-75.14017	LNM 42/12, 5th Dist	670	12313_1	10/15/2012
12313	Add	Obstruction in Feet	Obstn (24 ft)       Chart No. 1: K41	N 39 57' 47.000"	W 075 07' 50.300"	39.96305	-75.13064	LNM 42/12, 5th Dist	670	12313_1	10/15/2012
12313	Delete	Dolphin	Dol   Chart No. 1: F20	N 39 57' 47.000"	W 075 07' 50.300"	39.96305	-75.13064	LNM 42/12, 5th Dist	670	12313_1	10/15/2012
12313	Delete	Obstruction in Feet	16 Obstn       Chart No. 1: K41	N 39 58' 09.700"	W 075 06' 18.400"	39.96936	-75.10511	LNM 42/12, 5th Dist	670	12313_1	10/15/2012
12313	Delete	Pier in Ruins PT 1 OF 2	Ruins    Chart No. 1 F33.1 \ F33.2	N 39 56' 16.950"	W 075 08' 24.600"	39.93804	-75.14017	LNM 42/12, 5th Dist	670	12313_1	10/15/2012
12313	Delete	Pier in Ruins PT 2 OF 2	Ruins    Chart No. 1 F33.1 \ F33.2	N 39 56' 17.940"	W 075 08' 24.600"	39.93832	-75.14017	LNM 42/12, 5th Dist	670	12313_1	10/15/2012
12313	Add	Sounding in Feet	14	N 39 58' 30.600"	W 075 05' 02.000"	39.97517	-75.08389	LNM 42/12, 5th Dist	670	12313_1	10/15/2012
12313	Add	Sounding in Feet	12	N 39 58' 47.500"	W 075 04' 43.100"	39.97986	-75.07864	LNM 42/12, 5th Dist	670	12313_1	10/15/2012
12313	Delete	Visible Wreck	PA     Chart No. 1: K24	N 39 57' 41.000"	W 075 07' 58.500"	39.96139	-75.13292	LNM 42/12, 5th Dist	670	12313_1	10/15/2012
12313	Change	tabulation - Delaware River Channel Depths	tabulation - Delaware River Channel Depths	N 39 54' 33.000"	W 075 09' 47.000"	39.90917	-75.16306	LNM 41/12, 5th Dist	670	12313_1	10/10/2012
12313	Add	Eagle Point Range Lighted Research Buoy B	Y "B" Fl Y 4s Priv	N 39 52' 48.090"	W 075 10' 14.962"	39.88002	-75.17082	LNM 29/12, 5th Dist	670	12313_1	7/19/2012
12313	Change	tabulation - Delaware River Channel Depths	tabulation - Delaware River Channel Depths	N 39 54' 33.000"	W 075 09' 47.000"	39.90917	-75.16306	LNM 24/12, 5th Dist	670	12313_1	6/11/2012
12313	Change	tabulation - Schuykill River Channel Depths	tabulation - Schuykill River Channel Depths	N 39 54' 40.000"	W 075 11' 06.000"	39.91111	-75.185	LNM 21/12, 5th Dist	670	12313_1	5/24/2012
12313	Relocate	Tinicum Island Range Lighted Buoy 5T	G "5T" Q G	N 39 50' 59.307"	W 075 15' 53.463"	39.84981	-75.26485	LNM 20/12, 5th Dist	671	12313_2	5/24/2012
12313	Delete	Mantua Creek Lower Jetty Light 2	Fl R 4s 15ft 4M "2"	N 39 51' 10.697"	W 075 13' 52.326"	39.85297	-75.2312	LNM 18/12, 5th Dist	671	12313_2	5/3/2012
12314	Relocate	Upper Delaware River Channel Lighted Buoy 2	R "2" Fl R 2.5s	N 39 59' 15.204"	W 075 03' 45.422"	39.98756	-75.06261	LNM 16/17, 5th Dist	673	12314_2	4/27/2017
12314	Relocate	Upper Delaware River Channel Lighted Buoy 12	R "12" Q R	N 40 00' 54.903"	W 075 01' 56.818"	40.01525	-75.03245	LNM 16/17, 5th Dist	673	12314_2	4/27/2017
12314	Change	Tabulation - DELAWARE RIVER CHANNEL DEPTHS	Tabulation - DELAWARE RIVER CHANNEL DEPTHS	N 40 02' 48.000"	W 074 54' 28.000"	40.04667	-74.90778	LNM 06/17, 5th Dist	673	12314_2	2/2/2017
12314	Change	Frankford Upper Range Rear Light	Oc G 4s 50ft	N 40 01' 34.468"	W 075 00' 30.679"	40.02624	-75.00852	LNM 51/16, 5th Dist	673	12314_2	12/22/2016
12314	Change	Mud Island Upper Range Rear Passing Light	Fl 4s 15ft 5M	N 40 03' 52.472"	W 074 56' 49.605"	40.06458	-74.94711	LNM 40/16, 5th Dist	673	12314_2	10/13/2016
12314	Change	Mud Island Upper Range Rear Light	Iso 6s 52ft	N 40 03' 52.472"	W 074 56' 49.605"	40.06458	-74.94711	LNM 40/16, 5th Dist	673	12314_2	10/13/2016
12314	Change	Mud Island Upper Range Front Light	Oc 4s 25ft	N 40 03' 42.027"	W 074 57' 07.232"	40.06168	-74.95201	LNM 40/16, 5th Dist	673	12314_2	10/13/2016
12314	Relocate	Upper Delaware River Channel Lighted Buoy 15	G "15" Q G	N 40 01' 22.203"	W 075 00' 40.514"	40.02283	-75.01125	LNM 23/16, 5th Dist	673	12314_2	6/16/2016
12314	Relocate	Upper Delaware River Channel Buoy 39	G C "39"	N 40 04' 44.698"	W 074 53' 08.296"	40.07908	-74.88564	LNM 23/16, 5th Dist	672	12314_1	6/16/2016
12314	Relocate	Upper Delaware River Channel Lighted Buoy 40	R "40" Q R	N 40 04' 39.899"	W 074 53' 05.797"	40.07775	-74.88494	LNM 23/16, 5th Dist	672	12314_1	6/16/2016
12314	Delete	Frankford Channel Upper Directional Light	F G 30ft	N 40 01' 13.150"	W 075 01' 20.857"	40.02032	-75.02246	LNM 22/16, 5th Dist	673	12314_2	6/9/2016
12314	Add	Frankford Upper Range Front Light	Q G 20ft	N 40 01' 12.851"	W 075 01' 21.239"	40.02024	-75.02257	LNM 22/16, 5th Dist	673	12314_2	6/9/2016
12314	Delete	Frankford Channel Upper Directional Passing Light	Fl 4s 18ft 5M	N 40 01' 13.150"	W 075 01' 20.857"	40.02032	-75.02246	LNM 22/16, 5th Dist	673	12314_2	6/9/2016
12314	Add	Frankford Upper Range Rear Light	Oc G 4s 40ft	N 40 01' 34.468"	W 075 00' 30.679"	40.02624	-75.00852	LNM 22/16, 5th Dist	673	12314_2	6/9/2016
12314	Add	Frankford Upper Range Rear Passing Lights (2)	2 Fl 4s 15ft 4M	N 40 01' 34.468"	W 075 00' 30.679"	40.02624	-75.00852	LNM 22/16, 5th Dist	673	12314_2	6/9/2016
12314	Relocate	Upper Delaware River Channel Buoy 44	R N "44"	N 40 05' 03.299"	W 074 51' 39.493"	40.08425	-74.86097	LNM 21/16, 5th Dist	672	12314_1	5/26/2016
12314	Change	Enterprise Lower Range Front Light	Oc 4s 21ft	N 40 03' 06.304"	W 074 58' 20.157"	40.05175	-74.97227	LNM 13/16, 5th Dist	673	12314_2	4/7/2016
12314	Delete	Upper Delaware River Channel Buoy 98	R N "98"	N 40 10' 47.694"	W 074 44' 22.278"	40.17992	-74.73952	LNM 03/16, 5th Dist	672	12314_1	1/28/2016
12314	Delete	Upper Delaware River Channel Buoy 99	G C "99"	N 40 10' 45.994"	W 074 44' 29.178"	40.17944	-74.74144	LNM 03/16, 5th Dist	672	12314_1	1/28/2016
12314	Delete	Upper Delaware River Channel Buoy 101	G C "101"	N 40 10' 51.394"	W 074 44' 44.579"	40.18094	-74.74572	LNM 03/16, 5th Dist	672	12314_1	1/28/2016
12314	Delete	Upper Delaware River Channel Buoy 102	R N "102"	N 40 10' 56.994"	W 074 44' 52.879"	40.1825	-74.74802	LNM 03/16, 5th Dist	672	12314_1	1/28/2016
12314	Change	Enterprise Lower Range Rear Light	F 50ft	N 40 02' 51.194"	W 074 58' 55.849"	40.04755	-74.98218	LNM 03/16, 5th Dist	673	12314_2	1/28/2016
12314	Change	Enterprise Upper Range Front Light	Fl 2.5s 28ft	N 40 04' 29.274"	W 074 55' 04.021"	40.0748	-74.91779	LNM 44/15, 5th Dist	672	12314_1	11/12/2015
12314	Change	Enterprise Upper Range Front Light	Fl 2.5s 28ft	N 40 04' 29.274"	W 074 55' 04.021"	40.0748	-74.91779	LNM 44/15, 5th Dist	673	12314_2	11/12/2015
12314	Change	Enterprise Upper Range Rear Light	F 50ft	N 40 04' 32.553"	W 074 54' 56.310"	40.07571	-74.91564	LNM 44/15, 5th Dist	672	12314_1	11/12/2015
12314	Change	Enterprise Upper Range Rear Light	F 50ft	N 40 04' 32.553"	W 074 54' 56.310"	40.07571	-74.91564	LNM 44/15, 5th Dist	673	12314_2	11/12/2015
12314	Add	Submerged Obstruction	Obstn  (Chart No. 1: K40)	N 40 00' 25.000"	W 075 03' 04.900"	40.00694	-75.05136	LNM 37/15, 5th Dist	673	12314_2	9/24/2015
12314	Add	Submerged Obstruction	Obstn  (Chart No. 1: K40)	N 40 00' 25.500"	W 075 03' 04.200"	40.00708	-75.05117	LNM 37/15, 5th Dist	673	12314_2	9/24/2015
12314	Relocate	Devlin Lower Range Rear Light	{Oc R 4s 57ft (Day), Oc R 4s 60ft (Night)	N 40 04' 31.747"	W 074 54' 12.926"	40.07549	-74.90359	LNM 23/15, 5th Dist	672	12314_1	6/18/2015
12314	Change	Devlin Lower Range Rear Light	{Oc R 4s 57ft (Day), Oc R 4s 60ft (Night)	N 40 04' 31.747"	W 074 54' 12.926"	40.07549	-74.90359	LNM 23/15, 5th Dist	672	12314_1	6/18/2015
12314	Change	Devlin Lower Range Front Light	{Q R 23ft (Day), Q R 20ft (Night)	N 40 04' 37.502"	W 074 53' 37.722"	40.07708	-74.89381	LNM 23/15, 5th Dist	672	12314_1	6/18/2015
12314	Relocate	Devlin Lower Range Front Light	{Q R 23ft (Day), Q R 20ft (Night)	N 40 04' 37.502"	W 074 53' 37.722"	40.07708	-74.89381	LNM 23/15, 5th Dist	672	12314_1	6/18/2015
12314	Change	Tabulation - DELAWARE RIVER CHANNEL DEPTHS	Tabulation - DELAWARE RIVER CHANNEL DEPTHS	N 40 02' 48.000"	W 074 54' 28.000"	40.04667	-74.90778	LNM 16/15, 5th Dist	673	12314_2	4/23/2015
12314	Delete	Devlin Channel Lighted Research Buoy A	Y "A" Fl Y 4s Priv	N 40 04' 50.930"	W 074 52' 33.542"	40.08081	-74.87598	LNM 07/15, 5th Dist	672	12314_1	2/26/2015
12314	Relocate	Upper Delaware River Channel Lighted Buoy 30	R "30" Q R	N 40 04' 10.500"	W 074 55' 37.902"	40.06958	-74.92719	LNM 06/15, 5th Dist	672	12314_1	2/19/2015
12314	Relocate	Upper Delaware River Channel Lighted Buoy 30	R "30" Q R	N 40 04' 10.500"	W 074 55' 37.902"	40.06958	-74.92719	LNM 06/15, 5th Dist	673	12314_2	2/19/2015
12314	Delete	Keystone Channel Range Front Light	Iso R 6s 40ft	N 40 06' 32.799"	W 074 49' 51.311"	40.10911	-74.83092	LNM 45/14, 5th Dist	672	12314_1	11/20/2014
12314	Delete	Keystone Channel Range Rear Light	F R 49ft	N 40 06' 34.327"	W 074 49' 49.680"	40.10954	-74.83047	LNM 45/14, 5th Dist	672	12314_1	11/20/2014
12314	Change	Devlin Lower Range Front Light	Q R 30ft	N 40 04' 33.390"	W 074 54' 02.819"	40.07594	-74.90078	LNM 45/14, 5th Dist	672	12314_1	11/20/2014
12314	Change	Devlin Lower Range Rear Light	Oc R 4s 40ft	N 40 04' 31.749"	W 074 54' 12.886"	40.07549	-74.90358	LNM 45/14, 5th Dist	672	12314_1	11/20/2014
12314	Relocate	Delair Range Rear Light	Oc G 4s 41ft	N 40 00' 35.019"	W 075 03' 14.820"	40.00973	-75.05412	LNM 20/14, 5th Dist	673	12314_2	5/29/2014
12314	Relocate	Delair Range Front Light	Iso G 2s 25ft	N 40 00' 30.278"	W 075 03' 16.809"	40.00841	-75.05467	LNM 20/14, 5th Dist	673	12314_2	5/29/2014
12314	Delete	Upper Delaware River Channel Buoy 103	G C "103"	N 40 11' 09.694"	W 074 45' 20.280"	40.18603	-74.75563	LNM 16/14, 5th Dist	672	12314_1	4/24/2014
12314	Delete	Upper Delaware River Channel Buoy 104	R N "104"	N 40 11' 09.794"	W 074 45' 14.180"	40.18605	-74.75394	LNM 16/14, 5th Dist	672	12314_1	4/24/2014
12314	Delete	Bordentown Bar Junction Buoy B	RG N "B"	N 40 08' 48.406"	W 074 43' 21.666"	40.14678	-74.72269	LNM 15/14, 5th Dist	672	12314_1	4/24/2014
12314	Add	Upper Delaware River Channel Buoy 86	R N "86"	N 40 08' 48.414"	W 074 43' 21.381"	40.14678	-74.7226	LNM 15/14, 5th Dist	672	12314_1	4/24/2014
12314	Delete	Rancocas Creek Junction Lighted Buoy RC	RG "RC" Fl (2+1) R 6s	N 40 02' 22.501"	W 074 59' 15.510"	40.03959	-74.98764	LNM 11/14, 5th Dist	673	12314_2	3/27/2014
12314	Relocate	Upper Delaware River Channel Buoy 19	G C "19"	N 40 02' 25.369"	W 074 59' 21.266"	40.04038	-74.98924	LNM 11/14, 5th Dist	673	12314_2	3/27/2014
12314	Add	Upper Delaware River Channel Lighted Buoy 20	R "20" Q R	N 40 02' 21.652"	W 074 59' 16.765"	40.03935	-74.98799	LNM 11/14, 5th Dist	673	12314_2	3/27/2014
12314	Delete	Rancocas Creek Buoy 2	R N "2"	N 40 02' 26.401"	W 074 58' 51.109"	40.04067	-74.98087	LNM 09/14, 5th Dist	673	12314_2	3/13/2014
12314	Relocate	Upper Delaware River Channel Buoy 19	G C "19"	N 40 02' 26.244"	W 074 59' 21.426"	40.04062	-74.98929	LNM 51/13, 5th Dist	673	12314_2	12/23/2013
12314	Delete	Upper Delaware River Channel Buoy 105	G C "105"	N 40 11' 32.693"	W 074 45' 28.080"	40.19241	-74.7578	LNM 47/13, 5th Dist	672	12314_1	11/26/2013
12314	Delete	Upper Delaware River Channel Buoy 106	R N "106"	N 40 11' 32.393"	W 074 45' 25.580"	40.19233	-74.7571	LNM 47/13, 5th Dist	672	12314_1	11/26/2013
12314	Change	tabulation - DELAWARE RIVER CHANNEL DEPTHS	tabulation - DELAWARE RIVER CHANNEL DEPTHS	N 40 02' 48.000"	W 074 54' 28.000"	40.04667	-74.90778	LNM 26/13, 5th Dist	673	12314_2	6/21/2013
12314	Change	Mud Island Upper Range Rear Light	Iso 6s 52ft	N 40 03' 52.472"	W 074 56' 49.605"	40.06458	-74.94711	LNM 15/13, 5th Dist	673	12314_2	4/9/2013
12314	Relocate	Upper Delaware River Channel Lighted Buoy 8	R "8" Q R	N 40 00' 24.904"	W 075 03' 05.021"	40.00692	-75.05139	LNM 51/12, 5th Dist	673	12314_2	12/20/2012
12314	Change	Kinkora Upper Range Front Light	Fl G 2.5s 26ft (Day) Fl G 2.5s 25ft (Night)	N 40 08' 06.608"	W 074 45' 35.867"	40.13517	-74.75996	LNM 51/12, 5th Dist	672	12314_1	12/20/2012
12314	Relocate	Mud Island Lower Range Rear Passing Lights (2)	(2) Fl 4s 15ft 4M	N 40 01' 58.707"	W 075 00' 01.303"	40.03297	-75.00036	LNM 50/12, 5th Dist	673	12314_2	12/18/2012
12314	Delete	Sounding in Feet	28	N 40 01' 07.800"	W 075 01' 03.500"	40.01883	-75.01764	LNM 42/12, 5th Dist	673	12314_2	10/15/2012
12314	Add	Sounding in Feet	12	N 39 58' 47.500"	W 075 04' 43.100"	39.97986	-75.07864	LNM 42/12, 5th Dist	673	12314_2	10/15/2012
12314	Delete	Obstruction in Feet	33 Obstn       Chart No. 1: K41	N 39 58' 58.200"	W 075 04' 11.700"	39.98283	-75.06992	LNM 42/12, 5th Dist	673	12314_2	10/15/2012
12314	Add	Sounding in Feet	6	N 39 59' 04.500"	W 075 04' 11.500"	39.98458	-75.06986	LNM 42/12, 5th Dist	673	12314_2	10/15/2012
12314	Add	Sounding in Feet	10	N 39 59' 05.100"	W 075 03' 47.200"	39.98475	-75.06311	LNM 42/12, 5th Dist	673	12314_2	10/15/2012
12314	Add	Rock in Feet	21 Rk      Chart No. 1: K14.2	N 39 59' 25.000"	W 075 03' 39.500"	39.99028	-75.06097	LNM 42/12, 5th Dist	673	12314_2	10/15/2012
12314	Delete	Sounding in Feet	34	N 40 00' 34.200"	W 075 03' 01.800"	40.0095	-75.0505	LNM 42/12, 5th Dist	673	12314_2	10/15/2012
12314	Add	Obstruction in Feet	4 Obstn       Chart No. 1: K41	N 40 00' 46.000"	W 075 01' 46.200"	40.01278	-75.0295	LNM 42/12, 5th Dist	673	12314_2	10/15/2012
12314	Add	Obstruction in Feet	35 Obstn       Chart No. 1: K41	N 40 00' 27.200"	W 075 03' 12.800"	40.00756	-75.05356	LNM 42/12, 5th Dist	673	12314_2	10/15/2012
12314	Add	Sounding in Feet	29	N 40 00' 33.800"	W 075 03' 02.200"	40.00939	-75.05061	LNM 42/12, 5th Dist	673	12314_2	10/15/2012
12314	Delete	Submerged Pile	Subm pile PA                Chart No. 1: K43.1	N 40 00' 46.200"	W 075 01' 46.000"	40.01283	-75.02944	LNM 42/12, 5th Dist	673	12314_2	10/15/2012
12314	Add	Wreck in Feet	17 Wk      Chart No. 1: K26	N 40 00' 49.300"	W 075 01' 32.700"	40.01369	-75.02575	LNM 42/12, 5th Dist	673	12314_2	10/15/2012
12314	Delete	Sounding in Feet	21	N 40 00' 49.700"	W 075 01' 34.200"	40.01381	-75.02617	LNM 42/12, 5th Dist	673	12314_2	10/15/2012
12314	Add	Sounding in Feet	17	N 40 01' 05.200"	W 075 01' 09.600"	40.01811	-75.01933	LNM 42/12, 5th Dist	673	12314_2	10/15/2012
12314	Add	Sounding in Feet	22	N 40 01' 07.700"	W 075 01' 01.500"	40.01881	-75.01708	LNM 42/12, 5th Dist	673	12314_2	10/15/2012
12314	Add	Sounding in Feet	25	N 40 01' 11.600"	W 075 00' 53.100"	40.01989	-75.01475	LNM 42/12, 5th Dist	673	12314_2	10/15/2012
12314	Delete	Sounding in Feet	30	N 40 01' 11.200"	W 075 00' 54.300"	40.01978	-75.01508	LNM 42/12, 5th Dist	673	12314_2	10/15/2012
12314	Add	Obstruction in Feet	7 Obstn       Chart No. 1: K41	N 40 01' 11.200"	W 075 01' 34.600"	40.01978	-75.02628	LNM 42/12, 5th Dist	673	12314_2	10/15/2012
12314	Add	Sounding in Feet	19	N 40 01' 15.300"	W 075 01' 12.800"	40.02092	-75.02023	LNM 42/12, 5th Dist	673	12314_2	10/15/2012
12314	Add	Sounding in Feet	25	N 40 01' 18.000"	W 075 01' 04.600"	40.02167	-75.01794	LNM 42/12, 5th Dist	673	12314_2	10/15/2012
12314	Add	Sounding in Feet	19	N 40 01' 21.600"	W 075 00' 58.200"	40.02267	-75.01617	LNM 42/12, 5th Dist	673	12314_2	10/15/2012
12314	Delete	Depth Legend to:	DREDGED TO 23 FT	N 40 01' 21.600"	W 075 00' 58.200"	40.02267	-75.01617	LNM 42/12, 5th Dist	673	12314_2	10/15/2012
12314	Add	Devlin Channel Lighted Research Buoy A	Y "A" Fl Y 4s Priv	N 40 04' 50.930"	W 074 52' 33.542"	40.08081	-74.87598	LNM 29/12, 5th Dist	672	12314_1	7/19/2012
12314	Change	tabulation - Delaware River Channel Depths	tabulation - Delaware River Channel Depths	N 40 02' 48.000"	W 074 54' 28.000"	40.04667	-74.90778	LNM 25/12, 5th Dist	673	12314_2	6/13/2012
12316	Relocate	Cape May Canal West Entrance Buoy 12	R N "12"	N 38 58' 01.024"	W 074 57' 31.484"	38.96695	-74.95875	LNM 20/17, 5th Dist	677	12316_4	5/25/2017
12316	Change	New Jersey Intracoastal Waterway Light 97	Fl G 2.5s 15ft 4M "97"	N 39 34' 51.942"	W 074 13' 49.921"	39.5811	-74.23054	LNM 19/17, 5th Dist	674	12316_1	5/18/2017
12316	Change	New Jersey Intracoastal Waterway Light 139	Q G 15ft 4M "139"	N 39 29' 52.631"	W 074 22' 52.067"	39.49795	-74.38113	LNM 19/17, 5th Dist	674	12316_1	5/18/2017
12316	Change	New Jersey Intracoastal Waterway Light 170	Q R 15ft 4M "170"	N 39 26' 05.579"	W 074 24' 50.112"	39.43488	-74.41392	LNM 19/17, 5th Dist	674	12316_1	5/18/2017
12316	Change	New Jersey Intracoastal Waterway Light 177	Fl G 2.5s 15ft 4M "177"	N 39 24' 35.221"	W 074 25' 59.837"	39.40978	-74.43329	LNM 19/17, 5th Dist	674	12316_1	5/18/2017
12316	Change	New Jersey Intracoastal Waterway Light 322	Fl R 2.5s 15ft 4M "322"	N 39 12' 14.491"	W 074 40' 18.393"	39.20403	-74.67178	LNM 17/17, 5th Dist	677	12316_4	5/4/2017
12316	Change	New Jersey Intracoastal Waterway Light 362	Q R 15ft 4M "362"	N 39 08' 39.960"	W 074 42' 20.760"	39.14443	-74.70576	LNM 17/17, 5th Dist	677	12316_4	5/4/2017
12316	Change	New Jersey Intracoastal Waterway Light 365	Fl G 2.5s 15ft 4M "365"	N 39 08' 13.740"	W 074 42' 52.680"	39.13715	-74.71463	LNM 17/17, 5th Dist	677	12316_4	5/4/2017
12316	Change	New Jersey Intracoastal Waterway Light 386	Fl R 4s 15ft 4M "386"	N 39 05' 32.547"	W 074 46' 01.128"	39.09237	-74.76698	LNM 17/17, 5th Dist	677	12316_4	5/4/2017
12316	Change	New Jersey Intracoastal Waterway Light 442	Fl R 4s 15ft 4M "442"	N 39 01' 09.781"	W 074 48' 41.747"	39.01938	-74.8116	LNM 16/17, 5th Dist	677	12316_4	4/27/2017
12316	Add	Coast Guard Pier Warning Light	Fl Y 2.5s 4M	N 38 56' 57.767"	W 074 53' 22.243"	38.94938	-74.88951	LNM 15/17, 5th Dist	677	12316_4	4/20/2017
12316	Change	New Jersey Intracoastal Waterway Light 215	Q G 15ft 4M "215"	N 39 21' 12.360"	W 074 29' 38.760"	39.35343	-74.4941	LNM 15/17, 5th Dist	674	12316_1	4/20/2017
12316	Change	New Jersey Intracoastal Waterway Light 220	Fl R 4s 15ft 4M "220"	N 39 20' 45.679"	W 074 29' 48.737"	39.34602	-74.49687	LNM 15/17, 5th Dist	674	12316_1	4/20/2017
12316	Change	New Jersey Intracoastal Waterway Light 230	Q R 15ft 4M "230"	N 39 19' 15.017"	W 074 31' 42.652"	39.32084	-74.52851	LNM 15/17, 5th Dist	674	12316_1	4/20/2017
12317	Add	Coast Guard Pier Warning Light	Fl Y 2.5s 4M	N 38 56' 57.767"	W 074 53' 22.243"	38.94938	-74.88951	LNM 15/17, 5th Dist	679	12317_1	4/20/2017
12318	Change	New Jersey Intracoastal Waterway Light 182	Q R 15ft 4M "182"	N 39 23' 24.234"	W 074 25' 57.416"	39.39006	-74.43262	LNM 30/16, 5th Dist	681	12318_2	8/11/2016
12318	Relocate	Absecon Inlet Lighted Buoy 1	G "1" Fl G 4s	N 39 20' 47.393"	W 074 24' 01.337"	39.3465	-74.40037	LNM 20/16, 5th Dist	681	12318_2	5/26/2016
12318	Relocate	Absecon Inlet Lighted Buoy 1	G "1" Fl G 4s	N 39 20' 47.393"	W 074 24' 01.337"	39.3465	-74.40037	LNM 20/16, 5th Dist	680	12318_1	5/26/2016
12318	Relocate	Absecon Inlet Lighted Buoy 2	R "2" Fl R 2.5s	N 39 20' 51.336"	W 074 23' 48.860"	39.3476	-74.3969	LNM 20/16, 5th Dist	680	12318_1	5/26/2016
12318	Change	Fixed Bridge PT 1 OF 3	Chart No. 1: D22	N 39 17' 53.260"	W 074 35' 23.740"	39.29813	-74.58993	LNM 04/16, 5th Dist	680	12318_1	1/21/2016
12318	Change	Fixed Bridge PT 2 OF 3	Chart No. 1: D22	N 39 17' 15.330"	W 074 34' 54.910"	39.28759	-74.58192	LNM 04/16, 5th Dist	680	12318_1	1/21/2016
12318	Change	Fixed Bridge PT 3 OF 3	Chart No. 1: D22	N 39 17' 09.380"	W 074 34' 53.590"	39.28594	-74.58155	LNM 04/16, 5th Dist	680	12318_1	1/21/2016
12318	Change	Fixed Bridge PT 1 OF 3	Chart No. 1: D22	N 39 17' 10.060"	W 074 34' 54.820"	39.28613	-74.58189	LNM 04/16, 5th Dist	680	12318_1	1/21/2016
12318	Change	Fixed Bridge PT 2 OF 3	Chart No. 1: D22	N 39 17' 15.950"	W 074 34' 56.450"	39.28777	-74.58234	LNM 04/16, 5th Dist	680	12318_1	1/21/2016
12318	Change	Fixed Bridge PT 3 OF 3	Chart No. 1: D22	N 39 17' 52.640"	W 074 35' 24.600"	39.29795	-74.59016	LNM 04/16, 5th Dist	680	12318_1	1/21/2016
12318	Change	Fixed Bridge PT 1 OF 3	Chart No. 1: D22	N 39 18' 11.210"	W 074 35' 37.000"	39.30311	-74.59361	LNM 04/16, 5th Dist	680	12318_1	1/21/2016
12318	Change	Fixed Bridge PT 2 OF 3	Chart No. 1: D22	N 39 18' 08.840"	W 074 35' 34.680"	39.30246	-74.59296	LNM 04/16, 5th Dist	680	12318_1	1/21/2016
12318	Change	Fixed Bridge PT 3 OF 3	Chart No. 1: D22	N 39 17' 53.260"	W 074 35' 23.740"	39.29813	-74.58993	LNM 04/16, 5th Dist	680	12318_1	1/21/2016
12318	Change	Fixed Bridge PT 1 OF 3	Chart No. 1: D22	N 39 17' 52.640"	W 074 35' 24.600"	39.29795	-74.59016	LNM 04/16, 5th Dist	680	12318_1	1/21/2016
12318	Change	Fixed Bridge PT 2 OF 3	Chart No. 1: D22	N 39 18' 09.440"	W 074 35' 36.610"	39.30262	-74.59351	LNM 04/16, 5th Dist	680	12318_1	1/21/2016
12318	Change	Fixed Bridge PT 3 OF 3	Chart No. 1: D22	N 39 18' 10.660"	W 074 35' 37.900"	39.30296	-74.59386	LNM 04/16, 5th Dist	680	12318_1	1/21/2016
12318	Add	Obstruction in Feet	16 Obstn       Chart No. 1: K41	N 39 23' 12.000"	W 074 25' 14.180"	39.38667	-74.42061	LNM 03/16, 5th Dist	681	12318_2	1/14/2016
12318	Add	Obstruction	Obstn         Chart No. 1: K40	N 39 20' 34.040"	W 074 24' 57.350"	39.34279	-74.41593	LNM 03/16, 5th Dist	681	12318_2	1/14/2016
12318	Add	Obstruction	Obstn         Chart No. 1: K40	N 39 20' 34.040"	W 074 24' 57.350"	39.34279	-74.41593	LNM 03/16, 5th Dist	680	12318_1	1/14/2016
12318	Add	Obstruction in Feet	11 Obstn       Chart No. 1: K41	N 39 30' 04.910"	W 074 16' 32.400"	39.50137	-74.27567	LNM 03/16, 5th Dist	680	12318_1	1/14/2016
12318	Substitute	Wreck in Feet	17 Wk for 19 Wk      Chart No. 1: K26	N 39 29' 35.750"	W 074 16' 18.880"	39.49326	-74.27191	LNM 03/16, 5th Dist	680	12318_1	1/14/2016
12318	Substitute	Wreck in Feet	12 Wk for Wk PA      Chart No. 1: K26	N 39 30' 05.260"	W 074 16' 44.700"	39.50146	-74.27908	LNM 03/16, 5th Dist	680	12318_1	1/14/2016
12318	Add	Wreck in Feet	9 Wk      Chart No. 1: K26	N 39 28' 39.560"	W 074 17' 13.100"	39.47766	-74.28697	LNM 03/16, 5th Dist	680	12318_1	1/14/2016
12318	Add	Obstruction in Feet	14 Obstn       Chart No. 1: K41	N 39 30' 23.280"	W 074 16' 16.120"	39.50647	-74.27114	LNM 03/16, 5th Dist	680	12318_1	1/14/2016
12318	Delete	Garden State Offshore Energy Lighted Data Buoy GS	Y "GS" Fl Y 2s RACON G (--.) Priv	N 39 04' 36.000"	W 074 18' 36.000"	39.07667	-74.31	LNM 43/15, 5th Dist	680	12318_1	10/29/2015
12318	Add	Lighted yellow buoy	Y Fl Y Priv	N 39 28' 47.220"	W 074 12' 47.460"	39.47978	-74.21318	LNM 41/15, 5th Dist	680	12318_1	10/8/2015
12318	Relocate	Little Egg Inlet Outer Lighted Whistle Buoy LE	RW "LE" Mo (A) WHIS	N 39 28' 12.390"	W 074 16' 08.941"	39.47011	-74.26915	LNM 30/15, 5th Dist	680	12318_1	8/6/2015
12318	Relocate	New Jersey Intracoastal Waterway Light 182	Q R 15ft 3M "182"	N 39 23' 24.234"	W 074 25' 57.416"	39.39006	-74.43262	LNM 23/15, 5th Dist	681	12318_2	6/18/2015
12318	Delete	Harrahs Marina Buoy B	W Or "B" Priv	N 39 23' 06.000"	W 074 25' 26.000"	39.385	-74.42389	LNM 19/15, 5th Dist	681	12318_2	5/21/2015
12318	Delete	Harrahs Marina Buoy A	W Or "A" Priv	N 39 23' 08.500"	W 074 25' 31.500"	39.38569	-74.42542	LNM 19/15, 5th Dist	681	12318_2	5/21/2015
12318	Relocate	Steel Pier Wreck Lighted Buoy WR2	R "WR2" Q R	N 39 21' 15.452"	W 074 25' 00.307"	39.35429	-74.41676	LNM 14/15, 5th Dist	681	12318_2	4/9/2015
12318	Relocate	Steel Pier Wreck Lighted Buoy WR2	R "WR2" Q R	N 39 21' 15.452"	W 074 25' 00.307"	39.35429	-74.41676	LNM 14/15, 5th Dist	680	12318_1	4/9/2015
12318	Relocate	Five Fathom Bank Northeast Lighted Bell Buoy 2FB	R "2FB" Fl R 4s BELL	N 38 58' 12.411"	W 074 31' 34.554"	38.97012	-74.52627	LNM 40/14, 5th Dist	680	12318_1	10/9/2014
12318	Delete	Obstruction with Sounding in Feet	73 Obstn	N 39 13' 13.920"	W 074 17' 16.230"	39.22053	-74.28784	LNM 37/14, 5th Dist	680	12318_1	9/11/2014
12318	Add	Wreck with Sounding in Feet	73 Wk  USCSS ROBERT J WALKER	N 39 13' 13.920"	W 074 17' 16.230"	39.22053	-74.28784	LNM 37/14, 5th Dist	680	12318_1	9/11/2014
12318	Add	Sounding in Feet	11	N 39 16' 55.500"	W 074 31' 54.000"	39.28208	-74.53167	LNM 14/14, 5th Dist	680	12318_1	4/10/2014
12318	Add	Sounding in Feet	15	N 39 17' 10.800"	W 074 31' 42.200"	39.28633	-74.52839	LNM 14/14, 5th Dist	680	12318_1	4/10/2014
12318	Add	Sounding in Feet	7	N 39 17' 00.000"	W 074 32' 06.400"	39.28333	-74.53511	LNM 14/14, 5th Dist	680	12318_1	4/10/2014
12318	Add	Sounding in Feet	5	N 39 17' 06.700"	W 074 32' 15.500"	39.28519	-74.53764	LNM 14/14, 5th Dist	680	12318_1	4/10/2014
12318	Delete	Sounding in Feet	11	N 39 17' 23.700"	W 074 31' 08.600"	39.28992	-74.51906	LNM 14/14, 5th Dist	680	12318_1	4/10/2014
12318	Delete	Sounding in Feet	7	N 39 17' 09.500"	W 074 31' 31.300"	39.28597	-74.52536	LNM 14/14, 5th Dist	680	12318_1	4/10/2014
12318	Delete	Sounding in Feet	16	N 39 17' 02.700"	W 074 31' 27.900"	39.28408	-74.52441	LNM 14/14, 5th Dist	680	12318_1	4/10/2014
12318	Delete	Sounding in Feet	15	N 39 17' 00.500"	W 074 32' 15.000"	39.28347	-74.5375	LNM 14/14, 5th Dist	680	12318_1	4/10/2014
12318	Add	Obstruction in Feet	22 Obstn       Chart No. 1: K41	N 39 23' 08.696"	W 074 25' 20.723"	39.38575	-74.42242	LNM 12/14, 5th Dist	681	12318_2	3/20/2014
12318	Add	Obstruction in Feet	17 Obstn       Chart No. 1: K41	N 39 21' 23.540"	W 074 24' 19.127"	39.35654	-74.40531	LNM 12/14, 5th Dist	681	12318_2	3/20/2014
12318	Add	Obstruction in Feet	17 Obstn       Chart No. 1: K41	N 39 21' 23.540"	W 074 24' 19.127"	39.35654	-74.40531	LNM 12/14, 5th Dist	680	12318_1	3/20/2014
12318	Delete	Sounding in Feet	29	N 39 23' 09.720"	W 074 25' 22.820"	39.38603	-74.423	LNM 12/14, 5th Dist	681	12318_2	3/20/2014
12318	Delete	Sounding in Feet	20	N 39 21' 21.900"	W 074 24' 19.960"	39.35608	-74.40555	LNM 12/14, 5th Dist	681	12318_2	3/20/2014
12318	Add	Obstruction in Feet	11 Obstn       Chart No. 1: K41	N 39 29' 09.080"	W 074 18' 22.190"	39.48586	-74.30617	LNM 11/14, 5th Dist	680	12318_1	3/13/2014
12318	Add	Sounding in Feet	5	N 39 22' 45.340"	W 074 23' 14.880"	39.37926	-74.38747	LNM 07/14, 5th Dist	681	12318_2	2/20/2014
12318	Add	Sounding in Feet	5	N 39 22' 45.340"	W 074 23' 14.880"	39.37926	-74.38747	LNM 07/14, 5th Dist	680	12318_1	2/20/2014
12318	Add	Sounding in Feet	7	N 39 23' 44.940"	W 074 22' 09.640"	39.39582	-74.36935	LNM 07/14, 5th Dist	680	12318_1	2/20/2014
12318	Add	Sounding in Feet	6	N 39 22' 45.700"	W 074 22' 43.950"	39.37936	-74.37888	LNM 07/14, 5th Dist	680	12318_1	2/20/2014
12318	Delete	Sounding in Feet	13	N 39 22' 47.810"	W 074 23' 09.670"	39.37995	-74.38602	LNM 07/14, 5th Dist	681	12318_2	2/20/2014
12318	Delete	Sounding in Feet	13	N 39 22' 47.810"	W 074 23' 09.670"	39.37995	-74.38602	LNM 07/14, 5th Dist	680	12318_1	2/20/2014
12318	Change	Avalon Shoal Lighted Buoy 2	R "2" Fl R 6s	N 39 05' 23.412"	W 074 33' 56.559"	39.08984	-74.56571	LNM 51/13, 5th Dist	680	12318_1	12/23/2013
12318	Add	chartlet -  revising hydrography	chartlet -  revising hydrography	N 39 30' 00.000"	W 074 20' 00.000"	39.5	-74.33334	LNM 51/13, 5th Dist	680	12318_1	12/13/2013
12318	Add	Visible Wreck	(4) PA     Chart No. 1: K24	N 39 26' 00.500"	W 074 19' 56.400"	39.43347	-74.33234	LNM 40/13, 5th Dist	680	12318_1	9/30/2013
12318	Add	Wreck in Feet	19 Wk      Chart No. 1: K26	N 39 29' 34.920"	W 074 16' 20.910"	39.49303	-74.27248	LNM 40/13, 5th Dist	680	12318_1	9/30/2013
12318	Change	Fishermans Energy Lighted Data Buoy "FE-C"	Y "FE-C" Fl Y 4s Priv	N 39 18' 51.900"	W 074 24' 02.100"	39.31441	-74.40058	LNM 34/13, 5th Dist	680	12318_1	8/29/2013
12318	Add	Wreck in Feet	24 Wk	N 39 06' 48.000"	W 074 32' 24.000"	39.11333	-74.54	WNM 21/13, NGA	680	12318_1	6/10/2013
12318	Relocate	Fishermans Energy Research Lighted Data Buoy B	Y "B" Fl Y 2.5s Priv	N 39 10' 08.160"	W 074 23' 57.780"	39.16893	-74.39938	LNM 23/13, 5th Dist	680	12318_1	6/10/2013
12318	Add	Submarine Cable  PT 3 OF 3	Chart No. 1: L30.1	N 39 27' 57.428"	W 073 56' 00.103"	39.46595	-73.93336	LNM 24/13, 5th Dist	680	12318_1	6/7/2013
12318	Add	Submarine Cable  PT 1 OF 3	Chart No. 1: L30.1	N 39 30' 59.400"	W 074 07' 26.100"	39.5165	-74.12392	LNM 24/13, 5th Dist	680	12318_1	6/7/2013
12318	Add	Submarine Cable  PT 2 OF 3	Chart No. 1: L30.1	N 39 30' 16.590"	W 074 04' 10.830"	39.50461	-74.06967	LNM 24/13, 5th Dist	680	12318_1	6/7/2013
12318	Delete	Fishermans Energy Research Lighted Data Buoy B	Y "B" Fl Y 2.5s Priv	N 39 20' 56.750"	W 074 25' 10.380"	39.3491	-74.41955	LNM 22/13, 5th Dist	681	12318_2	5/30/2013
12318	Delete	Fishermans Energy Research Lighted Data Buoy B	Y "B" Fl Y 2.5s Priv	N 39 20' 56.750"	W 074 25' 10.380"	39.3491	-74.41955	LNM 22/13, 5th Dist	680	12318_1	5/30/2013
12318	Add	Fishermans Energy Research Lighted Data Buoy B	Y "B" Fl Y 2.5s Priv	N 39 10' 07.730"	W 074 23' 58.610"	39.16882	-74.39961	LNM 22/13, 5th Dist	680	12318_1	5/30/2013
12318	Change	Garden State Offshore Energy Lighted Data Buoy GS	Y "GS" Fl Y 2s RACON G (--.) Priv	N 39 04' 36.000"	W 074 18' 36.000"	39.07667	-74.31	LNM 16/13, 5th Dist	680	12318_1	4/22/2013
12318	Delete	Submarine Cable  PT 1 OF 6	Chart No. 1: L30.1	N 39 30' 59.400"	W 074 03' 03.100"	39.5165	-74.05086	LNM 14/13, 5th Dist	680	12318_1	4/2/2013
12318	Delete	Submarine Cable  PT 2 OF 6	Chart No. 1: L30.1	N 39 24' 20.100"	W 074 00' 22.500"	39.40558	-74.00625	LNM 14/13, 5th Dist	680	12318_1	4/2/2013
12318	Delete	Submarine Cable  PT 3 OF 6	Chart No. 1: L30.1	N 39 22' 56.200"	W 073 59' 35.100"	39.38228	-73.99308	LNM 14/13, 5th Dist	680	12318_1	4/2/2013
12318	Delete	Submarine Cable  PT 4 OF 6	Chart No. 1: L30.1	N 39 17' 11.200"	W 073 57' 58.200"	39.28645	-73.96616	LNM 14/13, 5th Dist	680	12318_1	4/2/2013
12318	Delete	Submarine Cable  PT 5 OF 6	Chart No. 1: L30.1	N 39 16' 50.200"	W 073 57' 44.000"	39.28061	-73.96222	LNM 14/13, 5th Dist	680	12318_1	4/2/2013
12318	Delete	Submarine Cable  PT 6 OF 6	Chart No. 1: L30.1	N 39 11' 58.100"	W 073 55' 59.400"	39.19947	-73.93317	LNM 14/13, 5th Dist	680	12318_1	4/2/2013
12318	Delete	Fishermens Energy Research Lighted Data Buoy B	Y "B" Fl Y 2.5s Priv	N 39 10' 07.730"	W 074 23' 58.610"	39.16882	-74.39961	LNM 11/13, 5th Dist	680	12318_1	3/18/2013
12318	Add	Fishermens Energy Research Lighted Data Buoy B	Y "B" Fl Y 2.5s Priv	N 39 20' 56.750"	W 074 25' 10.380"	39.3491	-74.41955	LNM 11/13, 5th Dist	681	12318_2	3/18/2013
12318	Add	Fishermens Energy Research Lighted Data Buoy B	Y "B" Fl Y 2.5s Priv	N 39 20' 56.750"	W 074 25' 10.380"	39.3491	-74.41955	LNM 11/13, 5th Dist	680	12318_1	3/18/2013
12318	Add	Fishermans Energy Research Lighted Data Buoy B	Y "B" Fl Y 2.5s Priv	N 39 10' 07.730"	W 074 23' 58.610"	39.16882	-74.39961	LNM 05/13, 5th Dist	680	12318_1	1/31/2013
12318	Add	HURRICANES AND TROPICAL STORMS NOTE	HURRICANES AND TROPICAL STORMS Note: Hurricanes, tropical storms and other major storms may cause considerable damage to marine structures, aids to navigation and moored vessels, resulting in submerged debris in unknown locations. Charted soundings, channel depths and shoreline may not reflect actual conditions following these storms. Fixed aids to navigation may have been damaged or destroyed. Buoys may have been moved from their charted positions, damaged, sunk, extinguished or otherwise made inoperative. Mariners should not rely upon the position or operation of an aid to navigation. Wrecks and submerged obstructions may have been displaced from charted locations. Pipelines may have become uncovered or moved. Mariners are urged to exercise extreme caution and are requested to report aids to navigation discrepancies and hazards to navigation to the nearest United States Coast Guard uni	N 39 07' 41.000"	W 074 49' 35.000"	39.12806	-74.82639	LNM 50/12, 5th Dist	680	12318_1	12/6/2012
12318	Add	Submarine Cable  PT 1 OF 6	Chart No. 1: L30.1	N 39 30' 59.400"	W 074 03' 03.100"	39.5165	-74.05086	LNM 32/12, 5th Dist	680	12318_1	8/6/2012
12318	Add	Submarine Cable  PT 2 OF 6	Chart No. 1: L30.1	N 39 24' 20.100"	W 074 00' 22.500"	39.40558	-74.00625	LNM 32/12, 5th Dist	680	12318_1	8/6/2012
12318	Add	Submarine Cable  PT 3 OF 6	Chart No. 1: L30.1	N 39 22' 56.200"	W 073 59' 35.100"	39.38228	-73.99308	LNM 32/12, 5th Dist	680	12318_1	8/6/2012
12318	Add	Submarine Cable  PT 4 OF 6	Chart No. 1: L30.1	N 39 17' 11.200"	W 073 57' 58.200"	39.28645	-73.96616	LNM 32/12, 5th Dist	680	12318_1	8/6/2012
12318	Add	Submarine Cable  PT 5 OF 6	Chart No. 1: L30.1	N 39 16' 50.200"	W 073 57' 44.000"	39.28061	-73.96222	LNM 32/12, 5th Dist	680	12318_1	8/6/2012
12318	Add	Submarine Cable  PT 6 OF 6	Chart No. 1: L30.1	N 39 11' 58.100"	W 073 55' 59.400"	39.19947	-73.93317	LNM 32/12, 5th Dist	680	12318_1	8/6/2012
12318	Delete	Hereford Inlet Lighted Whistle Buoy H	RW "H" Mo (A) WHIS	N 38 59' 36.207"	W 074 45' 33.803"	38.99339	-74.75939	LNM 42/11, 5th Dist	680	12318_1	10/26/2011
12318	Delete	 Ocean Power Technologies Lighted Data Buoy OPT	Y "OPT" Fl Y 6s Priv	N 39 28' 47.220"	W 074 12' 47.460"	39.47978	-74.21318	LNM 34/11, 5th Dist	680	12318_1	8/29/2011
12318	Change	Absecon Inlet Lighted Buoy 1	G "1" Fl G 4s	N 39 20' 47.457"	W 074 24' 01.173"	39.34652	-74.40033	LNM 26/11, 5th Dist	681	12318_2	7/5/2011
12318	Change	Absecon Inlet Lighted Buoy 1	G "1" Fl G 4s	N 39 20' 47.457"	W 074 24' 01.173"	39.34652	-74.40033	LNM 26/11, 5th Dist	680	12318_1	7/5/2011
12318	Add	Garden State Offshore Energy Lighted Data Buoy GS	Y "GS" Fl Y 2s Priv	N 39 04' 36.000"	W 074 18' 36.000"	39.07667	-74.31	LNM 18/11, 5th Dist	680	12318_1	5/9/2011
12318	Relocate	Townsends Inlet Shoals Lighted Bell Buoy 4A	R "4A" Fl R 4s BELL	N 39 07' 05.411"	W 074 40' 37.577"	39.11817	-74.6771	LNM 09/11, 5th Dist	680	12318_1	3/8/2011
12318	Relocate	Hereford Inlet Lighted Whistle Buoy H	RW "H" Mo (A) WHIS	N 38 59' 36.207"	W 074 45' 33.803"	38.99339	-74.75939	LNM 08/11, 5th Dist	680	12318_1	3/8/2011
12318	Relocate	Avalon Shoal Lighted Bell Buoy 2	R "2" Fl R 6s BELL	N 39 05' 23.412"	W 074 33' 56.559"	39.08984	-74.56571	LNM 24/10, 5th Dist	680	12318_1	6/23/2010
12318	Relocate	Little Egg Inlet Outer Lighted Whistle Buoy LE	RW "LE" Mo (A) WHIS	N 39 27' 56.219"	W 074 16' 27.346"	39.46562	-74.27426	LNM 17/10, 5th Dist	680	12318_1	5/13/2010
12318	Relocate	Fisherman's Energy Lighted Data Buoy A	Y "A" Fl Y 4s Priv	N 39 18' 51.900"	W 074 24' 02.100"	39.31441	-74.40058	LNM 17/10, 5th Dist	680	12318_1	5/13/2010
12323	Add	Obstruction in Feet	11 Obstn       Chart No. 1: K41	N 39 30' 04.910"	W 074 16' 32.400"	39.50137	-74.27567	LNM 03/16, 5th Dist	682	12323_1	1/14/2016
12323	Substitute	Wreck in Feet	17 Wk for 19 Wk      Chart No. 1: K26	N 39 29' 35.750"	W 074 16' 18.880"	39.49326	-74.27191	LNM 03/16, 5th Dist	682	12323_1	1/14/2016
12323	Substitute	Wreck in Feet	12 Wk for Wk PA      Chart No. 1: K26	N 39 30' 05.260"	W 074 16' 44.700"	39.50146	-74.27908	LNM 03/16, 5th Dist	682	12323_1	1/14/2016
12323	Add	Obstruction in Feet	17 Obstn       Chart No. 1: K41	N 39 32' 55.630"	W 074 14' 37.690"	39.54879	-74.2438	LNM 03/16, 5th Dist	682	12323_1	1/14/2016
12323	Add	Wreck in Feet	9 Wk      Chart No. 1: K26	N 39 28' 39.560"	W 074 17' 13.100"	39.47766	-74.28697	LNM 03/16, 5th Dist	682	12323_1	1/14/2016
12323	Add	Obstruction in Feet	14 Obstn       Chart No. 1: K41	N 39 30' 23.280"	W 074 16' 16.120"	39.50647	-74.27114	LNM 03/16, 5th Dist	682	12323_1	1/14/2016
12323	Change	Barnegat Inlet South Breakwater Light 7	Q G 35ft 5M "7"	N 39 45' 25.616"	W 074 05' 35.697"	39.75711	-74.09325	LNM 45/15, 5th Dist	682	12323_1	11/19/2015
12323	Add	Lighted yellow buoy	Y Fl Y Priv	N 39 28' 47.220"	W 074 12' 47.460"	39.47978	-74.21318	LNM 41/15, 5th Dist	682	12323_1	10/8/2015
12323	Relocate	University of California Lighted Data Buoy A	Y "A" Fl (5) Y 20s Priv	N 39 46' 40.930"	W 073 46' 08.602"	39.77803	-73.76906	LNM 36/15, 5th Dist	682	12323_1	9/17/2015
12323	Relocate	Little Egg Inlet Outer Lighted Whistle Buoy LE	RW "LE" Mo (A) WHIS	N 39 28' 12.390"	W 074 16' 08.941"	39.47011	-74.26915	LNM 30/15, 5th Dist	682	12323_1	8/6/2015
12323	Change	University of California Lighted Data Buoy A	Y "A" Fl (5) Y 20s Priv	N 39 46' 10.080"	W 073 46' 11.640"	39.76947	-73.7699	LNM 21/15, 5th Dist	682	12323_1	6/4/2015
12323	Change	Manasquan Inlet Light 3	Fl G 6s 35ft 8M "3" HORN (MRASS)	N 40 06' 01.374"	W 074 01' 54.240"	40.10038	-74.03173	LNM 17/15, 5th Dist	682	12323_1	5/7/2015
12323	Add	Note - MARINER ACTIVATED SOUND SIGNALS:	Sound signals labeled with (MRASS) require user activation.  See USCG Light List.	N 39 56' 37.000"	W 074 16' 10.000"	39.94361	-74.26945	LNM 17/15, 5th Dist	682	12323_1	5/7/2015
12323	Relocate	Manasquan Inlet Light 3	Fl G 6s 35ft 8M "3" HORN (MRASS)	N 40 06' 01.374"	W 074 01' 54.240"	40.10038	-74.03173	LNM 17/15, 5th Dist	682	12323_1	5/7/2015
12323	Delete	Obstruction in Feet	22 Obstn    Chart No. 1: K41	N 39 46' 28.700"	W 074 04' 58.710"	39.77464	-74.08298	LNM 12/15, 5th Dist	682	12323_1	3/26/2015
12323	Delete	Obstruction in Feet	40 Obstn    Chart No. 1: K41	N 39 45' 48.700"	W 074 04' 18.690"	39.76353	-74.07186	LNM 12/15, 5th Dist	682	12323_1	3/26/2015
12323	Delete	Wreck in Feet	23 Wk      Chart No. 1: K26	N 39 46' 06.090"	W 074 05' 04.250"	39.76836	-74.08451	LNM 12/15, 5th Dist	682	12323_1	3/26/2015
12323	Add	Obstruction in Feet	17 Obstn    Chart No. 1: K41	N 39 46' 01.880"	W 074 05' 25.700"	39.76719	-74.09047	LNM 12/15, 5th Dist	682	12323_1	3/26/2015
12323	Delete	Obstruction in Feet	27 Obstn    Chart No. 1: K41	N 39 45' 59.960"	W 074 05' 00.390"	39.76665	-74.08344	LNM 12/15, 5th Dist	682	12323_1	3/26/2015
12323	Delete	Obstruction in Feet	40 Obstn    Chart No. 1: K41	N 39 45' 00.740"	W 074 04' 44.770"	39.75021	-74.0791	LNM 12/15, 5th Dist	682	12323_1	3/26/2015
12323	Delete	Obstruction in Feet	26 Obstn    Chart No. 1: K41	N 39 46' 05.430"	W 074 04' 47.900"	39.76817	-74.07997	LNM 12/15, 5th Dist	682	12323_1	3/26/2015
12323	Delete	Wreck in Feet	16 Wk      Chart No. 1: K26	N 39 46' 28.700"	W 074 05' 10.370"	39.77464	-74.08621	LNM 12/15, 5th Dist	682	12323_1	3/26/2015
12323	Delete	Wreck in Feet	23 Wk      Chart No. 1: K26	N 39 46' 51.520"	W 074 05' 13.280"	39.78098	-74.08702	LNM 12/15, 5th Dist	682	12323_1	3/26/2015
12323	Delete	Obstruction in Feet	27 Obstn    Chart No. 1: K41	N 39 43' 51.280"	W 074 06' 31.390"	39.73091	-74.10872	LNM 12/15, 5th Dist	682	12323_1	3/26/2015
12323	Add	Wreck in Feet	23 Wk      Chart No. 1: K26	N 39 46' 28.540"	W 074 04' 58.530"	39.77459	-74.08292	LNM 12/15, 5th Dist	682	12323_1	3/26/2015
12323	Add	Wreck in Feet	25 Wk      Chart No. 1: K26	N 39 46' 06.630"	W 074 05' 01.630"	39.76851	-74.08379	LNM 12/15, 5th Dist	682	12323_1	3/26/2015
12323	Add	Wreck in Feet	21 Wk      Chart No. 1: K26	N 39 46' 28.620"	W 074 05' 10.150"	39.77462	-74.08615	LNM 12/15, 5th Dist	682	12323_1	3/26/2015
12323	Add	Wreck in Feet	25 Wk      Chart No. 1: K26	N 39 46' 50.500"	W 074 05' 13.500"	39.78069	-74.08708	LNM 12/15, 5th Dist	682	12323_1	3/26/2015
12323	Add	Wreck in Feet	14 Wk      Chart No. 1: K26	N 39 46' 25.390"	W 074 05' 25.140"	39.77372	-74.09032	LNM 12/15, 5th Dist	682	12323_1	3/26/2015
12323	Add	Obstruction in Feet	29 Obstn    Chart No. 1: K41	N 39 43' 47.060"	W 074 06' 30.580"	39.72974	-74.1085	LNM 12/15, 5th Dist	682	12323_1	3/26/2015
12323	Relocate	University of California Lighted Data Buoy A	Y "A" Fl Y 4s Priv	N 39 46' 10.080"	W 073 46' 11.640"	39.76947	-73.7699	LNM 01/15, 5th Dist	682	12323_1	1/8/2015
12323	Relocate	Barnegat Inlet North Jetty Danger Buoy A	W Or C "A"	N 39 45' 40.876"	W 074 05' 23.898"	39.76135	-74.08997	LNM 44/14, 5th Dist	682	12323_1	11/13/2014
12323	Add	University of California Lighted Data Buoy A	Y "A" Fl Y 4s Priv	N 39 46' 10.440"	W 073 46' 09.660"	39.76957	-73.76935	LNM 26/14, 5th Dist	682	12323_1	7/10/2014
12323	Change	Manasquan Inlet Light 4	Fl R 4s 30ft 8M "4"	N 40 06' 06.120"	W 074 01' 53.232"	40.1017	-74.03146	LNM 23/14, 5th Dist	682	12323_1	6/19/2014
12323	Add	Obstruction in Feet	11 Obstn       Chart No. 1: K41	N 39 29' 09.080"	W 074 18' 22.190"	39.48586	-74.30617	LNM 11/14, 5th Dist	682	12323_1	3/13/2014
12323	Add	chartlet -  revising hydrography	chartlet -  revising hydrography	N 39 30' 00.000"	W 074 20' 00.000"	39.5	-74.33334	LNM 51/13, 5th Dist	682	12323_1	12/13/2013
12323	Add	Wreck in Feet	19 Wk      Chart No. 1: K26	N 39 29' 34.920"	W 074 16' 20.910"	39.49303	-74.27248	LNM 40/13, 5th Dist	682	12323_1	9/30/2013
12323	Add	Sounding in Feet	8	N 39 44' 54.840"	W 074 05' 19.160"	39.74857	-74.08865	LNM 39/13, 5th Dist	682	12323_1	9/20/2013
12323	Add	Sounding in Feet	4	N 39 44' 56.110"	W 074 05' 25.720"	39.74892	-74.09048	LNM 39/13, 5th Dist	682	12323_1	9/20/2013
12323	Add	Sounding in Feet	3	N 39 44' 55.740"	W 074 05' 42.910"	39.74882	-74.09525	LNM 39/13, 5th Dist	682	12323_1	9/20/2013
12323	Delete	Sounding in Feet	23	N 39 44' 54.120"	W 074 05' 24.390"	39.74837	-74.09011	LNM 39/13, 5th Dist	682	12323_1	9/20/2013
12323	Change	Barnegat Inlet South Breakwater Light 7	Q G 37ft 8M "7"	N 39 45' 25.616"	W 074 05' 35.697"	39.75711	-74.09325	LNM 30/13, 5th Dist	682	12323_1	7/30/2013
12323	Add	Shoaling Label	Shoaling rep 2013	N 39 39' 36.600"	W 074 09' 07.320"	39.66017	-74.15203	LNM 30/13, 5th Dist	682	12323_1	7/30/2013
12323	Add	Submarine Cable  PT 1 OF 6	Chart No. 1: L30.1	N 39 31' 54.540"	W 074 10' 32.020"	39.53182	-74.17556	LNM 24/13, 5th Dist	682	12323_1	6/7/2013
12323	Add	Submarine Cable  PT 2 OF 6	Chart No. 1: L30.1	N 39 31' 45.950"	W 074 10' 20.150"	39.52943	-74.17226	LNM 24/13, 5th Dist	682	12323_1	6/7/2013
12323	Add	Submarine Cable  PT 3 OF 6	Chart No. 1: L30.1	N 39 30' 17.520"	W 074 04' 14.210"	39.50487	-74.07062	LNM 24/13, 5th Dist	682	12323_1	6/7/2013
12323	Add	Submarine Cable  PT 4 OF 6	Chart No. 1: L30.1	N 39 27' 22.420"	W 073 53' 38.350"	39.45623	-73.89399	LNM 24/13, 5th Dist	682	12323_1	6/7/2013
12323	Add	Submarine Cable  PT 5 OF 6	Chart No. 1: L30.1	N 39 27' 10.770"	W 073 53' 15.250"	39.45299	-73.88757	LNM 24/13, 5th Dist	682	12323_1	6/7/2013
12323	Add	Submarine Cable  PT 6 OF 6	Chart No. 1: L30.1	N 39 26' 59.950"	W 073 53' 00.380"	39.44999	-73.88344	LNM 24/13, 5th Dist	682	12323_1	6/7/2013
12323	Change	Barnegat Inlet South Breakwater Light 7	Q G 37ft 8M "7" HORN	N 39 45' 25.616"	W 074 05' 35.697"	39.75711	-74.09325	LNM 16/13, 5th Dist	682	12323_1	4/22/2013
12323	Change	Ocean Power Lighted Data Buoy A	Y "A" Fl Y 4s Priv	N 40 01' 59.971"	W 073 40' 00.019"	40.03333	-73.66667	LNM 10/13, 5th Dist	682	12323_1	3/7/2013
12323	Delete	Ocean Power Lighted Data Buoy A	Y "A" Fl Y 4s Priv	N 40 01' 59.971"	W 073 40' 00.019"	40.03333	-73.66667	LNM 09/13, 5th Dist	682	12323_1	3/5/2013
12323	Change	Ocean Power Lighted Data Buoy A	Y "A" Fl Y 6s Priv	N 40 01' 59.971"	W 073 40' 00.019"	40.03333	-73.66667	LNM 09/13, 5th Dist	682	12323_1	3/5/2013
12323	Change	Barnegat Inlet South Breakwater Light 7	Q G 37ft 6M "7"	N 39 45' 25.616"	W 074 05' 35.697"	39.75711	-74.09325	LNM 06/13, 5th Dist	682	12323_1	2/15/2013
12323	Relocate	Manasquan Inlet Lighted Bell Buoy 2M	R "2M" Fl R 4s BELL	N 40 05' 32.217"	W 074 00' 48.188"	40.09228	-74.01338	LNM 05/13, 5th Dist	682	12323_1	1/31/2013
12324	Change	New Jersey Intracoastal Waterway Light 97	Fl G 2.5s 15ft 4M "97"	N 39 34' 51.942"	W 074 13' 49.921"	39.5811	-74.23054	LNM 19/17, 5th Dist	689	12324_7	5/18/2017
12324	Change	New Jersey Intracoastal Waterway Light 48	Fl R 2.5s 17ft 4M "48"	N 39 43' 51.060"	W 074 09' 02.700"	39.73085	-74.15075	LNM 18/17, 5th Dist	687	12324_5	5/11/2017
12324	Change	New Jersey Intracoastal Waterway Light 68	Q R 15ft 4M "68"	N 39 39' 55.737"	W 074 12' 10.917"	39.66548	-74.20303	LNM 18/17, 5th Dist	689	12324_7	5/11/2017
12324	Change	New Jersey Intracoastal Waterway Light 74	Fl R 4s 15ft 4M "74"	N 39 38' 26.602"	W 074 12' 18.878"	39.64072	-74.20525	LNM 18/17, 5th Dist	689	12324_7	5/11/2017
12324	Change	New Jersey Intracoastal Waterway Light 78	Fl R 2.5s 15ft 4M "78"	N 39 37' 30.081"	W 074 12' 04.285"	39.62502	-74.20119	LNM 18/17, 5th Dist	689	12324_7	5/11/2017
12324	Relocate	New Jersey Intracoastal Waterway Light 48	Fl R 2.5s 17ft 4M "48"	N 39 43' 51.060"	W 074 09' 02.700"	39.73085	-74.15075	LNM 18/17, 5th Dist	687	12324_5	5/11/2017
12324	Change	Oyster Creek Channel Buoy 40	R N "40"	N 39 47' 29.365"	W 074 09' 30.520"	39.79149	-74.15848	LNM 17/17, 5th Dist	687	12324_5	5/4/2017
12324	Relocate	Oyster Creek Channel Buoy 40	R N "40"	N 39 47' 29.365"	W 074 09' 30.520"	39.79149	-74.15848	LNM 17/17, 5th Dist	687	12324_5	5/4/2017
12324	Add	Oyster Creek Channel Lighted Buoy 42	R "42" Q R	N 39 47' 28.468"	W 074 09' 38.183"	39.79124	-74.16061	LNM 17/17, 5th Dist	687	12324_5	5/4/2017
12324	Change	New Jersey Intracoastal Waterway Light 62	Q R 15ft 4M "62"	N 39 40' 24.651"	W 074 10' 31.272"	39.67352	-74.17535	LNM 16/17, 5th Dist	687	12324_5	4/27/2017
12324	Change	New Jersey Intracoastal Waterway Light 62	Q R 15ft 4M "62"	N 39 40' 24.651"	W 074 10' 31.272"	39.67352	-74.17535	LNM 16/17, 5th Dist	689	12324_7	4/27/2017
12324	Add	NAVAL WEAPON STATION EARL BUOY 1	"1" Q	N 40 27' 35.317"	W 074 02' 28.246"	40.45981	-74.04118	LNM 15/17, 1st Dist	683	12324_1	4/20/2017
12324	Add	NAVAL WEAPON STATION EARL BUOY 2	"2" Q	N 40 27' 47.400"	W 074 03' 00.600"	40.46317	-74.05016	LNM 15/17, 1st Dist	683	12324_1	4/20/2017
12324	Add	NAVAL WEAPON STATION EARL BUOY 3	"3" Q	N 40 27' 27.800"	W 074 02' 10.300"	40.45772	-74.03619	LNM 15/17, 1st Dist	683	12324_1	4/20/2017
12324	Add	NAVAL WEAPON STATION EARL BUOY 4	"4" Q	N 40 27' 56.000"	W 074 03' 24.000"	40.46556	-74.05666	LNM 15/17, 1st Dist	683	12324_1	4/20/2017
12324	Add	NAVAL WEAPON STATION EARL BUOY 6	"6" Q	N 40 27' 25.519"	W 074 03' 44.662"	40.45709	-74.06241	LNM 15/17, 1st Dist	683	12324_1	4/20/2017
12324	Add	NAVAL WEAPON STATION EARL BUOY 7	"7" Q	N 40 26' 29.470"	W 074 02' 51.132"	40.44152	-74.04754	LNM 15/17, 1st Dist	683	12324_1	4/20/2017
12324	Add	NAVAL WEAPON STATION EARL BUOY 8	"8" Q	N 40 26' 57.960"	W 074 04' 03.000"	40.44943	-74.0675	LNM 15/17, 1st Dist	683	12324_1	4/20/2017
12324	Add	NAVAL WEAPON STATION EARL BUOY 9	"9" Q	N 40 26' 06.300"	W 074 03' 12.480"	40.43508	-74.05347	LNM 15/17, 1st Dist	683	12324_1	4/20/2017
12326	Change	AMBROSE CHANNEL LTD BUOY 1	G "1" Fl G 2.5s	N 40 28' 07.492"	W 073 52' 20.004"	40.46875	-73.87222	LNM 23/17, 1st Dist	690	12326_1	6/15/2017
12326	Change	AMBROSE CHANNEL LTD BUOY 6	R "6" Fl R 2.5s	N 40 29' 41.141"	W 073 55' 25.889"	40.49476	-73.92386	LNM 23/17, 1st Dist	690	12326_1	6/15/2017
12326	Change	Depth Legend - AMBROSE CHANNEL REACH A	55 FT MID 1000 FT SEP 2016	N 40 29' 08.160"	W 073 54' 30.730"	40.4856	-73.90854	LNM 10/17, 1st Dist	690	12326_1	3/2/2017
12326	Change	Depth Legend - AMBROSE CHANNEL REACH B	52 1/2 FT MID 1000 FT SEP 2016	N 40 30' 48.710"	W 073 58' 48.540"	40.51353	-73.98015	LNM 10/17, 1st Dist	690	12326_1	3/2/2017
12326	Delete	WHARF (PT 1 OF 4)	None	N 40 40' 21.480"	W 074 00' 57.420"	40.67263	-74.01595	LNM 50/16, 1st Dist	690	12326_1	12/22/2016
12326	Delete	WHARF (PT 2 OF 4)	None	N 40 40' 18.000"	W 074 01' 01.440"	40.67167	-74.01707	LNM 50/16, 1st Dist	690	12326_1	12/22/2016
12326	Delete	WHARF (PT 3 OF 4)	None	N 40 40' 17.400"	W 074 01' 00.660"	40.6715	-74.01685	LNM 50/16, 1st Dist	690	12326_1	12/22/2016
12326	Delete	WHARF (PT 4 OF 4)	None	N 40 40' 20.880"	W 074 00' 56.400"	40.67247	-74.01566	LNM 50/16, 1st Dist	690	12326_1	12/22/2016
12326	Delete	SHREWSBURY ROCKS LTD BUOY 1	G "1" Fl G 2s	N 40 20' 27.896"	W 073 55' 34.489"	40.34108	-73.92625	LNM 46/16, 1st Dist	690	12326_1	11/24/2016
12326	Change	SANDY HOOK POINT LIGHT	Iso 6s 38ft 7M	N 40 28' 14.700"	W 074 01' 07.200"	40.47075	-74.01867	LNM 46/16, 1st Dist	690	12326_1	11/24/2016
12326	Add	WRECK	PA	N 40 27' 06.738"	W 073 50' 29.388"	40.45187	-73.8415	LNM 40/16, 1st Dist	690	12326_1	10/13/2016
12326	Change	Sandy Hook Channel Lighted Buoy 7	G "7" Q G 	N 40 28' 44.186"	W 073 58' 51.398"	40.47894	-73.98094	LNM 38/16, 1st Dist	690	12326_1	9/29/2016
12326	Change	SANDY HOOK CHANNEL LTD BUOY 4	R "4" Fl R 4s	N 40 27' 49.867"	W 073 57' 04.302"	40.46385	-73.95119	LNM 37/16, 1st Dist	690	12326_1	9/22/2016
12326	Change	SANDY HOOK CHANNEL LTD BUOY 7	G "7" Q G	N 40 28' 44.186"	W 073 58' 51.398"	40.47894	-73.98094	LNM 37/16, 1st Dist	690	12326_1	9/22/2016
12326	Delete	Wreck in Feet	36 Wk      	N 40 29' 11.950"	W 073 59' 59.870"	40.48665	-73.99996	LNM 29/16, 1st Dist	690	12326_1	7/14/2016
12326	Add	Obstruction in Feet	36 Obstn     	N 40 29' 11.950"	W 073 59' 59.870"	40.48665	-73.99996	LNM 29/16, 1st Dist	690	12326_1	7/14/2016
12326	Add	Wreck in Feet	36 Wk      	N 40 29' 11.950"	W 073 59' 59.870"	40.48665	-73.99996	LNM 28/16, 1st Dist	690	12326_1	7/7/2016
12327	Change	AMBROSE CHANNEL LTD BUOY 6	R "6" Fl R 2.5s	N 40 29' 41.141"	W 073 55' 25.889"	40.49476	-73.92386	LNM 23/17, 1st Dist	2245	12327_1	6/15/2017
12327	Add	NAVAL WEAPON STATION EARL BUOY 1	"1" Q	N 40 27' 35.317"	W 074 02' 28.246"	40.45981	-74.04118	LNM 15/17, 1st Dist	2245	12327_1	4/20/2017
12327	Add	NAVAL WEAPON STATION EARL BUOY 2	"2" Q	N 40 27' 47.400"	W 074 03' 00.600"	40.46317	-74.05016	LNM 15/17, 1st Dist	2245	12327_1	4/20/2017
12327	Add	NAVAL WEAPON STATION EARL BUOY 3	"3" Q	N 40 27' 27.800"	W 074 02' 10.300"	40.45772	-74.03619	LNM 15/17, 1st Dist	2245	12327_1	4/20/2017
12327	Add	NAVAL WEAPON STATION EARL BUOY 4	"4" Q	N 40 27' 56.000"	W 074 03' 24.000"	40.46556	-74.05666	LNM 15/17, 1st Dist	2245	12327_1	4/20/2017
12327	Add	NAVAL WEAPON STATION EARL BUOY 6	"6" Q	N 40 27' 25.519"	W 074 03' 44.662"	40.45709	-74.06241	LNM 15/17, 1st Dist	2245	12327_1	4/20/2017
12327	Add	NAVAL WEAPON STATION EARL BUOY 7	"7" Q	N 40 26' 29.470"	W 074 02' 51.132"	40.44152	-74.04754	LNM 15/17, 1st Dist	2245	12327_1	4/20/2017
12327	Add	NAVAL WEAPON STATION EARL BUOY 8	"8" Q	N 40 26' 57.960"	W 074 04' 03.000"	40.44943	-74.0675	LNM 15/17, 1st Dist	2245	12327_1	4/20/2017
12327	Add	NAVAL WEAPON STATION EARL BUOY 9	"9" Q	N 40 26' 06.300"	W 074 03' 12.480"	40.43508	-74.05347	LNM 15/17, 1st Dist	2245	12327_1	4/20/2017
12327	Add	PILE	Pile	N 40 38' 50.700"	W 074 08' 53.480"	40.64742	-74.14819	LNM 14/17, 1st Dist	2245	12327_1	4/13/2017
12331	Change	tabulation - LOWER BAY AND RARITAN BAY CHANNEL DEPTHS	tabulation - LOWER BAY AND RARITAN BAY CHANNEL DEPTHS	N 40 29' 42.000"	W 074 07' 49.000"	40.495	-74.13028	LNM 10/17, 1st Dist	2241	12331_1	3/16/2017
12331	Add	Obstruction in Feet	12 Obstn       	N 40 29' 03.300"	W 074 15' 25.360"	40.48425	-74.25704	LNM 52/16, 1st Dist	2241	12331_1	12/22/2016
12331	Add	Obstruction in Feet	6 Obstn       	N 40 27' 10.490"	W 074 11' 48.090"	40.45292	-74.19669	LNM 52/16, 1st Dist	2241	12331_1	12/22/2016
12331	Change	tabulation - RARITAN BAY AND ARTHUR KILL CHANNEL DEPTHS	tabulation - RARITAN BAY AND ARTHUR KILL CHANNEL DEPTHS	N 40 32' 40.000"	W 074 13' 22.000"	40.54445	-74.22278	LNM 49/16, 1st Dist	2241	12331_1	12/1/2016
12331	Change	tabulation - RARITAN BAY AND ARTHUR KILL CHANNEL DEPTHS	tabulation - RARITAN BAY AND ARTHUR KILL CHANNEL DEPTHS	N 40 32' 40.000"	W 074 13' 22.000"	40.54445	-74.22278	LNM 44/16, 1st Dist	2241	12331_1	10/27/2016
12331	Change	tabulation - KEYPORT HARBOR CHANNEL DEPTHS	tabulation - KEYPORT HARBOR CHANNEL DEPTHS	N 40 26' 30.000"	W 074 13' 43.000"	40.44167	-74.22861	Not Yet Published	2241	12331_1	10/27/2016
12331	Change	RARITAN BAY CHANNEL LTD BUOY 14	R "14" Fl R 2.5s	N 40 29' 48.281"	W 074 08' 00.554"	40.49675	-74.13348	LNM 37/16, 1st Dist	2241	12331_1	9/22/2016
12331	Relocate	RARITAN BAY CHANNEL LTD BUOY 14	R "14" Fl R 2.5s	N 40 29' 48.281"	W 074 08' 00.554"	40.49675	-74.13348	LNM 37/16, 1st Dist	2241	12331_1	9/22/2016
12331	Change	Bridge Construction	Chart No. 1: D.d, with magenta screen extending 500 feet from bridge	N 40 26' 07.400"	W 074 12' 49.000"	40.43539	-74.21361	LNM 38/16, 1st Dist	2241	12331_1	9/15/2016
12331	Delete	Fixed Bridge Label	FIXED BRIDGE HOR CL 49 FT VERT CL 6 FT	N 40 26' 07.400"	W 074 12' 49.000"	40.43539	-74.21361	LNM 38/16, 1st Dist	2241	12331_1	9/15/2016
12331	Add	Bridge Construction Label	Bridge under construction (see note)	N 40 26' 07.400"	W 074 12' 49.000"	40.43539	-74.21361	LNM 38/16, 1st Dist	2241	12331_1	9/15/2016
12331	Add	CAUTION NOTE	CAUTIONFixed and floating obstructions, some submerged, mayexist within the magenta tinted bridge construction area.Mariners are advised to proceed with caution.	N 40 32' 07.000"	W 074 10' 35.000"	40.53528	-74.17639	LNM 38/16, 1st Dist	2241	12331_1	9/15/2016
12331	Delete	Anchorage Area label	47	N 40 27' 51.770"	W 074 12' 36.180"	40.46438	-74.21005	LNM 30/16, 1st Dist	2241	12331_1	7/21/2016
12331	Delete	Anchorage Area label	47	N 40 29' 56.100"	W 074 10' 04.000"	40.49892	-74.16778	LNM 30/16, 1st Dist	2241	12331_1	7/21/2016
12331	Delete	Anchorage Area PT 1 OF 10	None	N 40 29' 19.870"	W 074 16' 17.700"	40.48885	-74.27158	LNM 30/16, 1st Dist	2241	12331_1	7/21/2016
12331	Delete	Anchorage Area PT 2 OF 10	None	N 40 29' 21.470"	W 074 16' 10.940"	40.4893	-74.26971	LNM 30/16, 1st Dist	2241	12331_1	7/21/2016
12331	Delete	Anchorage Area PT 3 OF 10	None	N 40 29' 02.900"	W 074 15' 37.360"	40.48414	-74.26038	LNM 30/16, 1st Dist	2241	12331_1	7/21/2016
12331	Delete	Anchorage Area PT 4 OF 10	None	N 40 28' 48.970"	W 074 14' 30.370"	40.48027	-74.24177	LNM 30/16, 1st Dist	2241	12331_1	7/21/2016
12331	Delete	Anchorage Area PT 5 OF 10	None	N 40 29' 55.650"	W 074 09' 02.490"	40.49879	-74.15069	LNM 30/16, 1st Dist	2241	12331_1	7/21/2016
12331	Delete	Anchorage Area PT 6 OF 10	None	N 40 27' 35.580"	W 074 08' 38.980"	40.45988	-74.14416	LNM 30/16, 1st Dist	2241	12331_1	7/21/2016
12331	Delete	Anchorage Area PT 7 OF 10	None	N 40 28' 32.410"	W 074 11' 14.880"	40.47567	-74.18747	LNM 30/16, 1st Dist	2241	12331_1	7/21/2016
12331	Delete	Anchorage Area PT 8 OF 10	None	N 40 26' 26.230"	W 074 12' 21.940"	40.44062	-74.20609	LNM 30/16, 1st Dist	2241	12331_1	7/21/2016
12331	Delete	Anchorage Area PT 9 OF 10	None	N 40 28' 25.780"	W 074 11' 01.300"	40.47383	-74.18369	LNM 30/16, 1st Dist	2241	12331_1	7/21/2016
12331	Delete	Anchorage Area PT 10 OF 10	None	N 40 26' 53.990"	W 074 11' 52.270"	40.44833	-74.19785	LNM 30/16, 1st Dist	2241	12331_1	7/21/2016
12331	Delete	Anchorage Area PT 1 OF 5	None	N 40 29' 52.200"	W 074 15' 01.800"	40.49783	-74.2505	LNM 30/16, 1st Dist	2241	12331_1	7/21/2016
12331	Delete	Anchorage Area PT 2 OF 5	None	N 40 29' 48.900"	W 074 15' 10.800"	40.49692	-74.253	LNM 30/16, 1st Dist	2241	12331_1	7/21/2016
12331	Delete	Anchorage Area PT 3 OF 5	None	N 40 30' 34.600"	W 074 11' 25.000"	40.50961	-74.19028	LNM 30/16, 1st Dist	2241	12331_1	7/21/2016
12331	Delete	Anchorage Area PT 4 OF 5	None	N 40 30' 02.700"	W 074 09' 03.100"	40.50075	-74.15086	LNM 30/16, 1st Dist	2241	12331_1	7/21/2016
12331	Delete	Anchorage Area PT 5 OF 5	None	N 40 31' 44.000"	W 074 09' 19.700"	40.52889	-74.15547	LNM 30/16, 1st Dist	2241	12331_1	7/21/2016
12331	Delete	Anchorage Area label	28	N 40 30' 39.300"	W 074 08' 32.700"	40.51092	-74.14242	LNM 30/16, 1st Dist	2241	12331_1	7/21/2016
12331	Add	Anchorage Area PT 2 OF 4	None	N 40 30' 21.500"	W 074 08' 46.200"	40.50597	-74.14616	LNM 30/16, 1st Dist	2241	12331_1	7/21/2016
12331	Add	Anchorage Area PT 3 OF 4	None	N 40 30' 02.300"	W 074 08' 52.700"	40.50064	-74.14797	LNM 30/16, 1st Dist	2241	12331_1	7/21/2016
12331	Add	Anchorage Area label	28	N 40 30' 04.600"	W 074 07' 50.200"	40.50128	-74.13061	LNM 30/16, 1st Dist	2241	12331_1	7/21/2016
12331	Delete	Anchorage Area label	47	N 40 28' 53.660"	W 074 15' 52.250"	40.48157	-74.26451	LNM 30/16, 1st Dist	2241	12331_1	7/21/2016
12331	Delete	Anchorage Area label	47	N 40 28' 12.380"	W 074 10' 07.490"	40.4701	-74.16875	LNM 30/16, 1st Dist	2241	12331_1	7/21/2016
12331	Delete	Anchorage Area label	46	N 40 30' 33.500"	W 074 12' 32.400"	40.5093	-74.209	LNM 30/16, 1st Dist	2241	12331_1	7/21/2016
12331	Delete	Anchorage Area PT 1 OF 2	None	N 40 27' 22.600"	W 074 07' 58.500"	40.45628	-74.13292	LNM 30/16, 1st Dist	2241	12331_1	7/21/2016
12331	Delete	Anchorage Area PT 2 OF 2	None	N 40 27' 25.600"	W 074 07' 36.600"	40.45711	-74.12683	LNM 30/16, 1st Dist	2241	12331_1	7/21/2016
12331	Delete	Anchorage Area label	28	N 40 31' 42.100"	W 074 07' 40.800"	40.52836	-74.128	LNM 30/16, 1st Dist	2241	12331_1	7/21/2016
12331	Add	Anchorage Area label	26	N 40 29' 27.100"	W 074 08' 44.400"	40.49086	-74.14567	LNM 30/16, 1st Dist	2241	12331_1	7/21/2016
12331	Delete	Anchorage Area label	46	N 40 30' 40.600"	W 074 10' 34.800"	40.51128	-74.17633	LNM 30/16, 1st Dist	2241	12331_1	7/21/2016
12331	Delete	Anchorage Area label	26	N 40 27' 17.600"	W 074 07' 39.700"	40.45489	-74.12769	LNM 30/16, 1st Dist	2241	12331_1	7/21/2016
12331	Delete	Anchorage Area label	28	N 40 28' 43.600"	W 074 08' 04.100"	40.47878	-74.13448	LNM 30/16, 1st Dist	2241	12331_1	7/21/2016
12331	Delete	Anchorage Area label	46	N 40 29' 35.800"	W 074 14' 29.400"	40.49328	-74.2415	LNM 30/16, 1st Dist	2241	12331_1	7/21/2016
12331	Delete	Anchorage Area label	47	N 40 29' 39.040"	W 074 13' 04.360"	40.49418	-74.21788	LNM 30/16, 1st Dist	2241	12331_1	7/21/2016
12331	Delete	Anchorage Area PT 2 OF 3	None	N 40 31' 37.100"	W 074 08' 07.200"	40.52697	-74.13533	LNM 30/16, 1st Dist	2241	12331_1	7/21/2016
12331	Delete	Anchorage Area PT 3 OF 3	None	N 40 31' 45.400"	W 074 08' 13.000"	40.52928	-74.13695	LNM 30/16, 1st Dist	2241	12331_1	7/21/2016
12331	Add	Anchorage Area PT 2 OF 4	None	N 40 30' 06.700"	W 074 10' 05.000"	40.50186	-74.16805	LNM 30/16, 1st Dist	2241	12331_1	7/21/2016
12331	Add	Anchorage Area PT 3 OF 4	None	N 40 29' 17.500"	W 074 10' 16.500"	40.48819	-74.17125	LNM 30/16, 1st Dist	2241	12331_1	7/21/2016
12331	Delete	Anchorage Area PT 1 OF 3	None	N 40 31' 56.600"	W 074 07' 36.330"	40.53239	-74.12675	LNM 30/16, 1st Dist	2241	12331_1	7/21/2016
12331	Add	Anchorage Area PT 1 OF 4	None	N 40 30' 20.300"	W 074 07' 36.400"	40.50564	-74.12678	LNM 30/16, 1st Dist	2241	12331_1	7/21/2016
12331	Add	Anchorage Area PT 1 OF 4	None	N 40 29' 34.000"	W 074 07' 36.500"	40.49278	-74.12681	LNM 30/16, 1st Dist	2241	12331_1	7/21/2016
12331	Add	Anchorage Area PT 4 OF 4	None	N 40 29' 05.500"	W 074 07' 36.600"	40.48486	-74.12683	LNM 30/16, 1st Dist	2241	12331_1	7/21/2016
12331	Add	Anchorage Area PT 4 OF 4	None	N 40 29' 45.200"	W 074 07' 36.500"	40.49589	-74.12681	LNM 30/16, 1st Dist	2241	12331_1	7/21/2016
12331	Relocate	KEYPORT HARBOR CHANNEL LTD BUOY 3	G "3" Fl G 4s 	N 40 27' 07.586"	W 074 11' 49.618"	40.45211	-74.19711	LNM 14/16, 1st Dist	2241	12331_1	4/14/2016
12331	Relocate	KEYPORT HARBOR CHANNEL  BUOY 12	R N "12"	N 40 26' 22.186"	W 074 12' 14.018"	40.4395	-74.2039	LNM 14/16, 1st Dist	2241	12331_1	4/14/2016
12331	Change	Depth Legend - GREAT KILLS HARBOR REACH A	10 1/2 FT FOR A WIDTH OF 150 FT MAR 2015	N 40 31' 29.200"	W 074 08' 08.200"	40.52478	-74.13561	LNM 48/15, 1st Dist	2241	12331_1	11/26/2015
12331	Change	Depth Legend - GREAT KILLS HARBOR REACH B	10 1/2 FT FOR MIDDLE HALF MAR 2015	N 40 32' 26.500"	W 074 08' 25.700"	40.5407	-74.14047	LNM 48/15, 1st Dist	2241	12331_1	11/26/2015
12331	Change	tabulation - Raritan Bay and Arthur Kill Channel Depths	tabulation - Raritan Bay and Arthur Kill Channel Depths	N 40 32' 40.000"	W 074 13' 22.000"	40.54445	-74.22278	LNM 41/15, 1st Dist	2241	12331_1	10/22/2015
12331	Add	tabulation - Raritan River Channel Depths	tabulation - Raritan River Channel Depths	N 40 32' 12.000"	W 074 13' 20.000"	40.53667	-74.22222	LNM 41/15, 1st Dist	2241	12331_1	10/22/2015
12331	Change	tabulation - RARITAN BAY, ARTHUR KILL AND RARITAN RIVER CHANNEL DEPTHS	tabulation - RARITAN BAY, ARTHUR KILL AND RARITAN RIVER CHANNEL DEPTHS	N 40 32' 40.000"	W 074 13' 22.000"	40.54445	-74.22278	LNM 33/15, 1st Dist	2241	12331_1	8/13/2015
12331	Relocate	Great Kills HBR CH BY 10	R N "10"	N 40 32' 02.854"	W 074 08' 28.532"	40.53413	-74.14126	LNM 29/15, 1st Dist	2241	12331_1	8/6/2015
12331	Delete	Sounding in Feet	4	N 40 32' 26.300"	W 074 08' 12.300"	40.54064	-74.13675	LNM 28/15, 1st Dist	2241	12331_1	7/9/2015
12331	Add	Obstruction in Feet	7 Obstn       	N 40 32' 14.400"	W 074 08' 25.300"	40.53733	-74.14036	LNM 28/15, 1st Dist	2241	12331_1	7/9/2015
12331	Add	Obstruction in Feet	9 Obstn       	N 40 32' 32.800"	W 074 08' 22.000"	40.54245	-74.13944	LNM 28/15, 1st Dist	2241	12331_1	7/9/2015
12331	Add	Wreck in Feet	4 Wk      	N 40 32' 14.400"	W 074 08' 19.800"	40.53733	-74.13883	LNM 28/15, 1st Dist	2241	12331_1	7/9/2015
12331	Add	Obstruction in Feet	4 Obstn       	N 40 32' 24.200"	W 074 08' 16.400"	40.54005	-74.13789	LNM 28/15, 1st Dist	2241	12331_1	7/9/2015
12331	Add	Obstruction in Feet	2 Obstn       	N 40 32' 19.900"	W 074 08' 13.600"	40.53886	-74.13711	LNM 28/15, 1st Dist	2241	12331_1	7/9/2015
12331	Add	Wreck in Feet	8 Wk      	N 40 32' 38.000"	W 074 07' 53.600"	40.54389	-74.13155	LNM 28/15, 1st Dist	2241	12331_1	7/9/2015
12331	Add	Wreck in Feet	7 Wk      	N 40 32' 40.400"	W 074 07' 53.100"	40.54456	-74.13142	LNM 28/15, 1st Dist	2241	12331_1	7/9/2015
12331	Add	Wreck in Feet	5 Wk      	N 40 32' 31.500"	W 074 07' 45.800"	40.54208	-74.12939	LNM 28/15, 1st Dist	2241	12331_1	7/9/2015
12331	Add	Obstruction in Feet	6 Obstn       	N 40 32' 17.400"	W 074 08' 17.200"	40.53817	-74.13811	LNM 28/15, 1st Dist	2241	12331_1	7/9/2015
12331	Add	Obstruction in Feet	1 Obstn       	N 40 32' 26.500"	W 074 08' 12.200"	40.5407	-74.13672	LNM 28/15, 1st Dist	2241	12331_1	7/9/2015
12331	Add	Wreck in Feet	4 Wk      	N 40 32' 42.800"	W 074 08' 01.800"	40.54522	-74.13383	LNM 28/15, 1st Dist	2241	12331_1	7/9/2015
12331	Add	Visible Wreck	None	N 40 32' 23.900"	W 074 07' 53.700"	40.53997	-74.13158	LNM 28/15, 1st Dist	2241	12331_1	7/9/2015
12331	Delete	Sounding in Feet	13	N 40 32' 14.460"	W 074 08' 19.900"	40.53735	-74.13886	LNM 28/15, 1st Dist	2241	12331_1	7/9/2015
12331	Change	tabulation - Raritan Bay, Arthur Kill and Raritan River Channel Depths	tabulation - Raritan Bay, Arthur Kill and Raritan River Channel Depths	N 40 32' 40.000"	W 074 13' 22.000"	40.54445	-74.22278	LNM 15/15, 1st Dist	2241	12331_1	4/9/2015
12332	Add	Obstruction in Feet	12 Obstn       	N 40 29' 03.300"	W 074 15' 25.360"	40.48425	-74.25704	LNM 52/16, 1st Dist	2240	12332_1	12/22/2016
12332	Change	tabulation - RARITAN BAY AND ARTHUR KILL CHANNEL DEPTHS	tabulation - RARITAN BAY AND ARTHUR KILL CHANNEL DEPTHS	N 40 30' 21.000"	W 074 21' 01.000"	40.50583	-74.35028	LNM 44/16, 1st Dist	2240	12332_1	10/27/2016
12332	Delete	Anchorage Area label	46	N 40 29' 35.000"	W 074 14' 38.800"	40.49306	-74.24411	LNM 30/16, 1st Dist	2240	12332_1	7/21/2016
12332	Delete	Anchorage Area label	47	N 40 29' 02.400"	W 074 16' 04.350"	40.484	-74.26788	LNM 30/16, 1st Dist	2240	12332_1	7/21/2016
12332	Delete	Anchorage Area label	47	N 40 28' 36.350"	W 074 14' 46.760"	40.47676	-74.24632	LNM 30/16, 1st Dist	2240	12332_1	7/21/2016
12332	Delete	Anchorage Area PT 1 OF 6	None	N 40 29' 17.690"	W 074 16' 23.790"	40.48825	-74.27328	LNM 30/16, 1st Dist	2240	12332_1	7/21/2016
12332	Delete	Anchorage Area PT 2 OF 6	None	N 40 29' 19.690"	W 074 16' 18.830"	40.4888	-74.2719	LNM 30/16, 1st Dist	2240	12332_1	7/21/2016
12332	Delete	Anchorage Area PT 3 OF 6	None	N 40 29' 21.410"	W 074 16' 10.970"	40.48928	-74.26971	LNM 30/16, 1st Dist	2240	12332_1	7/21/2016
12332	Delete	Anchorage Area PT 4 OF 6	None	N 40 29' 02.920"	W 074 15' 37.540"	40.48415	-74.26043	LNM 30/16, 1st Dist	2240	12332_1	7/21/2016
12332	Delete	Anchorage Area PT 5 OF 6	None	N 40 28' 48.930"	W 074 14' 30.420"	40.48026	-74.24178	LNM 30/16, 1st Dist	2240	12332_1	7/21/2016
12332	Delete	Anchorage Area PT 6 OF 6	None	N 40 28' 57.430"	W 074 14' 18.400"	40.48262	-74.23844	LNM 30/16, 1st Dist	2240	12332_1	7/21/2016
12332	Delete	Anchorage Area PT 1 OF 3	None	N 40 29' 52.200"	W 074 15' 01.800"	40.49783	-74.2505	LNM 30/16, 1st Dist	2240	12332_1	7/21/2016
12332	Delete	Anchorage Area PT 2 OF 3	None	N 40 29' 48.900"	W 074 15' 10.800"	40.49692	-74.253	LNM 30/16, 1st Dist	2240	12332_1	7/21/2016
12332	Delete	Anchorage Area PT 3 OF 3	None	N 40 29' 23.100"	W 074 14' 18.400"	40.48975	-74.23844	LNM 30/16, 1st Dist	2240	12332_1	7/21/2016
12332	Delete	Safety Zone Label	SAFETY ZONE 165.170 (see note A)	N 40 29' 28.000"	W 074 25' 14.700"	40.49111	-74.42075	LNM 48/15, 1st Dist	2240	12332_1	11/26/2015
12332	Delete	Safety Zone Label	SAFETY ZONE 165.170 (see note A)	N 40 28' 27.300"	W 074 21' 47.000"	40.47425	-74.36305	LNM 48/15, 1st Dist	2240	12332_1	11/26/2015
12332	Delete	Safety Zone PT 1 OF 2	None	N 40 29' 36.400"	W 074 16' 57.900"	40.49345	-74.28275	LNM 48/15, 1st Dist	2240	12332_1	11/26/2015
12332	Delete	Safety Zone PT 2 OF 2	None	N 40 30' 02.700"	W 074 16' 42.100"	40.50075	-74.27836	LNM 48/15, 1st Dist	2240	12332_1	11/26/2015
12332	Delete	Safety Zone Label	SAFETY ZONE 165.170 (see note A)	N 40 30' 05.000"	W 074 16' 51.000"	40.50139	-74.28083	LNM 48/15, 1st Dist	2240	12332_1	11/26/2015
12332	Change	tabulation - Raritan Bay and Arthur Kill Channel Depths	tabulation - Raritan Bay and Arthur Kill Channel Depths	N 40 30' 21.000"	W 074 21' 00.000"	40.50583	-74.35	LNM 41/15, 1st Dist	2240	12332_1	10/22/2015
12332	Change	tabulation - RARITAN BAY AND ARTHUR KILL CHANNEL DEPTHS	tabulation - RARITAN BAY AND ARTHUR KILL CHANNEL DEPTHS	N 40 30' 21.000"	W 074 21' 00.000"	40.50583	-74.35	LNM 33/15, 1st Dist	2240	12332_1	8/13/2015
12332	Change	tabulation - Raritan Bay and Arthur Kill Channel Depths	tabulation - Raritan Bay and Arthur Kill Channel Depths	N 40 30' 21.000"	W 074 21' 00.000"	40.50583	-74.35	LNM 15/15, 1st Dist	2240	12332_1	4/9/2015
12332	Change	tabulation - RARITAN BAY AND ARTHUR KILL CHANNEL DEPTHS	tabulation - RARITAN BAY AND ARTHUR KILL CHANNEL DEPTHS	N 40 30' 21.000"	W 074 21' 01.000"	40.50583	-74.35028	LNM 25/14, 1st Dist	2240	12332_1	6/19/2014
12332	Change	tabulation - RARITAN RIVER CHANNEL DEPTHS	tabulation - RARITAN RIVER CHANNEL DEPTHS	N 40 31' 02.000"	W 074 21' 03.000"	40.51722	-74.35083	LNM 25/14, 1st Dist	2240	12332_1	6/19/2014
12332	Change	tabulation - RARITAN BAY AND ARTHUR KILL CHANNEL DEPTHS	tabulation - RARITAN BAY AND ARTHUR KILL CHANNEL DEPTHS	N 40 30' 21.000"	W 074 21' 01.000"	40.50583	-74.35028	LNM 20/14, 1st Dist	2240	12332_1	5/22/2014
12332	Add	Safety Zone Label	SAFETY ZONE 165.170 (see note A)	N 40 28' 27.200"	W 074 21' 47.200"	40.47422	-74.36311	LNM 19/14, 1st Dist	2240	12332_1	5/8/2014
12332	Add	Safety Zone Label	SAFETY ZONE 165.170 (see note A)	N 40 29' 28.000"	W 074 25' 15.400"	40.49111	-74.42094	LNM 19/14, 1st Dist	2240	12332_1	5/8/2014
12332	Add	Safety Zone PT 1 OF 2	(Chart No. 1: N1.2)	N 40 29' 36.350"	W 074 16' 57.880"	40.49343	-74.28275	LNM 19/14, 1st Dist	2240	12332_1	5/8/2014
12332	Add	Safety Zone PT 2 OF 2	(Chart No. 1: N1.2)	N 40 30' 02.710"	W 074 16' 42.110"	40.50075	-74.27837	LNM 19/14, 1st Dist	2240	12332_1	5/8/2014
12332	Add	Safety Zone Label	SAFETY ZONE 165.170 (see note A)	N 40 30' 04.900"	W 074 16' 50.100"	40.50136	-74.28059	LNM 19/14, 1st Dist	2240	12332_1	5/8/2014
12332	Add	Raritan River Daybeacon 39	G "39"	N 40 28' 39.259"	W 074 22' 37.758"	40.47757	-74.37715	LNM 43/13, 1st Dist	2240	12332_1	10/28/2013
12332	Add	Raritan River Daybeacon 37	G "37"	N 40 28' 42.339"	W 074 21' 58.566"	40.47843	-74.36627	LNM 43/13, 1st Dist	2240	12332_1	10/28/2013
12332	Change	Tabulation - RARITAN BAY AND ARTHUR KILL CHANNEL	Tabulation - RARITAN BAY AND ARTHUR KILL CHANNEL	N 40 30' 21.000"	W 074 21' 01.000"	40.50583	-74.35028	LNM 43/13, 1st Dist	2240	12332_1	10/15/2013
12332	Add	Obstruction	Obstn      Chart No. 1: K40	N 40 28' 58.000"	W 074 14' 44.100"	40.48278	-74.24558	LNM 39/13, 1st Dist	2240	12332_1	9/18/2013
12333	Add	PILE	Pile	N 40 38' 50.700"	W 074 08' 53.480"	40.64742	-74.14819	LNM 14/17, 1st Dist	2239	12333_1	4/13/2017
12333	Relocate	KILL VAN KULL CHANNEL LTD BUOY 9	G "9" Fl G 6s	N 40 38' 46.740"	W 074 06' 26.148"	40.64632	-74.10726	LNM 10/17, 1st Dist	2239	12333_1	3/23/2017
12333	Relocate	NEWARK BAY CHANNEL LTD BUOY 4	R "4" Fl R 4s	N 40 38' 50.517"	W 074 08' 54.877"	40.64737	-74.14857	LNM 08/17, 1st Dist	2239	12333_1	3/2/2017
12333	Delete	ANCHORAGE AREA LABEL	34	N 40 40' 17.400"	W 074 11' 36.000"	40.6715	-74.19334	LNM 08/17, 1st Dist	2239	12333_1	3/2/2017
12333	Delete	ANCHORAGE AREA LABEL	36	N 40 40' 17.400"	W 074 11' 30.000"	40.6715	-74.19167	LNM 08/17, 1st Dist	2239	12333_1	3/2/2017
12333	Delete	ANCHORAGE AREA LABEL	37	N 40 40' 17.400"	W 074 11' 32.700"	40.6715	-74.19241	LNM 08/17, 1st Dist	2239	12333_1	3/2/2017
12333	Change	tabulation - KILL VAN KULL, NEWARK BAY AND ARTHUR KILL CHANNEL DEPTHS	tabulation - KILL VAN KULL, NEWARK BAY AND ARTHUR KILL CHANNEL DEPTHS	N 40 36' 14.000"	W 074 04' 58.000"	40.60389	-74.08278	LNM 08/17, 1st Dist	2239	12333_1	2/16/2017
12333	Change	tabulation - KILL VAN KULL, NEWARK BAY AND ARTHUR KILL CHANNEL DEPTHS	tabulation - KILL VAN KULL, NEWARK BAY AND ARTHUR KILL CHANNEL DEPTHS	N 40 36' 14.000"	W 074 04' 58.000"	40.60389	-74.08278	LNM 04/17, 1st Dist	2239	12333_1	1/19/2017
12333	Change	tabulation - KILL VAN KULL, NEWARK BAY AND ARTHUR KILL CHANNEL DEPTHS	tabulation - KILL VAN KULL, NEWARK BAY AND ARTHUR KILL CHANNEL DEPTHS	N 40 36' 14.000"	W 074 04' 58.000"	40.60389	-74.08278	LNM 02/17, 1st Dist	2239	12333_1	1/12/2017
12333	Change	tabulation - KILL VAN KULL, NEWARK BAY AND ARTHUR KILL CHANNEL DEPTHS	tabulation - KILL VAN KULL, NEWARK BAY AND ARTHUR KILL CHANNEL DEPTHS	N 40 36' 14.000"	W 074 04' 58.000"	40.60389	-74.08278	LNM 49/16, 1st Dist	2239	12333_1	12/1/2016
12333	Change	tabulation - KILL VAN KULL, NEWARK BAY AND ARTHUR KILL CHANNEL DEPTHS	tabulation - KILL VAN KULL, NEWARK BAY AND ARTHUR KILL CHANNEL DEPTHS	N 40 36' 14.000"	W 074 04' 58.000"	40.60389	-74.08278	LNM 45/16, 1st Dist	2239	12333_1	11/3/2016
12333	Delete	Anchorage Area PT 1 OF 8	None	N 40 40' 51.000"	W 074 08' 29.700"	40.68083	-74.14159	LNM 30/16, 1st Dist	2239	12333_1	7/21/2016
12333	Delete	Anchorage Area PT 2 OF 8	None	N 40 41' 12.700"	W 074 08' 09.900"	40.68686	-74.13609	LNM 30/16, 1st Dist	2239	12333_1	7/21/2016
12333	Delete	Anchorage Area PT 3 OF 8	None	N 40 41' 13.100"	W 074 08' 06.100"	40.68697	-74.13503	LNM 30/16, 1st Dist	2239	12333_1	7/21/2016
12333	Delete	Anchorage Area PT 4 OF 8	None	N 40 41' 03.300"	W 074 07' 56.500"	40.68425	-74.13236	LNM 30/16, 1st Dist	2239	12333_1	7/21/2016
12333	Delete	Anchorage Area PT 5 OF 8	None	N 40 40' 54.400"	W 074 07' 56.500"	40.68178	-74.13236	LNM 30/16, 1st Dist	2239	12333_1	7/21/2016
12333	Delete	Anchorage Area PT 6 OF 8	None	N 40 40' 36.600"	W 074 08' 04.800"	40.67683	-74.13467	LNM 30/16, 1st Dist	2239	12333_1	7/21/2016
12333	Delete	Anchorage Area PT 7 OF 8	None	N 40 40' 34.100"	W 074 08' 12.000"	40.67614	-74.13667	LNM 30/16, 1st Dist	2239	12333_1	7/21/2016
12333	Delete	Anchorage Area PT 8 OF 8	None	N 40 40' 44.600"	W 074 08' 29.700"	40.67905	-74.14159	LNM 30/16, 1st Dist	2239	12333_1	7/21/2016
12333	Delete	Anchorage Area label	36	N 40 40' 47.500"	W 074 08' 13.000"	40.67986	-74.13695	LNM 30/16, 1st Dist	2239	12333_1	7/21/2016
12333	Delete	Anchorage Area label	37	N 40 39' 29.100"	W 074 08' 22.200"	40.65808	-74.1395	LNM 30/16, 1st Dist	2239	12333_1	7/21/2016
12333	Delete	Anchorage Area PT 1 OF 5	None	N 40 38' 52.200"	W 074 09' 41.100"	40.64783	-74.16142	LNM 30/16, 1st Dist	2239	12333_1	7/21/2016
12333	Delete	Anchorage Area PT 2 OF 5	None	N 40 38' 52.000"	W 074 09' 41.600"	40.64778	-74.16155	LNM 30/16, 1st Dist	2239	12333_1	7/21/2016
12333	Delete	Anchorage Area PT 3 OF 5	None	N 40 38' 51.000"	W 074 10' 36.500"	40.6475	-74.1768	LNM 30/16, 1st Dist	2239	12333_1	7/21/2016
12333	Delete	Anchorage Area PT 4 OF 5	None	N 40 39' 16.800"	W 074 09' 56.300"	40.65467	-74.16564	LNM 30/16, 1st Dist	2239	12333_1	7/21/2016
12333	Delete	Anchorage Area PT 5 OF 5	None	N 40 39' 16.200"	W 074 09' 36.900"	40.6545	-74.16025	LNM 30/16, 1st Dist	2239	12333_1	7/21/2016
12333	Delete	Anchorage Area label	37	N 40 40' 38.000"	W 074 07' 33.900"	40.67722	-74.12608	LNM 30/16, 1st Dist	2239	12333_1	7/21/2016
12333	Delete	Anchorage Area PT 1 OF 8	None	N 40 39' 20.200"	W 074 09' 50.800"	40.65561	-74.16411	LNM 30/16, 1st Dist	2239	12333_1	7/21/2016
12333	Delete	Anchorage Area PT 2 OF 8	None	N 40 39' 41.400"	W 074 09' 30.200"	40.6615	-74.15839	LNM 30/16, 1st Dist	2239	12333_1	7/21/2016
12333	Delete	Anchorage Area PT 3 OF 8	None	N 40 39' 29.600"	W 074 08' 58.000"	40.65822	-74.14944	LNM 30/16, 1st Dist	2239	12333_1	7/21/2016
12333	Delete	Anchorage Area PT 4 OF 8	None	N 40 39' 21.700"	W 074 08' 50.800"	40.65603	-74.14745	LNM 30/16, 1st Dist	2239	12333_1	7/21/2016
12333	Delete	Anchorage Area PT 5 OF 8	None	N 40 39' 07.800"	W 074 08' 59.100"	40.65217	-74.14975	LNM 30/16, 1st Dist	2239	12333_1	7/21/2016
12333	Delete	Anchorage Area PT 6 OF 8	None	N 40 38' 49.900"	W 074 09' 20.000"	40.64719	-74.15556	LNM 30/16, 1st Dist	2239	12333_1	7/21/2016
12333	Delete	Anchorage Area PT 7 OF 8	None	N 40 38' 53.500"	W 074 09' 37.100"	40.64819	-74.16031	LNM 30/16, 1st Dist	2239	12333_1	7/21/2016
12333	Delete	Anchorage Area PT 8 OF 8	None	N 40 38' 52.200"	W 074 09' 41.100"	40.64783	-74.16142	LNM 30/16, 1st Dist	2239	12333_1	7/21/2016
12333	Delete	Anchorage Area label	SPECIAL ANCHORAGE 110.1, 110.60 (see note A)	N 40 39' 03.400"	W 074 10' 02.800"	40.65094	-74.16744	LNM 30/16, 1st Dist	2239	12333_1	7/21/2016
12333	Delete	Anchorage Area PT 1 OF 3	None	N 40 41' 25.300"	W 074 07' 17.700"	40.69036	-74.12158	LNM 30/16, 1st Dist	2239	12333_1	7/21/2016
12333	Delete	Anchorage Area PT 2 OF 3	None	N 40 39' 16.500"	W 074 08' 33.800"	40.65458	-74.14272	LNM 30/16, 1st Dist	2239	12333_1	7/21/2016
12333	Delete	Anchorage Area PT 3 OF 3	None	N 40 39' 16.700"	W 074 08' 25.800"	40.65464	-74.1405	LNM 30/16, 1st Dist	2239	12333_1	7/21/2016
12333	Delete	Anchorage Area label	34	N 40 39' 02.470"	W 074 09' 33.530"	40.65068	-74.15932	LNM 30/16, 1st Dist	2239	12333_1	7/21/2016
12333	Add	Sounding in Feet	31	N 40 38' 37.310"	W 074 07' 02.930"	40.6437	-74.11748	LNM 18/16, 1st Dist	2239	12333_1	4/28/2016
12333	Delete	Sounding in Feet	19	N 40 38' 37.830"	W 074 07' 01.700"	40.64384	-74.11714	LNM 18/16, 1st Dist	2239	12333_1	4/28/2016
12333	Delete	Obstruction in Feet	51 Obstn       	N 40 38' 18.200"	W 074 03' 49.590"	40.63839	-74.06377	LNM 13/16, 1st Dist	2239	12333_1	3/31/2016
12333	Add	Obstruction in Feet	45 Obstn (rep 2012)	N 40 38' 14.570"	W 074 03' 46.640"	40.63738	-74.06296	LNM 13/16, 1st Dist	2239	12333_1	3/31/2016
12333	Relocate	ARTHUR KILL CHANNEL LTD BUOY 38	R "38" Fl R 4s	N 40 36' 17.134"	W 074 12' 07.768"	40.60476	-74.20216	LNM 05/16, 1st Dist	2239	12333_1	2/11/2016
12333	Change	Tabulation - Kill Van Kull, Newark Bay and Arthur Kill Channel Depths	Tabulation - Kill Van Kull, Newark Bay and Arthur Kill Channel Depths	N 40 36' 14.000"	W 074 04' 58.000"	40.60389	-74.08278	LNM 02/16, 1st Dist	2239	12333_1	1/7/2016
12333	Change	Depth Legend - Port Newark Pierhead	17 FEET AUG-SEP 2015	N 40 40' 57.000"	W 074 08' 30.000"	40.6825	-74.14167	LNM 02/16, 1st Dist	2239	12333_1	1/7/2016
12333	Add	KILL VAN KULL CHANNEL BUOY 12A	R N "12A"	N 40 38' 40.729"	W 074 08' 01.772"	40.64465	-74.13383	LNM 49/15, 1st Dist	2239	12333_1	12/17/2015
12333	Change	tabulation - KILL VAN KULL, NEWARK BAY AND ARTHUR KILL CHANNEL DEPTHS	tabulation - KILL VAN KULL, NEWARK BAY AND ARTHUR KILL CHANNEL DEPTHS	N 40 36' 14.000"	W 074 04' 58.000"	40.60389	-74.08278	LNM 50/15, 1st Dist	2239	12333_1	12/10/2015
12333	Change	tabulation - Kill Van Kull, Newark Bay and Arthur Kill Channel Depths	tabulation - Kill Van Kull, Newark Bay and Arthur Kill Channel Depths	N 40 36' 14.000"	W 074 04' 58.000"	40.60389	-74.08278	LNM 41/15, 1st Dist	2239	12333_1	10/15/2015
12333	Delete	tabulation - Port Elizabeth South and Port Newark Channel Depths	tabulation - Port Elizabeth South and Port Newark Channel Depths	N 40 39' 20.000"	W 074 12' 40.000"	40.65556	-74.21111	LNM 41/15, 1st Dist	2239	12333_1	10/15/2015
12333	Change	Depth Legend - Port Newark Pierhead	19 1/2 FEET FEB 2015	N 40 41' 13.000"	W 074 08' 15.700"	40.68694	-74.1377	LNM 38/15, 1st Dist	2239	12333_1	9/24/2015
12333	Add	magenta channel reach separator PT 2 OF 2	None	N 40 38' 39.660"	W 074 08' 52.110"	40.64435	-74.14781	LNM 38/15, 1st Dist	2239	12333_1	9/24/2015
12333	Add	magenta channel reach separator PT 1 OF 2	None	N 40 39' 32.320"	W 074 08' 54.960"	40.65898	-74.1486	LNM 38/15, 1st Dist	2239	12333_1	9/24/2015
12333	Add	Channel Limits PT 6 OF 8	None	N 40 39' 32.320"	W 074 08' 54.960"	40.65898	-74.1486	LNM 38/15, 1st Dist	2239	12333_1	9/24/2015
12333	Add	Channel Limits PT 7 OF 8	None	N 40 40' 26.460"	W 074 08' 17.570"	40.67402	-74.13821	LNM 38/15, 1st Dist	2239	12333_1	9/24/2015
12333	Add	Channel Limits PT 8 OF 8	None	N 40 40' 26.650"	W 074 08' 17.870"	40.67407	-74.1383	LNM 38/15, 1st Dist	2239	12333_1	9/24/2015
12333	Delete	magenta channel reach separator PT 2 OF 2	None	N 40 38' 34.000"	W 074 08' 41.400"	40.64278	-74.14484	LNM 38/15, 1st Dist	2239	12333_1	9/24/2015
12333	Delete	Sounding in Feet	47	N 40 39' 21.000"	W 074 08' 53.700"	40.65583	-74.14825	LNM 38/15, 1st Dist	2239	12333_1	9/24/2015
12333	Delete	magenta channel reach separator PT 1 OF 2	None	N 40 40' 40.930"	W 074 08' 01.640"	40.67804	-74.13379	LNM 38/15, 1st Dist	2239	12333_1	9/24/2015
12333	Delete	magenta channel reach separator PT 2 OF 2	None	N 40 40' 38.410"	W 074 07' 51.800"	40.67734	-74.13106	LNM 38/15, 1st Dist	2239	12333_1	9/24/2015
12333	Delete	Sounding in Feet	52	N 40 39' 25.300"	W 074 08' 56.300"	40.65703	-74.14897	LNM 38/15, 1st Dist	2239	12333_1	9/24/2015
12333	Add	magenta channel reach separator PT 1 OF 2	None	N 40 40' 40.450"	W 074 08' 01.850"	40.6779	-74.13385	LNM 38/15, 1st Dist	2239	12333_1	9/24/2015
12333	Add	magenta channel reach separator PT 2 OF 2	None	N 40 40' 37.930"	W 074 07' 52.010"	40.6772	-74.13111	LNM 38/15, 1st Dist	2239	12333_1	9/24/2015
12333	Change	Depth Legend - Port Newark Pierhead	16 FEET FEB 2015	N 40 40' 57.000"	W 074 08' 30.000"	40.6825	-74.14167	LNM 38/15, 1st Dist	2239	12333_1	9/24/2015
12333	Delete	Channel Limits PT 1 OF 2	None	N 40 39' 19.010"	W 074 08' 51.810"	40.65528	-74.14773	LNM 38/15, 1st Dist	2239	12333_1	9/24/2015
12333	Delete	Channel Limits PT 2 OF 2	None	N 40 40' 26.650"	W 074 08' 17.870"	40.67407	-74.1383	LNM 38/15, 1st Dist	2239	12333_1	9/24/2015
12333	Add	magenta channel reach separator PT 1 OF 2	None	N 40 40' 32.960"	W 074 08' 12.630"	40.67582	-74.13684	LNM 38/15, 1st Dist	2239	12333_1	9/24/2015
12333	Add	magenta channel reach separator PT 2 OF 2	None	N 40 40' 26.460"	W 074 08' 17.570"	40.67402	-74.13821	LNM 38/15, 1st Dist	2239	12333_1	9/24/2015
12333	Delete	magenta channel reach separator PT 1 OF 2	None	N 40 40' 32.960"	W 074 08' 12.630"	40.67582	-74.13684	LNM 38/15, 1st Dist	2239	12333_1	9/24/2015
12333	Delete	magenta channel reach separator PT 2 OF 2	None	N 40 40' 26.650"	W 074 08' 17.870"	40.67407	-74.1383	LNM 38/15, 1st Dist	2239	12333_1	9/24/2015
12333	Delete	magenta channel reach separator PT 1 OF 2	None	N 40 39' 32.820"	W 074 08' 55.190"	40.65911	-74.14867	LNM 38/15, 1st Dist	2239	12333_1	9/24/2015
12333	Delete	magenta channel reach separator PT 2 OF 2	None	N 40 39' 29.770"	W 074 08' 57.310"	40.65827	-74.14925	LNM 38/15, 1st Dist	2239	12333_1	9/24/2015
12333	Add	Channel Limits PT 1 OF 8	None	N 40 39' 19.010"	W 074 08' 51.810"	40.65528	-74.14773	LNM 38/15, 1st Dist	2239	12333_1	9/24/2015
12333	Add	Channel Limits PT 2 OF 8	None	N 40 39' 28.420"	W 074 08' 59.250"	40.65789	-74.14979	LNM 38/15, 1st Dist	2239	12333_1	9/24/2015
12333	Add	Channel Limits PT 3 OF 8	None	N 40 39' 36.770"	W 074 09' 20.030"	40.66021	-74.15556	LNM 38/15, 1st Dist	2239	12333_1	9/24/2015
12333	Add	Channel Limits PT 4 OF 8	None	N 40 39' 43.520"	W 074 09' 25.780"	40.66209	-74.15716	LNM 38/15, 1st Dist	2239	12333_1	9/24/2015
12333	Add	Channel Limits PT 5 OF 8	None	N 40 39' 44.420"	W 074 09' 25.150"	40.66234	-74.15698	LNM 38/15, 1st Dist	2239	12333_1	9/24/2015
12333	Add	label: WEST	WEST	N 40 39' 38.400"	W 074 09' 18.700"	40.66067	-74.1552	LNM 38/15, 1st Dist	2239	12333_1	9/24/2015
12333	Add	Sounding in Feet	45	N 40 39' 39.700"	W 074 09' 11.600"	40.66103	-74.15322	LNM 38/15, 1st Dist	2239	12333_1	9/24/2015
12333	Add	Sounding in Feet	42	N 40 39' 41.600"	W 074 09' 16.100"	40.66156	-74.15447	LNM 38/15, 1st Dist	2239	12333_1	9/24/2015
12333	Add	Sounding in Feet	44	N 40 39' 43.300"	W 074 09' 20.300"	40.66203	-74.15564	LNM 38/15, 1st Dist	2239	12333_1	9/24/2015
12333	Delete	magenta channel reach separator PT 1 OF 2	None	N 40 39' 45.100"	W 074 09' 23.300"	40.66253	-74.15647	LNM 38/15, 1st Dist	2239	12333_1	9/24/2015
12333	Delete	magenta channel reach separator PT 2 OF 2	None	N 40 39' 44.400"	W 074 09' 23.800"	40.66233	-74.15661	LNM 38/15, 1st Dist	2239	12333_1	9/24/2015
12333	Add	magenta channel reach separator PT 1 OF 2	None	N 40 38' 49.000"	W 074 09' 20.140"	40.64695	-74.15559	LNM 38/15, 1st Dist	2239	12333_1	9/24/2015
12333	Delete	Sounding in Feet	4	N 40 39' 32.800"	W 074 09' 10.200"	40.65911	-74.15283	LNM 38/15, 1st Dist	2239	12333_1	9/24/2015
12333	Delete	Sounding in Feet	6	N 40 39' 35.600"	W 074 09' 15.200"	40.65989	-74.15422	LNM 38/15, 1st Dist	2239	12333_1	9/24/2015
12333	Delete	Sounding in Feet	8	N 40 39' 37.600"	W 074 09' 19.100"	40.66045	-74.1553	LNM 38/15, 1st Dist	2239	12333_1	9/24/2015
12333	Add	Sounding in Feet	36	N 40 39' 34.600"	W 074 08' 58.500"	40.65961	-74.14958	LNM 38/15, 1st Dist	2239	12333_1	9/24/2015
12333	Delete	Sounding in Feet	6	N 40 39' 27.000"	W 074 08' 59.900"	40.6575	-74.14997	LNM 38/15, 1st Dist	2239	12333_1	9/24/2015
12333	Add	Sounding in Feet	6	N 40 39' 26.700"	W 074 09' 00.700"	40.65742	-74.15019	LNM 38/15, 1st Dist	2239	12333_1	9/24/2015
12333	Delete	Sounding in Feet	5	N 40 39' 30.400"	W 074 09' 02.800"	40.65844	-74.15078	LNM 38/15, 1st Dist	2239	12333_1	9/24/2015
12333	Delete	Sounding in Feet	6	N 40 39' 31.000"	W 074 09' 05.200"	40.65861	-74.15144	LNM 38/15, 1st Dist	2239	12333_1	9/24/2015
12333	Delete	Sounding in Feet	3	N 40 39' 34.200"	W 074 09' 13.800"	40.6595	-74.15383	LNM 38/15, 1st Dist	2239	12333_1	9/24/2015
12333	Add	label: EAST	EAST	N 40 39' 33.700"	W 074 09' 06.900"	40.65936	-74.15192	LNM 38/15, 1st Dist	2239	12333_1	9/24/2015
12333	Add	Sounding in Feet	38	N 40 39' 36.200"	W 074 09' 02.500"	40.66006	-74.1507	LNM 38/15, 1st Dist	2239	12333_1	9/24/2015
12333	Add	Sounding in Feet	42	N 40 39' 38.000"	W 074 09' 07.300"	40.66056	-74.15203	LNM 38/15, 1st Dist	2239	12333_1	9/24/2015
12333	Delete	magenta channel reach separator PT 1 OF 2	None	N 40 38' 47.300"	W 074 09' 22.100"	40.64647	-74.15614	LNM 38/15, 1st Dist	2239	12333_1	9/24/2015
12333	Add	magenta channel reach separator PT 2 OF 2	None	N 40 39' 28.420"	W 074 08' 59.250"	40.65789	-74.14979	LNM 38/15, 1st Dist	2239	12333_1	9/24/2015
12333	Add	magenta channel reach separator PT 1 OF 2	None	N 40 39' 39.880"	W 074 09' 13.820"	40.66108	-74.15384	LNM 38/15, 1st Dist	2239	12333_1	9/24/2015
12333	Add	magenta channel reach separator PT 2 OF 2	None	N 40 39' 35.490"	W 074 09' 16.850"	40.65986	-74.15468	LNM 38/15, 1st Dist	2239	12333_1	9/24/2015
12333	Delete	Depth Legend - Port Elizabeth South	33 FEET JUN 2011	N 40 39' 39.000"	W 074 09' 09.000"	40.66083	-74.1525	LNM 38/15, 1st Dist	2239	12333_1	9/24/2015
12333	Change	tabulation - KILL VAN KULL, NEWARK BAY AND ARTHUR KILL CHANNEL DEPTHS	tabulation - KILL VAN KULL, NEWARK BAY AND ARTHUR KILL CHANNEL DEPTHS	N 40 36' 14.000"	W 074 04' 58.000"	40.60389	-74.08278	LNM 33/15, 1st Dist	2239	12333_1	8/13/2015
12333	Change	tabulation - KILL VAN KULL, NEWARK BAY AND ARTHUR KILL CHANNEL DEPTHS	tabulation - KILL VAN KULL, NEWARK BAY AND ARTHUR KILL CHANNEL DEPTHS	N 40 36' 14.000"	W 074 04' 58.000"	40.60389	-74.08278	LNM 33/15, 1st Dist	2239	12333_1	8/13/2015
12333	Relocate	Carteret Dock Light A	Q "A" Priv	N 40 35' 07.200"	W 074 12' 34.620"	40.58533	-74.20962	LNM 30/15, 1st Dist	2239	12333_1	8/13/2015
12333	Relocate	Carteret Dock Light C	Q 31ft "C" Priv	N 40 35' 09.420"	W 074 12' 33.240"	40.58595	-74.20924	LNM 30/15, 1st Dist	2239	12333_1	8/13/2015
12333	Add	channel limits PT 1 OF 4	None	N 40 38' 44.240"	W 074 03' 57.370"	40.64562	-74.06593	LNM 31/15, 1st Dist	2239	12333_1	8/6/2015
12333	Add	channel limits PT 2 OF 4	None	N 40 38' 40.650"	W 074 03' 46.520"	40.64463	-74.06292	LNM 31/15, 1st Dist	2239	12333_1	8/6/2015
12333	Add	channel limits PT 3 OF 4	None	N 40 39' 01.650"	W 074 03' 51.900"	40.65046	-74.06441	LNM 31/15, 1st Dist	2239	12333_1	8/6/2015
12333	Add	channel limits PT 4 OF 4	None	N 40 39' 00.530"	W 074 03' 46.570"	40.65015	-74.06293	LNM 31/15, 1st Dist	2239	12333_1	8/6/2015
12333	Delete	Sounding in Feet	35	N 40 38' 16.800"	W 074 11' 37.600"	40.638	-74.19378	LNM 24/15, 1st Dist	2239	12333_1	6/11/2015
12333	Add	magenta channel reach separator PT 1 OF 2	None	N 40 38' 18.190"	W 074 11' 45.710"	40.63839	-74.19603	LNM 24/15, 1st Dist	2239	12333_1	6/11/2015
12333	Add	magenta channel reach separator PT 2 OF 2	None	N 40 38' 15.370"	W 074 11' 40.010"	40.6376	-74.19445	LNM 24/15, 1st Dist	2239	12333_1	6/11/2015
12333	Change	label to: SOUTH REACH	SOUTH REACH	N 40 39' 17.000"	W 074 08' 46.000"	40.65472	-74.14611	LNM 24/15, 1st Dist	2239	12333_1	6/11/2015
12333	Change	label to: MIDDLE REACH (SOUTH)	MIDDLE REACH (SOUTH)	N 40 40' 09.500"	W 074 08' 23.000"	40.6693	-74.13972	LNM 24/15, 1st Dist	2239	12333_1	6/11/2015
12333	Add	magenta channel reach separator PT 1 OF 2	None	N 40 39' 32.820"	W 074 08' 55.190"	40.65911	-74.14867	LNM 24/15, 1st Dist	2239	12333_1	6/11/2015
12333	Add	magenta channel reach separator PT 2 OF 2	None	N 40 39' 29.770"	W 074 08' 57.310"	40.65827	-74.14925	LNM 24/15, 1st Dist	2239	12333_1	6/11/2015
12333	Delete	Channel Limits PT 1 OF 3	None	N 40 41' 18.540"	W 074 09' 31.350"	40.68848	-74.15871	LNM 24/15, 1st Dist	2239	12333_1	6/11/2015
12333	Delete	Channel Limits PT 2 OF 3	None	N 40 41' 14.730"	W 074 09' 35.440"	40.68742	-74.15984	LNM 24/15, 1st Dist	2239	12333_1	6/11/2015
12333	Delete	Channel Limits PT 3 OF 3	None	N 40 41' 14.410"	W 074 09' 34.960"	40.68734	-74.15971	LNM 24/15, 1st Dist	2239	12333_1	6/11/2015
12333	Add	Channel Limits PT 1 OF 3	None	N 40 41' 18.540"	W 074 09' 31.350"	40.68848	-74.15871	LNM 24/15, 1st Dist	2239	12333_1	6/11/2015
12333	Add	Channel Limits PT 2 OF 3	None	N 40 41' 18.860"	W 074 09' 31.860"	40.68857	-74.15885	LNM 24/15, 1st Dist	2239	12333_1	6/11/2015
12333	Add	Channel Limits PT 3 OF 3	None	N 40 41' 14.410"	W 074 09' 34.960"	40.68734	-74.15971	LNM 24/15, 1st Dist	2239	12333_1	6/11/2015
12333	Add	30 ft depth curve PT 1 OF 6	30	N 40 39' 57.970"	W 074 08' 39.240"	40.6661	-74.14423	LNM 24/15, 1st Dist	2239	12333_1	6/11/2015
12333	Add	30 ft depth curve PT 2 OF 6	30	N 40 39' 58.460"	W 074 08' 38.470"	40.66624	-74.14402	LNM 24/15, 1st Dist	2239	12333_1	6/11/2015
12333	Add	30 ft depth curve PT 3 OF 6	30	N 40 39' 59.290"	W 074 08' 38.330"	40.66647	-74.14398	LNM 24/15, 1st Dist	2239	12333_1	6/11/2015
12333	Add	30 ft depth curve PT 4 OF 6	30	N 40 39' 59.790"	W 074 08' 37.560"	40.66661	-74.14377	LNM 24/15, 1st Dist	2239	12333_1	6/11/2015
12333	Add	30 ft depth curve PT 5 OF 6	30	N 40 40' 00.440"	W 074 08' 37.340"	40.66679	-74.14371	LNM 24/15, 1st Dist	2239	12333_1	6/11/2015
12333	Add	30 ft depth curve PT 6 OF 6	30	N 40 40' 02.360"	W 074 08' 36.210"	40.66732	-74.14339	LNM 24/15, 1st Dist	2239	12333_1	6/11/2015
12333	Delete	Channel Limits PT 1 OF 2	None	N 40 38' 18.130"	W 074 11' 45.590"	40.63837	-74.196	LNM 24/15, 1st Dist	2239	12333_1	6/11/2015
12333	Delete	Channel Limits PT 2 OF 2	None	N 40 38' 48.090"	W 074 11' 04.220"	40.64669	-74.18451	LNM 24/15, 1st Dist	2239	12333_1	6/11/2015
12333	Add	Channel Limits PT 1 OF 6	None	N 40 38' 18.130"	W 074 11' 45.590"	40.63837	-74.196	LNM 24/15, 1st Dist	2239	12333_1	6/11/2015
12333	Add	Channel Limits PT 2 OF 6	None	N 40 38' 18.190"	W 074 11' 45.710"	40.63839	-74.19603	LNM 24/15, 1st Dist	2239	12333_1	6/11/2015
12333	Add	Channel Limits PT 3 OF 6	None	N 40 38' 23.970"	W 074 11' 41.060"	40.63999	-74.19474	LNM 24/15, 1st Dist	2239	12333_1	6/11/2015
12333	Add	Channel Limits PT 4 OF 6	None	N 40 38' 33.760"	W 074 11' 28.360"	40.64271	-74.19121	LNM 24/15, 1st Dist	2239	12333_1	6/11/2015
12333	Add	Channel Limits PT 5 OF 6	None	N 40 38' 47.930"	W 074 11' 06.290"	40.64665	-74.18508	LNM 24/15, 1st Dist	2239	12333_1	6/11/2015
12333	Add	Channel Limits PT 6 OF 6	None	N 40 38' 48.090"	W 074 11' 04.220"	40.64669	-74.18451	LNM 24/15, 1st Dist	2239	12333_1	6/11/2015
12333	Delete	Sounding in Feet	33	N 40 38' 34.700"	W 074 11' 26.600"	40.64297	-74.19072	LNM 24/15, 1st Dist	2239	12333_1	6/11/2015
12333	Add	Channel Limits PT 1 OF 7	None	N 40 38' 44.450"	W 074 10' 26.020"	40.64568	-74.1739	LNM 24/15, 1st Dist	2239	12333_1	6/11/2015
12333	Add	Channel Limits PT 2 OF 7	None	N 40 38' 44.500"	W 074 10' 44.990"	40.64569	-74.17916	LNM 24/15, 1st Dist	2239	12333_1	6/11/2015
12333	Add	Channel Limits PT 3 OF 7	None	N 40 38' 43.160"	W 074 10' 57.360"	40.64532	-74.1826	LNM 24/15, 1st Dist	2239	12333_1	6/11/2015
12333	Add	Channel Limits PT 4 OF 7	None	N 40 38' 41.070"	W 074 11' 04.510"	40.64474	-74.18459	LNM 24/15, 1st Dist	2239	12333_1	6/11/2015
12333	Add	Channel Limits PT 5 OF 7	None	N 40 38' 37.860"	W 074 11' 11.940"	40.64385	-74.18665	LNM 24/15, 1st Dist	2239	12333_1	6/11/2015
12333	Add	Channel Limits PT 6 OF 7	None	N 40 38' 15.290"	W 074 11' 39.850"	40.63758	-74.1944	LNM 24/15, 1st Dist	2239	12333_1	6/11/2015
12333	Add	Channel Limits PT 7 OF 7	None	N 40 38' 15.370"	W 074 11' 40.010"	40.6376	-74.19445	LNM 24/15, 1st Dist	2239	12333_1	6/11/2015
12333	Delete	Sounding in Feet	31	N 40 38' 29.200"	W 074 11' 34.100"	40.64145	-74.1928	LNM 24/15, 1st Dist	2239	12333_1	6/11/2015
12333	Delete	Channel Limits PT 1 OF 2	None	N 40 38' 44.450"	W 074 10' 26.020"	40.64568	-74.1739	LNM 24/15, 1st Dist	2239	12333_1	6/11/2015
12333	Delete	Channel Limits PT 2 OF 2	None	N 40 38' 15.370"	W 074 11' 40.010"	40.6376	-74.19445	LNM 24/15, 1st Dist	2239	12333_1	6/11/2015
12333	Delete	magenta channel reach separator PT 1 OF 2	None	N 40 38' 21.830"	W 074 11' 42.790"	40.6394	-74.19522	LNM 24/15, 1st Dist	2239	12333_1	6/11/2015
12333	Delete	magenta channel reach separator PT 2 OF 2	None	N 40 38' 17.620"	W 074 11' 36.970"	40.63823	-74.1936	LNM 24/15, 1st Dist	2239	12333_1	6/11/2015
12333	Change	label to: NORTH REACH	NORTH REACH	N 40 41' 18.000"	W 074 07' 36.500"	40.68833	-74.12681	LNM 24/15, 1st Dist	2239	12333_1	6/11/2015
12333	Delete	Channel Limits PT 1 OF 2	None	N 40 41' 03.230"	W 074 07' 55.660"	40.68423	-74.13213	LNM 24/15, 1st Dist	2239	12333_1	6/11/2015
12333	Delete	Channel Limits PT 2 OF 2	None	N 40 41' 11.620"	W 074 07' 50.780"	40.68656	-74.13078	LNM 24/15, 1st Dist	2239	12333_1	6/11/2015
12333	Delete	Channel Limits PT 1 OF 4	None	N 40 40' 46.070"	W 074 08' 38.930"	40.67946	-74.14415	LNM 24/15, 1st Dist	2239	12333_1	6/11/2015
12333	Delete	Channel Limits PT 2 OF 4	None	N 40 40' 44.520"	W 074 08' 30.220"	40.67904	-74.14173	LNM 24/15, 1st Dist	2239	12333_1	6/11/2015
12333	Delete	Channel Limits PT 3 OF 4	None	N 40 40' 33.190"	W 074 08' 11.950"	40.67588	-74.13665	LNM 24/15, 1st Dist	2239	12333_1	6/11/2015
12333	Delete	Channel Limits PT 4 OF 4	None	N 40 40' 26.650"	W 074 08' 17.870"	40.67407	-74.1383	LNM 24/15, 1st Dist	2239	12333_1	6/11/2015
12333	Add	Channel Limits PT 1 OF 4	None	N 40 40' 44.520"	W 074 08' 30.220"	40.67904	-74.14173	LNM 24/15, 1st Dist	2239	12333_1	6/11/2015
12333	Add	Channel Limits PT 2 OF 4	None	N 40 40' 43.850"	W 074 08' 30.210"	40.67885	-74.14172	LNM 24/15, 1st Dist	2239	12333_1	6/11/2015
12333	Add	Channel Limits PT 3 OF 4	None	N 40 40' 32.960"	W 074 08' 12.630"	40.67582	-74.13684	LNM 24/15, 1st Dist	2239	12333_1	6/11/2015
12333	Add	Channel Limits PT 4 OF 4	None	N 40 40' 33.190"	W 074 08' 11.950"	40.67588	-74.13665	LNM 24/15, 1st Dist	2239	12333_1	6/11/2015
12333	Delete	magenta channel reach separator PT 1 OF 2	None	N 40 39' 32.820"	W 074 08' 55.220"	40.65911	-74.14867	LNM 24/15, 1st Dist	2239	12333_1	6/11/2015
12333	Delete	magenta channel reach separator PT 2 OF 2	None	N 40 39' 30.810"	W 074 08' 58.230"	40.65856	-74.14951	LNM 24/15, 1st Dist	2239	12333_1	6/11/2015
12333	Add	magenta channel reach separator PT 1 OF 2	None	N 40 39' 57.060"	W 074 08' 38.380"	40.66585	-74.144	LNM 24/15, 1st Dist	2239	12333_1	6/11/2015
12333	Add	magenta channel reach separator PT 2 OF 2	None	N 40 39' 49.230"	W 074 08' 18.900"	40.66367	-74.13858	LNM 24/15, 1st Dist	2239	12333_1	6/11/2015
12333	Change	Depth Legend - Port Elizabeth	30 1/2 FEET SEP 2014	N 40 39' 47.000"	W 074 08' 46.000"	40.66306	-74.14611	LNM 24/15, 1st Dist	2239	12333_1	6/11/2015
12333	Change	Depth Legend - Port Elizabeth	31 FEET SEP 2014	N 40 40' 13.000"	W 074 08' 28.000"	40.67028	-74.14111	LNM 24/15, 1st Dist	2239	12333_1	6/11/2015
12333	Add	18 ft depth curve PT 1 OF 6	18	N 40 39' 58.170"	W 074 08' 39.100"	40.66616	-74.1442	LNM 24/15, 1st Dist	2239	12333_1	6/11/2015
12333	Add	18 ft depth curve PT 2 OF 6	18	N 40 39' 58.520"	W 074 08' 38.600"	40.66626	-74.14406	LNM 24/15, 1st Dist	2239	12333_1	6/11/2015
12333	Add	18 ft depth curve PT 3 OF 6	18	N 40 39' 59.080"	W 074 08' 38.510"	40.66641	-74.14403	LNM 24/15, 1st Dist	2239	12333_1	6/11/2015
12333	Add	18 ft depth curve PT 4 OF 6	18	N 40 39' 59.510"	W 074 08' 38.180"	40.66653	-74.14394	LNM 24/15, 1st Dist	2239	12333_1	6/11/2015
12333	Add	18 ft depth curve PT 5 OF 6	18	N 40 39' 59.860"	W 074 08' 37.670"	40.66663	-74.1438	LNM 24/15, 1st Dist	2239	12333_1	6/11/2015
12333	Add	18 ft depth curve PT 6 OF 6	18	N 40 40' 00.440"	W 074 08' 37.570"	40.66679	-74.14377	LNM 24/15, 1st Dist	2239	12333_1	6/11/2015
12333	Delete	magenta channel reach separator PT 1 OF 2	None	N 40 38' 50.430"	W 074 10' 28.840"	40.64734	-74.17467	LNM 24/15, 1st Dist	2239	12333_1	6/11/2015
12333	Delete	magenta channel reach separator PT 2 OF 2	None	N 40 38' 44.460"	W 074 10' 28.270"	40.64568	-74.17452	LNM 24/15, 1st Dist	2239	12333_1	6/11/2015
12333	Change	label to: MIDDLE REACH (NORTH)	MIDDLE REACH (NORTH)	N 40 40' 51.000"	W 074 07' 51.500"	40.68083	-74.13097	LNM 24/15, 1st Dist	2239	12333_1	6/11/2015
12333	Add	magenta channel reach separator PT 1 OF 2	None	N 40 40' 40.930"	W 074 08' 01.640"	40.67804	-74.13379	LNM 24/15, 1st Dist	2239	12333_1	6/11/2015
12333	Add	magenta channel reach separator PT 2 OF 2	None	N 40 40' 38.410"	W 074 07' 51.800"	40.67734	-74.13106	LNM 24/15, 1st Dist	2239	12333_1	6/11/2015
12333	Add	magenta channel reach separator PT 1 OF 2	None	N 40 38' 49.550"	W 074 10' 45.680"	40.6471	-74.17935	LNM 24/15, 1st Dist	2239	12333_1	6/11/2015
12333	Add	magenta channel reach separator PT 2 OF 2	None	N 40 38' 44.500"	W 074 10' 44.990"	40.64569	-74.17916	LNM 24/15, 1st Dist	2239	12333_1	6/11/2015
12333	Add	magenta channel reach separator PT 1 OF 2	None	N 40 40' 54.420"	W 074 07' 55.680"	40.68178	-74.13213	LNM 24/15, 1st Dist	2239	12333_1	6/11/2015
12333	Add	magenta channel reach separator PT 2 OF 2	None	N 40 41' 10.270"	W 074 07' 45.480"	40.68619	-74.1293	LNM 24/15, 1st Dist	2239	12333_1	6/11/2015
12333	Add	magenta channel reach separator PT 1 OF 2	None	N 40 40' 32.960"	W 074 08' 12.630"	40.67582	-74.13684	LNM 24/15, 1st Dist	2239	12333_1	6/11/2015
12333	Add	magenta channel reach separator PT 2 OF 2	None	N 40 40' 26.650"	W 074 08' 17.870"	40.67407	-74.1383	LNM 24/15, 1st Dist	2239	12333_1	6/11/2015
12333	Add	magenta channel reach separator PT 1 OF 2	None	N 40 40' 46.070"	W 074 08' 38.930"	40.67946	-74.14415	LNM 24/15, 1st Dist	2239	12333_1	6/11/2015
12333	Add	magenta channel reach separator PT 2 OF 2	None	N 40 40' 43.850"	W 074 08' 30.210"	40.67885	-74.14172	LNM 24/15, 1st Dist	2239	12333_1	6/11/2015
12333	Delete	Sounding in Feet	31	N 40 38' 37.000"	W 074 07' 03.000"	40.64361	-74.1175	LNM 24/15, 1st Dist	2239	12333_1	6/11/2015
12333	Add	Sounding in Feet	19	N 40 38' 37.900"	W 074 07' 01.800"	40.64386	-74.11716	LNM 24/15, 1st Dist	2239	12333_1	6/11/2015
12333	Change	tabulation - Kill Van Kull, Newark Bay and Arthur Kill Channel Depths	tabulation - Kill Van Kull, Newark Bay and Arthur Kill Channel Depths	N 40 36' 14.000"	W 074 04' 58.000"	40.60389	-74.08278	LNM 21/15, 1st Dist	2239	12333_1	5/21/2015
12333	Change	tabulation - ARTHUR KILL, KILL VAN KULL, NEWARK BAY, PORT NEWARK AND PORT ELIZABETH CHANNEL DEPTHS	tabulation - ARTHUR KILL, KILL VAN KULL, NEWARK BAY, PORT NEWARK AND PORT ELIZABETH CHANNEL DEPTHS	N 40 36' 14.000"	W 074 04' 58.000"	40.60389	-74.08278	LNM 25/14, 1st Dist	2239	12333_1	6/19/2014
12333	Change	Bridge Construction	None	N 40 38' 09.490"	W 074 11' 49.630"	40.63597	-74.19712	LNM 21/14, 1st Dist	2239	12333_1	5/22/2014
12333	Change	Bridge Construction Label	 GOETHALS FIXED BRIDGE Bridge under construction (see note)	N 40 38' 09.490"	W 074 11' 49.630"	40.63597	-74.19712	LNM 21/14, 1st Dist	2239	12333_1	5/22/2014
12333	Add	CAUTION NOTE	CAUTIONFixed and floating obstructions, some submerged, may exist within the magenta tinted bridge construction area. Mariners are advised to proceed with caution.	N 40 37' 44.000"	W 074 09' 31.000"	40.62889	-74.15861	LNM 21/14, 1st Dist	2239	12333_1	5/22/2014
12333	Change	Bridge Construction	None	N 40 38' 30.570"	W 074 08' 32.570"	40.64183	-74.14238	LNM 21/14, 1st Dist	2239	12333_1	5/22/2014
12333	Change	Bridge Construction Label	 BAYONNE FIXED BRIDGE Bridge under construction (see note)	N 40 38' 30.570"	W 074 08' 32.570"	40.64183	-74.14238	LNM 21/14, 1st Dist	2239	12333_1	5/22/2014
12333	Change	tabulation- ARTHUR KILL, KILL VAN KULL, NEWARK BAY, PORT NEWARK AND PORT ELIZABETH CHANNEL DEPTHS	tabulation- ARTHUR KILL, KILL VAN KULL, NEWARK BAY, PORT NEWARK AND PORT ELIZABETH CHANNEL DEPTHS	N 40 36' 14.000"	W 074 04' 58.000"	40.60389	-74.08278	LNM 20/14, 1st Dist	2239	12333_1	5/22/2014
12333	Delete	Port Jersey Channel North Lighted Buoy 4	R "4" Q R	N 40 40' 12.615"	W 074 04' 42.315"	40.67017	-74.07842	LNM 11/14, 1st Dist	2239	12333_1	3/27/2014
12333	Add	Bayonne Golf Club Lighted Buoy 1	G "1" Fl G 4s Priv	N 40 39' 53.160"	W 074 04' 59.220"	40.66477	-74.08311	LNM 10/14, 1st Dist	2239	12333_1	3/20/2014
12333	Add	Bayonne Golf Club Lighted Buoy 2	R "2" Fl R 4s Priv	N 40 39' 54.540"	W 074 04' 58.820"	40.66515	-74.08301	LNM 10/14, 1st Dist	2239	12333_1	3/20/2014
12333	Add	Bayonne Golf Club Lighted Buoy 3	G "3" Fl G 4s Priv	N 40 39' 53.700"	W 074 05' 04.440"	40.66492	-74.08456	LNM 10/14, 1st Dist	2239	12333_1	3/20/2014
12333	Add	Bayonne Golf Club Lighted Buoy 5	G "5" Fl G 4s Priv	N 40 39' 53.700"	W 074 05' 18.120"	40.66492	-74.08836	LNM 10/14, 1st Dist	2239	12333_1	3/20/2014
12333	Add	Bayonne Golf Club Lighted Buoy 4	R "4" Fl R 4s Priv	N 40 39' 54.540"	W 074 05' 03.600"	40.66515	-74.08434	LNM 10/14, 1st Dist	2239	12333_1	3/20/2014
12333	Add	Bayonne Golf Club Lighted Buoy 6	R "6" Fl R 4s Priv	N 40 39' 54.540"	W 074 05' 16.680"	40.66515	-74.08797	LNM 10/14, 1st Dist	2239	12333_1	3/20/2014
12333	Delete	Constable Hook Artificial Reef Daybeacon C	W "C" Priv	N 40 39' 24.590"	W 074 05' 14.650"	40.65683	-74.0874	LNM 11/14, 1st Dist	2239	12333_1	3/20/2014
12333	Delete	Constable Hook Artificial Reef Daybeacon A	W "A" Priv	N 40 39' 26.110"	W 074 05' 15.800"	40.65725	-74.08772	LNM 11/14, 1st Dist	2239	12333_1	3/20/2014
12333	Delete	Constable Hook Artificial Reef Daybeacon B	W "B" Priv	N 40 39' 25.310"	W 074 05' 14.760"	40.65703	-74.08743	LNM 11/14, 1st Dist	2239	12333_1	3/20/2014
12333	Add	Cromwell Pier South Hazard Light	F 20ft Priv	N 40 38' 13.750"	W 074 04' 13.800"	40.63715	-74.0705	LNM 04/14, 1st Dist	2239	12333_1	2/6/2014
12333	Add	Cromwell Pier North Hazard Light	F 20ft Priv	N 40 38' 14.860"	W 074 04' 14.000"	40.63746	-74.07056	LNM 04/14, 1st Dist	2239	12333_1	2/6/2014
12333	Delete	Important Building	(Chart No. 1: D6)	N 40 38' 13.860"	W 074 04' 18.210"	40.63718	-74.07172	LNM 53/13, 1st Dist	2239	12333_1	1/9/2014
12333	Add	Ruins	Ruins	N 40 38' 13.860"	W 074 04' 18.210"	40.63718	-74.07172	LNM 53/13, 1st Dist	2239	12333_1	1/9/2014
12333	Relocate	Kill Van Kull Channel Lighted Buoy 10	R "10" Q R	N 40 38' 39.390"	W 074 07' 32.590"	40.64428	-74.12572	LNM 50/13, 1st Dist	2239	12333_1	12/16/2013
12333	Relocate	Kill Van Kull Channel Lighted Buoy 12	R "12" Fl R 4s	N 40 38' 39.390"	W 074 07' 50.390"	40.64428	-74.13066	LNM 50/13, 1st Dist	2239	12333_1	12/16/2013
12333	Change	Tabulation - ARTHUR KILL, KILL VAN KULL, NEWARK BAY, PORT NEWARK AND PORT ELIZABETH CHANNEL	Tabulation - ARTHUR KILL, KILL VAN KULL, NEWARK BAY, PORT NEWARK AND PORT ELIZABETH CHANNEL	N 40 36' 14.000"	W 074 04' 58.000"	40.60389	-74.08278	LNM 43/13, 1st Dist	2239	12333_1	10/15/2013
12333	Add	Low Water Area	(Chart No. 1: K1)	N 40 37' 23.050"	W 074 12' 06.150"	40.62307	-74.20171	LNM 43/13, 1st Dist	2239	12333_1	10/15/2013
12333	Relocate	Kill Van Kull Channel Lighted Buoy 10	R "10" Q R	N 40 38' 38.137"	W 074 07' 40.337"	40.64393	-74.12787	LNM 30/13, 1st Dist	2239	12333_1	7/30/2013
12333	Change	Newark Bay Channel Lighted Buoy 18	R "18" Q R	N 40 41' 01.160"	W 074 07' 41.747"	40.68365	-74.12827	LNM 29/13, 1st Dist	2239	12333_1	7/19/2013
12333	Relocate	Newark Bay Channel Lighted Buoy 18	R "18" Q R	N 40 41' 01.160"	W 074 07' 41.747"	40.68365	-74.12827	LNM 29/13, 1st Dist	2239	12333_1	7/19/2013
12333	Change	Tabulation - ARTHUR KILL, KILL VAN KULL, NEWARK BAY, PORT NEWARK AND PORT ELIZABETH CHANNEL DEPTHS	Tabulation - ARTHUR KILL, KILL VAN KULL, NEWARK BAY, PORT NEWARK AND PORT ELIZABETH CHANNEL DEPTHS	N 40 36' 14.000"	W 074 04' 58.000"	40.60389	-74.08278	LNM 22/13, 1st Dist	2239	12333_1	5/23/2013
12333	Delete	Arthur Kill Channel Buoy 32A	R "32A" Fl R 2.5s	N 40 35' 44.975"	W 074 12' 01.320"	40.59583	-74.20036	LNM 16/13, 1st Dist	2239	12333_1	4/15/2013
12333	Relocate	South Elizabeth Channel Buoy 1	G C "1"	N 40 39' 28.380"	W 074 08' 59.250"	40.65788	-74.14979	LNM 08/13, 1st Dist	2239	12333_1	2/26/2013
12333	Relocate	Newark Bay Channel Lighted Buoy 7	G "7" Fl G 2.5s	N 40 39' 19.010"	W 074 08' 51.806"	40.65528	-74.14772	LNM 05/13, 1st Dist	2239	12333_1	2/14/2013
12334	Change	tabulation - LOWER BAY CHANNEL DEPTHS	tabulation - LOWER BAY CHANNEL DEPTHS	N 40 36' 25.000"	W 074 03' 54.000"	40.60695	-74.065	LNM 10/17, 1st Dist	2238	12334_1	3/9/2017
12334	Add	DANGER LINE (PT 1 OF 4)	None	N 40 40' 21.580"	W 074 00' 57.560"	40.67266	-74.01599	LNM 51/16, 1st Dist	2238	12334_1	12/29/2016
12334	Add	DANGER LINE (PT 2 OF 4)	None	N 40 40' 18.000"	W 074 01' 01.680"	40.67167	-74.01714	LNM 51/16, 1st Dist	2238	12334_1	12/29/2016
12334	Add	DANGER LINE (PT 3 OF 4)	None	N 40 40' 17.280"	W 074 01' 00.660"	40.67147	-74.01685	LNM 51/16, 1st Dist	2238	12334_1	12/29/2016
12334	Add	DANGER LINE (PT 4 OF 4)	None	N 40 40' 20.840"	W 074 00' 56.330"	40.67245	-74.01565	LNM 51/16, 1st Dist	2238	12334_1	12/29/2016
12334	Delete	WHARF (PT 1 OF 4)	None	N 40 40' 21.480"	W 074 00' 57.420"	40.67263	-74.01595	LNM 50/16, 1st Dist	2238	12334_1	12/22/2016
12334	Delete	WHARF (PT 2 OF 4)	None	N 40 40' 18.000"	W 074 01' 01.440"	40.67167	-74.01707	LNM 50/16, 1st Dist	2238	12334_1	12/22/2016
12334	Delete	WHARF (PT 3 OF 4)	None	N 40 40' 17.400"	W 074 01' 00.660"	40.6715	-74.01685	LNM 50/16, 1st Dist	2238	12334_1	12/22/2016
12334	Delete	WHARF (PT 4 OF 4)	None	N 40 40' 20.880"	W 074 00' 56.400"	40.67247	-74.01566	LNM 50/16, 1st Dist	2238	12334_1	12/22/2016
12334	Delete	STACK	STACK	N 40 40' 26.880"	W 074 00' 52.860"	40.67413	-74.01469	LNM 50/16, 1st Dist	2238	12334_1	12/22/2016
12334	Delete	SOUNDING IN FEET	23	N 40 41' 08.080"	W 074 00' 47.990"	40.68558	-74.01333	LNM 49/16, 1st Dist	2238	12334_1	12/15/2016
12334	Add	SOUNDING IN FEET	36	N 40 41' 08.080"	W 074 00' 47.990"	40.68558	-74.01333	LNM 49/16, 1st Dist	2238	12334_1	12/15/2016
12334	Add	Sounding in Feet	23	N 40 41' 08.080"	W 074 00' 47.990"	40.68558	-74.01333	LNM 48/16, 1st Dist	2238	12334_1	11/24/2016
12334	Delete	Obstruction in Feet	36 Obstn       	N 40 41' 08.244"	W 074 00' 47.644"	40.68562	-74.01324	LNM 48/16, 1st Dist	2238	12334_1	11/24/2016
12334	Delete	Obstruction in Feet	49 Obstn       	N 40 37' 14.500"	W 074 03' 15.200"	40.62069	-74.05422	LNM 41/16, 1st Dist	2238	12334_1	10/6/2016
12334	Add	Sounding in Feet	53	N 40 37' 14.500"	W 074 03' 15.200"	40.62069	-74.05422	LNM 41/16, 1st Dist	2238	12334_1	10/6/2016
12334	Add	Mooring buoy	None	N 40 39' 23.580"	W 074 02' 02.290"	40.65655	-74.03397	LNM 31/16, 1st Dist	2238	12334_1	7/28/2016
12334	Delete	Anchorage Area label	ANCHORAGE NO 28 110.155 (see note A)	N 40 36' 05.400"	W 074 03' 16.900"	40.6015	-74.0547	LNM 30/16, 1st Dist	2238	12334_1	7/21/2016
12334	Delete	Anchorage Area PT 1 OF 2	None	N 40 36' 19.600"	W 074 03' 13.000"	40.60545	-74.05361	LNM 30/16, 1st Dist	2238	12334_1	7/21/2016
12334	Delete	Anchorage Area PT 2 OF 2	None	N 40 36' 04.400"	W 074 03' 03.700"	40.60122	-74.05103	LNM 30/16, 1st Dist	2238	12334_1	7/21/2016
12334	Add	Obstn PA 	Obstn PA (anchor) rep 2016	N 40 37' 38.064"	W 074 03' 40.464"	40.62724	-74.06124	LNM 19/16, 1st Dist	2238	12334_1	5/19/2016
12334	Add	Obstn PA 	Obstn PA (anchor) rep 2016	N 40 37' 38.604"	W 074 03' 41.148"	40.62739	-74.06143	LNM 19/16, 1st Dist	2238	12334_1	5/19/2016
12334	Substitute	Sounding in Feet	39 for 41	N 40 41' 49.600"	W 074 00' 08.100"	40.69711	-74.00225	LNM 13/16, 1st Dist	2238	12334_1	3/31/2016
12334	Delete	Obstruction in Feet	40 Obstn       	N 40 40' 50.290"	W 074 01' 10.580"	40.68064	-74.01961	LNM 13/16, 1st Dist	2238	12334_1	3/31/2016
12334	Add	Obstruction in Feet	37 Obstn 	N 40 40' 49.280"	W 074 01' 10.100"	40.68036	-74.01947	LNM 13/16, 1st Dist	2238	12334_1	3/31/2016
12334	Add	Sounding in Feet	32	N 40 40' 48.800"	W 074 01' 35.500"	40.68022	-74.02653	LNM 13/16, 1st Dist	2238	12334_1	3/31/2016
12334	Add	Sounding in Feet	33	N 40 40' 46.400"	W 074 01' 37.300"	40.67955	-74.02703	LNM 13/16, 1st Dist	2238	12334_1	3/31/2016
12334	Substitute	Sounding in Feet	34 for 35	N 40 40' 44.500"	W 074 01' 43.100"	40.67903	-74.02864	LNM 13/16, 1st Dist	2238	12334_1	3/31/2016
12334	Delete	Obstruction in Feet	51 Obstn       	N 40 38' 18.200"	W 074 03' 49.590"	40.63839	-74.06377	LNM 13/16, 1st Dist	2238	12334_1	3/31/2016
12334	Add	Obstruction in Feet	45 Obstn (rep 2012)	N 40 38' 14.570"	W 074 03' 46.640"	40.63738	-74.06296	LNM 13/16, 1st Dist	2238	12334_1	3/31/2016
12334	Delete	Sounding in Feet	25	N 40 41' 45.500"	W 074 00' 46.100"	40.69597	-74.0128	LNM 13/16, 1st Dist	2238	12334_1	3/31/2016
12334	Delete	Sounding in Feet	37	N 40 41' 47.600"	W 074 00' 30.700"	40.69656	-74.00853	LNM 13/16, 1st Dist	2238	12334_1	3/31/2016
12334	Add	Sounding in Feet	34	N 40 41' 48.300"	W 074 00' 25.900"	40.69675	-74.00719	LNM 13/16, 1st Dist	2238	12334_1	3/31/2016
12334	Add	Sounding in Feet	33	N 40 41' 47.700"	W 074 00' 29.100"	40.69658	-74.00808	LNM 13/16, 1st Dist	2238	12334_1	3/31/2016
12334	Delete	Sounding in Feet	35	N 40 40' 45.600"	W 074 01' 13.200"	40.67933	-74.02033	LNM 13/16, 1st Dist	2238	12334_1	3/31/2016
12334	Delete	Sounding in Feet	40	N 40 41' 13.000"	W 074 00' 42.000"	40.68694	-74.01167	LNM 13/16, 1st Dist	2238	12334_1	3/31/2016
12334	Add	Sounding in Feet	19	N 40 41' 45.700"	W 074 00' 45.600"	40.69603	-74.01266	LNM 13/16, 1st Dist	2238	12334_1	3/31/2016
12334	Add	Obstruction in Feet	33 Obstn (rep 2012)	N 40 41' 13.040"	W 074 00' 42.750"	40.68695	-74.01187	LNM 13/16, 1st Dist	2238	12334_1	3/31/2016
12334	Delete	Obstruction in Feet	43 Obstn       	N 40 41' 02.310"	W 074 00' 46.160"	40.68398	-74.01283	LNM 13/16, 1st Dist	2238	12334_1	3/31/2016
12334	Delete	Sounding in Feet	42	N 40 40' 48.500"	W 074 01' 10.000"	40.68014	-74.01945	LNM 13/16, 1st Dist	2238	12334_1	3/31/2016
12334	Add	Obstruction in Feet	31 Obstn       	N 40 40' 45.920"	W 074 01' 14.230"	40.67942	-74.02062	LNM 13/16, 1st Dist	2238	12334_1	3/31/2016
12334	Add	Sounding in Feet	33	N 40 40' 50.300"	W 074 01' 31.800"	40.68064	-74.0255	LNM 13/16, 1st Dist	2238	12334_1	3/31/2016
12334	Add	BROOKLYN PIER 5 MARINA LIGHT	Fl 4s Priv	N 40 41' 44.870"	W 074 00' 08.430"	40.6958	-74.00234	LNM 09/16, 1st Dist	2238	12334_1	3/10/2016
12334	Add	BROOKLYN PIER 5 MARINA LIGHT 1	Fl G 4s "1" Priv	N 40 41' 52.370"	W 074 00' 03.720"	40.69788	-74.00103	LNM 09/16, 1st Dist	2238	12334_1	3/10/2016
12334	Add	BROOKLYN PIER 5 MARINA LIGHT 2	Fl R 4s "2" Priv	N 40 41' 51.290"	W 074 00' 04.400"	40.69758	-74.00122	LNM 09/16, 1st Dist	2238	12334_1	3/10/2016
12334	Add	OBSTRUCTION	Obstn PA (anchor) rep 2016 	N 40 39' 53.820"	W 074 02' 35.460"	40.66495	-74.04318	LNM 09/16, 1st Dist	2238	12334_1	3/10/2016
12334	Change	tabulation - LOWER BAY CHANNEL DEPTHS	tabulation - LOWER BAY CHANNEL DEPTHS	N 40 36' 25.000"	W 074 03' 54.000"	40.60695	-74.065	LNM 48/15, 1st Dist	2238	12334_1	11/26/2015
12334	Change	BAY RIDGE CHANNEL LIGHTED BUOY 9	G "9" Q G	N 40 39' 49.272"	W 074 01' 21.304"	40.66368	-74.02258	LNM 43/15, 1st Dist	2238	12334_1	11/5/2015
12334	Change	GOWANUS FLATS LIGHTED BUOY 32	R "32" Fl R 4s	N 40 40' 18.971"	W 074 02' 24.006"	40.67194	-74.04	LNM 43/15, 1st Dist	2238	12334_1	11/5/2015
12334	Add	OBSTRUCTION	Obstn PA (anchor) rep 2015	N 40 39' 09.600"	W 074 02' 33.600"	40.65267	-74.04266	LNM 40/15, 1st Dist	2238	12334_1	10/15/2015
12334	Delete	GOVERNORS ISLAND EXT LIGHT	F R 47ft 9M	N 40 41' 08.800"	W 074 01' 35.300"	40.68578	-74.02647	LNM 38/15, 1st Dist	2238	12334_1	10/1/2015
12334	Add	MOORING BUOY	None	N 40 39' 10.800"	W 074 02' 10.980"	40.653	-74.03638	LNM 34/15, 1st Dist	2238	12334_1	9/3/2015
12334	Change	tabulation - KILL VAN KULL CHANNEL DEPTHS 	tabulation - KILL VAN KULL CHANNEL DEPTHS 	N 40 37' 53.000"	W 074 05' 24.000"	40.63139	-74.09	LNM 33/15, 1st Dist	2238	12334_1	8/13/2015
12334	Delete	Obstruction in Feet	51 Obstn       	N 40 38' 43.560"	W 074 03' 43.190"	40.64543	-74.062	LNM 32/15, 1st Dist	2238	12334_1	8/13/2015
12334	Delete	Obstruction in Feet	49 Obstn       	N 40 38' 44.950"	W 074 03' 35.670"	40.64582	-74.05991	LNM 32/15, 1st Dist	2238	12334_1	8/13/2015
12334	Add	channel limits PT 1 OF 4	None	N 40 39' 01.210"	W 074 03' 49.920"	40.65034	-74.06387	LNM 31/15, 1st Dist	2238	12334_1	8/6/2015
12334	Add	channel limits PT 2 OF 4	None	N 40 38' 57.990"	W 074 03' 34.900"	40.64944	-74.05969	LNM 31/15, 1st Dist	2238	12334_1	8/6/2015
12334	Add	channel limits PT 3 OF 4	None	N 40 38' 44.430"	W 074 03' 57.950"	40.64568	-74.06609	LNM 31/15, 1st Dist	2238	12334_1	8/6/2015
12334	Add	channel limits PT 4 OF 4	None	N 40 38' 38.720"	W 074 03' 40.640"	40.64409	-74.06129	Not Yet Published	2238	12334_1	8/6/2015
12334	Change	tabulation - Kill Van Kull Channel Depths	tabulation - Kill Van Kull Channel Depths	N 40 37' 53.000"	W 074 05' 24.000"	40.63139	-74.09	LNM 21/15, 1st Dist	2238	12334_1	5/21/2015
12334	Change	tabulation - Lower Bay Channel Depths	tabulation - Lower Bay Channel Depths	N 40 36' 25.000"	W 074 03' 54.000"	40.60695	-74.065	LNM 07/15, 1st Dist	2238	12334_1	2/19/2015
12334	Change	tabulation - LOWER BAY CHANNEL DEPTHS	tabulation - LOWER BAY CHANNEL DEPTHS	N 40 36' 25.000"	W 074 03' 54.000"	40.60695	-74.065	LNM 32/14, 1st Dist	2238	12334_1	8/7/2014
12334	Add	label: AMBROSE CHANNEL         REACH D      (see tabulation	 AMBROSE CHANNEL         REACH D      (see tabulation	N 40 36' 33.110"	W 074 02' 42.060"	40.6092	-74.04501	LNM 32/14, 1st Dist	2238	12334_1	8/7/2014
12334	Add	Channel Limits PT 1 OF 4	None	N 40 36' 45.860"	W 074 02' 35.740"	40.61274	-74.04326	LNM 32/14, 1st Dist	2238	12334_1	8/7/2014
12334	Add	Channel Limits PT 2 OF 4	None	N 40 36' 04.390"	W 074 02' 19.250"	40.60122	-74.03868	LNM 32/14, 1st Dist	2238	12334_1	8/7/2014
12334	Add	Channel Limits PT 3 OF 4	None	N 40 36' 04.380"	W 074 02' 46.340"	40.60122	-74.0462	LNM 32/14, 1st Dist	2238	12334_1	8/7/2014
12334	Add	Channel Limits PT 4 OF 4	None	N 40 36' 40.520"	W 074 03' 00.710"	40.61126	-74.05019	LNM 32/14, 1st Dist	2238	12334_1	8/7/2014
12334	Change	GOVERNORS ISLAND EXTENSION LIGHT	F R 47ft 9M	N 40 41' 08.800"	W 074 01' 35.300"	40.68578	-74.02647	LNM 23/14, 1st Dist	2238	12334_1	6/19/2014
12334	Change	GOVERNORS ISLAND LIGHT (2)	F R 75ft 7M	N 40 41' 34.600"	W 074 01' 10.800"	40.69294	-74.01967	LNM 23/14, 1st Dist	2238	12334_1	6/19/2014
12334	Delete	Port Jersey Channel North Lighted Buoy 4	R "4" Q R	N 40 40' 12.615"	W 074 04' 42.315"	40.67017	-74.07842	LNM 11/14, 1st Dist	2238	12334_1	3/27/2014
12334	Add	Bayonne Golf Club Lighted Buoy 1	G "1" Fl G 4s Priv	N 40 39' 53.160"	W 074 04' 59.220"	40.66477	-74.08311	LNM 10/14, 1st Dist	2238	12334_1	3/20/2014
12334	Add	Bayonne Golf Club Lighted Buoy 2	R "2" Fl R 4s Priv	N 40 39' 54.540"	W 074 04' 58.820"	40.66515	-74.08301	LNM 10/14, 1st Dist	2238	12334_1	3/20/2014
12334	Add	Bayonne Golf Club Lighted Buoy 3	G "3" Fl G 4s Priv	N 40 39' 53.700"	W 074 05' 04.440"	40.66492	-74.08456	LNM 10/14, 1st Dist	2238	12334_1	3/20/2014
12334	Add	Bayonne Golf Club Lighted Buoy 5	G "5" Fl G 4s Priv	N 40 39' 53.700"	W 074 05' 18.120"	40.66492	-74.08836	LNM 10/14, 1st Dist	2238	12334_1	3/20/2014
12334	Add	Bayonne Golf Club Lighted Buoy 4	R "4" Fl R 4s Priv	N 40 39' 54.540"	W 074 05' 03.600"	40.66515	-74.08434	LNM 10/14, 1st Dist	2238	12334_1	3/20/2014
12334	Add	Bayonne Golf Club Lighted Buoy 6	R "6" Fl R 4s Priv	N 40 39' 54.540"	W 074 05' 16.680"	40.66515	-74.08797	LNM 10/14, 1st Dist	2238	12334_1	3/20/2014
12334	Add	Obstruction	Obstn PA (anchor) rep 2014   (Chart No. 1: K40)	N 40 38' 52.680"	W 074 02' 57.601"	40.64797	-74.04933	LNM 06/14, 1st Dist	2238	12334_1	2/20/2014
12334	Add	Cromwell Pier South Hazard Light	F 20ft Priv	N 40 38' 13.750"	W 074 04' 13.800"	40.63715	-74.0705	LNM 04/14, 1st Dist	2238	12334_1	2/6/2014
12334	Add	Cromwell Pier North Hazard Light	F 20ft Priv	N 40 38' 14.860"	W 074 04' 14.000"	40.63746	-74.07056	LNM 04/14, 1st Dist	2238	12334_1	2/6/2014
12334	Change	Deep Water Channel Lighted Buoy 3	G "3" Fl G 2.5s	N 40 41' 57.124"	W 074 00' 30.450"	40.6992	-74.00846	LNM 03/14, 1st Dist	2238	12334_1	1/30/2014
12334	Change	Deep Water Channel Lighted Buoy 2	R "2" Q R	N 40 41' 46.730"	W 074 00' 44.807"	40.69632	-74.01244	LNM 03/14, 1st Dist	2238	12334_1	1/30/2014
12334	Change	Deep Water Channel Lighted Buoy 1	G "1" Q G	N 40 41' 52.279"	W 074 01' 16.130"	40.69786	-74.02115	LNM 03/14, 1st Dist	2238	12334_1	1/30/2014
12334	Delete	Important Building	(Chart No. 1: D6)	N 40 38' 13.860"	W 074 04' 18.210"	40.63718	-74.07172	LNM 53/13, 1st Dist	2238	12334_1	1/9/2014
12334	Add	Ruins	Ruins	N 40 38' 13.860"	W 074 04' 18.210"	40.63718	-74.07172	LNM 53/13, 1st Dist	2238	12334_1	1/9/2014
12335	Add	Chartlet - Revised soundings, depth curves and blue tint.	chartlet - Revised soundings, depth curves and blue tint.	N 40 43' 45.590"	W 073 57' 21.900"	40.72933	-73.95609	LNM 18/17, 1st Dist	2237	12335_1	5/4/2017
12335	Relocate	ROOSEVELT ISLAND REEF LIGHT 17	Fl G 4s 57ft "17"	N 40 44' 47.450"	W 073 57' 51.980"	40.74651	-73.96444	LNM 04/17, 1st Dist	2237	12335_1	2/2/2017
12335	Change	ROOSEVELT ISLAND REEF LIGHT 17	Fl G 4s 57ft "17"	N 40 44' 47.450"	W 073 57' 51.980"	40.74651	-73.96444	LNM 04/17, 1st Dist	2237	12335_1	2/2/2017
12335	Add	DANGER LINE (PT 1 OF 4)	None	N 40 40' 21.580"	W 074 00' 57.560"	40.67266	-74.01599	LNM 51/16, 1st Dist	2237	12335_1	12/29/2016
12335	Add	DANGER LINE (PT 4 OF 4)	None	N 40 40' 20.840"	W 074 00' 56.330"	40.67245	-74.01565	LNM 51/16, 1st Dist	2237	12335_1	12/29/2016
12335	Delete	WHARF (PT 1 OF 4)	None	N 40 40' 21.480"	W 074 00' 57.420"	40.67263	-74.01595	LNM 50/16, 1st Dist	2237	12335_1	12/22/2016
12335	Delete	WHARF (PT 4 OF 4)	None	N 40 40' 20.880"	W 074 00' 56.400"	40.67247	-74.01566	LNM 50/16, 1st Dist	2237	12335_1	12/22/2016
12335	Delete	STACK	STACK	N 40 40' 26.880"	W 074 00' 52.860"	40.67413	-74.01469	LNM 50/16, 1st Dist	2237	12335_1	12/22/2016
12335	Delete	SOUNDING IN FEET	23	N 40 41' 08.080"	W 074 00' 47.990"	40.68558	-74.01333	LNM 49/16, 1st Dist	2237	12335_1	12/15/2016
12335	Add	SOUNDING IN FEET	36	N 40 41' 08.080"	W 074 00' 47.990"	40.68558	-74.01333	LNM 49/16, 1st Dist	2237	12335_1	12/15/2016
12335	Add	Sounding in Feet	23	N 40 41' 08.080"	W 074 00' 47.990"	40.68558	-74.01333	LNM 48/16, 1st Dist	2237	12335_1	11/24/2016
12335	Delete	Obstruction in Feet	36 Obstn       	N 40 41' 08.244"	W 074 00' 47.644"	40.68562	-74.01324	LNM 48/16, 1st Dist	2237	12335_1	11/24/2016
12335	Add	Pipeline Area  PT 1 OF 4	Pipeline Area	N 40 44' 09.590"	W 073 56' 30.660"	40.736	-73.94185	LNM 21/16, 1st Dist	2237	12335_1	5/19/2016
12335	Add	Pipeline Area  PT 2 OF 4	Pipeline Area	N 40 44' 07.530"	W 073 56' 32.690"	40.73542	-73.94241	LNM 21/16, 1st Dist	2237	12335_1	5/19/2016
12335	Add	Pipeline Area  PT 3 OF 4	Pipeline Area	N 40 44' 14.410"	W 073 56' 43.670"	40.73734	-73.94547	LNM 21/16, 1st Dist	2237	12335_1	5/19/2016
12335	Add	Pipeline Area  PT 4 OF 4	Pipeline Area	N 40 44' 10.280"	W 073 56' 46.180"	40.73619	-73.94616	LNM 21/16, 1st Dist	2237	12335_1	5/19/2016
12335	Change	tabulation - Newtown Creek Channel Depths	tabulation - Newtown Creek Channel Depths	N 40 45' 52.000"	W 073 58' 00.000"	40.76445	-73.96667	LNM 21/16, 1st Dist	2237	12335_1	5/19/2016
12335	Delete	Sounding in Feet	38	N 40 41' 14.100"	W 074 00' 42.600"	40.68725	-74.01183	LNM 13/16, 1st Dist	2237	12335_1	3/31/2016
12335	Delete	Obstruction in Feet	40 Obstn       	N 40 40' 50.290"	W 074 01' 10.580"	40.68064	-74.01961	LNM 13/16, 1st Dist	2237	12335_1	3/31/2016
12335	Add	Obstruction in Feet	37 Obstn 	N 40 40' 49.280"	W 074 01' 10.100"	40.68036	-74.01947	LNM 13/16, 1st Dist	2237	12335_1	3/31/2016
12335	Delete	Sounding in Feet	37	N 40 40' 48.600"	W 074 01' 36.300"	40.68017	-74.02675	LNM 13/16, 1st Dist	2237	12335_1	3/31/2016
12335	Add	Sounding in Feet	32	N 40 40' 48.800"	W 074 01' 35.500"	40.68022	-74.02653	LNM 13/16, 1st Dist	2237	12335_1	3/31/2016
12335	Delete	Sounding in Feet	36	N 40 42' 11.000"	W 073 59' 52.200"	40.70306	-73.99783	LNM 13/16, 1st Dist	2237	12335_1	3/31/2016
12335	Delete	Sounding in Feet	37	N 40 41' 48.100"	W 074 00' 24.500"	40.69669	-74.00681	LNM 13/16, 1st Dist	2237	12335_1	3/31/2016
12335	Add	Sounding in Feet	39	N 40 41' 49.600"	W 074 00' 08.100"	40.69711	-74.00225	LNM 13/16, 1st Dist	2237	12335_1	3/31/2016
12335	Delete	Sounding in Feet	38	N 40 42' 12.700"	W 073 59' 47.900"	40.70353	-73.99664	LNM 13/16, 1st Dist	2237	12335_1	3/31/2016
12335	Add	Sounding in Feet	34	N 40 42' 12.600"	W 073 59' 48.300"	40.7035	-73.99675	LNM 13/16, 1st Dist	2237	12335_1	3/31/2016
12335	Add	Sounding in Feet	22	N 40 44' 33.700"	W 073 57' 46.200"	40.74269	-73.96283	LNM 13/16, 1st Dist	2237	12335_1	3/31/2016
12335	Add	Sounding in Feet	23	N 40 44' 30.900"	W 073 57' 47.000"	40.74192	-73.96306	LNM 13/16, 1st Dist	2237	12335_1	3/31/2016
12335	Add	Sounding in Feet	33	N 40 40' 46.400"	W 074 01' 37.300"	40.67955	-74.02703	LNM 13/16, 1st Dist	2237	12335_1	3/31/2016
12335	Delete	Sounding in Feet	36	N 40 40' 44.700"	W 074 01' 40.800"	40.67908	-74.028	LNM 13/16, 1st Dist	2237	12335_1	3/31/2016
12335	Delete	Sounding in Feet	36	N 40 40' 43.300"	W 074 01' 42.600"	40.6787	-74.0285	LNM 13/16, 1st Dist	2237	12335_1	3/31/2016
12335	Delete	Sounding in Feet	36	N 40 40' 44.200"	W 074 01' 44.800"	40.67894	-74.02911	LNM 13/16, 1st Dist	2237	12335_1	3/31/2016
12335	Add	Sounding in Feet	34	N 40 40' 44.500"	W 074 01' 43.100"	40.67903	-74.02864	LNM 13/16, 1st Dist	2237	12335_1	3/31/2016
12335	Delete	Sounding in Feet	37	N 40 40' 46.600"	W 074 01' 36.400"	40.67961	-74.02678	LNM 13/16, 1st Dist	2237	12335_1	3/31/2016
12335	Delete	Sounding in Feet	25	N 40 41' 45.500"	W 074 00' 46.100"	40.69597	-74.0128	LNM 13/16, 1st Dist	2237	12335_1	3/31/2016
12335	Add	Sounding in Feet	34	N 40 41' 48.300"	W 074 00' 25.900"	40.69675	-74.00719	LNM 13/16, 1st Dist	2237	12335_1	3/31/2016
12335	Add	Sounding in Feet	33	N 40 41' 47.700"	W 074 00' 29.100"	40.69658	-74.00808	LNM 13/16, 1st Dist	2237	12335_1	3/31/2016
12335	Add	Sounding in Feet	32	N 40 42' 11.400"	W 073 59' 51.300"	40.70317	-73.99758	LNM 13/16, 1st Dist	2237	12335_1	3/31/2016
12335	Delete	Sounding in Feet	41	N 40 41' 12.800"	W 074 00' 41.400"	40.68689	-74.0115	LNM 13/16, 1st Dist	2237	12335_1	3/31/2016
12335	Add	Sounding in Feet	19	N 40 41' 45.700"	W 074 00' 45.600"	40.69603	-74.01266	LNM 13/16, 1st Dist	2237	12335_1	3/31/2016
12335	Add	Obstruction in Feet	33 Obstn (rep 2012)	N 40 41' 13.040"	W 074 00' 42.750"	40.68695	-74.01187	LNM 13/16, 1st Dist	2237	12335_1	3/31/2016
12335	Delete	Obstruction in Feet	43 Obstn       	N 40 41' 02.310"	W 074 00' 46.160"	40.68398	-74.01283	LNM 13/16, 1st Dist	2237	12335_1	3/31/2016
12335	Add	Obstruction in Feet	31 Obstn       	N 40 40' 45.920"	W 074 01' 14.230"	40.67942	-74.02062	LNM 13/16, 1st Dist	2237	12335_1	3/31/2016
12335	Delete	Sounding in Feet	37	N 40 40' 49.800"	W 074 01' 32.700"	40.6805	-74.02575	LNM 13/16, 1st Dist	2237	12335_1	3/31/2016
12335	Add	Sounding in Feet	33	N 40 40' 50.300"	W 074 01' 31.800"	40.68064	-74.0255	LNM 13/16, 1st Dist	2237	12335_1	3/31/2016
12335	Add	BROOKLYN PIER 5 MARINA LIGHT	Fl 4s Priv	N 40 41' 44.870"	W 074 00' 08.430"	40.6958	-74.00234	LNM 09/16, 1st Dist	2237	12335_1	3/10/2016
12335	Add	BROOKLYN PIER 5 MARINA LIGHT 1	Fl G 4s "1" Priv	N 40 41' 52.370"	W 074 00' 03.720"	40.69788	-74.00103	LNM 09/16, 1st Dist	2237	12335_1	3/10/2016
12335	Add	BROOKLYN PIER 5 MARINA LIGHT 2	Fl R 4s "2" Priv	N 40 41' 51.290"	W 074 00' 04.400"	40.69758	-74.00122	LNM 09/16, 1st Dist	2237	12335_1	3/10/2016
12335	Delete	GOVERNORS ISLAND EXT LIGHT	F R 47ft 9M	N 40 41' 08.800"	W 074 01' 35.300"	40.68578	-74.02647	LNM 38/15, 1st Dist	2237	12335_1	10/1/2015
12335	Add	magenta channel reach separator PT 1 OF 2	None	N 40 44' 20.610"	W 073 57' 09.630"	40.73906	-73.95267	LNM 26/15, 1st Dist	2237	12335_1	6/25/2015
12335	Add	magenta channel reach separator PT 2 OF 2	None	N 40 44' 21.860"	W 073 57' 09.250"	40.73941	-73.95257	LNM 26/15, 1st Dist	2237	12335_1	6/25/2015
12335	Change	label to: REACH B	REACH B	N 40 44' 19.400"	W 073 57' 02.400"	40.73872	-73.95067	LNM 26/15, 1st Dist	2237	12335_1	6/25/2015
12335	Delete	magenta channel reach separator PT 1 OF 2	None	N 40 44' 20.270"	W 073 57' 07.770"	40.73896	-73.95216	LNM 26/15, 1st Dist	2237	12335_1	6/25/2015
12335	Delete	magenta channel reach separator PT 2 OF 2	None	N 40 44' 21.490"	W 073 57' 07.250"	40.7393	-73.95201	LNM 26/15, 1st Dist	2237	12335_1	6/25/2015
12335	Delete	label: REACH L	REACH L	N 40 44' 16.100"	W 073 56' 46.500"	40.7378	-73.94625	LNM 26/15, 1st Dist	2237	12335_1	6/25/2015
12335	Add	Sounding in feet	4	N 40 44' 16.600"	W 073 56' 44.000"	40.73795	-73.94556	LNM 26/15, 1st Dist	2237	12335_1	6/25/2015
12335	Add	Sounding in feet	13	N 40 44' 16.250"	W 073 56' 46.100"	40.73785	-73.94614	LNM 26/15, 1st Dist	2237	12335_1	6/25/2015
12335	Change	tabulation - Newtown Creek Channel Depths	tabulation - Newtown Creek Channel Depths	N 40 45' 52.000"	W 073 58' 00.000"	40.76445	-73.96667	LNM 23/15, 1st Dist	2237	12335_1	6/4/2015
12335	Change	GOVERNORS ISLAND EXTENSION LIGHT	F R 47ft 9M	N 40 41' 08.800"	W 074 01' 35.300"	40.68578	-74.02647	LNM 23/14, 1st Dist	2237	12335_1	6/19/2014
12335	Change	GOVERNORS ISLAND LIGHT (2)	F R 75ft 7M	N 40 41' 34.600"	W 074 01' 10.800"	40.69294	-74.01967	LNM 23/14, 1st Dist	2237	12335_1	6/19/2014
12335	Add	Sounding in Feet	13	N 40 43' 14.310"	W 073 58' 21.850"	40.72064	-73.97273	LNM 23/14, 1st Dist	2237	12335_1	6/5/2014
12335	Add	Sounding in Feet	16	N 40 43' 12.610"	W 073 58' 22.360"	40.72017	-73.97288	LNM 23/14, 1st Dist	2237	12335_1	6/5/2014
12335	Add	Dangerous Wreck	PA      	N 40 43' 13.480"	W 073 58' 22.140"	40.72041	-73.97282	LNM 23/14, 1st Dist	2237	12335_1	6/5/2014
12335	Delete	Sounding in Feet	24	N 40 43' 13.820"	W 073 58' 22.440"	40.7205	-73.9729	LNM 23/14, 1st Dist	2237	12335_1	6/5/2014
12335	Add	Stevens Institute Lighted Buoy A	Y "A" Fl Y 4s Priv	N 40 44' 37.200"	W 074 01' 20.400"	40.74367	-74.02233	LNM 10/14, 1st Dist	2237	12335_1	3/20/2014
12335	Delete	Restricted Area Label	RESTRICTED AREA 165.164 (see note A)	N 40 44' 50.300"	W 073 57' 37.500"	40.74731	-73.96042	LNM 05/14, 1st Dist	2237	12335_1	2/6/2014
12335	Add	Security Zone PT 1 OF 4	(Chart No. 1: N1.2)	N 40 44' 37.000"	W 073 58' 16.500"	40.74361	-73.97125	LNM 05/14, 1st Dist	2237	12335_1	2/6/2014
12335	Add	Security Zone PT 2 OF 4	(Chart No. 1: N1.2)	N 40 44' 34.500"	W 073 58' 10.500"	40.74292	-73.96958	LNM 05/14, 1st Dist	2237	12335_1	2/6/2014
12335	Add	Security Zone PT 3 OF 4	(Chart No. 1: N1.2)	N 40 45' 28.900"	W 073 57' 26.600"	40.75803	-73.95739	LNM 05/14, 1st Dist	2237	12335_1	2/6/2014
12335	Add	Security Zone PT 4 OF 4	(Chart No. 1: N1.2)	N 40 45' 30.700"	W 073 57' 30.700"	40.75853	-73.95853	LNM 05/14, 1st Dist	2237	12335_1	2/6/2014
12335	Delete	Restricted Area Label	RESTRICTED AREA 165.164 (see note A)	N 40 44' 37.000"	W 073 58' 09.400"	40.74361	-73.96928	LNM 05/14, 1st Dist	2237	12335_1	2/6/2014
12335	Add	Security Zone Label	SECURITY ZONE 165.164 (see note A)	N 40 45' 06.700"	W 073 57' 48.300"	40.75186	-73.96342	LNM 05/14, 1st Dist	2237	12335_1	2/6/2014
12335	Delete	Restricted Area PT 1 OF 2	(Chart No. 1: N2.1)	N 40 45' 18.500"	W 073 57' 03.200"	40.75514	-73.95089	LNM 05/14, 1st Dist	2237	12335_1	2/6/2014
12335	Delete	Restricted Area PT 2 OF 2	(Chart No. 1: N2.1)	N 40 45' 22.500"	W 073 57' 12.300"	40.75625	-73.95341	LNM 05/14, 1st Dist	2237	12335_1	2/6/2014
12335	Delete	Restricted Area PT 1 OF 2	(Chart No. 1: N2.1)	N 40 45' 26.000"	W 073 57' 20.000"	40.75722	-73.95556	LNM 05/14, 1st Dist	2237	12335_1	2/6/2014
12335	Delete	Restricted Area PT 2 OF 2	(Chart No. 1: N2.1)	N 40 45' 30.700"	W 073 57' 30.700"	40.75853	-73.95853	LNM 05/14, 1st Dist	2237	12335_1	2/6/2014
12335	Delete	Restricted Area PT 1 OF 2	(Chart No. 1: N2.1)	N 40 44' 37.000"	W 073 58' 16.700"	40.74361	-73.97131	LNM 05/14, 1st Dist	2237	12335_1	2/6/2014
12335	Delete	Restricted Area PT 2 OF 2	(Chart No. 1: N2.1)	N 40 44' 23.000"	W 073 57' 44.500"	40.73972	-73.96236	LNM 05/14, 1st Dist	2237	12335_1	2/6/2014
12335	Change	Deep Water Channel Lighted Buoy 3	G "3" Fl G 2.5s	N 40 41' 57.124"	W 074 00' 30.450"	40.6992	-74.00846	LNM 03/14, 1st Dist	2237	12335_1	1/30/2014
12335	Change	Deep Water Channel Lighted Buoy 2	R "2" Q R	N 40 41' 46.730"	W 074 00' 44.807"	40.69632	-74.01244	LNM 03/14, 1st Dist	2237	12335_1	1/30/2014
12335	Change	Deep Water Channel Lighted Buoy 1	G "1" Q G	N 40 41' 52.279"	W 074 01' 16.130"	40.69786	-74.02115	LNM 03/14, 1st Dist	2237	12335_1	1/30/2014
12335	Delete	Dangerous Rock Awash	Chart No. 1: Ka	N 40 42' 15.653"	W 074 02' 03.322"	40.70435	-74.03426	LNM 48/13, 1st Dist	2237	12335_1	11/22/2013
12335	Add	Obstruction in Feet	20 Obstn       Chart No. 1: K41	N 40 41' 22.686"	W 074 02' 30.253"	40.68964	-74.04174	LNM 48/13, 1st Dist	2237	12335_1	11/22/2013
12335	Delete	Obstruction	Obstn PA (2 ft rep)        Chart No. 1: K40	N 40 41' 19.378"	W 074 03' 01.041"	40.68872	-74.05029	LNM 48/13, 1st Dist	2237	12335_1	11/22/2013
12335	Delete	Visible Wreck	Chart No. 1: K24	N 40 41' 46.198"	W 074 02' 28.552"	40.69617	-74.04127	LNM 48/13, 1st Dist	2237	12335_1	11/22/2013
12335	Add	Obstruction in Feet	6 Obstn       Chart No. 1: K41	N 40 41' 46.289"	W 074 03' 57.844"	40.69619	-74.06607	LNM 48/13, 1st Dist	2237	12335_1	11/22/2013
12335	Add	Obstruction in Feet	7 Obstn       Chart No. 1: K41	N 40 41' 51.652"	W 074 02' 51.759"	40.69768	-74.04771	LNM 48/13, 1st Dist	2237	12335_1	11/22/2013
12335	Delete	Obstruction in Feet	12 Obstn Rep (1979) ED      Chart No. 1: K41	N 40 42' 33.939"	W 074 01' 55.137"	40.70943	-74.03198	LNM 48/13, 1st Dist	2237	12335_1	11/22/2013
12335	Add	Obstruction in Feet	8 Obstn       Chart No. 1: K41	N 40 41' 59.949"	W 074 02' 39.213"	40.69999	-74.04423	LNM 48/13, 1st Dist	2237	12335_1	11/22/2013
12335	Add	Obstruction in Feet	6 Obstn       Chart No. 1: K41	N 40 41' 52.712"	W 074 02' 53.238"	40.69798	-74.04812	LNM 48/13, 1st Dist	2237	12335_1	11/22/2013
12335	Delete	Dangerous Rock Awash	Chart No. 1: Ka	N 40 42' 17.213"	W 074 02' 01.307"	40.70478	-74.0337	LNM 48/13, 1st Dist	2237	12335_1	11/22/2013
12335	Add	Rock in Feet	9 Rk      Chart No. 1: K14.2	N 40 42' 17.889"	W 074 02' 01.888"	40.70497	-74.03386	LNM 48/13, 1st Dist	2237	12335_1	11/22/2013
12335	Add	Obstruction in Feet	15 Obstn       Chart No. 1: K41	N 40 42' 33.466"	W 074 01' 56.253"	40.7093	-74.0323	LNM 48/13, 1st Dist	2237	12335_1	11/22/2013
12335	Add	Wreck in Feet	3 Wk      Chart No. 1: K26	N 40 41' 46.288"	W 074 02' 29.147"	40.69619	-74.04143	LNM 48/13, 1st Dist	2237	12335_1	11/22/2013
12335	Add	Obstruction in Feet	9 Obstn       Chart No. 1: K41	N 40 41' 48.060"	W 074 03' 55.615"	40.69668	-74.06544	LNM 48/13, 1st Dist	2237	12335_1	11/22/2013
12335	Delete	Dangerous Wreck	(Chart No. 1: K28)	N 40 41' 47.640"	W 074 03' 57.316"	40.69657	-74.06592	LNM 48/13, 1st Dist	2237	12335_1	11/22/2013
12335	Add	Sounding in Feet	5	N 40 41' 51.800"	W 074 02' 53.100"	40.69772	-74.04808	LNM 48/13, 1st Dist	2237	12335_1	11/22/2013
12335	Substitute	Sounding in Feet	9 for 24	N 40 41' 47.200"	W 074 02' 45.500"	40.69645	-74.04597	LNM 48/13, 1st Dist	2237	12335_1	11/22/2013
12335	Substitute	Sounding in Feet	8 for 19	N 40 41' 51.700"	W 074 02' 42.100"	40.69769	-74.04503	LNM 48/13, 1st Dist	2237	12335_1	11/22/2013
12335	Substitute	Sounding in Feet	11 for 20	N 40 41' 54.300"	W 074 02' 48.700"	40.69842	-74.04686	LNM 48/13, 1st Dist	2237	12335_1	11/22/2013
12335	Substitute	Sounding in Feet	10 for 19	N 40 41' 47.100"	W 074 02' 50.200"	40.69641	-74.04728	LNM 48/13, 1st Dist	2237	12335_1	11/22/2013
12335	Add	Sounding in Feet	13	N 40 41' 49.700"	W 074 02' 53.700"	40.69714	-74.04825	LNM 48/13, 1st Dist	2237	12335_1	11/22/2013
12335	Add	East River Main Channel Lighted Buoy 19	G "19" Fl G 2.5s	N 40 41' 57.124"	W 074 00' 30.450"	40.6992	-74.00846	LNM 29/13, 1st Dist	2237	12335_1	7/16/2013
12335	Add	East River Main Channel Lighted Buoy 21	G "21" Q G	N 40 41' 52.279"	W 074 01' 16.130"	40.69786	-74.02115	LNM 29/13, 1st Dist	2237	12335_1	7/16/2013
12335	Add	East River Main Channel Lighted Buoy 20	R "20" Q R	N 40 41' 46.730"	W 074 00' 44.807"	40.69632	-74.01244	LNM 29/13, 1st Dist	2237	12335_1	7/16/2013
12335	Delete	East River Deepwater Range Front Light	F G 44ft	N 40 41' 58.301"	W 073 59' 59.454"	40.69953	-73.99985	LNM 26/13, 1st Dist	2237	12335_1	7/4/2013
12335	Delete	East River Deepwater Range Rear Light	F R 54ft	N 40 41' 59.089"	W 073 59' 53.920"	40.69975	-73.99831	LNM 26/13, 1st Dist	2237	12335_1	7/4/2013
12335	Delete	Accurate Landmark (Radio Tower)	(Chart No. 1: E29)	N 40 43' 47.616"	W 073 57' 39.892"	40.72989	-73.96108	LNM 25/13, 1st Dist	2237	12335_1	6/21/2013
12335	Delete	Accurate Landmark (Radio Tower)	(Chart No. 1: E29)	N 40 43' 47.112"	W 073 57' 38.010"	40.72975	-73.96056	LNM 25/13, 1st Dist	2237	12335_1	6/21/2013
12335	Delete	Label:	R TRS (WNYC) 830 kHz	N 40 43' 46.000"	W 073 57' 38.000"	40.72944	-73.96056	LNM 25/13, 1st Dist	2237	12335_1	6/21/2013
12335	Add	Submarine Cable  PT 1 OF 3	Chart No. 1: L30.1	N 40 46' 47.800"	W 073 59' 38.700"	40.77995	-73.99408	LNM 26/13, 1st Dist	2237	12335_1	6/21/2013
12335	Add	Submarine Cable  PT 2 OF 3	Chart No. 1: L30.1	N 40 46' 14.200"	W 074 00' 03.000"	40.77061	-74.00083	LNM 26/13, 1st Dist	2237	12335_1	6/21/2013
12335	Add	Submarine Cable  PT 3 OF 3	Chart No. 1: L30.1	N 40 46' 08.200"	W 073 59' 49.500"	40.76894	-73.99709	LNM 26/13, 1st Dist	2237	12335_1	6/21/2013
12335	Delete	Light	F R 24ft	N 40 41' 37.500"	W 074 00' 54.900"	40.69375	-74.01525	LNM 24/13, 1st Dist	2237	12335_1	6/20/2013
12335	Delete	Light	{2 F 24ft, 3 Fl 2s 18ft 14M Fog Lts	N 40 41' 36.780"	W 074 00' 53.940"	40.69355	-74.01498	LNM 24/13, 1st Dist	2237	12335_1	6/20/2013
12335	Delete	Light	F G 24ft	N 40 41' 36.780"	W 074 00' 52.200"	40.69355	-74.0145	LNM 24/13, 1st Dist	2237	12335_1	6/20/2013
12335	Delete	Pier 9 Southeast Lighted Hazard Buoy	Q Priv	N 40 42' 06.000"	W 074 00' 22.000"	40.70167	-74.00611	LNM 51/12, 1st Dist	2237	12335_1	12/27/2012
12335	Add	HURRICANES AND TROPICAL STORMS:	Hurricanes, tropical storms and other major storms may cause considerable damage to marine structures, aids to navigation and moored vessels, resulting in submerged debris in unknown locations.  Charted soundings, channel depths and shoreline may not reflect actual conditions following these storms. Fixed aids to navigation may have been damaged or destroyed. Buoys may have been moved from their charted positions, damaged, sunk, extinguished or otherwise made inoperative. Mariners should not rely upon the position or operation of an aid to navigation. Wrecks and submerged obstructions may have been displaced from charted locations. Pipelines may have become uncovered or moved.  Mariners are urged to exercise extreme caution and are requested to report aids to navigation discrepancies and hazards to navigation to the nearest United States Coast Guard unit.	N 40 43' 14.000"	W 074 00' 20.000"	40.72055	-74.00555	LNM 50/12, 1st Dist	2237	12335_1	12/6/2012
12335	Add	Obstruction in Feet	36 Obstn	N 40 42' 19.320"	W 073 59' 34.500"	40.70537	-73.99292	LNM 46/12, 1st Dist	2237	12335_1	11/19/2012
12335	Change	Buttermilk Channel Range Front Light	Q G 26ft	N 40 40' 51.755"	W 074 00' 59.923"	40.68104	-74.01665	LNM 39/12, 1st Dist	2237	12335_1	10/3/2012
12335	Relocate	Poorhouse Flats Range Front Light	Q R 26ft	N 40 43' 28.028"	W 073 57' 46.370"	40.72445	-73.96288	LNM 35/12, 1st Dist	2237	12335_1	9/6/2012
12335	Relocate	Poorhouse Flats Range Rear Light	Iso G 6s 48ft	N 40 43' 23.750"	W 073 57' 44.368"	40.72326	-73.96233	LNM 35/12, 1st Dist	2237	12335_1	9/6/2012
12335	Delete	Hudson River Kayak Crossing Lighted Buoy A	W Or "A" Fl Y 4s Priv	N 40 45' 45.680"	W 074 00' 21.070"	40.76269	-74.00585	LNM 33/12, 1st Dist	2237	12335_1	8/22/2012
12335	Delete	Hudson River Kayak Crossing Lighted Buoy B	W Or "B" Fl Y 4s Priv	N 40 45' 36.770"	W 074 00' 26.000"	40.76022	-74.00723	LNM 33/12, 1st Dist	2237	12335_1	8/22/2012
12335	Delete	Red Hook Pier 44 Obstruction Buoy	W Or Priv	N 40 40' 27.780"	W 074 01' 11.400"	40.67439	-74.01984	LNM 26/12, 1st Dist	2237	12335_1	7/2/2012
12335	Relocate	East River Deepwater Range Front Light	F G 44ft	N 40 41' 58.301"	W 073 59' 59.454"	40.69953	-73.99985	LNM 19/12, 1st Dist	2237	12335_1	5/17/2012
12335	Relocate	East River Deepwater Range Rear Light	F R 54ft	N 40 41' 59.089"	W 073 59' 53.920"	40.69975	-73.99831	LNM 19/12, 1st Dist	2237	12335_1	5/17/2012
12335	Relocate	Buttermilk Channel Range Front Light	Q G 46ft	N 40 40' 51.755"	W 074 00' 59.923"	40.68104	-74.01665	LNM 19/12, 1st Dist	2237	12335_1	5/17/2012
12335	Relocate	Buttermilk Channel Range Rear Light	Iso G 6s 76ft	N 40 40' 54.292"	W 074 00' 51.276"	40.68175	-74.01424	LNM 19/12, 1st Dist	2237	12335_1	5/17/2012
12335	Change	East River Deepwater Range Front Light	F G 44ft	N 40 41' 58.301"	W 073 59' 59.454"	40.69953	-73.99985	LNM 19/12, 1st Dist	2237	12335_1	5/17/2012
12337	Change	tabulation - NEWARK BAY CHANNEL DEPTHS	tabulation - NEWARK BAY CHANNEL DEPTHS	N 40 44' 50.000"	W 074 02' 30.000"	40.74722	-74.04166	LNM 08/17, 1st Dist	2235	12337_1	2/16/2017
12337	Change	tabulation - NEWARK BAY CHANNEL DEPTHS	tabulation - NEWARK BAY CHANNEL DEPTHS	N 40 44' 50.000"	W 074 02' 30.000"	40.74722	-74.04166	LNM 49/16, 1st Dist	2235	12337_1	12/1/2016
12337	Delete	Anchorage Area PT 2 OF 5	None	N 40 41' 12.700"	W 074 08' 09.900"	40.68686	-74.13609	LNM 30/16, 1st Dist	2235	12337_1	7/21/2016
12337	Delete	Anchorage Area PT 3 OF 5	None	N 40 41' 13.100"	W 074 08' 06.100"	40.68697	-74.13503	LNM 30/16, 1st Dist	2235	12337_1	7/21/2016
12337	Delete	Anchorage Area PT 4 OF 5	None	N 40 41' 03.300"	W 074 07' 56.500"	40.68425	-74.13236	LNM 30/16, 1st Dist	2235	12337_1	7/21/2016
12337	Delete	Anchorage Area label	36	N 40 41' 07.100"	W 074 08' 09.000"	40.68531	-74.13583	LNM 30/16, 1st Dist	2235	12337_1	7/21/2016
12337	Delete	Anchorage Area label	37	N 40 41' 16.100"	W 074 06' 56.500"	40.68781	-74.11569	LNM 30/16, 1st Dist	2235	12337_1	7/21/2016
12337	Delete	Anchorage Note	ANCHORAGE AREAS 110.155 (see note A) Limits and assigned numbers of anchorage areas are shown in magenta. 36 37 GENERAL ANCHORAGES	N 40 45' 38.200"	W 074 03' 06.100"	40.76061	-74.0517	LNM 30/16, 1st Dist	2235	12337_1	7/21/2016
12337	Delete	Anchorage Area PT 1 OF 3	None	N 40 41' 40.700"	W 074 06' 38.600"	40.69464	-74.11073	LNM 30/16, 1st Dist	2235	12337_1	7/21/2016
12337	Delete	Anchorage Area PT 2 OF 3	None	N 40 41' 51.900"	W 074 07' 01.900"	40.69775	-74.1172	LNM 30/16, 1st Dist	2235	12337_1	7/21/2016
12337	Delete	Anchorage Area PT 3 OF 3	None	N 40 41' 00.500"	W 074 07' 32.300"	40.68347	-74.12564	LNM 30/16, 1st Dist	2235	12337_1	7/21/2016
12337	Delete	Anchorage Area PT 1 OF 5	None	N 40 41' 00.500"	W 074 08' 21.100"	40.68347	-74.13919	LNM 30/16, 1st Dist	2235	12337_1	7/21/2016
12337	Delete	Anchorage Area PT 5 OF 5	None	N 40 41' 00.700"	W 074 07' 56.500"	40.68353	-74.13236	LNM 30/16, 1st Dist	2235	12337_1	7/21/2016
12337	Change	tabulation - PASSAIC AND HACKENSACK RIVER CHANNEL DEPTHS	tabulation - PASSAIC AND HACKENSACK RIVER CHANNEL DEPTHS	N 40 44' 02.000"	W 074 02' 31.000"	40.73389	-74.04195	LNM 02/16, 1st Dist	2235	12337_1	1/7/2016
12337	Change	Tabulation - Newark Bay Channel Depths	Tabulation - Newark Bay Channel Depths	N 40 44' 50.000"	W 074 02' 30.000"	40.74722	-74.04166	LNM 02/16, 1st Dist	2235	12337_1	1/7/2016
12337	Change	tabulation - Passaic and Hackensack Rivers Channel Depths	tabulation - Passaic and Hackensack Rivers Channel Depths	N 40 44' 02.000"	W 074 02' 30.000"	40.73389	-74.04166	LNM 41/15, 1st Dist	2235	12337_1	10/15/2015
12337	Change	tabulation - Newark Bay Channel Depths	tabulation - Newark Bay Channel Depths	N 40 44' 50.000"	W 074 02' 30.000"	40.74722	-74.04166	LNM 41/15, 1st Dist	2235	12337_1	10/15/2015
12337	Change	Depth Legend - Port Newark Pierhead	19 1/2 FEET FEB 2015	N 40 41' 13.000"	W 074 08' 15.700"	40.68694	-74.1377	LNM 38/15, 1st Dist	2235	12337_1	9/24/2015
12337	Delete	Channel Limits PT 1 OF 3	None	N 40 41' 18.540"	W 074 09' 31.350"	40.68848	-74.15871	LNM 24/15, 1st Dist	2235	12337_1	6/11/2015
12337	Delete	Channel Limits PT 2 OF 3	None	N 40 41' 14.730"	W 074 09' 35.440"	40.68742	-74.15984	LNM 24/15, 1st Dist	2235	12337_1	6/11/2015
12337	Delete	Channel Limits PT 3 OF 3	None	N 40 41' 14.410"	W 074 09' 34.960"	40.68734	-74.15971	LNM 24/15, 1st Dist	2235	12337_1	6/11/2015
12337	Add	Channel Limits PT 1 OF 3	None	N 40 41' 18.540"	W 074 09' 31.350"	40.68848	-74.15871	LNM 24/15, 1st Dist	2235	12337_1	6/11/2015
12337	Add	Channel Limits PT 2 OF 3	None	N 40 41' 18.860"	W 074 09' 31.860"	40.68857	-74.15885	LNM 24/15, 1st Dist	2235	12337_1	6/11/2015
12337	Add	Channel Limits PT 3 OF 3	None	N 40 41' 14.410"	W 074 09' 34.960"	40.68734	-74.15971	LNM 24/15, 1st Dist	2235	12337_1	6/11/2015
12337	Change	label to: MIDDLE REACH (NORTH)	MIDDLE REACH (NORTH)	N 40 41' 05.000"	W 074 07' 44.000"	40.68472	-74.12889	LNM 24/15, 1st Dist	2235	12337_1	6/11/2015
12337	Delete	Channel Limits PT 1 OF 2	None	N 40 41' 03.230"	W 074 07' 55.660"	40.68423	-74.13213	LNM 24/15, 1st Dist	2235	12337_1	6/11/2015
12337	Delete	Channel Limits PT 2 OF 2	None	N 40 41' 11.620"	W 074 07' 50.780"	40.68656	-74.13078	LNM 24/15, 1st Dist	2235	12337_1	6/11/2015
12337	Change	label to: NORTH REACH	NORTH REACH	N 40 41' 35.000"	W 074 07' 25.000"	40.69305	-74.12361	LNM 24/15, 1st Dist	2235	12337_1	6/11/2015
12337	Add	magenta channel reach separator PT 1 OF 2	None	N 40 41' 00.500"	W 074 07' 51.770"	40.68347	-74.13105	LNM 24/15, 1st Dist	2235	12337_1	6/11/2015
12337	Add	magenta channel reach separator PT 2 OF 2	None	N 40 41' 10.270"	W 074 07' 45.480"	40.68619	-74.1293	LNM 24/15, 1st Dist	2235	12337_1	6/11/2015
12337	Change	tabulation - Newark Bay Channel Depths	tabulation - Newark Bay Channel Depths	N 40 44' 50.000"	W 074 02' 30.000"	40.74722	-74.04166	LNM 21/15, 1st Dist	2235	12337_1	5/21/2015
12337	Change	tabulation - PASSAIC, HACKENSACK RIVERS AND PORT NEWARK CHANNEL DEPTHS	tabulation - PASSAIC, HACKENSACK RIVERS AND PORT NEWARK CHANNEL DEPTHS	N 40 44' 02.000"	W 074 02' 31.000"	40.73389	-74.04195	LNM 18/15, 1st Dist	2235	12337_1	4/30/2015
12337	Change	Fixed Bridge	None	N 40 49' 22.310"	W 074 07' 25.570"	40.82286	-74.12377	LNM 09/15, 1st Dist	2235	12337_1	2/26/2015
12337	Change	Fixed Bridge Label	FIXED BRIDGE HOR CL 125 FT VERT CL 33 FT	N 40 49' 22.310"	W 074 07' 25.570"	40.82286	-74.12377	LNM 09/15, 1st Dist	2235	12337_1	2/26/2015
12337	Change	tabulation - PASSIAC, HACKENSACK RIVERS AND PORT NEWARK CHANNEL DEPTHS	tabulation - PASSIAC, HACKENSACK RIVERS AND PORT NEWARK CHANNEL DEPTHS	N 40 44' 02.000"	W 074 02' 31.000"	40.73389	-74.04195	LNM 32/14, 1st Dist	2235	12337_1	8/28/2014
12337	Change	tabulation- PASSAIC, HACKENSACK RIVERS AND PORT NEWARK CHANNEL DEPTHS	tabulation- PASSAIC, HACKENSACK RIVERS AND PORT NEWARK CHANNEL DEPTHS	N 40 44' 02.000"	W 074 02' 31.000"	40.73389	-74.04195	LNM 20/14, 1st Dist	2235	12337_1	5/22/2014
12337	Change	tabulation- NEWARK BAY AND PORT NEWARK CHANNEL DEPTHS	tabulation- NEWARK BAY AND PORT NEWARK CHANNEL DEPTHS	N 40 44' 50.000"	W 074 02' 30.000"	40.74722	-74.04166	LNM 20/14, 1st Dist	2235	12337_1	5/22/2014
12337	Change	Newark Bay Channel Lighted Buoy 18	R "18" Q R	N 40 41' 01.160"	W 074 07' 41.747"	40.68365	-74.12827	LNM 29/13, 1st Dist	2235	12337_1	7/19/2013
12337	Relocate	Newark Bay Channel Lighted Buoy 18	R "18" Q R	N 40 41' 01.160"	W 074 07' 41.747"	40.68365	-74.12827	LNM 29/13, 1st Dist	2235	12337_1	7/19/2013
12337	Delete	Anchorage Area PT 1 OF 5	Chart No. 1: N12.1	N 40 43' 05.600"	W 074 06' 08.100"	40.71822	-74.10225	LNM 27/13, 1st Dist	2235	12337_1	6/26/2013
12337	Delete	Anchorage Area PT 2 OF 5	Chart No. 1: N12.1	N 40 42' 40.900"	W 074 06' 48.000"	40.71136	-74.11333	LNM 27/13, 1st Dist	2235	12337_1	6/26/2013
12337	Delete	Anchorage Area PT 3 OF 5	Chart No. 1: N12.1	N 40 42' 34.000"	W 074 06' 54.300"	40.70945	-74.11508	LNM 27/13, 1st Dist	2235	12337_1	6/26/2013
12337	Delete	Anchorage Area PT 4 OF 5	Chart No. 1: N12.1	N 40 42' 24.100"	W 074 06' 59.000"	40.7067	-74.11639	LNM 27/13, 1st Dist	2235	12337_1	6/26/2013
12337	Delete	Anchorage Area PT 5 OF 5	Chart No. 1: N12.1	N 40 42' 20.500"	W 074 06' 59.300"	40.7057	-74.11647	LNM 27/13, 1st Dist	2235	12337_1	6/26/2013
12337	Delete	Anchorage Area PT 1 OF 2	Chart No. 1: N12.1	N 40 42' 03.900"	W 074 07' 00.500"	40.70108	-74.11681	LNM 27/13, 1st Dist	2235	12337_1	6/26/2013
12337	Delete	Anchorage Area PT 2 OF 2	Chart No. 1: N12.1	N 40 41' 52.800"	W 074 07' 01.400"	40.698	-74.11706	LNM 27/13, 1st Dist	2235	12337_1	6/26/2013
12337	Delete	Anchorage Area PT 1 OF 5	Chart No. 1: N12.1	N 40 43' 20.400"	W 074 07' 10.800"	40.72233	-74.11967	LNM 27/13, 1st Dist	2235	12337_1	6/26/2013
12337	Delete	Anchorage Area PT 2 OF 5	Chart No. 1: N12.1	N 40 42' 51.900"	W 074 07' 15.900"	40.71442	-74.12109	LNM 27/13, 1st Dist	2235	12337_1	6/26/2013
12337	Delete	Anchorage Area PT 3 OF 5	Chart No. 1: N12.1	N 40 42' 28.000"	W 074 07' 07.600"	40.70778	-74.11877	LNM 27/13, 1st Dist	2235	12337_1	6/26/2013
12337	Delete	Anchorage Area PT 4 OF 5	Chart No. 1: N12.1	N 40 42' 43.500"	W 074 06' 55.800"	40.71208	-74.1155	LNM 27/13, 1st Dist	2235	12337_1	6/26/2013
12337	Delete	Anchorage Area PT 5 OF 5	Chart No. 1: N12.1	N 40 43' 08.700"	W 074 06' 25.000"	40.71908	-74.10694	LNM 27/13, 1st Dist	2235	12337_1	6/26/2013
12337	Delete	Anchorage Area Labels (in note)	38 and 39	N 40 45' 38.000"	W 074 03' 07.000"	40.76056	-74.05194	LNM 27/13, 1st Dist	2235	12337_1	6/26/2013
12337	Delete	Anchorage Area Label	39	N 40 42' 46.000"	W 074 07' 04.000"	40.71278	-74.11777	LNM 27/13, 1st Dist	2235	12337_1	6/26/2013
12337	Delete	Anchorage Area Label	38	N 40 42' 23.000"	W 074 06' 41.000"	40.70639	-74.11139	LNM 27/13, 1st Dist	2235	12337_1	6/26/2013
12337	Change	Swing Bridge Label	SWING BRIDGE HOR CL 57 FT VERT CL 3 FT	N 40 52' 45.401"	W 074 02' 22.910"	40.87928	-74.0397	LNM 26/13, 1st Dist	2236	12337_2	6/20/2013
12337	Delete	Overhead Power Cable Label	OVHD PWR CAB	N 40 49' 13.400"	W 074 05' 09.000"	40.82039	-74.08583	LNM 20/13, 1st Dist	2235	12337_1	5/9/2013
12337	Delete	Overhead Power Cable 	Chart No. 1: D26  	N 40 51' 42.500"	W 074 06' 25.000"	40.8618	-74.10694	LNM 20/13, 1st Dist	2235	12337_1	5/9/2013
12337	Delete	Overhead Power Cable 	Chart No. 1: D26  	N 40 49' 13.400"	W 074 05' 09.000"	40.82039	-74.08583	LNM 20/13, 1st Dist	2235	12337_1	5/9/2013
12337	Delete	Overhead Power Cable Label	OVHD PWR CAB AUTH CL 35 FT	N 40 51' 42.500"	W 074 06' 25.000"	40.8618	-74.10694	LNM 20/13, 1st Dist	2235	12337_1	5/9/2013
12337	Change	Channel Limits PT 1 OF 14	Chart No. 1: I20	N 40 45' 51.200"	W 074 09' 33.600"	40.76422	-74.15933	LNM 16/13, 1st Dist	2235	12337_1	4/15/2013
12337	Change	Channel Limits PT 2 OF 14	Chart No. 1: I20	N 40 46' 15.600"	W 074 09' 22.500"	40.771	-74.15625	LNM 16/13, 1st Dist	2235	12337_1	4/15/2013
12337	Change	Channel Limits PT 3 OF 14	Chart No. 1: I20	N 40 46' 45.700"	W 074 08' 53.300"	40.77936	-74.14814	LNM 16/13, 1st Dist	2235	12337_1	4/15/2013
12337	Change	Channel Limits PT 4 OF 14	Chart No. 1: I20	N 40 47' 06.900"	W 074 08' 54.000"	40.78525	-74.14833	LNM 16/13, 1st Dist	2235	12337_1	4/15/2013
12337	Change	Channel Limits PT 5 OF 14	Chart No. 1: I20	N 40 47' 56.200"	W 074 08' 16.900"	40.79894	-74.13803	LNM 16/13, 1st Dist	2235	12337_1	4/15/2013
12337	Change	Channel Limits PT 6 OF 14	Chart No. 1: I20	N 40 48' 22.300"	W 074 08' 21.700"	40.80619	-74.13936	LNM 16/13, 1st Dist	2235	12337_1	4/15/2013
12337	Change	Channel Limits PT 7 OF 14	Chart No. 1: I20	N 40 49' 04.400"	W 074 08' 11.800"	40.81789	-74.13661	LNM 16/13, 1st Dist	2235	12337_1	4/15/2013
12337	Change	Channel Limits PT 8 OF 14	Chart No. 1: I20	N 40 49' 15.400"	W 074 07' 33.700"	40.82095	-74.12603	LNM 16/13, 1st Dist	2235	12337_1	4/15/2013
12337	Change	Channel Limits PT 9 OF 14	Chart No. 1: I20	N 40 49' 57.500"	W 074 07' 15.300"	40.83264	-74.12092	LNM 16/13, 1st Dist	2235	12337_1	4/15/2013
12337	Change	Channel Limits PT 10 OF 14	Chart No. 1: I20	N 40 50' 19.700"	W 074 07' 27.200"	40.83881	-74.12422	LNM 16/13, 1st Dist	2235	12337_1	4/15/2013
12337	Change	Channel Limits PT 11 OF 14	Chart No. 1: I20	N 40 51' 05.500"	W 074 07' 09.600"	40.85153	-74.11933	LNM 16/13, 1st Dist	2235	12337_1	4/15/2013
12337	Change	Channel Limits PT 12 OF 14	Chart No. 1: I20	N 40 51' 19.800"	W 074 07' 12.000"	40.8555	-74.12	LNM 16/13, 1st Dist	2235	12337_1	4/15/2013
12337	Change	Channel Limits PT 13 OF 14	Chart No. 1: I20	N 40 51' 36.000"	W 074 06' 58.000"	40.86	-74.11611	LNM 16/13, 1st Dist	2235	12337_1	4/15/2013
12337	Change	Channel Limits PT 14 OF 14	Chart No. 1: I20	N 40 51' 19.000"	W 074 06' 35.200"	40.85528	-74.10978	LNM 16/13, 1st Dist	2235	12337_1	4/15/2013
12338	Add	chartlet - Revised soundings, depth curves and blue tint. 	chartlet - Revised soundings, depth curves and blue tint. 	N 40 43' 40.490"	W 073 57' 40.580"	40.72791	-73.96127	LNM 18/17, 1st Dist	2234	12338_1	5/4/2017
12338	Change	Bridge Construction Label	 KOSCIUSKO MEMORIAL FIXED BRIDGE Bridge under construction (see note)	N 40 43' 39.900"	W 073 55' 44.880"	40.72775	-73.92913	LNM 27/16, 1st Dist	2234	12338_1	6/30/2016
12338	Add	CAUTION NOTE	CAUTIONFixed and floating obstructions, some submerged, may exist within the magenta tinted bridge construction area. Mariners are advised to proceed with caution.	N 40 43' 51.300"	W 073 55' 43.370"	40.73092	-73.92871	LNM 27/16, 1st Dist	2234	12338_1	6/30/2016
12338	Change	Bridge Construction	Chart No. 1: D.d, with magenta screen extending 500 feet from bridge	N 40 43' 39.900"	W 073 55' 44.880"	40.72775	-73.92913	LNM 27/16, 1st Dist	2234	12338_1	6/30/2016
12338	Add	Pipeline Area  PT 1 OF 4	Pipeline Area	N 40 44' 09.590"	W 073 56' 30.660"	40.736	-73.94185	LNM 21/16, 1st Dist	2234	12338_1	5/19/2016
12338	Add	Pipeline Area  PT 2 OF 4	Pipeline Area	N 40 44' 07.530"	W 073 56' 32.690"	40.73542	-73.94241	LNM 21/16, 1st Dist	2234	12338_1	5/19/2016
12338	Add	Pipeline Area  PT 3 OF 4	Pipeline Area	N 40 44' 14.410"	W 073 56' 43.670"	40.73734	-73.94547	LNM 21/16, 1st Dist	2234	12338_1	5/19/2016
12338	Add	Pipeline Area  PT 4 OF 4	Pipeline Area	N 40 44' 10.280"	W 073 56' 46.180"	40.73619	-73.94616	LNM 21/16, 1st Dist	2234	12338_1	5/19/2016
12338	Change	tabulation - Newtown Creek Channel Depths	tabulation - Newtown Creek Channel Depths	N 40 43' 51.000"	W 073 56' 44.000"	40.73083	-73.94556	LNM 20/16, 1st Dist	2234	12338_1	5/19/2016
12338	Add	magenta channel reach separator PT 1 OF 2	None	N 40 42' 40.420"	W 073 55' 54.330"	40.71123	-73.93176	LNM 20/16, 1st Dist	2234	12338_1	5/19/2016
12338	Add	magenta channel reach separator PT 2 OF 2	None	N 40 42' 40.730"	W 073 55' 53.100"	40.71132	-73.93142	LNM 20/16, 1st Dist	2234	12338_1	5/19/2016
12338	Delete	magenta channel reach separator PT 1 OF 2	None	N 40 43' 17.530"	W 073 55' 33.000"	40.72153	-73.92583	LNM 20/16, 1st Dist	2234	12338_1	5/19/2016
12338	Delete	magenta channel reach separator PT 2 OF 2	None	N 40 43' 20.440"	W 073 55' 31.350"	40.72234	-73.92538	LNM 20/16, 1st Dist	2234	12338_1	5/19/2016
12338	Add	magenta channel reach separator PT 1 OF 2	None	N 40 43' 06.320"	W 073 55' 28.990"	40.71842	-73.92472	LNM 20/16, 1st Dist	2234	12338_1	5/19/2016
12338	Add	magenta channel reach separator PT 2 OF 2	None	N 40 43' 05.040"	W 073 55' 28.890"	40.71807	-73.92469	LNM 20/16, 1st Dist	2234	12338_1	5/19/2016
12338	Delete	magenta channel reach separator PT 1 OF 2	None	N 40 43' 07.050"	W 073 55' 28.020"	40.71862	-73.92445	LNM 20/16, 1st Dist	2234	12338_1	5/19/2016
12338	Delete	magenta channel reach separator PT 2 OF 2	None	N 40 43' 07.320"	W 073 55' 26.100"	40.7187	-73.92392	LNM 20/16, 1st Dist	2234	12338_1	5/19/2016
12338	Add	magenta channel reach separator PT 1 OF 2	None	N 40 43' 04.700"	W 073 55' 27.060"	40.71797	-73.92419	LNM 20/16, 1st Dist	2234	12338_1	5/19/2016
12338	Add	magenta channel reach separator PT 2 OF 2	None	N 40 43' 05.360"	W 073 55' 25.290"	40.71815	-73.92369	LNM 20/16, 1st Dist	2234	12338_1	5/19/2016
12338	Delete	magenta channel reach separator PT 1 OF 2	None	N 40 43' 07.050"	W 073 55' 28.020"	40.71862	-73.92445	LNM 20/16, 1st Dist	2234	12338_1	5/19/2016
12338	Delete	magenta channel reach separator PT 2 OF 2	None	N 40 43' 04.700"	W 073 55' 27.060"	40.71797	-73.92419	LNM 20/16, 1st Dist	2234	12338_1	5/19/2016
12338	Add	label: REACH K (LOWER)	REACH K (LOWER)	N 40 42' 47.200"	W 073 55' 52.700"	40.71311	-73.9313	LNM 20/16, 1st Dist	2234	12338_1	5/19/2016
12338	Change	label to: REACH K (UPPER)	REACH K (UPPER)	N 40 42' 37.600"	W 073 55' 52.400"	40.71045	-73.93122	LNM 20/16, 1st Dist	2234	12338_1	5/19/2016
12338	Delete	label: REACH F	REACH F	N 40 43' 16.300"	W 073 55' 30.000"	40.7212	-73.925	LNM 20/16, 1st Dist	2234	12338_1	5/19/2016
12338	Add	Sounding in Feet	22	N 40 44' 33.700"	W 073 57' 46.200"	40.74269	-73.96283	LNM 13/16, 1st Dist	2234	12338_1	3/31/2016
12338	Add	Sounding in Feet	23	N 40 44' 30.900"	W 073 57' 47.000"	40.74192	-73.96306	LNM 13/16, 1st Dist	2234	12338_1	3/31/2016
12338	Add	magenta channel reach separator PT 1 OF 4	None	N 40 42' 59.280"	W 073 55' 23.050"	40.71646	-73.92307	LNM 26/15, 1st Dist	2234	12338_1	6/25/2015
12338	Add	magenta channel reach separator PT 2 OF 4	None	N 40 42' 59.440"	W 073 55' 22.000"	40.71651	-73.92278	LNM 26/15, 1st Dist	2234	12338_1	6/25/2015
12338	Add	magenta channel reach separator PT 3 OF 4	None	N 40 43' 00.760"	W 073 55' 22.080"	40.71688	-73.9228	LNM 26/15, 1st Dist	2234	12338_1	6/25/2015
12338	Add	magenta channel reach separator PT 4 OF 4	None	N 40 43' 01.440"	W 073 55' 21.670"	40.71707	-73.92268	LNM 26/15, 1st Dist	2234	12338_1	6/25/2015
12338	Add	magenta channel reach separator PT 1 OF 2	None	N 40 43' 39.630"	W 073 55' 45.950"	40.72768	-73.92943	LNM 26/15, 1st Dist	2234	12338_1	6/25/2015
12338	Add	magenta channel reach separator PT 2 OF 2	None	N 40 43' 40.630"	W 073 55' 44.880"	40.72795	-73.92913	LNM 26/15, 1st Dist	2234	12338_1	6/25/2015
12338	Delete	magenta channel reach separator PT 1 OF 2	None	N 40 43' 04.700"	W 073 55' 27.240"	40.71797	-73.92423	LNM 26/15, 1st Dist	2234	12338_1	6/25/2015
12338	Delete	magenta channel reach separator PT 2 OF 2	None	N 40 43' 05.640"	W 073 55' 25.580"	40.71824	-73.92377	LNM 26/15, 1st Dist	2234	12338_1	6/25/2015
12338	Change	label to: REACH I (ABOVE GRAND AVE) 	REACH I (ABOVE GRAND AVE) 	N 40 42' 57.000"	W 073 55' 24.400"	40.71583	-73.92345	LNM 26/15, 1st Dist	2234	12338_1	6/25/2015
12338	Add	magenta channel reach separator PT 1 OF 2	None	N 40 44' 20.610"	W 073 57' 09.630"	40.73906	-73.95267	LNM 26/15, 1st Dist	2234	12338_1	6/25/2015
12338	Add	magenta channel reach separator PT 2 OF 2	None	N 40 44' 21.860"	W 073 57' 09.250"	40.73941	-73.95257	LNM 26/15, 1st Dist	2234	12338_1	6/25/2015
12338	Change	label to: REACH B	REACH B	N 40 44' 19.400"	W 073 57' 02.400"	40.73872	-73.95067	LNM 26/15, 1st Dist	2234	12338_1	6/25/2015
12338	Delete	magenta channel reach separator PT 1 OF 2	None	N 40 43' 39.000"	W 073 55' 44.950"	40.7275	-73.92915	LNM 26/15, 1st Dist	2234	12338_1	6/25/2015
12338	Delete	magenta channel reach separator PT 1 OF 2	None	N 40 43' 39.000"	W 073 55' 44.950"	40.7275	-73.92915	LNM 26/15, 1st Dist	2234	12338_1	6/25/2015
12338	Delete	magenta channel reach separator PT 2 OF 2	None	N 40 43' 39.880"	W 073 55' 43.830"	40.72775	-73.92884	LNM 26/15, 1st Dist	2234	12338_1	6/25/2015
12338	Add	magenta channel reach separator PT 1 OF 2	None	N 40 43' 07.050"	W 073 55' 28.020"	40.71862	-73.92445	LNM 26/15, 1st Dist	2234	12338_1	6/25/2015
12338	Add	magenta channel reach separator PT 2 OF 2	None	N 40 43' 07.320"	W 073 55' 26.100"	40.7187	-73.92392	LNM 26/15, 1st Dist	2234	12338_1	6/25/2015
12338	Add	label: REACH I (BELOW GRAND AVE)	REACH I (BELOW GRAND AVE)	N 40 43' 03.200"	W 073 55' 24.400"	40.71756	-73.92345	LNM 26/15, 1st Dist	2234	12338_1	6/25/2015
12338	Delete	magenta channel reach separator PT 1 OF 2	None	N 40 44' 20.270"	W 073 57' 07.770"	40.73896	-73.95216	LNM 26/15, 1st Dist	2234	12338_1	6/25/2015
12338	Delete	magenta channel reach separator PT 2 OF 2	None	N 40 44' 21.490"	W 073 57' 07.250"	40.7393	-73.95201	LNM 26/15, 1st Dist	2234	12338_1	6/25/2015
12338	Delete	magenta channel reach separator PT 1 OF 2	None	N 40 43' 06.800"	W 073 55' 28.250"	40.71856	-73.92451	LNM 26/15, 1st Dist	2234	12338_1	6/25/2015
12338	Delete	magenta channel reach separator PT 2 OF 2	None	N 40 43' 04.700"	W 073 55' 27.240"	40.71797	-73.92423	LNM 26/15, 1st Dist	2234	12338_1	6/25/2015
12338	Add	magenta channel reach separator PT 1 OF 2	None	N 40 43' 07.050"	W 073 55' 28.020"	40.71862	-73.92445	LNM 26/15, 1st Dist	2234	12338_1	6/25/2015
12338	Add	magenta channel reach separator PT 2 OF 2	None	N 40 43' 04.700"	W 073 55' 27.060"	40.71797	-73.92419	LNM 26/15, 1st Dist	2234	12338_1	6/25/2015
12338	Delete	label: REACH L	REACH L	N 40 44' 16.100"	W 073 56' 46.500"	40.7378	-73.94625	LNM 26/15, 1st Dist	2234	12338_1	6/25/2015
12338	Add	Sounding in feet	4	N 40 44' 16.600"	W 073 56' 44.000"	40.73795	-73.94556	LNM 26/15, 1st Dist	2234	12338_1	6/25/2015
12338	Add	Sounding in feet	8	N 40 44' 17.100"	W 073 56' 44.500"	40.73808	-73.94569	LNM 26/15, 1st Dist	2234	12338_1	6/25/2015
12338	Add	Sounding in feet	10	N 40 44' 16.300"	W 073 56' 44.800"	40.73786	-73.94578	LNM 26/15, 1st Dist	2234	12338_1	6/25/2015
12338	Add	Sounding in feet	13	N 40 44' 16.250"	W 073 56' 46.100"	40.73785	-73.94614	LNM 26/15, 1st Dist	2234	12338_1	6/25/2015
12338	Add	Sounding in feet	16	N 40 44' 15.900"	W 073 56' 47.300"	40.73775	-73.94647	LNM 26/15, 1st Dist	2234	12338_1	6/25/2015
12338	Add	Sounding in feet	15	N 40 44' 16.200"	W 073 56' 48.600"	40.73783	-73.94683	LNM 26/15, 1st Dist	2234	12338_1	6/25/2015
12338	Change	tabulation - Newtown Creek Channel Depths	tabulation - Newtown Creek Channel Depths	N 40 43' 51.000"	W 073 56' 44.000"	40.73083	-73.94556	LNM 23/15, 1st Dist	2234	12338_1	6/4/2015
12338	Add	chartlet - revising channel limits and hydrography	chartlet - revising channel limits and hydrography	N 40 43' 26.000"	W 073 55' 30.000"	40.72389	-73.925	LNM 23/15, 1st Dist	2234	12338_1	6/4/2015
12338	Delete	Restricted Area PT 1 OF 2	None	N 40 44' 23.000"	W 073 57' 44.600"	40.73972	-73.96239	LNM 09/15, 1st Dist	2234	12338_1	3/5/2015
12338	Delete	Restricted Area Label	RESTRICTED AREA 165.164 (see note A)	N 40 44' 35.400"	W 073 57' 53.000"	40.74317	-73.96472	LNM 09/15, 1st Dist	2234	12338_1	3/5/2015
12338	Delete	Restricted Area PT 2 OF 2	None	N 40 44' 31.600"	W 073 58' 03.428"	40.74211	-73.96762	LNM 09/15, 1st Dist	2234	12338_1	3/5/2015
12338	Change	Fixed Bridge	Chart No. 1: D22	N 40 42' 33.000"	W 073 55' 50.000"	40.70917	-73.93056	LNM 37/14, 1st Dist	2234	12338_1	9/11/2014
12338	Change	Fixed Bridge Label	MONTROSE AVE FIXED BRIDGE HOR CL 46 FT VERT CL 4 FT	N 40 42' 33.000"	W 073 55' 50.000"	40.70917	-73.93056	LNM 37/14, 1st Dist	2234	12338_1	9/11/2014
12338	Delete	Tank	(Chart No. 1: E32)	N 40 43' 08.515"	W 073 56' 05.113"	40.71903	-73.93475	LNM 25/13, 1st Dist	2234	12338_1	6/21/2013
12338	Delete	Accurate Landmark (Radio Tower)	(Chart No. 1: E29)	N 40 43' 47.616"	W 073 57' 39.892"	40.72989	-73.96108	LNM 25/13, 1st Dist	2234	12338_1	6/21/2013
12338	Delete	Accurate Landmark (Radio Tower)	(Chart No. 1: E29)	N 40 43' 47.112"	W 073 57' 38.010"	40.72975	-73.96056	LNM 25/13, 1st Dist	2234	12338_1	6/21/2013
12338	Delete	Label:	RADIO TOWERS (WNYC) 830 kHz	N 40 43' 47.500"	W 073 57' 38.000"	40.72986	-73.96056	LNM 25/13, 1st Dist	2234	12338_1	6/21/2013
12339	Delete	ROOSEVELT ISLAND TURBINE HAZARD LTD BUOY A	W Or Fl 2s "A" Priv	N 40 45' 50.470"	W 073 56' 44.700"	40.76402	-73.94575	LNM 13/17, 1st Dist	2233	12339_1	4/6/2017
12339	Delete	ROOSEVELT ISLAND TURBINE HAZARD LTD BUOY B	W Or Fl 2s "B" Priv	N 40 45' 51.660"	W 073 56' 43.820"	40.76435	-73.9455	LNM 13/17, 1st Dist	2233	12339_1	4/6/2017
12339	Delete	ROOSEVELT ISLAND TURBINE HAZARD LTD BUOY C	W Or Fl 2s "C" Priv	N 40 45' 52.860"	W 073 56' 42.730"	40.76468	-73.94521	LNM 13/17, 1st Dist	2233	12339_1	4/6/2017
12339	Add	EAST RIVER REGULATORY LIGHT A	Q "A" Priv	N 40 48' 18.350"	W 073 53' 55.520"	40.8051	-73.89876	LNM 09/17, 1st Dist	2233	12339_1	3/9/2017
12339	Add	EAST RIVER REGULATORY LIGHT B	Q "B" Priv	N 40 48' 20.090"	W 073 53' 47.110"	40.80558	-73.89642	LNM 09/17, 1st Dist	2233	12339_1	3/9/2017
12339	Add	EAST RIVER REGULATORY LIGHT C	Q "C" Priv	N 40 48' 21.170"	W 073 53' 45.120"	40.80588	-73.89587	LNM 09/17, 1st Dist	2233	12339_1	3/9/2017
12339	Add	EAST RIVER REGULATORY LIGHT D	Q "D" Priv	N 40 48' 21.720"	W 073 53' 46.750"	40.80603	-73.89632	LNM 09/17, 1st Dist	2233	12339_1	3/9/2017
12339	Add	EAST RIVER REGULATORY LIGHT E	Q "E" Priv	N 40 48' 21.490"	W 073 53' 49.390"	40.80597	-73.89706	LNM 09/17, 1st Dist	2233	12339_1	3/9/2017
12339	Relocate	BROTHER ISLAND CHANNEL BUOY 8	R N "8"	N 40 47' 55.480"	W 073 53' 53.834"	40.79874	-73.89828	LNM 04/17, 1st Dist	2233	12339_1	2/2/2017
12339	Change	SOUTH BROTHER ISLAND CHANNEL JUNCTION BUOY SB	GR C "SB"	N 40 47' 56.087"	W 073 53' 42.471"	40.79891	-73.89513	LNM 04/17, 1st Dist	2233	12339_1	2/2/2017
12339	Change	Depth Legend -Flushing Bay Creek Channel	15 FT FOR MIDDLE WIDTH OF 150 FT DEC 2015	N 40 45' 54.000"	W 073 50' 37.000"	40.765	-73.84361	LNM 46/16, 1st Dist	2233	12339_1	11/10/2016
12339	Change	Depth Legend - Flushing Bay Creek Channel	14 FT FOR MIDDLE WIDTH OF 150 FT FEB-DEC 2015	N 40 46' 28.000"	W 073 51' 16.000"	40.77444	-73.85445	LNM 46/16, 1st Dist	2233	12339_1	11/10/2016
12339	Change	tabulation - BRONX RIVER CHANNEL DEPTHS	tabulation - BRONX RIVER CHANNEL DEPTHS	N 40 48' 52.000"	W 073 53' 19.000"	40.81445	-73.88861	LNM 45/16, 1st Dist	2233	12339_1	11/3/2016
12339	Add	Sounding in Feet	24	N 40 47' 55.500"	W 073 50' 59.400"	40.79875	-73.84983	LNM 13/16, 1st Dist	2233	12339_1	3/31/2016
12339	Delete	Sounding in Feet	28	N 40 47' 55.500"	W 073 50' 52.300"	40.79875	-73.84786	LNM 13/16, 1st Dist	2233	12339_1	3/31/2016
12339	Delete	Sounding in Feet	44	N 40 47' 30.300"	W 073 54' 38.100"	40.79175	-73.91058	LNM 13/16, 1st Dist	2233	12339_1	3/31/2016
12339	Add	Sounding in Feet	17	N 40 47' 31.100"	W 073 54' 36.000"	40.79197	-73.91	LNM 13/16, 1st Dist	2233	12339_1	3/31/2016
12339	Delete	Obstruction	Obstn PA       	N 40 47' 54.000"	W 073 54' 31.800"	40.79833	-73.90884	LNM 13/16, 1st Dist	2233	12339_1	3/31/2016
12339	Add	Sounding in Feet	19	N 40 47' 55.200"	W 073 50' 52.700"	40.79867	-73.84797	LNM 13/16, 1st Dist	2233	12339_1	3/31/2016
12339	Add	Sounding in Feet	23	N 40 47' 30.100"	W 073 54' 37.500"	40.79169	-73.91042	LNM 13/16, 1st Dist	2233	12339_1	3/31/2016
12339	Delete	Sounding in Feet	1	N 40 48' 39.900"	W 073 50' 39.100"	40.81108	-73.84419	LNM 40/15, 1st Dist	2233	12339_1	10/1/2015
12339	Delete	Sounding in Feet	1	N 40 48' 41.200"	W 073 50' 39.400"	40.81144	-73.84428	LNM 40/15, 1st Dist	2233	12339_1	10/1/2015
12339	Add	Channel Limits PT 1 OF 6	None	N 40 48' 41.550"	W 073 50' 39.530"	40.81154	-73.84431	LNM 40/15, 1st Dist	2233	12339_1	10/1/2015
12339	Add	Channel Limits PT 2 OF 6	None	N 40 48' 40.780"	W 073 50' 39.550"	40.81133	-73.84432	LNM 40/15, 1st Dist	2233	12339_1	10/1/2015
12339	Add	Channel Limits PT 3 OF 6	None	N 40 48' 38.800"	W 073 50' 38.500"	40.81078	-73.84402	LNM 40/15, 1st Dist	2233	12339_1	10/1/2015
12339	Add	Channel Limits PT 4 OF 6	None	N 40 48' 41.470"	W 073 50' 38.240"	40.81152	-73.84396	LNM 40/15, 1st Dist	2233	12339_1	10/1/2015
12339	Add	Channel Limits PT 5 OF 6	None	N 40 48' 40.520"	W 073 50' 38.010"	40.81126	-73.84389	LNM 40/15, 1st Dist	2233	12339_1	10/1/2015
12339	Add	Channel Limits PT 6 OF 6	None	N 40 48' 39.430"	W 073 50' 37.430"	40.81095	-73.84373	LNM 40/15, 1st Dist	2233	12339_1	10/1/2015
12339	Add	magenta channel reach separator PT 1 OF 2	None	N 40 48' 40.780"	W 073 50' 39.550"	40.81133	-73.84432	LNM 40/15, 1st Dist	2233	12339_1	10/1/2015
12339	Add	magenta channel reach separator PT 2 OF 2	None	N 40 48' 40.520"	W 073 50' 38.010"	40.81126	-73.84389	LNM 40/15, 1st Dist	2233	12339_1	10/1/2015
12339	Change	Depth Legend - Westchester Creek	3 FT FOR A MID-WIDTH OF 50 FT APR 2015	N 40 48' 31.000"	W 073 50' 33.800"	40.80861	-73.84272	LNM 40/15, 1st Dist	2233	12339_1	10/1/2015
12339	Change	Depth Legend - Westchester Creek	2 FT FOR A MID-WIDTH OF 64 FT APR 2015	N 40 48' 51.000"	W 073 50' 37.500"	40.81417	-73.84375	LNM 40/15, 1st Dist	2233	12339_1	10/1/2015
12339	Delete	Bridge Construction	None	N 40 48' 12.900"	W 073 55' 46.400"	40.80359	-73.92956	LNM 33/15, 1st Dist	2233	12339_1	8/13/2015
12339	Change	Bridge Construction Label	SWING BRIDGE HOR CL 109 FT VERT CL 25 FT	N 40 48' 12.500"	W 073 55' 44.300"	40.80347	-73.92897	LNM 33/15, 1st Dist	2233	12339_1	8/13/2015
12339	Add	Swing Bridge PT 1 OF 5	None	N 40 48' 14.400"	W 073 55' 41.500"	40.804	-73.92819	LNM 33/15, 1st Dist	2233	12339_1	8/13/2015
12339	Add	Swing Bridge PT 2 OF 5	None	N 40 48' 11.100"	W 073 55' 48.000"	40.80308	-73.93	LNM 33/15, 1st Dist	2233	12339_1	8/13/2015
12339	Add	Swing Bridge PT 3 OF 5	None	N 40 48' 14.500"	W 073 55' 39.500"	40.80403	-73.92764	LNM 33/15, 1st Dist	2233	12339_1	8/13/2015
12339	Add	Swing Bridge PT 4 OF 5	None	N 40 48' 10.700"	W 073 55' 46.900"	40.80297	-73.9297	LNM 33/15, 1st Dist	2233	12339_1	8/13/2015
12339	Add	Swing Bridge PT 5 OF 5	None	N 40 48' 10.200"	W 073 55' 47.500"	40.80283	-73.92986	LNM 33/15, 1st Dist	2233	12339_1	8/13/2015
12339	Change	tabulation - SOUTH BROTHER ISLAND CHANNEL DEPTHS	tabulation - SOUTH BROTHER ISLAND CHANNEL DEPTHS	N 40 48' 52.000"	W 073 55' 08.000"	40.81445	-73.91889	LNM 33/15, 1st Dist	2233	12339_1	8/13/2015
12339	Change	depth legend - Flushing Bay Creek Channel	12 1/2 FT FOR MIDDLE WIDTH OF 150 FT FEB 2015	N 40 45' 54.000"	W 073 50' 37.000"	40.765	-73.84361	LNM 26/15, 1st Dist	2233	12339_1	6/25/2015
12339	Change	depth legend - Flushing Bay Main Channel	14 FT FOR MIDDLE WIDTH OF 150 FT FEB 2015	N 40 46' 28.000"	W 073 51' 16.000"	40.77444	-73.85445	LNM 26/15, 1st Dist	2233	12339_1	6/25/2015
12339	Change	depth legend - Flushing Bay Maneuvering Area	5 FEET FEB 2015	N 40 45' 47.000"	W 073 50' 55.000"	40.76305	-73.84861	LNM 26/15, 1st Dist	2233	12339_1	6/25/2015
12339	Delete	BUILDING-PT 1	CHART 1-D6	N 40 48' 02.962"	W 073 52' 22.229"	40.80082	-73.87284	LNM 47/14, 1st Dist	2233	12339_1	12/11/2014
12339	Delete	BUILDING-PT 2	CHART 1-D6	N 40 48' 00.897"	W 073 52' 22.612"	40.80025	-73.87295	LNM 47/14, 1st Dist	2233	12339_1	12/11/2014
12339	Delete	BUILDING-PT 3	CHART 1-D6	N 40 48' 00.662"	W 073 52' 20.426"	40.80018	-73.87234	LNM 47/14, 1st Dist	2233	12339_1	12/11/2014
12339	Delete	BUILDING-PT 4	CHART 1-D6	N 40 48' 02.754"	W 073 52' 20.074"	40.80077	-73.87225	LNM 47/14, 1st Dist	2233	12339_1	12/11/2014
12339	Delete	ROAD-PT 1	CHART 1-D11	N 40 48' 04.450"	W 073 52' 21.898"	40.80124	-73.87275	LNM 47/14, 1st Dist	2233	12339_1	12/11/2014
12339	Delete	ROAD-PT 1	CHART 1-D11	N 40 48' 04.834"	W 073 52' 20.635"	40.80134	-73.8724	LNM 47/14, 1st Dist	2233	12339_1	12/11/2014
12339	Delete	ROAD-PT 2	CHART 1-D11	N 40 48' 02.818"	W 073 52' 21.140"	40.80078	-73.87254	LNM 47/14, 1st Dist	2233	12339_1	12/11/2014
12339	Delete	ROAD-PT 2	CHART 1-D11	N 40 48' 03.842"	W 073 52' 21.140"	40.80107	-73.87254	LNM 47/14, 1st Dist	2233	12339_1	12/11/2014
12339	Add	OBSTRUCTION-PT 1 OF 4	CHART 1-K40	N 40 48' 02.962"	W 073 52' 22.229"	40.80082	-73.87284	LNM 47/14, 1st Dist	2233	12339_1	12/11/2014
12339	Add	LABEL-PILING FIELD	Piling Field	N 40 48' 01.925"	W 073 52' 21.288"	40.80053	-73.87258	LNM 47/14, 1st Dist	2233	12339_1	12/11/2014
12339	Add	LABEL-SUBM PILES	Subm Piles	N 40 48' 03.737"	W 073 52' 21.022"	40.80104	-73.87251	LNM 47/14, 1st Dist	2233	12339_1	12/11/2014
12339	Add	OBSTRUCTION-PT 1 OF 5	CHART 1-K40	N 40 48' 04.629"	W 073 52' 20.559"	40.80128	-73.87238	LNM 47/14, 1st Dist	2233	12339_1	12/11/2014
12339	Add	OBSTRUCTION-PT 2 OF 5	CHART 1-K40	N 40 48' 02.876"	W 073 52' 20.883"	40.8008	-73.87247	LNM 47/14, 1st Dist	2233	12339_1	12/11/2014
12339	Add	OBSTRUCTION-PT 2 OF 4	CHART 1-K40	N 40 48' 00.897"	W 073 52' 22.612"	40.80025	-73.87295	LNM 47/14, 1st Dist	2233	12339_1	12/11/2014
12339	Add	OBSTRUCTION-PT 3 OF 5	CHART 1-K40	N 40 48' 02.913"	W 073 52' 21.356"	40.80081	-73.8726	LNM 47/14, 1st Dist	2233	12339_1	12/11/2014
12339	Add	OBSTRUCTION-PT 3 OF 4	CHART 1-K40	N 40 48' 00.662"	W 073 52' 20.426"	40.80018	-73.87234	LNM 47/14, 1st Dist	2233	12339_1	12/11/2014
12339	Add	OBSTRUCTION-PT 4 OF 5	CHART 1-K40	N 40 48' 03.812"	W 073 52' 21.268"	40.80106	-73.87257	LNM 47/14, 1st Dist	2233	12339_1	12/11/2014
12339	Add	OBSTRUCTION-PT 4 OF 4	CHART 1-K40	N 40 48' 02.754"	W 073 52' 20.074"	40.80077	-73.87225	LNM 47/14, 1st Dist	2233	12339_1	12/11/2014
12339	Add	OBSTRUCTION-PT 5 OF 5	CHART 1-K40	N 40 48' 04.232"	W 073 52' 21.652"	40.80117	-73.87268	LNM 47/14, 1st Dist	2233	12339_1	12/11/2014
12339	Substitute	Sounding in Feet	11	N 40 45' 36.300"	W 073 51' 08.300"	40.76008	-73.8523	LNM 48/14, 1st Dist	2233	12339_1	11/27/2014
12339	Substitute	Sounding in Feet	10	N 40 45' 35.400"	W 073 51' 07.300"	40.75983	-73.85203	LNM 48/14, 1st Dist	2233	12339_1	11/27/2014
12339	Change	tabulation - Bronx River Channel Depths	tabulation - Bronx River Channel Depths	N 40 48' 52.000"	W 073 53' 19.000"	40.81445	-73.88861	LNM 42/14, 1st Dist	2233	12339_1	10/16/2014
12339	Relocate	WESTCHESTER CREEK CHANNEL BUOY 5	G C "5"	N 40 48' 40.520"	W 073 50' 38.368"	40.81126	-73.84399	LNM 33/14, 1st Dist	2233	12339_1	9/4/2014
12339	Change	Swing Bridge Label	SWING BRIDGE HOR CL 118FT VERT CL 27	N 40 48' 27.200"	W 073 55' 57.300"	40.80756	-73.93259	LNM 21/14, 1st Dist	2233	12339_1	5/22/2014
12339	Change	Swing Bridge	None	N 40 48' 27.200"	W 073 55' 57.300"	40.80756	-73.93259	LNM 21/14, 1st Dist	2233	12339_1	5/22/2014
12339	Change	Depth Legend - Flushing Bay to:	14 FT FOR MIDDLE WIDTH OF 150 FT AUG 2013	N 40 46' 28.000"	W 073 51' 16.000"	40.77444	-73.85445	LNM 12/14, 1st Dist	2233	12339_1	3/20/2014
12339	Change	Depth Legend - Flushing Creek to:	12 1/2 FT FOR MIDDLE HALF AUG 2013	N 40 45' 54.000"	W 073 50' 37.000"	40.765	-73.84361	LNM 12/14, 1st Dist	2233	12339_1	3/20/2014
12339	Change	Depth Legend - Flushing Bay Maneuvering Area to:	6 1/2 FEET AUG 2013	N 40 45' 47.000"	W 073 50' 55.000"	40.76305	-73.84861	LNM 12/14, 1st Dist	2233	12339_1	3/20/2014
12339	Delete	Depth Legend - Flushing Bay Maneuvering Area:	5 FT 2012	N 40 45' 36.000"	W 073 51' 08.000"	40.76	-73.85222	LNM 12/14, 1st Dist	2233	12339_1	3/20/2014
12339	Add	Sounding in Feet	11	N 40 45' 36.300"	W 073 51' 08.300"	40.76008	-73.8523	LNM 12/14, 1st Dist	2233	12339_1	3/20/2014
12339	Add	Sounding in Feet	10	N 40 45' 35.400"	W 073 51' 07.300"	40.75983	-73.85203	LNM 12/14, 1st Dist	2233	12339_1	3/20/2014
12339	Change	Tabulation - Bronx River Channel Depths	Tabulation - Bronx River Channel Depths	N 40 48' 52.000"	W 073 53' 19.000"	40.81445	-73.88861	LNM 06/14, 1st Dist	2233	12339_1	2/6/2014
12339	Add	Security Zone Label	SECURITY ZONE 165.164 (see note A)	N 40 45' 13.100"	W 073 57' 43.000"	40.75364	-73.96194	LNM 05/14, 1st Dist	2233	12339_1	2/6/2014
12339	Delete	Restricted Area PT 1 OF 2	(Chart No. 1: N2.1)	N 40 45' 18.500"	W 073 57' 03.200"	40.75514	-73.95089	LNM 05/14, 1st Dist	2233	12339_1	2/6/2014
12339	Delete	Restricted Area PT 2 OF 2	(Chart No. 1: N2.1)	N 40 45' 22.500"	W 073 57' 12.300"	40.75625	-73.95341	LNM 05/14, 1st Dist	2233	12339_1	2/6/2014
12339	Delete	Restricted Area PT 1 OF 2	(Chart No. 1: N2.1)	N 40 45' 26.000"	W 073 57' 20.000"	40.75722	-73.95556	LNM 05/14, 1st Dist	2233	12339_1	2/6/2014
12339	Delete	Restricted Area PT 2 OF 2	(Chart No. 1: N2.1)	N 40 45' 30.700"	W 073 57' 30.700"	40.75853	-73.95853	LNM 05/14, 1st Dist	2233	12339_1	2/6/2014
12339	Add	Security Zone PT 1 OF 3	(Chart No. 1: N1.2)	N 40 45' 00.500"	W 073 57' 49.500"	40.75014	-73.96375	LNM 05/14, 1st Dist	2233	12339_1	2/6/2014
12339	Add	Security Zone PT 2 OF 3	(Chart No. 1: N1.2)	N 40 45' 28.900"	W 073 57' 26.600"	40.75803	-73.95739	LNM 05/14, 1st Dist	2233	12339_1	2/6/2014
12339	Add	Security Zone PT 3 OF 3	(Chart No. 1: N1.2)	N 40 45' 30.700"	W 073 57' 30.700"	40.75853	-73.95853	LNM 05/14, 1st Dist	2233	12339_1	2/6/2014
12339	Delete	Restricted Area Label	RESTRICTED AREA 165.164 (see note A)	N 40 45' 12.100"	W 073 57' 41.200"	40.75336	-73.96144	LNM 05/14, 1st Dist	2233	12339_1	2/6/2014
12339	Change	Depth Legend - Westchester Creek Reach B to:	2 1/2 FT FOR A MID-WIDTH OF 60 FT MAY 2013	N 40 48' 51.000"	W 073 50' 37.500"	40.81417	-73.84375	LNM 47/13, 1st Dist	2233	12339_1	11/14/2013
12339	Relocate	Westchester Creek Channel Buoy 1	G C "1"	N 40 48' 23.347"	W 073 50' 30.939"	40.80648	-73.84193	LNM 23/13, 1st Dist	2233	12339_1	6/12/2013
12341	Change	anchorage areas note	ANCHORAGE AREAS 110.155 (see note A) Limits and assigned numbers of anchorage areas are shown in magenta. 16 17 19E 19W GENERAL ANCHORAGE	N 40 47' 43.000"	W 073 56' 57.000"	40.79528	-73.94917	LNM 17/15, 1st Dist	2232	12341_1	4/23/2015
12341	Add	Special Anchorage Area PT 1 OF 4	(Chart No. 1: N12.1)	N 40 48' 21.060"	W 073 58' 15.720"	40.80585	-73.97103	LNM 06/14, 1st Dist	2232	12341_1	2/13/2014
12341	Add	Special Anchorage Area PT 2 OF 4	(Chart No. 1: N12.1)	N 40 48' 21.060"	W 073 58' 24.000"	40.80585	-73.97334	LNM 06/14, 1st Dist	2232	12341_1	2/13/2014
12341	Add	Special Anchorage Area PT 3 OF 4	(Chart No. 1: N12.1)	N 40 47' 14.700"	W 073 59' 09.000"	40.78742	-73.98583	LNM 06/14, 1st Dist	2232	12341_1	2/13/2014
12341	Add	Special Anchorage Area PT 4 OF 4	(Chart No. 1: N12.1)	N 40 47' 11.840"	W 073 59' 08.900"	40.78662	-73.98581	LNM 06/14, 1st Dist	2232	12341_1	2/13/2014
12341	Add	Special Anchorage Area label	SPECIAL ANCHORAGE AREA 110.1, 110.60 (see note A)	N 40 47' 39.000"	W 073 58' 49.000"	40.79417	-73.98028	LNM 06/14, 1st Dist	2232	12341_1	2/13/2014
12341	Add	Special Anchorage Area PT 1 OF 3	(Chart No. 1: N12.1)	N 40 46' 47.100"	W 073 59' 29.130"	40.77975	-73.99142	LNM 06/14, 1st Dist	2232	12341_1	2/13/2014
12341	Add	Special Anchorage Area PT 2 OF 3	(Chart No. 1: N12.1)	N 40 47' 02.600"	W 073 59' 17.880"	40.78405	-73.9883	LNM 06/14, 1st Dist	2232	12341_1	2/13/2014
12341	Add	Special Anchorage Area PT 3 OF 3	(Chart No. 1: N12.1)	N 40 46' 59.730"	W 073 59' 13.010"	40.78326	-73.98695	LNM 06/14, 1st Dist	2232	12341_1	2/13/2014
12341	Add	Special Anchorage Area label	SPECIAL ANCHORAGE AREA 110.1, 110.60 (see note A)	N 40 46' 56.000"	W 073 59' 19.000"	40.78222	-73.98861	LNM 06/14, 1st Dist	2232	12341_1	2/13/2014
12341	Change	Hudson River Anchorage 16 CG Mooring Buoy	(Chart No. 1: Q40)	N 40 50' 36.890"	W 073 57' 36.840"	40.84358	-73.96024	LNM 44/13, 1st Dist	2232	12341_1	10/31/2013
12341	Add	Submarine Cable  PT 1 OF 4	Chart No. 1: L30.1	N 40 48' 37.500"	W 073 58' 57.600"	40.81042	-73.98267	LNM 26/13, 1st Dist	2232	12341_1	6/21/2013
12341	Add	Submarine Cable  PT 2 OF 4	Chart No. 1: L30.1	N 40 48' 23.600"	W 073 58' 28.800"	40.80656	-73.97467	LNM 26/13, 1st Dist	2232	12341_1	6/21/2013
12341	Add	Submarine Cable  PT 3 OF 4	Chart No. 1: L30.1	N 40 46' 14.200"	W 074 00' 03.000"	40.77061	-74.00083	LNM 26/13, 1st Dist	2232	12341_1	6/21/2013
12341	Add	Submarine Cable  PT 4 OF 4	Chart No. 1: L30.1	N 40 46' 08.200"	W 073 59' 49.500"	40.76894	-73.99709	LNM 26/13, 1st Dist	2232	12341_1	6/21/2013
12341	Add	Mooring Buoy	(Chart No. 1: Q40)	N 40 50' 36.890"	W 073 57' 36.840"	40.84358	-73.96024	LNM 32/12, 1st Dist	2232	12341_1	8/13/2012
12341	Add	Safety and Security Zone PT 1 OF 6	Safety and Security Zone 165.169 (see note A)  (Chart No. 1: N1.2)	N 40 49' 17.931"	W 073 57' 31.847"	40.82165	-73.95885	LNM 32/12, 1st Dist	2232	12341_1	8/13/2012
12341	Add	Safety and Security Zone PT 2 OF 6	Safety and Security Zone 165.169 (see note A)  (Chart No. 1: N1.2)	N 40 49' 18.321"	W 073 57' 32.918"	40.82175	-73.95914	LNM 32/12, 1st Dist	2232	12341_1	8/13/2012
12341	Add	Safety and Security Zone PT 3 OF 6	Safety and Security Zone 165.169 (see note A)  (Chart No. 1: N1.2)	N 40 49' 18.222"	W 073 57' 33.407"	40.82173	-73.95928	LNM 32/12, 1st Dist	2232	12341_1	8/13/2012
12341	Add	Safety and Security Zone PT 4 OF 6	Safety and Security Zone 165.169 (see note A)  (Chart No. 1: N1.2)	N 40 49' 16.357"	W 073 57' 35.019"	40.82121	-73.95972	LNM 32/12, 1st Dist	2232	12341_1	8/13/2012
12341	Add	Safety and Security Zone PT 5 OF 6	Safety and Security Zone 165.169 (see note A)  (Chart No. 1: N1.2)	N 40 49' 15.988"	W 073 57' 34.888"	40.82111	-73.95969	LNM 32/12, 1st Dist	2232	12341_1	8/13/2012
12341	Add	Safety and Security Zone PT 6 OF 6	Safety and Security Zone 165.169 (see note A)  (Chart No. 1: N1.2)	N 40 49' 15.320"	W 073 57' 33.468"	40.82092	-73.9593	LNM 32/12, 1st Dist	2232	12341_1	8/13/2012
12341	Add	30 ft depth curve PT 1 OF 3	30 	N 40 46' 13.600"	W 073 59' 57.300"	40.77044	-73.99925	LNM 12/12, 1st Dist	2232	12341_1	3/14/2012
12341	Add	30 ft depth curve PT 2 OF 3	30 	N 40 46' 09.200"	W 074 00' 00.400"	40.76922	-74.00011	LNM 12/12, 1st Dist	2232	12341_1	3/14/2012
12341	Add	30 ft depth curve PT 3 OF 3	30 	N 40 46' 10.100"	W 073 59' 59.000"	40.76947	-73.99973	LNM 12/12, 1st Dist	2232	12341_1	3/14/2012
12341	Delete	Depth Legend 	36 feet rep 1995	N 40 46' 03.000"	W 074 00' 00.000"	40.7675	-74	LNM 12/12, 1st Dist	2232	12341_1	3/14/2012
12341	Add	Sounding in Feet	32	N 40 46' 07.800"	W 073 59' 55.000"	40.76883	-73.99861	LNM 12/12, 1st Dist	2232	12341_1	3/14/2012
12341	Add	Sounding in Feet	29	N 40 46' 05.200"	W 073 59' 50.200"	40.76811	-73.99728	LNM 12/12, 1st Dist	2232	12341_1	3/14/2012
12341	Add	Sounding in Feet	31	N 40 46' 05.600"	W 073 59' 55.900"	40.76822	-73.99886	LNM 12/12, 1st Dist	2232	12341_1	3/14/2012
12341	Add	Sounding in Feet	30	N 40 46' 03.500"	W 073 59' 51.400"	40.76764	-73.99761	LNM 12/12, 1st Dist	2232	12341_1	3/14/2012
12341	Add	Sounding in Feet	31	N 40 46' 05.300"	W 074 00' 02.800"	40.76814	-74.00078	LNM 12/12, 1st Dist	2232	12341_1	3/14/2012
12341	Delete	Depth Legend 	36 feet rep 1995	N 40 46' 06.000"	W 073 59' 55.000"	40.76833	-73.99861	LNM 12/12, 1st Dist	2232	12341_1	3/14/2012
12341	Delete	Sounding in Feet	32	N 40 46' 11.200"	W 073 59' 59.200"	40.76978	-73.99978	LNM 12/12, 1st Dist	2232	12341_1	3/14/2012
12341	Delete	Sounding in Feet	34	N 40 46' 05.900"	W 074 00' 02.900"	40.76831	-74.00081	LNM 12/12, 1st Dist	2232	12341_1	3/14/2012
12341	Delete	Sounding in Feet	35	N 40 46' 03.200"	W 074 00' 03.300"	40.76756	-74.00092	LNM 12/12, 1st Dist	2232	12341_1	3/14/2012
12341	Add	Sounding in Feet	31	N 40 46' 07.700"	W 073 59' 58.900"	40.76881	-73.99969	LNM 12/12, 1st Dist	2232	12341_1	3/14/2012
12341	Add	Sounding in Feet	31	N 40 46' 04.600"	W 073 59' 53.500"	40.76794	-73.99819	LNM 12/12, 1st Dist	2232	12341_1	3/14/2012
12341	Add	Sounding in Feet	34	N 40 46' 03.900"	W 074 00' 01.600"	40.76775	-74.00044	LNM 12/12, 1st Dist	2232	12341_1	3/14/2012
12341	Add	Sounding in Feet	31	N 40 46' 02.700"	W 073 59' 58.700"	40.76742	-73.99964	LNM 12/12, 1st Dist	2232	12341_1	3/14/2012
12341	Add	Sounding in Feet	34	N 40 46' 02.100"	W 074 00' 01.300"	40.76725	-74.00036	LNM 12/12, 1st Dist	2232	12341_1	3/14/2012
12341	Add	30 ft depth curve PT 1 OF 4	30	N 40 46' 09.300"	W 073 59' 57.400"	40.76925	-73.99928	LNM 12/12, 1st Dist	2232	12341_1	3/14/2012
12341	Add	30 ft depth curve PT 2 OF 4	30	N 40 46' 07.800"	W 073 59' 54.100"	40.76883	-73.99836	LNM 12/12, 1st Dist	2232	12341_1	3/14/2012
12341	Add	30 ft depth curve PT 3 OF 4	30	N 40 46' 04.100"	W 073 59' 52.800"	40.76781	-73.998	LNM 12/12, 1st Dist	2232	12341_1	3/14/2012
12341	Add	30 ft depth curve PT 4 OF 4	30	N 40 46' 06.600"	W 074 00' 01.400"	40.7685	-74.00039	LNM 12/12, 1st Dist	2232	12341_1	3/14/2012
12341	Add	30 ft depth curve PT 1 OF 2	30	N 40 46' 02.200"	W 074 00' 04.800"	40.76728	-74.00134	LNM 12/12, 1st Dist	2232	12341_1	3/14/2012
12341	Add	30 ft depth curve PT 2 OF 2	30	N 40 46' 01.100"	W 074 00' 07.500"	40.76697	-74.00208	LNM 12/12, 1st Dist	2232	12341_1	3/14/2012
12341	Add	30 ft depth curve PT 1 OF 2	30	N 40 46' 04.700"	W 074 00' 00.500"	40.76797	-74.00014	LNM 12/12, 1st Dist	2232	12341_1	3/14/2012
12341	Add	30 ft depth curve PT 2 OF 2	30	N 40 46' 01.100"	W 073 59' 56.200"	40.76697	-73.99895	LNM 12/12, 1st Dist	2232	12341_1	3/14/2012
12341	Delete	Sounding in Feet	36	N 40 46' 01.700"	W 074 00' 06.400"	40.76714	-74.00178	LNM 12/12, 1st Dist	2232	12341_1	3/14/2012
12341	Add	Sounding in Feet	27	N 40 46' 11.000"	W 073 59' 59.300"	40.76972	-73.99981	LNM 12/12, 1st Dist	2232	12341_1	3/14/2012
12342	Add	EAST RIVER REGULATORY LIGHT A	Q "A" Priv	N 40 48' 18.350"	W 073 53' 55.520"	40.8051	-73.89876	LNM 09/17, 1st Dist	2231	12342_1	3/9/2017
12342	Add	EAST RIVER REGULATORY LIGHT B	Q "B" Priv	N 40 48' 20.090"	W 073 53' 47.110"	40.80558	-73.89642	LNM 09/17, 1st Dist	2231	12342_1	3/9/2017
12342	Add	EAST RIVER REGULATORY LIGHT D	Q "D" Priv	N 40 48' 21.720"	W 073 53' 46.750"	40.80603	-73.89632	LNM 09/17, 1st Dist	2231	12342_1	3/9/2017
12342	Add	EAST RIVER REGULATORY LIGHT E	Q "E" Priv	N 40 48' 21.490"	W 073 53' 49.390"	40.80597	-73.89706	LNM 09/17, 1st Dist	2231	12342_1	3/9/2017
12342	Relocate	BROTHER ISLAND CHANNEL BUOY 8	R N "8"	N 40 47' 55.480"	W 073 53' 53.834"	40.79874	-73.89828	LNM 04/17, 1st Dist	2231	12342_1	2/2/2017
12342	Delete	Sounding in Feet	44	N 40 47' 30.300"	W 073 54' 38.100"	40.79175	-73.91058	LNM 13/16, 1st Dist	2231	12342_1	3/31/2016
12342	Add	Sounding in Feet	17	N 40 47' 31.100"	W 073 54' 36.000"	40.79197	-73.91	LNM 13/16, 1st Dist	2231	12342_1	3/31/2016
12342	Delete	Obstruction	Obstn PA       	N 40 47' 54.000"	W 073 54' 31.800"	40.79833	-73.90884	LNM 13/16, 1st Dist	2231	12342_1	3/31/2016
12342	Add	Sounding in Feet	23	N 40 47' 30.100"	W 073 54' 37.500"	40.79169	-73.91042	LNM 13/16, 1st Dist	2231	12342_1	3/31/2016
12342	Delete	Bridge Construction	None	N 40 48' 12.900"	W 073 55' 46.400"	40.80359	-73.92956	LNM 33/15, 1st Dist	2231	12342_1	8/13/2015
12342	Change	Bridge Construction Label	SWING BRIDGE HOR CL 109 FT VERT CL 25 FT	N 40 48' 12.500"	W 073 55' 44.300"	40.80347	-73.92897	LNM 33/15, 1st Dist	2231	12342_1	8/13/2015
12342	Add	Swing Bridge PT 1 OF 5	None	N 40 48' 14.400"	W 073 55' 41.500"	40.804	-73.92819	LNM 33/15, 1st Dist	2231	12342_1	8/13/2015
12342	Add	Swing Bridge PT 2 OF 5	None	N 40 48' 11.100"	W 073 55' 48.000"	40.80308	-73.93	LNM 33/15, 1st Dist	2231	12342_1	8/13/2015
12342	Add	Swing Bridge PT 3 OF 5	None	N 40 48' 14.500"	W 073 55' 39.500"	40.80403	-73.92764	LNM 33/15, 1st Dist	2231	12342_1	8/13/2015
12342	Add	Swing Bridge PT 4 OF 5	None	N 40 48' 10.700"	W 073 55' 46.900"	40.80297	-73.9297	LNM 33/15, 1st Dist	2231	12342_1	8/13/2015
12342	Add	Swing Bridge PT 5 OF 5	None	N 40 48' 10.200"	W 073 55' 47.500"	40.80283	-73.92986	LNM 33/15, 1st Dist	2231	12342_1	8/13/2015
12342	Delete	CAUTION Fixed and floating obstructions	CAUTION Fixed and floating obstructions, some submerged, may exist within the magenta tinted bridge construction area. Mariners are advised to proceed with caution.	N 40 48' 53.700"	W 073 55' 16.300"	40.81492	-73.9212	LNM 33/15, 1st Dist	2231	12342_1	8/13/2015
12342	Change	Swing Bridge Label	SWING BRIDGE HOR CL 118FT VERT CL 27	N 40 48' 27.200"	W 073 55' 57.300"	40.80756	-73.93259	LNM 21/14, 1st Dist	2231	12342_1	5/22/2014
12342	Change	Swing Bridge	None	N 40 48' 27.200"	W 073 55' 57.300"	40.80756	-73.93259	LNM 21/14, 1st Dist	2231	12342_1	5/22/2014
12343	Relocate	HUDSON RIVER LTD BUOY 40	R "40" Fl R 2.5s	N 41 23' 53.495"	W 073 56' 50.308"	41.39819	-73.94731	LNM 24/17, 1st Dist	2229	12343_2	6/22/2017
12343	Add	Submarine Pipeline  PT 1 OF 3	Chart No. 1: L40.1	N 41 15' 44.110"	W 073 58' 44.760"	41.26225	-73.9791	LNM 11/17, 1st Dist	2229	12343_2	3/9/2017
12343	Add	Submarine Pipeline  PT 2 OF 3	Chart No. 1: L40.1	N 41 15' 33.430"	W 073 58' 17.680"	41.25928	-73.97158	LNM 11/17, 1st Dist	2229	12343_2	3/9/2017
12343	Add	Submarine Pipeline  PT 3 OF 3	Chart No. 1: L40.1	N 41 15' 29.250"	W 073 57' 54.570"	41.25813	-73.96516	LNM 11/17, 1st Dist	2229	12343_2	3/9/2017
12343	Relocate	HUDSON RIVER LTD BUOY 31	G "31" Q G AIS	N 41 18' 46.208"	W 073 58' 51.340"	41.31284	-73.98093	LNM 50/16, 1st Dist	2229	12343_2	12/22/2016
12343	Add	Bridge Abutment	None	N 41 04' 12.410"	W 073 53' 20.740"	41.07011	-73.88909	LNM 50/16, 7th Dist	2230	12343_1	12/8/2016
12343	Delete	Bridge Abutment	None	N 41 04' 13.160"	W 073 53' 04.930"	41.07032	-73.8847	LNM 50/16, 7th Dist	2230	12343_1	12/8/2016
12343	Relocate	Bridge Abutment From	None	N 41 04' 11.760"	W 073 52' 57.800"	41.06993	-73.88272	LNM 50/16, 7th Dist	2230	12343_1	12/8/2016
12343	Relocate	Bridge Abutment To	None	N 41 04' 12.410"	W 073 52' 59.880"	41.07011	-73.8833	LNM 50/16, 7th Dist	2230	12343_1	12/8/2016
12343	Relocate	Bridge Abutment From	None	N 41 04' 11.660"	W 073 52' 34.690"	41.0699	-73.8763	LNM 50/16, 7th Dist	2230	12343_1	12/8/2016
12343	Relocate	Bridge Abutment To	None	N 41 04' 12.480"	W 073 52' 36.180"	41.07013	-73.87672	LNM 50/16, 7th Dist	2230	12343_1	12/8/2016
12343	Relocate	Bridge Abutment From	None	N 41 04' 11.760"	W 073 52' 41.550"	41.06993	-73.87821	LNM 50/16, 7th Dist	2230	12343_1	12/8/2016
12343	Relocate	Bridge Abutment To	None	N 41 04' 12.410"	W 073 52' 43.990"	41.07011	-73.87888	LNM 50/16, 7th Dist	2230	12343_1	12/8/2016
12343	Add	Bridge Abutment	None	N 41 04' 12.410"	W 073 53' 07.690"	41.07011	-73.88547	LNM 50/16, 7th Dist	2230	12343_1	12/8/2016
12343	Add	Bridge Abutment	None	N 41 04' 12.410"	W 073 53' 14.280"	41.07011	-73.8873	LNM 50/16, 7th Dist	2230	12343_1	12/8/2016
12343	Add	Bridge Abutment	None	N 41 04' 12.410"	W 073 53' 10.890"	41.07011	-73.88636	LNM 50/16, 7th Dist	2230	12343_1	12/8/2016
12343	Add	Bridge Abutment	None	N 41 04' 12.410"	W 073 53' 17.440"	41.07011	-73.88818	LNM 50/16, 7th Dist	2230	12343_1	12/8/2016
12343	Delete	UPPER HUDSON RIVER RESEARCH LTD BUOY B	Y "B" Fl Y 6s Priv	N 40 58' 53.878"	W 073 53' 17.112"	40.98163	-73.88808	LNM 31/16, 1st Dist	2230	12343_1	8/11/2016
12343	Add	HOOK MTN YACHT CLUB HAZARD LTD BUOY A	W Or "A" Fl 6s Priv	N 41 05' 47.000"	W 073 54' 30.000"	41.09639	-73.90833	LNM 24/16, 1st Dist	2230	12343_1	6/23/2016
12343	Add	HOOK MTN YACHT CLUB HAZARD LTD BUOY B	W Or "B" Fl 6s Priv	N 41 05' 47.000"	W 073 54' 46.000"	41.09639	-73.91278	LNM 24/16, 1st Dist	2230	12343_1	6/23/2016
12343	Delete	HUDSON RIVER BUOY 50	R N "50"	N 41 30' 56.338"	W 073 59' 57.503"	41.51565	-73.99931	LNM 51/15, 1st Dist	2229	12343_2	12/31/2015
12343	Relocate	HUDSON RIVER LTD BUOY 4	R "4" Fl R 4s	N 40 53' 35.158"	W 073 55' 19.192"	40.8931	-73.922	LNM 47/15, 1st Dist	2230	12343_1	12/3/2015
12343	Add	LIGHTED BUOY	Fl Priv	N 41 04' 59.700"	W 073 54' 00.420"	41.08325	-73.90012	LNM 35/15, 1st Dist	2230	12343_1	9/10/2015
12343	Add	LIGHTED BUOY	Fl Priv	N 41 03' 08.100"	W 073 53' 40.800"	41.05225	-73.89467	LNM 35/15, 1st Dist	2230	12343_1	9/10/2015
12343	Add	LIGHTED BUOY	Fl Priv	N 41 03' 32.220"	W 073 53' 18.180"	41.05895	-73.88838	LNM 35/15, 1st Dist	2230	12343_1	9/10/2015
12343	Change	HOOK MTN YACHT CLUB LB 3	G "3" Fl G 3s Priv	N 41 05' 39.000"	W 073 54' 32.000"	41.09417	-73.90889	LNM 33/15, 1st Dist	2230	12343_1	8/27/2015
12343	Change	HOOK MTN YACHT CLUB LB 4	R "4" Fl R 3s Priv	N 41 05' 42.000"	W 073 54' 32.000"	41.095	-73.90889	LNM 33/15, 1st Dist	2230	12343_1	8/27/2015
12343	Change	TARRYTOWN LIGHT	Fl 6s 54ft Priv	N 41 05' 03.180"	W 073 52' 28.380"	41.08422	-73.87455	LNM 20/15, 1st Dist	2230	12343_1	5/28/2015
12343	Delete	anchorage area PT 1 OF 6	None	N 40 56' 27.000"	W 073 55' 12.000"	40.94083	-73.92	LNM 17/15, 1st Dist	2230	12343_1	4/23/2015
12343	Delete	anchorage area PT 2 OF 6	None	N 40 56' 20.500"	W 073 54' 37.400"	40.93903	-73.91039	LNM 17/15, 1st Dist	2230	12343_1	4/23/2015
12343	Delete	anchorage area PT 3 OF 6	None	N 40 54' 18.000"	W 073 55' 21.000"	40.905	-73.9225	LNM 17/15, 1st Dist	2230	12343_1	4/23/2015
12343	Delete	anchorage area PT 4 OF 6	None	N 40 52' 27.500"	W 073 56' 14.300"	40.87431	-73.93731	LNM 17/15, 1st Dist	2230	12343_1	4/23/2015
12343	Delete	anchorage area PT 5 OF 6	None	N 40 51' 34.200"	W 073 56' 52.600"	40.8595	-73.94794	LNM 17/15, 1st Dist	2230	12343_1	4/23/2015
12343	Delete	anchorage area PT 6 OF 6	None	N 40 51' 20.500"	W 073 57' 31.700"	40.85569	-73.95881	LNM 17/15, 1st Dist	2230	12343_1	4/23/2015
12343	Add	anchorage area label	ANCHORAGE AREA NO. 18 110.155 (see note A)	N 40 56' 31.000"	W 073 54' 40.000"	40.94194	-73.91111	LNM 17/15, 1st Dist	2230	12343_1	4/23/2015
12343	Change	anchorage area label	ANCHORAGE AREA NO. 18A 110.155 (see note A)	N 40 53' 34.000"	W 073 55' 11.000"	40.89278	-73.91972	LNM 17/15, 1st Dist	2230	12343_1	4/23/2015
12343	Change	anchorage area label	ANCHORAGE AREA NO. 17 110.155 (see note A)	N 40 53' 44.500"	W 073 55' 52.000"	40.89569	-73.93111	LNM 17/15, 1st Dist	2230	12343_1	4/23/2015
12343	Change	anchorage area label	ANCHORAGE AREA NO. 19E 110.155 (see note A)	N 40 50' 46.000"	W 073 56' 55.000"	40.84611	-73.94861	LNM 17/15, 1st Dist	2230	12343_1	4/23/2015
12343	Add	anchorage area PT 1 OF 8	None	N 40 56' 26.660"	W 073 55' 12.060"	40.94074	-73.92001	LNM 17/15, 1st Dist	2230	12343_1	4/23/2015
12343	Add	anchorage area PT 2 OF 8	None	N 40 56' 22.540"	W 073 54' 49.770"	40.93959	-73.91383	LNM 17/15, 1st Dist	2230	12343_1	4/23/2015
12343	Add	anchorage area PT 3 OF 8	None	N 40 55' 56.000"	W 073 54' 58.000"	40.93222	-73.91611	LNM 17/15, 1st Dist	2230	12343_1	4/23/2015
12343	Add	anchorage area PT 4 OF 8	None	N 40 55' 54.150"	W 073 54' 46.960"	40.93171	-73.91305	LNM 17/15, 1st Dist	2230	12343_1	4/23/2015
12343	Add	anchorage area PT 5 OF 8	None	N 40 54' 18.430"	W 073 55' 21.120"	40.90512	-73.92253	LNM 17/15, 1st Dist	2230	12343_1	4/23/2015
12343	Add	anchorage area PT 6 OF 8	None	N 40 52' 27.590"	W 073 56' 14.320"	40.87433	-73.93731	LNM 17/15, 1st Dist	2230	12343_1	4/23/2015
12343	Add	anchorage area PT 7 OF 8	None	N 40 51' 34.200"	W 073 56' 52.640"	40.8595	-73.94795	LNM 17/15, 1st Dist	2230	12343_1	4/23/2015
12343	Add	anchorage area PT 8 OF 8	None	N 40 51' 20.760"	W 073 57' 31.750"	40.85577	-73.95882	LNM 17/15, 1st Dist	2230	12343_1	4/23/2015
12343	Add	anchorage area PT 1 OF 4	None	N 40 56' 54.000"	W 073 54' 40.000"	40.94833	-73.91111	LNM 17/15, 1st Dist	2230	12343_1	4/23/2015
12343	Add	anchorage area PT 2 OF 4	None	N 40 56' 51.000"	W 073 54' 24.000"	40.9475	-73.90667	LNM 17/15, 1st Dist	2230	12343_1	4/23/2015
12343	Add	anchorage area PT 3 OF 4	None	N 40 55' 53.000"	W 073 54' 40.000"	40.93139	-73.91111	LNM 17/15, 1st Dist	2230	12343_1	4/23/2015
12343	Add	anchorage area PT 4 OF 4	None	N 40 55' 56.000"	W 073 54' 58.000"	40.93222	-73.91611	LNM 17/15, 1st Dist	2230	12343_1	4/23/2015
12343	Change	tabulation - Tarrytown Harbor Channel Depths	tabulation - Tarrytown Harbor Channel Depths	N 41 04' 39.000"	W 073 58' 15.000"	41.0775	-73.97083	LNM 10/15, 1st Dist	2230	12343_1	3/12/2015
12343	Change	Depth Legend - Haverstraw Bay	29 1/2 FEET NOV 2014	N 41 13' 00.000"	W 073 57' 05.000"	41.21667	-73.95139	LNM 05/15, 1st Dist	2229	12343_2	1/29/2015
12343	Change	Depth Legend - Haverstraw Bay	29 1/2 FEET FOR MID-WIDTH OF 300 FEET NOV 2014	N 41 12' 10.000"	W 073 56' 43.000"	41.20278	-73.94527	LNM 05/15, 1st Dist	2230	12343_1	1/29/2015
12343	Change	HUDSON RIVER LTD BUOY 11	G "11" Fl G 4s AIS	N 41 07' 32.585"	W 073 52' 51.970"	41.12572	-73.8811	LNM 50/14, 1st Dist	2230	12343_1	1/8/2015
12343	Relocate	HUDSON RIVER LTD BUOY 11	G "11" Fl G 4s AIS	N 41 07' 32.585"	W 073 52' 51.970"	41.12572	-73.8811	LNM 50/14, 1st Dist	2230	12343_1	1/8/2015
12343	Change	HUDSON RIVER LTD BUOY 15	G "15" Fl G 2.5s AIS	N 41 08' 46.944"	W 073 53' 18.341"	41.14637	-73.88843	LNM 50/14, 1st Dist	2230	12343_1	1/8/2015
12343	Change	HUDSON RIVER LTD BUOY 23	G "23" Fl G 2.5s AIS	N 41 12' 07.411"	W 073 56' 47.139"	41.20206	-73.94643	LNM 50/14, 1st Dist	2230	12343_1	1/8/2015
12343	Change	HUDSON RIVER LTD BUOY 25	G "25" Fl G 4s AIS	N 41 13' 16.259"	W 073 57' 16.507"	41.22118	-73.95458	LNM 50/14, 1st Dist	2229	12343_2	1/8/2015
12343	Change	HUDSON RIVER LTD BUOY 27	G "27" Fl G 2.5s AIS	N 41 16' 34.238"	W 073 57' 35.002"	41.27618	-73.95972	LNM 50/14, 1st Dist	2229	12343_2	1/8/2015
12343	Relocate	HUDSON RIVER LTD BUOY 27	G "27" Fl G 2.5s AIS	N 41 16' 34.238"	W 073 57' 35.002"	41.27618	-73.95972	LNM 50/14, 1st Dist	2229	12343_2	1/8/2015
12343	Change	HUDSON RIVER LTD BUOY 31	G "31" Q G AIS	N 41 18' 47.248"	W 073 58' 48.884"	41.31313	-73.98025	LNM 50/14, 1st Dist	2229	12343_2	1/8/2015
12343	Change	HUDSON RIVER LTD BUOY 33	G "33" Fl G 4s AIS	N 41 20' 46.338"	W 073 57' 50.501"	41.34621	-73.96403	LNM 50/14, 1st Dist	2229	12343_2	1/8/2015
12343	Change	HUDSON RIVER LTD BUOY 46	R "46" Fl R 2.5s AIS	N 41 24' 29.338"	W 073 57' 43.500"	41.40815	-73.96208	LNM 50/14, 1st Dist	2229	12343_2	1/8/2015
12343	Add	Clarkson University Lighted Research Buoy	Y Fl Y 4s Priv	N 41 13' 07.920"	W 073 56' 01.020"	41.21887	-73.93362	LNM 38/14, 1st Dist	2229	12343_2	10/2/2014
12343	Add	Regulated Navigation Area PT 1 OF 8	Chart No. 1: N1.2	N 41 04' 39.160"	W 073 55' 00.680"	41.07755	-73.91685	LNM 37/14, 1st Dist	2230	12343_1	9/11/2014
12343	Add	Regulated Navigation Area PT 2 OF 8	Chart No. 1: N1.2	N 41 04' 28.340"	W 073 54' 47.180"	41.07454	-73.91311	LNM 37/14, 1st Dist	2230	12343_1	9/11/2014
12343	Add	Regulated Navigation Area PT 3 OF 8	Chart No. 1: N1.2	N 41 04' 11.280"	W 073 54' 48.000"	41.0698	-73.91333	LNM 37/14, 1st Dist	2230	12343_1	9/11/2014
12343	Add	Regulated Navigation Area PT 4 OF 8	Chart No. 1: N1.2	N 41 03' 57.260"	W 073 54' 40.730"	41.06591	-73.91132	LNM 37/14, 1st Dist	2230	12343_1	9/11/2014
12343	Add	Regulated Navigation Area PT 5 OF 8	Chart No. 1: N1.2	N 41 03' 57.360"	W 073 54' 47.380"	41.06593	-73.91316	LNM 37/14, 1st Dist	2230	12343_1	9/11/2014
12343	Add	Regulated Navigation Area PT 6 OF 8	Chart No. 1: N1.2	N 41 03' 58.660"	W 073 54' 56.140"	41.0663	-73.9156	LNM 37/14, 1st Dist	2230	12343_1	9/11/2014
12343	Add	Regulated Navigation Area PT 7 OF 8	Chart No. 1: N1.2	N 41 04' 03.000"	W 073 55' 07.600"	41.0675	-73.91878	LNM 37/14, 1st Dist	2230	12343_1	9/11/2014
12343	Add	Regulated Navigation Area PT 8 OF 8	Chart No. 1: N1.2	N 41 04' 06.690"	W 073 55' 14.100"	41.06852	-73.92059	LNM 37/14, 1st Dist	2230	12343_1	9/11/2014
12343	Delete	Regulated Navigation Area PT 1 OF 18	Chart No. 1: N1.2	N 41 04' 17.370"	W 073 55' 13.160"	41.07149	-73.92032	LNM 37/14, 1st Dist	2230	12343_1	9/11/2014
12343	Delete	Regulated Navigation Area PT 2 OF 18	Chart No. 1: N1.2	N 41 04' 10.970"	W 073 55' 05.050"	41.06971	-73.91807	LNM 37/14, 1st Dist	2230	12343_1	9/11/2014
12343	Delete	Regulated Navigation Area PT 3 OF 18	Chart No. 1: N1.2	N 41 04' 10.030"	W 073 55' 03.420"	41.06945	-73.91762	LNM 37/14, 1st Dist	2230	12343_1	9/11/2014
12343	Delete	Regulated Navigation Area PT 4 OF 18	Chart No. 1: N1.2	N 41 04' 07.140"	W 073 54' 54.480"	41.06865	-73.91513	LNM 37/14, 1st Dist	2230	12343_1	9/11/2014
12343	Delete	Regulated Navigation Area PT 5 OF 18	Chart No. 1: N1.2	N 41 04' 05.300"	W 073 54' 43.180"	41.06814	-73.91199	LNM 37/14, 1st Dist	2230	12343_1	9/11/2014
12343	Delete	Regulated Navigation Area PT 6 OF 18	Chart No. 1: N1.2	N 41 04' 04.720"	W 073 52' 22.520"	41.06798	-73.87292	LNM 37/14, 1st Dist	2230	12343_1	9/11/2014
12343	Delete	Regulated Navigation Area PT 7 OF 18	Chart No. 1: N1.2	N 41 04' 02.520"	W 073 52' 16.130"	41.06737	-73.87115	LNM 37/14, 1st Dist	2230	12343_1	9/11/2014
12343	Delete	Regulated Navigation Area PT 8 OF 18	Chart No. 1: N1.2	N 41 03' 59.740"	W 073 52' 10.830"	41.06659	-73.86967	LNM 37/14, 1st Dist	2230	12343_1	9/11/2014
12343	Delete	Regulated Navigation Area PT 9 OF 18	Chart No. 1: N1.2	N 41 03' 54.390"	W 073 52' 03.260"	41.06511	-73.86757	LNM 37/14, 1st Dist	2230	12343_1	9/11/2014
12343	Delete	Regulated Navigation Area PT 10 OF 18	Chart No. 1: N1.2	N 41 04' 34.790"	W 073 55' 03.260"	41.07633	-73.91757	LNM 37/14, 1st Dist	2230	12343_1	9/11/2014
12343	Delete	Regulated Navigation Area PT 11 OF 18	Chart No. 1: N1.2	N 41 04' 33.620"	W 073 55' 01.520"	41.076	-73.91709	LNM 37/14, 1st Dist	2230	12343_1	9/11/2014
12343	Delete	Regulated Navigation Area PT 12 OF 18	Chart No. 1: N1.2	N 41 04' 26.140"	W 073 54' 53.960"	41.07393	-73.91499	LNM 37/14, 1st Dist	2230	12343_1	9/11/2014
12343	Delete	Regulated Navigation Area PT 13 OF 18	Chart No. 1: N1.2	N 41 04' 23.760"	W 073 54' 50.570"	41.07327	-73.91405	LNM 37/14, 1st Dist	2230	12343_1	9/11/2014
12343	Delete	Regulated Navigation Area PT 14 OF 18	Chart No. 1: N1.2	N 41 04' 21.580"	W 073 54' 43.770"	41.07266	-73.91216	LNM 37/14, 1st Dist	2230	12343_1	9/11/2014
12343	Delete	Regulated Navigation Area PT 15 OF 18	Chart No. 1: N1.2	N 41 04' 20.960"	W 073 52' 20.170"	41.07249	-73.87227	LNM 37/14, 1st Dist	2230	12343_1	9/11/2014
12343	Delete	Regulated Navigation Area PT 16 OF 18	Chart No. 1: N1.2	N 41 04' 20.310"	W 073 52' 15.830"	41.07231	-73.87106	LNM 37/14, 1st Dist	2230	12343_1	9/11/2014
12343	Delete	Regulated Navigation Area PT 17 OF 18	Chart No. 1: N1.2	N 41 04' 16.760"	W 073 52' 04.520"	41.07132	-73.86792	LNM 37/14, 1st Dist	2230	12343_1	9/11/2014
12343	Delete	Regulated Navigation Area PT 18 OF 18	Chart No. 1: N1.2	N 41 04' 13.840"	W 073 51' 59.440"	41.07051	-73.86651	LNM 37/14, 1st Dist	2230	12343_1	9/11/2014
12343	Add	Safety Zone PT 1 OF 6	Chart No. 1: N1.2	N 41 04' 59.700"	W 073 54' 45.540"	41.08325	-73.91265	LNM 37/14, 1st Dist	2230	12343_1	9/11/2014
12343	Add	Safety Zone PT 2 OF 6	Chart No. 1: N1.2	N 41 05' 00.180"	W 073 53' 21.480"	41.08338	-73.8893	LNM 37/14, 1st Dist	2230	12343_1	9/11/2014
12343	Add	Safety Zone PT 3 OF 6	Chart No. 1: N1.2	N 41 03' 09.240"	W 073 53' 16.860"	41.05257	-73.88802	LNM 37/14, 1st Dist	2230	12343_1	9/11/2014
12343	Add	Safety Zone PT 4 OF 6	Chart No. 1: N1.2	N 41 03' 07.080"	W 073 54' 14.700"	41.05197	-73.90408	LNM 37/14, 1st Dist	2230	12343_1	9/11/2014
12343	Add	Safety Zone PT 5 OF 6	Chart No. 1: N1.2	N 41 04' 11.280"	W 073 54' 48.000"	41.0698	-73.91333	LNM 37/14, 1st Dist	2230	12343_1	9/11/2014
12343	Add	Safety Zone PT 6 OF 6	Chart No. 1: N1.2	N 41 04' 59.700"	W 073 54' 45.540"	41.08325	-73.91265	LNM 37/14, 1st Dist	2230	12343_1	9/11/2014
12343	Add	Safety Zone Label	SAFETY ZONE 165.T01-0174 (see note A)	N 41 04' 31.270"	W 073 54' 10.750"	41.07535	-73.90298	LNM 37/14, 1st Dist	2230	12343_1	9/11/2014
12343	Delete	Regulated Navigation Area Label	REGULATED NAVIGATION AREA 165.T01-0174 (see note A)	N 41 03' 57.000"	W 073 53' 02.000"	41.06583	-73.88389	LNM 37/14, 1st Dist	2230	12343_1	9/11/2014
12343	Add	Regulated Navigation Area Label	REGULATED NAVIGATION AREA 165.T01-0174 (see note A)	N 41 03' 52.940"	W 073 54' 50.210"	41.0647	-73.91395	LNM 37/14, 1st Dist	2230	12343_1	9/11/2014
12343	Add	Regulated Navigation Area PT 1 OF 6	Chart No. 1: N1.2	N 41 04' 21.960"	W 073 52' 03.250"	41.07277	-73.86757	LNM 37/14, 1st Dist	2230	12343_1	9/11/2014
12343	Add	Regulated Navigation Area PT 2 OF 6	Chart No. 1: N1.2	N 41 04' 26.270"	W 073 52' 19.820"	41.07396	-73.87217	LNM 37/14, 1st Dist	2230	12343_1	9/11/2014
12343	Add	Regulated Navigation Area PT 3 OF 6	Chart No. 1: N1.2	N 41 04' 26.530"	W 073 53' 20.070"	41.07404	-73.88891	LNM 37/14, 1st Dist	2230	12343_1	9/11/2014
12343	Add	Regulated Navigation Area PT 4 OF 6	Chart No. 1: N1.2	N 41 03' 56.920"	W 073 53' 18.840"	41.06581	-73.88857	LNM 37/14, 1st Dist	2230	12343_1	9/11/2014
12343	Add	Regulated Navigation Area PT 5 OF 6	Chart No. 1: N1.2	N 41 03' 56.690"	W 073 52' 24.750"	41.06575	-73.87354	LNM 37/14, 1st Dist	2230	12343_1	9/11/2014
12343	Add	Regulated Navigation Area PT 6 OF 6	Chart No. 1: N1.2	N 41 03' 46.910"	W 073 52' 05.890"	41.06303	-73.8683	LNM 37/14, 1st Dist	2230	12343_1	9/11/2014
12343	Add	Regulated Navigation Area Label	REGULATED NAVIGATION AREA 165.T01-0174 (see note A)	N 41 03' 47.570"	W 073 52' 53.240"	41.06321	-73.88145	LNM 37/14, 1st Dist	2230	12343_1	9/11/2014
12343	Add	Buoy, flashing white	Fl Priv	N 41 04' 59.700"	W 073 54' 45.540"	41.08325	-73.91265	LNM 32/14, 1st Dist	2230	12343_1	9/4/2014
12343	Add	Buoy, flashing white	Fl Priv	N 41 05' 00.180"	W 073 53' 21.481"	41.08338	-73.8893	LNM 32/14, 1st Dist	2230	12343_1	9/4/2014
12343	Add	Buoy, flashing white	Fl Priv	N 41 04' 11.280"	W 073 54' 48.000"	41.0698	-73.91333	LNM 32/14, 1st Dist	2230	12343_1	9/4/2014
12343	Add	Buoy, flashing white	Fl Priv	N 41 04' 08.280"	W 073 53' 19.320"	41.06897	-73.8887	LNM 32/14, 1st Dist	2230	12343_1	9/4/2014
12343	Add	Buoy, flashing white	Fl Priv	N 41 03' 07.080"	W 073 54' 14.700"	41.05197	-73.90408	LNM 32/14, 1st Dist	2230	12343_1	9/4/2014
12343	Add	Buoy, flashing white	Fl Priv	N 41 03' 09.240"	W 073 53' 16.860"	41.05257	-73.88802	LNM 32/14, 1st Dist	2230	12343_1	9/4/2014
12343	Delete	GRASSY POINT LIGHT	F R Priv	N 41 13' 09.180"	W 073 57' 42.120"	41.21922	-73.9617	LNM 26/14, 1st Dist	2229	12343_2	7/10/2014
12343	Change	PEEKSKILL BAY LIGHT P	Fl (2) 6s 47ft 4M "P"	N 41 16' 56.600"	W 073 56' 36.900"	41.28239	-73.94358	LNM 24/14, 1st Dist	2229	12343_2	6/26/2014
12343	Add	Stony Point Bay Channel Lighted Buoy 4	R "4" Q R Priv	N 41 13' 38.000"	W 073 58' 00.700"	41.22722	-73.96686	LNM 18/14, 1st Dist	2229	12343_2	5/15/2014
12343	Relocate	Stony Point Bay Channel Lighted Buoy 1	G "1" Q G Priv	N 41 13' 36.000"	W 073 57' 55.000"	41.22667	-73.96528	LNM 18/14, 1st Dist	2229	12343_2	5/15/2014
12343	Relocate	Stony Point Bay Channel Lighted Buoy 2	R "2" Q R Priv	N 41 13' 37.000"	W 073 57' 54.000"	41.22694	-73.965	LNM 18/14, 1st Dist	2229	12343_2	5/15/2014
12343	Relocate	Stony Point Bay Channel Lighted Buoy 3	G "3" Q G Priv	N 41 13' 37.000"	W 073 58' 00.700"	41.22694	-73.96686	LNM 18/14, 1st Dist	2229	12343_2	5/15/2014
12343	Change	Stony Point Bay Channel Lighted Buoy 3	G "3" Q G Priv	N 41 13' 37.000"	W 073 58' 00.700"	41.22694	-73.96686	LNM 18/14, 1st Dist	2229	12343_2	5/15/2014
12343	Relocate	Stony Point Bay Channel Lighted Buoy 7	G "7" Q G Priv	N 41 13' 37.000"	W 073 58' 08.000"	41.22694	-73.96889	LNM 18/14, 1st Dist	2229	12343_2	5/15/2014
12343	Relocate	Stony Point Bay Channel Lighted Buoy 8	R "8" Q R Priv	N 41 13' 40.000"	W 073 58' 09.000"	41.22778	-73.96917	LNM 18/14, 1st Dist	2229	12343_2	5/15/2014
12343	Change	Stony Point Bay Channel Lighted Buoy 5	G "5" Q G Priv	N 41 13' 38.000"	W 073 58' 05.000"	41.22722	-73.96806	LNM 18/14, 1st Dist	2229	12343_2	5/15/2014
12343	Relocate	Stony Point Bay Channel Lighted Buoy 5	G "5" Q G Priv	N 41 13' 38.000"	W 073 58' 05.000"	41.22722	-73.96806	LNM 18/14, 1st Dist	2229	12343_2	5/15/2014
12343	Change	Stony Point Bay Channel Lighted Buoy 6	R "6" Q R Priv	N 41 13' 39.000"	W 073 58' 05.000"	41.2275	-73.96806	LNM 18/14, 1st Dist	2229	12343_2	5/15/2014
12343	Relocate	Stony Point Bay Channel Lighted Buoy 6	R "6" Q R Priv	N 41 13' 39.000"	W 073 58' 05.000"	41.2275	-73.96806	LNM 18/14, 1st Dist	2229	12343_2	5/15/2014
12343	Delete	Mooring Buoy	(Chart No. 1: Q40)	N 41 04' 35.640"	W 073 53' 37.320"	41.07656	-73.8937	LNM 16/14, 1st Dist	2230	12343_1	5/1/2014
12343	Delete	Mooring Buoy	(Chart No. 1: Q40)	N 41 04' 45.060"	W 073 54' 03.240"	41.07918	-73.9009	LNM 16/14, 1st Dist	2230	12343_1	5/1/2014
12343	Add	Lighted Mooring Buoy	(Chart No. 1: Q41)	N 41 03' 59.940"	W 073 53' 53.640"	41.06665	-73.89823	LNM 16/14, 1st Dist	2230	12343_1	5/1/2014
12343	Add	Lighted Mooring Buoy	(Chart No. 1: Q41)	N 41 04' 28.020"	W 073 53' 40.140"	41.07445	-73.89449	LNM 16/14, 1st Dist	2230	12343_1	5/1/2014
12343	Add	Lighted Mooring Buoy	(Chart No. 1: Q41)	N 41 04' 28.380"	W 073 54' 07.080"	41.07455	-73.90197	LNM 16/14, 1st Dist	2230	12343_1	5/1/2014
12343	Add	Lighted Mooring Buoy	(Chart No. 1: Q41)	N 41 04' 28.320"	W 073 54' 33.781"	41.07453	-73.90939	LNM 16/14, 1st Dist	2230	12343_1	5/1/2014
12343	Add	Lighted Mooring Buoy	(Chart No. 1: Q41)	N 41 04' 38.880"	W 073 53' 53.700"	41.07747	-73.89825	LNM 16/14, 1st Dist	2230	12343_1	5/1/2014
12343	Add	Lighted Mooring Buoy	(Chart No. 1: Q41)	N 41 04' 39.000"	W 073 54' 20.400"	41.0775	-73.90567	LNM 16/14, 1st Dist	2230	12343_1	5/1/2014
12343	Add	Lighted Mooring Buoy	(Chart No. 1: Q41)	N 41 04' 49.740"	W 073 53' 40.200"	41.08048	-73.8945	LNM 16/14, 1st Dist	2230	12343_1	5/1/2014
12343	Add	Lighted Mooring Buoy	(Chart No. 1: Q41)	N 41 04' 49.500"	W 073 54' 07.080"	41.08042	-73.90197	LNM 16/14, 1st Dist	2230	12343_1	5/1/2014
12343	Add	Lighted Mooring Buoy	(Chart No. 1: Q41)	N 41 04' 49.260"	W 073 54' 33.720"	41.08035	-73.90937	LNM 16/14, 1st Dist	2230	12343_1	5/1/2014
12343	Change	Hudson River Light 39	Q G 39ft 4M "39"	N 41 23' 45.900"	W 073 57' 04.100"	41.39608	-73.95114	LNM 16/14, 1st Dist	2229	12343_2	5/1/2014
12343	Change	Hudson River Light 37	Fl G 4s 26ft 4M "37"	N 41 23' 36.900"	W 073 57' 02.400"	41.39359	-73.95067	LNM 16/14, 1st Dist	2229	12343_2	5/1/2014
12343	Delete	Mooring Buoy	(Chart No. 1: Q40)	N 41 03' 34.320"	W 073 53' 40.020"	41.05953	-73.89445	LNM 04/14, 1st Dist	2230	12343_1	2/6/2014
12343	Delete	Mooring Buoy	(Chart No. 1: Q40)	N 41 03' 52.860"	W 073 53' 40.140"	41.06468	-73.89449	LNM 04/14, 1st Dist	2230	12343_1	2/6/2014
12343	Add	Lighted Mooring Buoy	(Chart No. 1: Q41)	N 41 03' 56.940"	W 073 54' 17.100"	41.06581	-73.90475	LNM 04/14, 1st Dist	2230	12343_1	2/6/2014
12343	Add	Lighted Mooring Buoy	(Chart No. 1: Q41)	N 41 03' 52.320"	W 073 53' 32.400"	41.06453	-73.89233	LNM 04/14, 1st Dist	2230	12343_1	2/6/2014
12343	Add	Lighted Mooring Buoy	(Chart No. 1: Q41)	N 41 03' 41.760"	W 073 54' 12.120"	41.0616	-73.90337	LNM 04/14, 1st Dist	2230	12343_1	2/6/2014
12343	Add	Lighted Mooring Buoy	(Chart No. 1: Q41)	N 41 03' 41.280"	W 073 53' 49.199"	41.06147	-73.897	LNM 04/14, 1st Dist	2230	12343_1	2/6/2014
12343	Add	Lighted Mooring Buoy	(Chart No. 1: Q41)	N 41 03' 32.520"	W 073 53' 29.160"	41.05903	-73.89143	LNM 04/14, 1st Dist	2230	12343_1	2/6/2014
12343	Add	Lighted Mooring Buoy	(Chart No. 1: Q41)	N 41 03' 24.360"	W 073 54' 05.520"	41.05677	-73.90154	LNM 04/14, 1st Dist	2230	12343_1	2/6/2014
12343	Add	Lighted Mooring Buoy	(Chart No. 1: Q41)	N 41 03' 19.020"	W 073 53' 44.220"	41.05528	-73.89561	LNM 04/14, 1st Dist	2230	12343_1	2/6/2014
12343	Add	Note - CAUTION:	Fixed and floating obstructions, some submerged, may exist between the mooring buoys upstream and downstream from the bridge. Mariners are advised to proceed with caution.	N 41 04' 17.000"	W 073 50' 49.000"	41.07139	-73.84695	LNM 02/14, 1st Dist	2230	12343_1	1/16/2014
12343	Add	Bridge Construction PT 1 OF 11	Chart No. 1: D.d, with magenta screen extending to the limits of Regulated Navigation Area 165.T01-0174	N 41 04' 27.500"	W 073 55' 11.500"	41.07431	-73.91986	LNM 02/14, 1st Dist	2230	12343_1	1/16/2014
12343	Add	Bridge Construction PT 2 OF 11	Chart No. 1: D.d, with magenta screen extending to the limits of Regulated Navigation Area 165.T01-0174	N 41 04' 23.500"	W 073 55' 07.300"	41.07319	-73.91869	LNM 02/14, 1st Dist	2230	12343_1	1/16/2014
12343	Add	Bridge Construction PT 3 OF 11	Chart No. 1: D.d, with magenta screen extending to the limits of Regulated Navigation Area 165.T01-0174	N 41 04' 19.600"	W 073 55' 00.400"	41.07211	-73.91678	LNM 02/14, 1st Dist	2230	12343_1	1/16/2014
12343	Add	Bridge Construction PT 4 OF 11	Chart No. 1: D.d, with magenta screen extending to the limits of Regulated Navigation Area 165.T01-0174	N 41 04' 17.300"	W 073 54' 54.600"	41.07147	-73.91517	LNM 02/14, 1st Dist	2230	12343_1	1/16/2014
12343	Add	Bridge Construction PT 5 OF 11	Chart No. 1: D.d, with magenta screen extending to the limits of Regulated Navigation Area 165.T01-0174	N 41 04' 15.600"	W 073 54' 46.200"	41.071	-73.91283	LNM 02/14, 1st Dist	2230	12343_1	1/16/2014
12343	Add	Bridge Construction PT 6 OF 11	Chart No. 1: D.d, with magenta screen extending to the limits of Regulated Navigation Area 165.T01-0174	N 41 04' 15.400"	W 073 52' 31.800"	41.07095	-73.8755	LNM 02/14, 1st Dist	2230	12343_1	1/16/2014
12343	Add	Bridge Construction PT 7 OF 11	Chart No. 1: D.d, with magenta screen extending to the limits of Regulated Navigation Area 165.T01-0174	N 41 04' 14.800"	W 073 52' 25.000"	41.07078	-73.87361	LNM 02/14, 1st Dist	2230	12343_1	1/16/2014
12343	Add	Bridge Construction PT 8 OF 11	Chart No. 1: D.d, with magenta screen extending to the limits of Regulated Navigation Area 165.T01-0174	N 41 04' 13.000"	W 073 52' 17.700"	41.07028	-73.87158	LNM 02/14, 1st Dist	2230	12343_1	1/16/2014
12343	Add	Bridge Construction PT 9 OF 11	Chart No. 1: D.d, with magenta screen extending to the limits of Regulated Navigation Area 165.T01-0174	N 41 04' 10.100"	W 073 52' 11.000"	41.06947	-73.86972	LNM 02/14, 1st Dist	2230	12343_1	1/16/2014
12343	Add	Bridge Construction PT 10 OF 11	Chart No. 1: D.d, with magenta screen extending to the limits of Regulated Navigation Area 165.T01-0174	N 41 04' 06.800"	W 073 52' 06.000"	41.06855	-73.86833	LNM 02/14, 1st Dist	2230	12343_1	1/16/2014
12343	Add	Bridge Construction PT 11 OF 11	Chart No. 1: D.d, with magenta screen extending to the limits of Regulated Navigation Area 165.T01-0174	N 41 04' 02.600"	W 073 52' 01.400"	41.06739	-73.86706	LNM 02/14, 1st Dist	2230	12343_1	1/16/2014
12343	Add	Bridge Construction Label	Bridge under construction (see note)	N 41 04' 08.500"	W 073 54' 06.000"	41.06903	-73.90166	LNM 02/14, 1st Dist	2230	12343_1	1/16/2014
12343	Add	Regulated Navigation Area PT 1 OF 9	(Chart No. 1: N1.2)	N 41 04' 17.370"	W 073 55' 13.160"	41.07149	-73.92032	LNM 02/14, 1st Dist	2230	12343_1	1/16/2014
12343	Add	Regulated Navigation Area PT 2 OF 9	(Chart No. 1: N1.2)	N 41 04' 10.970"	W 073 55' 05.050"	41.06971	-73.91807	LNM 02/14, 1st Dist	2230	12343_1	1/16/2014
12343	Add	Regulated Navigation Area PT 3 OF 9	(Chart No. 1: N1.2)	N 41 04' 10.030"	W 073 55' 03.420"	41.06945	-73.91762	LNM 02/14, 1st Dist	2230	12343_1	1/16/2014
12343	Add	Regulated Navigation Area PT 4 OF 9	(Chart No. 1: N1.2)	N 41 04' 07.140"	W 073 54' 54.480"	41.06865	-73.91513	LNM 02/14, 1st Dist	2230	12343_1	1/16/2014
12343	Add	Regulated Navigation Area PT 5 OF 9	(Chart No. 1: N1.2)	N 41 04' 05.300"	W 073 54' 43.180"	41.06814	-73.91199	LNM 02/14, 1st Dist	2230	12343_1	1/16/2014
12343	Add	Regulated Navigation Area PT 6 OF 9	(Chart No. 1: N1.2)	N 41 04' 04.720"	W 073 52' 22.520"	41.06798	-73.87292	LNM 02/14, 1st Dist	2230	12343_1	1/16/2014
12343	Add	Regulated Navigation Area PT 7 OF 9	(Chart No. 1: N1.2)	N 41 04' 02.520"	W 073 52' 16.130"	41.06737	-73.87115	LNM 02/14, 1st Dist	2230	12343_1	1/16/2014
12343	Add	Regulated Navigation Area PT 8 OF 9	(Chart No. 1: N1.2)	N 41 03' 59.740"	W 073 52' 10.830"	41.06659	-73.86967	LNM 02/14, 1st Dist	2230	12343_1	1/16/2014
12343	Add	Regulated Navigation Area PT 9 OF 9	(Chart No. 1: N1.2)	N 41 03' 54.390"	W 073 52' 03.260"	41.06511	-73.86757	LNM 02/14, 1st Dist	2230	12343_1	1/16/2014
12343	Add	Regulated Navigation Area PT 1 OF 9	(Chart No. 1: N1.2)	N 41 04' 34.790"	W 073 55' 03.260"	41.07633	-73.91757	LNM 02/14, 1st Dist	2230	12343_1	1/16/2014
12343	Add	Regulated Navigation Area PT 2 OF 9	(Chart No. 1: N1.2)	N 41 04' 33.620"	W 073 55' 01.520"	41.076	-73.91709	LNM 02/14, 1st Dist	2230	12343_1	1/16/2014
12343	Add	Regulated Navigation Area PT 3 OF 9	(Chart No. 1: N1.2)	N 41 04' 26.140"	W 073 54' 53.960"	41.07393	-73.91499	LNM 02/14, 1st Dist	2230	12343_1	1/16/2014
12343	Add	Regulated Navigation Area PT 4 OF 9	(Chart No. 1: N1.2)	N 41 04' 23.760"	W 073 54' 50.570"	41.07327	-73.91405	LNM 02/14, 1st Dist	2230	12343_1	1/16/2014
12343	Add	Regulated Navigation Area PT 5 OF 9	(Chart No. 1: N1.2)	N 41 04' 21.580"	W 073 54' 43.770"	41.07266	-73.91216	LNM 02/14, 1st Dist	2230	12343_1	1/16/2014
12343	Add	Regulated Navigation Area PT 6 OF 9	(Chart No. 1: N1.2)	N 41 04' 20.960"	W 073 52' 20.170"	41.07249	-73.87227	LNM 02/14, 1st Dist	2230	12343_1	1/16/2014
12343	Add	Regulated Navigation Area PT 7 OF 9	(Chart No. 1: N1.2)	N 41 04' 20.310"	W 073 52' 15.830"	41.07231	-73.87106	LNM 02/14, 1st Dist	2230	12343_1	1/16/2014
12343	Add	Regulated Navigation Area PT 8 OF 9	(Chart No. 1: N1.2)	N 41 04' 16.760"	W 073 52' 04.520"	41.07132	-73.86792	LNM 02/14, 1st Dist	2230	12343_1	1/16/2014
12343	Add	Regulated Navigation Area PT 9 OF 9	(Chart No. 1: N1.2)	N 41 04' 13.840"	W 073 51' 59.440"	41.07051	-73.86651	LNM 02/14, 1st Dist	2230	12343_1	1/16/2014
12343	Add	Regulated Navigation Area Label	REGULATED NAVIGATION AREA 165.T01-0174 (see note A)	N 41 03' 57.000"	W 073 53' 02.000"	41.06583	-73.88389	LNM 02/14, 1st Dist	2230	12343_1	1/16/2014
12343	Delete	Accurate Landmark	STACK   (Chart No. 1: E2)	N 40 56' 51.211"	W 073 54' 01.682"	40.94756	-73.90047	LNM 50/13, 1st Dist	2230	12343_1	12/16/2013
12343	Delete	Important Building	(Chart No. 1: D6)	N 40 56' 50.752"	W 073 54' 00.547"	40.94743	-73.90015	LNM 50/13, 1st Dist	2230	12343_1	12/16/2013
12343	Delete	Important Building	(Chart No. 1: D6)	N 40 56' 48.412"	W 073 54' 02.242"	40.94678	-73.90062	LNM 50/13, 1st Dist	2230	12343_1	12/16/2013
12343	Delete	Important Building	(Chart No. 1: D6)	N 40 56' 46.898"	W 073 54' 03.391"	40.94636	-73.90094	LNM 50/13, 1st Dist	2230	12343_1	12/16/2013
12343	Change	Tabulation - Tarrytown Harbor Channel Depths	Tabulation - Tarrytown Harbor Channel Depths	N 41 04' 39.000"	W 073 58' 28.200"	41.0775	-73.9745	LNM 51/13, 1st Dist	2230	12343_1	12/13/2013
12343	Add	Mooring Buoy	(Chart No. 1: Q40)	N 41 04' 45.060"	W 073 54' 03.240"	41.07918	-73.9009	LNM 32/13, 1st Dist	2230	12343_1	8/8/2013
12343	Add	Mooring Buoy	(Chart No. 1: Q40)	N 41 03' 34.320"	W 073 53' 40.020"	41.05953	-73.89445	LNM 32/13, 1st Dist	2230	12343_1	8/8/2013
12343	Add	Submarine Cable  PT 1 OF 5	Chart No. 1: L30.1	N 41 02' 36.200"	W 073 53' 47.600"	41.04339	-73.89655	LNM 33/13, 1st Dist	2230	12343_1	8/5/2013
12343	Add	Submarine Cable  PT 2 OF 5	Chart No. 1: L30.1	N 41 02' 37.700"	W 073 53' 46.600"	41.0438	-73.89628	LNM 33/13, 1st Dist	2230	12343_1	8/5/2013
12343	Add	Submarine Cable  PT 3 OF 5	Chart No. 1: L30.1	N 41 02' 26.400"	W 073 52' 30.800"	41.04067	-73.87522	LNM 33/13, 1st Dist	2230	12343_1	8/5/2013
12343	Add	Submarine Cable  PT 4 OF 5	Chart No. 1: L30.1	N 41 02' 24.700"	W 073 52' 29.900"	41.0402	-73.87497	LNM 33/13, 1st Dist	2230	12343_1	8/5/2013
12343	Add	Submarine Cable  PT 5 OF 5	Chart No. 1: L30.1	N 41 02' 24.400"	W 073 52' 28.200"	41.04011	-73.8745	LNM 33/13, 1st Dist	2230	12343_1	8/5/2013
12343	Relocate	Bowline Point Marine Terminal South Dolphin Light	Q 15ft Priv	N 41 12' 10.920"	W 073 57' 21.540"	41.20303	-73.95599	LNM 25/13, 1st Dist	2230	12343_1	6/21/2013
12343	Relocate	Bowline Point Marine Terminal North Dolphin Light	Q 15ft Priv	N 41 12' 17.760"	W 073 57' 23.100"	41.20493	-73.95641	LNM 25/13, 1st Dist	2230	12343_1	6/21/2013
12343	Delete	HDR Research Lighted Buoy	Y Fl Y 4s Priv	N 41 12' 46.440"	W 073 57' 26.160"	41.2129	-73.95727	LNM 24/13, 1st Dist	2229	12343_2	6/20/2013
12343	Delete	HDR Research Lighted Buoy	Y Fl Y 4s Priv	N 41 12' 46.440"	W 073 57' 26.160"	41.2129	-73.95727	LNM 24/13, 1st Dist	2230	12343_1	6/20/2013
12343	Delete	Tarrytown South Channel Buoy 1	G C "1"	N 41 04' 19.748"	W 073 52' 34.758"	41.07215	-73.87632	LNM 20/13, 1st Dist	2230	12343_1	5/21/2013
12343	Delete	Tarrytown South Channel Buoy 2	R N "2"	N 41 04' 17.198"	W 073 52' 33.358"	41.07145	-73.87593	LNM 20/13, 1st Dist	2230	12343_1	5/21/2013
12343	Change	Tarrytown South Channel Buoy 1	G C "1"	N 41 04' 25.548"	W 073 52' 26.287"	41.07376	-73.87397	LNM 20/13, 1st Dist	2230	12343_1	5/21/2013
12343	Change	Tarrytown South Channel Buoy 3	G C "3"	N 41 04' 32.898"	W 073 52' 15.607"	41.07581	-73.871	LNM 20/13, 1st Dist	2230	12343_1	5/21/2013
12343	Change	Tarrytown South Channel Buoy 2	R N "2"	N 41 04' 23.678"	W 073 52' 24.197"	41.07324	-73.87339	LNM 20/13, 1st Dist	2230	12343_1	5/21/2013
12343	Change	Tarrytown South Channel Buoy 4	R N "4"	N 41 04' 29.338"	W 073 52' 14.867"	41.07482	-73.8708	LNM 20/13, 1st Dist	2230	12343_1	5/21/2013
12343	Change	Cortlandt Yacht Club Channel Lighted Buoy 1	G "1" Fl G 2s Priv	N 41 14' 44.000"	W 073 57' 24.000"	41.24556	-73.95667	LNM 20/13, 1st Dist	2229	12343_2	5/21/2013
12343	Relocate	Cortlandt Yacht Club Channel Lighted Buoy 1	G "1" Fl G 2s Priv	N 41 14' 44.000"	W 073 57' 24.000"	41.24556	-73.95667	LNM 20/13, 1st Dist	2229	12343_2	5/21/2013
12343	Change	Cortlandt Yacht Club Channel Lighted Buoy 2	R "2" Fl R 2s Priv	N 41 14' 42.000"	W 073 57' 23.000"	41.245	-73.95639	LNM 20/13, 1st Dist	2229	12343_2	5/21/2013
12343	Relocate	Cortlandt Yacht Club Channel Lighted Buoy 2	R "2" Fl R 2s Priv	N 41 14' 42.000"	W 073 57' 23.000"	41.245	-73.95639	LNM 20/13, 1st Dist	2229	12343_2	5/21/2013
12343	Relocate	Tarrytown South Channel Buoy 1	G C "1"	N 41 04' 25.548"	W 073 52' 26.287"	41.07376	-73.87397	LNM 20/13, 1st Dist	2230	12343_1	5/21/2013
12343	Relocate	Tarrytown South Channel Buoy 2	R N "2"	N 41 04' 23.678"	W 073 52' 24.197"	41.07324	-73.87339	LNM 20/13, 1st Dist	2230	12343_1	5/21/2013
12343	Relocate	Tarrytown South Channel Buoy 3	G C "3"	N 41 04' 32.898"	W 073 52' 15.607"	41.07581	-73.871	LNM 20/13, 1st Dist	2230	12343_1	5/21/2013
12343	Relocate	Tarrytown South Channel Buoy 4	R N "4"	N 41 04' 29.338"	W 073 52' 14.867"	41.07482	-73.8708	LNM 20/13, 1st Dist	2230	12343_1	5/21/2013
12343	Delete	Accurate Landmark	TOWER ABAND LT HO	N 41 05' 03.180"	W 073 52' 28.380"	41.08422	-73.87455	LNM 18/13, 1st Dist	2230	12343_1	5/8/2013
12343	Add	Tarrytown Light	Fl 3s 54ft Priv	N 41 05' 03.180"	W 073 52' 28.380"	41.08422	-73.87455	LNM 18/13, 1st Dist	2230	12343_1	5/8/2013
12343	Change	HDR Research Lighted Buoy	W Or Fl 4s Priv	N 41 13' 13.200"	W 073 57' 37.800"	41.22033	-73.9605	LNM 17/13, 1st Dist	2229	12343_2	4/30/2013
12343	Add	Mooring Buoy	(Chart No. 1: Q40)	N 41 04' 35.640"	W 073 53' 37.320"	41.07656	-73.8937	LNM 16/13, 1st Dist	2230	12343_1	4/23/2013
12343	Add	Mooring Buoy	(Chart No. 1: Q40)	N 41 03' 52.860"	W 073 53' 40.140"	41.06468	-73.89449	LNM 16/13, 1st Dist	2230	12343_1	4/23/2013
12343	Change	UWNY Pilot Intake Lighted Hazard Buoy	W Or Fl 4s Priv	N 41 13' 13.200"	W 073 57' 37.680"	41.22033	-73.96046	LNM 16/13, 1st Dist	2229	12343_2	4/23/2013
12343	Relocate	Grassy Point Light	F R Priv	N 41 13' 09.180"	W 073 57' 42.120"	41.21922	-73.9617	LNM 16/13, 1st Dist	2229	12343_2	4/23/2013
12343	Relocate	UWNY Pilot Intake Lighted Hazard Buoy	W Or Fl 4s Priv	N 41 13' 13.200"	W 073 57' 37.680"	41.22033	-73.96046	LNM 16/13, 1st Dist	2229	12343_2	4/23/2013
12343	Change	Chelsea Yacht Club Anchorage Lighted Buoy N	W Or "N" Fl 2s Priv	N 41 33' 21.000"	W 073 58' 16.000"	41.55583	-73.97111	LNM 15/13, 1st Dist	2229	12343_2	4/18/2013
12343	Change	Chelsea Yacht Club Anchorage Lighted Buoy W	W Or "W" Fl 2s Priv	N 41 32' 54.000"	W 073 58' 40.000"	41.54833	-73.97778	LNM 15/13, 1st Dist	2229	12343_2	4/18/2013
12343	Change	Chelsea Yacht Club Obstruction Lighted Buoy S	W Or "S" Fl 2s Priv	N 41 33' 14.000"	W 073 58' 24.000"	41.55389	-73.97334	LNM 15/13, 1st Dist	2229	12343_2	4/18/2013
12345	Delete	Glenwood North Dock Light	Fl R 3s 12ft Priv	N 40 56' 52.400"	W 073 54' 05.400"	40.94789	-73.9015	LNM 16/16, 1st Dist	2228	12345_1	4/21/2016
12345	Delete	Glenwood South Dock Light	Fl R 3s 12ft Priv	N 40 56' 50.000"	W 073 54' 05.900"	40.94722	-73.90164	LNM 16/16, 1st Dist	2228	12345_1	4/21/2016
12345	Relocate	HUDSON RIVER LTD BUOY 4	R "4" Fl R 4s	N 40 53' 35.158"	W 073 55' 19.192"	40.8931	-73.922	LNM 47/15, 1st Dist	2228	12345_1	12/3/2015
12345	Change	anchorage areas note	ANCHORAGE AREAS 110.155 (see note A) Limits and assigned numbers of anchorage areas are shown in magenta. 17 18 18A 19E GENERAL ANCHORAGE	N 40 54' 20.000"	W 073 57' 37.000"	40.90556	-73.96028	LNM 17/15, 1st Dist	2228	12345_1	4/23/2015
12345	Delete	anchorage area PT 1 OF 3	None	N 40 56' 22.540"	W 073 54' 49.770"	40.93959	-73.91383	LNM 17/15, 1st Dist	2228	12345_1	4/23/2015
12345	Delete	anchorage area PT 2 OF 3	None	N 40 56' 20.360"	W 073 54' 37.720"	40.93899	-73.91048	LNM 17/15, 1st Dist	2228	12345_1	4/23/2015
12345	Delete	anchorage area PT 3 OF 3	None	N 40 55' 54.150"	W 073 54' 46.960"	40.93171	-73.91305	LNM 17/15, 1st Dist	2228	12345_1	4/23/2015
12345	Add	anchorage area label	18	N 40 56' 25.400"	W 073 54' 39.700"	40.94039	-73.91103	LNM 17/15, 1st Dist	2228	12345_1	4/23/2015
12345	Add	anchorage area PT 1 OF 4	None	N 40 56' 54.000"	W 073 54' 40.000"	40.94833	-73.91111	LNM 17/15, 1st Dist	2228	12345_1	4/23/2015
12345	Add	anchorage area PT 2 OF 4	None	N 40 56' 51.000"	W 073 54' 24.000"	40.9475	-73.90667	LNM 17/15, 1st Dist	2228	12345_1	4/23/2015
12345	Add	anchorage area PT 3 OF 4	None	N 40 55' 53.000"	W 073 54' 40.000"	40.93139	-73.91111	LNM 17/15, 1st Dist	2228	12345_1	4/23/2015
12345	Add	anchorage area PT 4 OF 4	None	N 40 55' 56.000"	W 073 54' 58.000"	40.93222	-73.91611	LNM 17/15, 1st Dist	2228	12345_1	4/23/2015
12345	Delete	Accurate Landmark	STACK   (Chart No. 1: E2)	N 40 56' 51.211"	W 073 54' 01.682"	40.94756	-73.90047	LNM 50/13, 1st Dist	2228	12345_1	12/16/2013
12345	Delete	Important Building	(Chart No. 1: D6)	N 40 56' 50.752"	W 073 54' 00.547"	40.94743	-73.90015	LNM 50/13, 1st Dist	2228	12345_1	12/16/2013
12345	Delete	Important Building	(Chart No. 1: D6)	N 40 56' 48.412"	W 073 54' 02.242"	40.94678	-73.90062	LNM 50/13, 1st Dist	2228	12345_1	12/16/2013
12345	Delete	Important Building	(Chart No. 1: D6)	N 40 56' 46.898"	W 073 54' 03.391"	40.94636	-73.90094	LNM 50/13, 1st Dist	2228	12345_1	12/16/2013
12345	Change	Depth Legend - Hudson River (Alpine Boat Basin) to:	4 ft rep 2013	N 40 56' 44.800"	W 073 55' 05.900"	40.94578	-73.9183	LNM 33/13, 1st Dist	2228	12345_1	8/8/2013
12345	Change	Anchorage Area label:	19E	N 40 51' 01.600"	W 073 57' 02.900"	40.85044	-73.95081	LNM 20/11, 1st Dist	2228	12345_1	5/16/2011
12345	Change	Anchorage Area Note to:	ANCHORAGE AREAS  110.155 (see note A)  Limits and assigned numbers of anchorage areas are shown in magenta.  17  18A GENERAL ANCHORAGE  19E EAST GENERAL ANCHORAGE	N 40 54' 18.000"	W 073 57' 37.000"	40.905	-73.96028	LNM 20/11, 1st Dist	2228	12345_1	5/16/2011
12345	Delete	Anchorage Area PT 1 OF 3	(Chart No. 1: N12.1)	N 40 51' 00.050"	W 073 56' 58.720"	40.85001	-73.94965	LNM 20/11, 1st Dist	2228	12345_1	5/16/2011
12345	Delete	Anchorage Area PT 2 OF 3	(Chart No. 1: N12.1)	N 40 51' 02.690"	W 073 56' 57.670"	40.85075	-73.94936	LNM 20/11, 1st Dist	2228	12345_1	5/16/2011
12345	Delete	Anchorage Area PT 3 OF 3	(Chart No. 1: N12.1)	N 40 51' 01.060"	W 073 56' 49.340"	40.8503	-73.94704	LNM 20/11, 1st Dist	2228	12345_1	5/16/2011
12345	Add	Anchorage Area PT 1 OF 3	(Chart No. 1: N12.1)	N 40 51' 00.000"	W 073 56' 58.200"	40.85	-73.9495	LNM 20/11, 1st Dist	2228	12345_1	5/16/2011
12345	Add	Anchorage Area PT 2 OF 3	(Chart No. 1: N12.1)	N 40 51' 02.500"	W 073 56' 57.400"	40.85069	-73.94928	LNM 20/11, 1st Dist	2228	12345_1	5/16/2011
12345	Add	Anchorage Area PT 3 OF 3	(Chart No. 1: N12.1)	N 40 51' 00.800"	W 073 56' 49.400"	40.85022	-73.94705	LNM 20/11, 1st Dist	2228	12345_1	5/16/2011
12345	Add	label: Regulated Navigation Area	REGULATED NAVIGATION AREA 165.165 (see note A)	N 40 51' 40.700"	W 073 56' 30.400"	40.86131	-73.94178	LNM 16/11, 1st Dist	2228	12345_1	4/18/2011
12345	Add	label: Regulated Navigation Area	REGULATED NAVIGATION AREA 165.165 (see note A)	N 40 56' 25.600"	W 073 54' 31.500"	40.94044	-73.90875	LNM 16/11, 1st Dist	2228	12345_1	4/18/2011
12345	Delete	Glenwood North Dock Light	Fl R 3s 12ft Priv	N 40 56' 52.400"	W 073 54' 05.400"	40.94789	-73.9015	LNM 16/11, 1st Dist	2228	12345_1	4/13/2011
12345	Delete	Glenwood South Dock Light	Fl R 3s 12ft Priv	N 40 56' 50.000"	W 073 54' 05.900"	40.94722	-73.90164	LNM 16/11, 1st Dist	2228	12345_1	4/13/2011
12345	Add	Wreck in Feet	23 Wk      Chart No. 1: K26	N 40 51' 59.022"	W 073 56' 04.382"	40.86639	-73.93455	LNM 14/11, 1st Dist	2228	12345_1	4/4/2011
12346	Delete	UPPER HUDSON RIVER RESEARCH LTD BUOY B	Y "B" Fl Y 6s Priv	N 40 58' 53.878"	W 073 53' 17.112"	40.98163	-73.88808	LNM 31/16, 1st Dist	2227	12346_1	8/11/2016
12346	Add	anchorage area PT 2 OF 4	None	N 40 56' 54.000"	W 073 54' 40.000"	40.94833	-73.91111	LNM 17/15, 1st Dist	2227	12346_1	4/23/2015
12346	Add	anchorage area PT 3 OF 4	None	N 40 56' 51.000"	W 073 54' 24.000"	40.9475	-73.90667	LNM 17/15, 1st Dist	2227	12346_1	4/23/2015
12346	Add	anchorage area label	ANCHORAGE AREA NO. 18 110.155 (see note A)	N 40 56' 46.400"	W 073 54' 35.400"	40.94622	-73.90984	LNM 17/15, 1st Dist	2227	12346_1	4/23/2015
12346	Add	anchorage area PT 1 OF 4	None	N 40 56' 38.127"	W 073 54' 44.929"	40.94392	-73.91248	LNM 17/15, 1st Dist	2227	12346_1	4/23/2015
12346	Add	anchorage area PT 4 OF 4	None	N 40 56' 38.127"	W 073 54' 27.551"	40.94392	-73.90765	LNM 17/15, 1st Dist	2227	12346_1	4/23/2015
12346	Delete	Accurate Landmark	STACK   (Chart No. 1: E2)	N 40 56' 51.211"	W 073 54' 01.682"	40.94756	-73.90047	LNM 50/13, 1st Dist	2227	12346_1	12/16/2013
12346	Delete	Important Building	(Chart No. 1: D6)	N 40 56' 50.752"	W 073 54' 00.547"	40.94743	-73.90015	LNM 50/13, 1st Dist	2227	12346_1	12/16/2013
12346	Delete	Important Building	(Chart No. 1: D6)	N 40 56' 48.412"	W 073 54' 02.242"	40.94678	-73.90062	LNM 50/13, 1st Dist	2227	12346_1	12/16/2013
12346	Delete	Important Building	(Chart No. 1: D6)	N 40 56' 46.898"	W 073 54' 03.391"	40.94636	-73.90094	LNM 50/13, 1st Dist	2227	12346_1	12/16/2013
12348	Relocate	HUDSON RIVER LTD BUOY 159	G "159" Fl G 2.5s AIS	N 42 21' 00.986"	W 073 47' 28.107"	42.35027	-73.79114	LNM 15/17, 1st Dist	2223	12348_1	4/20/2017
12348	Add	Obstruction in Feet	8 Obstns       	N 42 26' 34.170"	W 073 47' 08.290"	42.44283	-73.78564	LNM 51/16, 1st Dist	2223	12348_1	12/15/2016
12348	Add	Rock in Feet	9 Rk      	N 42 23' 18.910"	W 073 47' 30.880"	42.38859	-73.79191	LNM 51/16, 1st Dist	2223	12348_1	12/15/2016
12348	Delete	Channel Limits PT 1 OF 4	Chart No. 1: I20	N 42 29' 16.380"	W 073 47' 11.720"	42.48788	-73.78659	LNM 51/16, 1st Dist	2223	12348_1	12/15/2016
12348	Delete	Channel Limits PT 2 OF 4	Chart No. 1: I20	N 42 29' 20.740"	W 073 47' 15.110"	42.48909	-73.78753	LNM 51/16, 1st Dist	2223	12348_1	12/15/2016
12348	Delete	Channel Limits PT 3 OF 4	Chart No. 1: I20	N 42 29' 27.590"	W 073 47' 11.710"	42.491	-73.78658	LNM 51/16, 1st Dist	2223	12348_1	12/15/2016
12348	Delete	Channel Limits PT 4 OF 4	Chart No. 1: I20	N 42 29' 28.540"	W 073 47' 07.230"	42.49126	-73.78534	LNM 51/16, 1st Dist	2223	12348_1	12/15/2016
12348	Delete	Depth Legend 	32 ft rep	N 42 29' 23.850"	W 073 47' 11.400"	42.48996	-73.7865	LNM 51/16, 1st Dist	2223	12348_1	12/15/2016
12348	Add	Sounding in Feet	14	N 42 29' 21.610"	W 073 47' 13.050"	42.48934	-73.78696	LNM 51/16, 1st Dist	2223	12348_1	12/15/2016
12348	Add	ADAMS ISLAND OBSTRUCTION BUOY	W Or C	N 42 44' 23.778"	W 073 41' 17.970"	42.73994	-73.68832	LNM 49/16, 1st Dist	2224	12348_2	12/15/2016
12348	Add	Obstruction in Feet	7 Obstn       	N 42 44' 24.700"	W 073 41' 17.800"	42.7402	-73.68828	LNM 29/16, 1st Dist	2224	12348_2	7/14/2016
12348	Change	Depth Legend - Hudson Anchorage	27 FT 2015	N 42 17' 32.000"	W 073 47' 02.300"	42.29222	-73.78397	LNM 28/16, 1st Dist	2223	12348_1	7/7/2016
12348	Change	tabulation - Hudson River Channel Depths	tabulation - Hudson River Channel Depths	N 42 28' 50.000"	W 073 42' 59.000"	42.48056	-73.71639	LNM 28/16, 1st Dist	2223	12348_1	7/7/2016
12348	Relocate	COEYMANS DIKE BUOY A	W Or "A"	N 42 28' 19.024"	W 073 47' 12.533"	42.47195	-73.78681	LNM 14/16, 1st Dist	2223	12348_1	4/14/2016
12348	Relocate	COEYMANS DIKE BUOY B	W Or "B"	N 42 28' 24.254"	W 073 47' 13.826"	42.4734	-73.78717	LNM 14/16, 1st Dist	2223	12348_1	4/14/2016
12348	Relocate	COEYMANS DIKE BUOY D	W Or "D"	N 42 28' 34.933"	W 073 47' 16.472"	42.47637	-73.78791	LNM 14/16, 1st Dist	2223	12348_1	4/14/2016
12348	Relocate	HUDSON RIVER LTD BUOY 159	G "159" Fl G 2.5s AIS	N 42 20' 59.971"	W 073 47' 23.305"	42.34999	-73.78981	LNM 14/16, 1st Dist	2223	12348_1	4/14/2016
12348	Add	6 ft depth curve PT 1 OF 12	6	N 42 23' 39.200"	W 073 47' 20.800"	42.39422	-73.78911	LNM 49/15, 1st Dist	2223	12348_1	12/3/2015
12348	Add	6 ft depth curve PT 2 OF 12	6	N 42 23' 32.500"	W 073 47' 25.200"	42.39236	-73.79034	LNM 49/15, 1st Dist	2223	12348_1	12/3/2015
12348	Add	6 ft depth curve PT 3 OF 12	6	N 42 23' 27.500"	W 073 47' 26.400"	42.39097	-73.79066	LNM 49/15, 1st Dist	2223	12348_1	12/3/2015
12348	Add	6 ft depth curve PT 4 OF 12	6	N 42 23' 21.100"	W 073 47' 29.900"	42.38919	-73.79164	LNM 49/15, 1st Dist	2223	12348_1	12/3/2015
12348	Add	6 ft depth curve PT 5 OF 12	6	N 42 23' 17.800"	W 073 47' 32.200"	42.38828	-73.79227	LNM 49/15, 1st Dist	2223	12348_1	12/3/2015
12348	Add	6 ft depth curve PT 6 OF 12	6	N 42 23' 10.600"	W 073 47' 35.900"	42.38628	-73.7933	LNM 49/15, 1st Dist	2223	12348_1	12/3/2015
12348	Add	6 ft depth curve PT 7 OF 12	6	N 42 23' 06.800"	W 073 47' 36.900"	42.38522	-73.79359	LNM 49/15, 1st Dist	2223	12348_1	12/3/2015
12348	Add	6 ft depth curve PT 8 OF 12	6	N 42 23' 05.600"	W 073 47' 38.000"	42.38489	-73.79389	LNM 49/15, 1st Dist	2223	12348_1	12/3/2015
12348	Add	6 ft depth curve PT 9 OF 12	6	N 42 22' 58.600"	W 073 47' 38.600"	42.38295	-73.79405	LNM 49/15, 1st Dist	2223	12348_1	12/3/2015
12348	Add	6 ft depth curve PT 10 OF 12	6	N 42 22' 55.800"	W 073 47' 41.300"	42.38217	-73.79481	LNM 49/15, 1st Dist	2223	12348_1	12/3/2015
12348	Add	6 ft depth curve PT 11 OF 12	6	N 42 22' 51.300"	W 073 47' 43.400"	42.38092	-73.79539	LNM 49/15, 1st Dist	2223	12348_1	12/3/2015
12348	Add	6 ft depth curve PT 12 OF 12	6	N 42 22' 49.200"	W 073 47' 43.500"	42.38033	-73.79542	LNM 49/15, 1st Dist	2223	12348_1	12/3/2015
12348	Add	Sounding in Feet	5	N 42 22' 59.700"	W 073 47' 39.500"	42.38325	-73.7943	LNM 49/15, 1st Dist	2223	12348_1	12/3/2015
12348	Substitute	Sounding in Feet	5 for 27	N 42 23' 27.800"	W 073 47' 27.400"	42.39106	-73.79095	LNM 49/15, 1st Dist	2223	12348_1	12/3/2015
12348	Substitute	Sounding in Feet	8 for 32	N 42 23' 12.600"	W 073 47' 33.600"	42.38683	-73.79266	LNM 49/15, 1st Dist	2223	12348_1	12/3/2015
12348	Delete	Sounding in Feet	20	N 42 22' 57.700"	W 073 47' 40.800"	42.38269	-73.79467	LNM 49/15, 1st Dist	2223	12348_1	12/3/2015
12348	Delete	Sounding in Feet	27	N 42 22' 51.900"	W 073 47' 42.300"	42.38108	-73.79508	LNM 49/15, 1st Dist	2223	12348_1	12/3/2015
12348	Delete	6 ft depth curve PT 1 OF 2	6	N 42 23' 39.200"	W 073 47' 20.800"	42.39422	-73.78911	LNM 49/15, 1st Dist	2223	12348_1	12/3/2015
12348	Delete	6 ft depth curve PT 2 OF 2	6	N 42 22' 49.200"	W 073 47' 43.500"	42.38033	-73.79542	LNM 49/15, 1st Dist	2223	12348_1	12/3/2015
12348	Relocate	HUDSON RIVER LTD BUOY 161	G "161" Q G	N 42 21' 24.438"	W 073 47' 30.267"	42.35679	-73.79174	LNM 28/15, 1st Dist	2223	12348_1	7/23/2015
12348	Relocate	COEYMANS DIKE BUOY B	W Or "B" Priv	N 42 28' 24.349"	W 073 47' 13.841"	42.47343	-73.78718	LNM 23/15, 1st Dist	2223	12348_1	6/25/2015
12348	Relocate	HUDSON RIVER LTD BUOY 192	R "192" Q R	N 42 28' 46.642"	W 073 47' 09.762"	42.47962	-73.78604	LNM 22/15, 1st Dist	2223	12348_1	6/18/2015
12348	Delete	magenta channel reach separator PT 1 OF 2	None	N 42 44' 24.250"	W 073 41' 15.900"	42.74007	-73.68775	LNM 24/15, 1st Dist	2224	12348_2	6/11/2015
12348	Delete	magenta channel reach separator PT 2 OF 2	None	N 42 44' 23.800"	W 073 41' 13.000"	42.73994	-73.68694	LNM 24/15, 1st Dist	2224	12348_2	6/11/2015
12348	Delete	Sounding in Feet	3	N 42 44' 54.100"	W 073 41' 11.900"	42.74836	-73.68664	LNM 24/15, 1st Dist	2224	12348_2	6/11/2015
12348	Change	Depth Note - Hudson River	The controlling depth from the dam to Waterford was 11 1/2 feet at normal pool level. May 2014	N 42 45' 17.000"	W 073 42' 20.000"	42.75472	-73.70556	LNM 24/15, 1st Dist	2224	12348_2	6/11/2015
12348	Delete	magenta channel reach separator PT 1 OF 2	None	N 42 44' 41.820"	W 073 41' 16.580"	42.74495	-73.68794	LNM 24/15, 1st Dist	2224	12348_2	6/11/2015
12348	Delete	magenta channel reach separator PT 2 OF 2	None	N 42 44' 41.180"	W 073 41' 12.200"	42.74477	-73.68672	LNM 24/15, 1st Dist	2224	12348_2	6/11/2015
12348	Add	Channel Limits PT 1 OF 5	None	N 42 44' 26.220"	W 073 41' 17.250"	42.74062	-73.68813	LNM 24/15, 1st Dist	2224	12348_2	6/11/2015
12348	Add	Channel Limits PT 2 OF 5	None	N 42 44' 39.070"	W 073 41' 14.780"	42.74419	-73.68744	LNM 24/15, 1st Dist	2224	12348_2	6/11/2015
12348	Add	Channel Limits PT 3 OF 5	None	N 42 44' 43.280"	W 073 41' 09.650"	42.74535	-73.68601	LNM 24/15, 1st Dist	2224	12348_2	6/11/2015
12348	Add	Channel Limits PT 4 OF 5	None	N 42 44' 40.950"	W 073 41' 09.730"	42.74471	-73.68604	LNM 24/15, 1st Dist	2224	12348_2	6/11/2015
12348	Add	Channel Limits PT 5 OF 5	None	N 42 44' 18.890"	W 073 41' 16.490"	42.73858	-73.68791	LNM 24/15, 1st Dist	2224	12348_2	6/11/2015
12348	Delete	magenta channel reach separator PT 1 OF 2	None	N 42 44' 41.200"	W 073 41' 11.300"	42.74478	-73.68647	LNM 24/15, 1st Dist	2224	12348_2	6/11/2015
12348	Delete	magenta channel reach separator PT 2 OF 2	None	N 42 44' 41.500"	W 073 41' 07.330"	42.74486	-73.68537	LNM 24/15, 1st Dist	2224	12348_2	6/11/2015
12348	Delete	Shl rep	Shl rep	N 42 35' 06.000"	W 073 45' 21.000"	42.585	-73.75584	LNM 24/15, 1st Dist	2223	12348_1	6/11/2015
12348	Add	magenta channel reach separator PT 1 OF 2	None	N 42 44' 43.280"	W 073 41' 09.650"	42.74535	-73.68601	LNM 24/15, 1st Dist	2224	12348_2	6/11/2015
12348	Add	magenta channel reach separator PT 2 OF 2	None	N 42 44' 45.160"	W 073 41' 07.370"	42.74588	-73.68538	LNM 24/15, 1st Dist	2224	12348_2	6/11/2015
12348	Add	magenta channel reach separator PT 1 OF 2	None	N 42 44' 39.340"	W 073 41' 17.370"	42.74426	-73.68816	LNM 24/15, 1st Dist	2224	12348_2	6/11/2015
12348	Add	magenta channel reach separator PT 2 OF 2	None	N 42 44' 39.070"	W 073 41' 14.780"	42.74419	-73.68744	LNM 24/15, 1st Dist	2224	12348_2	6/11/2015
12348	Add	magenta channel reach separator PT 1 OF 2	None	N 42 44' 18.890"	W 073 41' 16.490"	42.73858	-73.68791	LNM 24/15, 1st Dist	2224	12348_2	6/11/2015
12348	Add	magenta channel reach separator PT 2 OF 2	None	N 42 44' 17.470"	W 073 41' 15.040"	42.73819	-73.68751	LNM 24/15, 1st Dist	2224	12348_2	6/11/2015
12348	Delete	Sounding in Feet	7	N 42 44' 02.500"	W 073 41' 31.400"	42.73403	-73.69205	LNM 24/15, 1st Dist	2224	12348_2	6/11/2015
12348	Change	tabulation - Hudson River Channel Depths	tabulation - Hudson River Channel Depths	N 42 28' 50.000"	W 073 42' 59.000"	42.48056	-73.71639	LNM 22/15, 1st Dist	2223	12348_1	5/28/2015
12348	Change	HUDSON RIVER LTD BUOY 159	G "159" Fl G 2.5s AIS	N 42 20' 59.925"	W 073 47' 24.861"	42.34998	-73.79024	LNM 50/14, 1st Dist	2223	12348_1	1/8/2015
12348	Relocate	HUDSON RIVER LTD BUOY 159	G "159" Fl G 2.5s AIS	N 42 20' 59.925"	W 073 47' 24.861"	42.34998	-73.79024	LNM 50/14, 1st Dist	2223	12348_1	1/8/2015
12348	Change	HUDSON RIVER LTD BUOY 201	G "201" Fl G 2.5s AIS	N 42 31' 23.148"	W 073 45' 48.321"	42.5231	-73.76342	LNM 50/14, 1st Dist	2223	12348_1	1/8/2015
12348	Relocate	HUDSON RIVER LTD BUOY 201	G "201" Fl G 2.5s AIS	N 42 31' 23.148"	W 073 45' 48.321"	42.5231	-73.76342	LNM 50/14, 1st Dist	2223	12348_1	1/8/2015
12348	Change	Hudson River Lighted Buoy 161	G "161" Q G	N 42 21' 24.621"	W 073 47' 31.219"	42.35684	-73.79201	LNM 34/14, 1st Dist	2223	12348_1	9/11/2014
12348	Relocate	Hudson River Lighted Buoy 161	G "161" Q G	N 42 21' 24.621"	W 073 47' 31.219"	42.35684	-73.79201	LNM 34/14, 1st Dist	2223	12348_1	9/11/2014
12348	Relocate	Stonehouse Bar Channel North End Range Rear Light	Iso G 6s 45ft	N 42 27' 22.089"	W 073 47' 13.817"	42.45613	-73.78717	LNM 36/12, 1st Dist	2223	12348_1	9/11/2012
12348	Relocate	Stonehouse Bar Channel North End Range Front Light	Q G 32ft	N 42 27' 14.043"	W 073 47' 11.927"	42.4539	-73.78664	LNM 36/12, 1st Dist	2223	12348_1	9/11/2012
12348	Change	Stonehouse Bar Channel North End Range Rear Light	Iso G 6s 45ft	N 42 27' 22.089"	W 073 47' 13.817"	42.45613	-73.78717	LNM 36/12, 1st Dist	2223	12348_1	9/11/2012
12348	Change	Stonehouse Bar Channel North End Range Front Light	Q G 32ft	N 42 27' 14.043"	W 073 47' 11.927"	42.4539	-73.78664	LNM 36/12, 1st Dist	2223	12348_1	9/11/2012
12348	Relocate	Hudson River Lighted Buoy 210	R "210" Fl R 4s	N 42 33' 25.974"	W 073 45' 12.900"	42.55722	-73.75359	LNM 21/12, 1st Dist	2223	12348_1	5/30/2012
12348	Relocate	Port of Albany Mooring Dolphin Light	Q Priv	N 42 37' 32.280"	W 073 45' 11.040"	42.62563	-73.75307	LNM 10/12, 1st Dist	2223	12348_1	3/12/2012
12348	Add	Sounding in Feet	10	N 42 18' 48.586"	W 073 46' 36.212"	42.3135	-73.77673	LNM 30/11, 1st Dist	2223	12348_1	7/21/2011
12348	Delete	Sounding in Feet	28	N 42 18' 48.580"	W 073 46' 36.200"	42.3135	-73.77673	LNM 30/11, 1st Dist	2223	12348_1	7/21/2011
12348	Add	Sounding in Feet	8	N 42 18' 44.391"	W 073 46' 42.979"	42.31233	-73.7786	LNM 30/11, 1st Dist	2223	12348_1	7/21/2011
12348	Add	Sounding in Feet	9	N 42 18' 40.038"	W 073 46' 44.794"	42.31112	-73.77911	LNM 30/11, 1st Dist	2223	12348_1	7/21/2011
12348	Delete	Sounding in Feet	24	N 42 18' 40.700"	W 073 46' 45.950"	42.31131	-73.77943	LNM 30/11, 1st Dist	2223	12348_1	7/21/2011
12348	Delete	Troy Marina Lighted Buoy 2T	R "2T" Fl R 2.5s Priv	N 42 44' 11.000"	W 073 41' 16.000"	42.73639	-73.68777	LNM 15/11, 1st Dist	2224	12348_2	4/18/2011
12348	Delete	Troy Marina Lighted Buoy 4T	R "4T" Fl R 2.5s Priv	N 42 44' 03.000"	W 073 41' 25.000"	42.73417	-73.69028	LNM 15/11, 1st Dist	2224	12348_2	4/18/2011
12348	Add	label: Regulated Navigation Area	REGULATED NAVIGATION AREA 165.165 (see note A)	N 42 19' 30.300"	W 073 47' 48.500"	42.32508	-73.79681	LNM 16/11, 1st Dist	2223	12348_1	4/18/2011
12348	Add	label: Regulated Navigation Area	REGULATED NAVIGATION AREA 165.165 (see note A)	N 42 37' 36.400"	W 073 44' 33.700"	42.62678	-73.74269	LNM 16/11, 1st Dist	2223	12348_1	4/18/2011
12348	Add	label: Regulated Navigation Area	REGULATED NAVIGATION AREA 165.165 (see note A)	N 42 29' 28.100"	W 073 47' 55.500"	42.49114	-73.79875	LNM 16/11, 1st Dist	2223	12348_1	4/18/2011
12348	Add	label: Regulated Navigation Area	REGULATED NAVIGATION AREA 165.165 (see note A)	N 42 45' 00.700"	W 073 42' 03.000"	42.75019	-73.70084	LNM 16/11, 1st Dist	2224	12348_2	4/18/2011
12348	Add	label: Regulated Navigation Area	REGULATED NAVIGATION AREA 165.165 (see note A)	N 42 40' 22.900"	W 073 44' 07.500"	42.67303	-73.73542	LNM 16/11, 1st Dist	2224	12348_2	4/18/2011
12348	Add	Coeymans Dike Buoy A	W Or "A" Priv	N 42 28' 19.100"	W 073 47' 12.962"	42.47197	-73.78693	LNM 14/11, 1st Dist	2223	12348_1	4/11/2011
12348	Add	Coeymans Dike Buoy B	W Or "B" Priv	N 42 28' 24.488"	W 073 47' 14.543"	42.47347	-73.78738	LNM 13/11, 1st Dist	2223	12348_1	4/4/2011
12348	Add	Coeymans Dike Buoy C	W Or "C" Priv	N 42 28' 28.903"	W 073 47' 14.947"	42.4747	-73.78748	LNM 13/11, 1st Dist	2223	12348_1	4/4/2011
12348	Add	Coeymans Dike Buoy D	W Or "D" Priv	N 42 28' 34.916"	W 073 47' 16.646"	42.47636	-73.78796	LNM 13/11, 1st Dist	2223	12348_1	4/4/2011
12348	Delete	Westerlo Island Lower Dolphin Light	Fl G 4s 16ft Priv	N 42 37' 00.000"	W 073 45' 35.000"	42.61666	-73.75972	LNM 11/11, 1st Dist	2223	12348_1	3/23/2011
12348	Delete	Westerlo Island Upper Dolphin Light	Fl G 4s 16ft Priv	N 42 37' 01.000"	W 073 45' 34.000"	42.61694	-73.75945	LNM 11/11, 1st Dist	2223	12348_1	3/23/2011
12348	Delete	Coeymans Dike Buoy A	W Or "A"	N 42 28' 19.193"	W 073 47' 13.543"	42.472	-73.78709	LNM 38/10, 1st Dist	2223	12348_1	9/27/2010
12348	Delete	Coeymans Dike Buoy B	W Or "B"	N 42 28' 24.493"	W 073 47' 14.543"	42.47347	-73.78738	LNM 38/10, 1st Dist	2223	12348_1	9/27/2010
12348	Delete	Coeymans Dike Buoy C	W Or "C"	N 42 28' 28.893"	W 073 47' 15.743"	42.47469	-73.7877	LNM 38/10, 1st Dist	2223	12348_1	9/27/2010
12348	Delete	Coeymans Dike Buoy D	W Or "D"	N 42 28' 35.000"	W 073 47' 18.200"	42.47639	-73.78839	LNM 38/10, 1st Dist	2223	12348_1	9/27/2010
12348	Change	Tabulation - HUDSON RIVER CHANNEL DEPTHS	Tabulation - HUDSON RIVER CHANNEL DEPTHS	N 42 28' 50.000"	W 073 42' 59.000"	42.48056	-73.71639	LNM 26/10, 1st Dist	2223	12348_1	7/1/2010
12352	Add	ARESKONK CREEK LTD BUOY 4	R "4" Fl R 4s Priv	N 40 47' 04.200"	W 072 47' 48.700"	40.7845	-72.79686	LNM 24/17, 1st Dist	695	12352_2	6/22/2017
12352	Relocate	SCOW CREEK CHANNEL BUOY PP19	G C "PP19" Priv	N 40 36' 59.880"	W 073 35' 15.360"	40.61663	-73.5876	LNM 24/17, 1st Dist	697	12352_4	6/22/2017
12352	Relocate	SCOW CREEK CHANNEL BUOY PP19	G C "PP19" Priv	N 40 36' 59.880"	W 073 35' 15.360"	40.61663	-73.5876	LNM 24/17, 1st Dist	698	12352_5	6/22/2017
12352	Add	GREAT GUN BEACH CHANNEL LTD BUOY 7	G "7" Fl G 4s Priv	N 40 45' 53.400"	W 072 46' 39.900"	40.76483	-72.77775	LNM 20/17, 1st Dist	695	12352_2	5/25/2017
12352	Add	PATTERSQUASH CREEK LTD BUOY 1	G "1" Fl G 4s Priv	N 40 45' 04.900"	W 072 50' 30.400"	40.75136	-72.84177	LNM 20/17, 1st Dist	695	12352_2	5/25/2017
12352	Add	PATTERSQUASH CREEK LTD BUOY 4	R "4" Fl R 4s Priv	N 40 45' 12.400"	W 072 50' 46.800"	40.75344	-72.84634	LNM 20/17, 1st Dist	695	12352_2	5/25/2017
12352	Add	WATER ISLAND CHANNEL LTD BUOY 3	G "3" Fl G 4s Priv	N 40 40' 44.600"	W 073 01' 49.100"	40.67905	-73.0303	LNM 20/17, 1st Dist	695	12352_2	5/25/2017
12352	Relocate	SEA DOG CREEK BUOY SD9	G C "SD9" Priv	N 40 36' 04.500"	W 073 35' 21.060"	40.60125	-73.58918	LNM 19/17, 1st Dist	698	12352_5	5/18/2017
12352	Relocate	GREAT ISLAND CHANNEL BUOY Z9	G C "Z9" Priv	N 40 38' 09.480"	W 073 29' 41.340"	40.63597	-73.49482	LNM 17/17, 1st Dist	697	12352_4	5/4/2017
12352	Relocate	SCOW CREEK CHANNEL BUOY PP24	R N "PP24" Priv	N 40 37' 06.600"	W 073 35' 38.460"	40.6185	-73.59402	LNM 17/17, 1st Dist	697	12352_4	5/4/2017
12352	Relocate	MORICHES BAY BUOY 17A	G C "17A"	N 40 46' 48.431"	W 072 45' 33.314"	40.78012	-72.75925	LNM 15/17, 1st Dist	694	12352_1	4/20/2017
12352	Relocate	MORICHES BAY BUOY 17A	G C "17A"	N 40 46' 48.431"	W 072 45' 33.314"	40.78012	-72.75925	LNM 15/17, 1st Dist	695	12352_2	4/20/2017
12352	Relocate	DICKERSON CHANNEL BUOY 3	G C "3"	N 40 40' 05.006"	W 073 14' 38.152"	40.66806	-73.24393	LNM 14/17, 1st Dist	696	12352_3	4/13/2017
12352	Relocate	STATE BOAT CHANNEL BUOY 80	R N "80"	N 40 38' 36.491"	W 073 15' 05.109"	40.64347	-73.25142	LNM 14/17, 1st Dist	696	12352_3	4/13/2017
12352	Relocate	STATE BOAT CHANNEL BUOY 82	R N "82"	N 40 38' 35.783"	W 073 14' 58.550"	40.64327	-73.2496	LNM 14/17, 1st Dist	696	12352_3	4/13/2017
12352	Change	PONQUOGUE CHANNEL BUOY 4	R N "4"	N 40 50' 59.786"	W 072 30' 04.503"	40.84994	-72.50125	LNM 13/17, 1st Dist	694	12352_1	4/6/2017
12352	Change	Depth Legend -PATCHOGUE RIVER	6 1/2 FT BY 100 FT JUL 2016	N 40 44' 13.500"	W 073 01' 00.740"	40.73708	-73.01687	LNM 06/17, 1st Dist	695	12352_2	2/2/2017
12352	Relocate	JONES INLET BUOY 9	G C "9"	N 40 35' 21.987"	W 073 34' 16.836"	40.58944	-73.57134	LNM 04/17, 1st Dist	698	12352_5	2/2/2017
12352	Add	SEA DOG CREEK BUOY SD17A	G C "SD17A" Priv	N 40 36' 26.040"	W 073 34' 30.480"	40.60723	-73.57513	LNM 48/16, 1st Dist	698	12352_5	12/8/2016
12352	Add	SEA DOG CREEK BUOY SD18	R N "SD18" Priv	N 40 36' 26.760"	W 073 34' 24.840"	40.60743	-73.57357	LNM 48/16, 1st Dist	698	12352_5	12/8/2016
12352	Add	SEA DOG CREEK BUOY SD21	G C "SD21" Priv	N 40 36' 27.960"	W 073 34' 20.700"	40.60777	-73.57242	LNM 48/16, 1st Dist	698	12352_5	12/8/2016
12352	Relocate	SEA DOG CREEK BUOY SD19	G C "SD19" Priv	N 40 36' 27.480"	W 073 34' 23.400"	40.60763	-73.57317	LNM 47/16, 1st Dist	698	12352_5	12/1/2016
12352	Add	COAST GUARD STATION FIRE ISLAND EAST ENT LIGHT	Fl 4s 3M	N 40 37' 35.300"	W 073 15' 35.335"	40.62647	-73.25982	LNM 45/16, 1st Dist	696	12352_3	11/17/2016
12352	Add	COAST GUARD STATION FIRE ISLAND WEST ENTRANCE LIGHT	Fl 4s 3M	N 40 37' 35.163"	W 073 15' 36.292"	40.62643	-73.26008	LNM 45/16, 1st Dist	696	12352_3	11/17/2016
12352	Add	OBSTRUCTION	Obstn	N 40 37' 54.420"	W 073 19' 26.220"	40.63178	-73.32395	LNM 45/16, 1st Dist	696	12352_3	11/17/2016
12352	Change	Depth Legend - LONG ISLAND INTRACOASTAL WATERWAY	2 1/2 FT 2016	N 40 47' 07.500"	W 072 45' 03.690"	40.78542	-72.75102	LNM 46/16, 1st Dist	694	12352_1	11/10/2016
12352	Relocate	FIRE ISLAND INLET BUOY 9	G C "9"	N 40 37' 54.248"	W 073 18' 01.879"	40.63174	-73.30052	LNM 43/16, 1st Dist	696	12352_3	11/3/2016
12352	Relocate	DUNEWOOD LIGHT 2	Fl R 4s "2" Priv	N 40 38' 39.600"	W 073 10' 47.400"	40.64433	-73.17983	LNM 40/16, 1st Dist	696	12352_3	10/13/2016
12352	Relocate	FAIR HARBOR LIGHT 1	Fl G 4s 8ft "1" Priv	N 40 38' 37.800"	W 073 11' 06.000"	40.64383	-73.185	LNM 40/16, 1st Dist	696	12352_3	10/13/2016
12352	Relocate	BARRETT BEACH LTD BUOY 2	R "2" Fl R 2s Priv	N 40 40' 43.800"	W 073 02' 42.050"	40.67883	-73.04501	LNM 40/16, 1st Dist	695	12352_2	10/13/2016
12352	Add	Safety Zone PT 1 OF 9	Chart No. 1: N1.2	N 40 37' 31.000"	W 073 15' 41.000"	40.62528	-73.26139	LNM 41/16, 1st Dist	696	12352_3	10/6/2016
12352	Add	Safety Zone PT 2 OF 9	Chart No. 1: N1.2	N 40 37' 35.600"	W 073 15' 43.100"	40.62656	-73.26197	LNM 41/16, 1st Dist	696	12352_3	10/6/2016
12352	Add	Safety Zone PT 3 OF 9	Chart No. 1: N1.2	N 40 37' 36.700"	W 073 15' 39.800"	40.62686	-73.26105	LNM 41/16, 1st Dist	696	12352_3	10/6/2016
12352	Add	Safety Zone PT 4 OF 9	Chart No. 1: N1.2	N 40 37' 37.800"	W 073 15' 36.600"	40.62717	-73.26017	LNM 41/16, 1st Dist	696	12352_3	10/6/2016
12352	Add	Safety Zone PT 5 OF 9	Chart No. 1: N1.2	N 40 37' 41.100"	W 073 15' 33.500"	40.62808	-73.25931	LNM 41/16, 1st Dist	696	12352_3	10/6/2016
12352	Add	Safety Zone PT 6 OF 9	Chart No. 1: N1.2	N 40 37' 39.700"	W 073 15' 27.000"	40.62769	-73.2575	LNM 41/16, 1st Dist	696	12352_3	10/6/2016
12352	Add	Safety Zone PT 7 OF 9	Chart No. 1: N1.2	N 40 37' 37.500"	W 073 15' 22.100"	40.62708	-73.25614	LNM 41/16, 1st Dist	696	12352_3	10/6/2016
12352	Add	Safety Zone PT 8 OF 9	Chart No. 1: N1.2	N 40 37' 37.600"	W 073 15' 19.100"	40.62711	-73.2553	LNM 41/16, 1st Dist	696	12352_3	10/6/2016
12352	Add	Safety Zone PT 9 OF 9	Chart No. 1: N1.2	N 40 37' 32.700"	W 073 15' 21.400"	40.62575	-73.25594	LNM 41/16, 1st Dist	696	12352_3	10/6/2016
12352	Add	Safety Zone Label	SAFETY ZONE 165.154 (see note A)	N 40 37' 34.900"	W 073 15' 32.300"	40.62636	-73.25897	LNM 41/16, 1st Dist	696	12352_3	10/6/2016
12352	Delete	Safety Zone	Chart No. 1: N1.2	N 40 37' 34.900"	W 073 15' 32.300"	40.62636	-73.25897	LNM 41/16, 1st Dist	696	12352_3	10/6/2016
12352	Delete	Safety Zone Label	SAFETY ZONE 165.152 (see note A)	N 40 37' 34.900"	W 073 15' 32.300"	40.62636	-73.25897	LNM 41/16, 1st Dist	696	12352_3	10/6/2016
12352	Relocate	STATE BOAT CHANNEL LT 29	Fl G 4s 12ft 4M "29"	N 40 37' 15.620"	W 073 25' 00.054"	40.62101	-73.41668	LNM 39/16, 1st Dist	696	12352_3	10/6/2016
12352	Relocate	HAUNTS CREEK BUOY R1	G C "R1" Priv	N 40 36' 08.700"	W 073 31' 34.800"	40.60242	-73.52634	LNM 38/16, 1st Dist	698	12352_5	9/29/2016
12352	Relocate	Massapequa Creek Daybeacon	R"8"	N 40 38' 59.800"	W 073 28' 23.300"	40.64994	-73.47314	LNM 36/16, 1st Dist	697	12352_4	9/15/2016
12352	Relocate	Massapequa Creek Daybeacon	R"8"	N 40 38' 59.800"	W 073 28' 23.300"	40.64994	-73.47314	LNM 36/16, 1st Dist	696	12352_3	9/15/2016
12352	Relocate	SAILORS HAVEN CHANNEL LTD BUOY 1	G "1" Fl G 2s Priv	N 40 39' 43.800"	W 073 06' 23.710"	40.66217	-73.10658	LNM 32/16, 1st Dist	696	12352_3	8/18/2016
12352	Relocate	SAILORS HAVEN CHANNEL LTD BUOY 2	R "2" Fl R 2s Priv	N 40 39' 47.600"	W 073 06' 28.310"	40.66322	-73.10786	LNM 32/16, 1st Dist	696	12352_3	8/18/2016
12352	Relocate	SAILORS HAVEN CHANNEL LTD BUOY 3	G "3" Fl G 2s Priv	N 40 39' 35.600"	W 073 06' 19.920"	40.65989	-73.10553	LNM 32/16, 1st Dist	696	12352_3	8/18/2016
12352	Relocate	SAILORS HAVEN CHANNEL LTD BUOY 4	R "4" Fl R 2s Priv	N 40 39' 35.420"	W 073 06' 21.170"	40.65984	-73.10588	LNM 32/16, 1st Dist	696	12352_3	8/18/2016
12352	Relocate	SAILORS HAVEN CHANNEL LTD BUOY 5	G "5" Fl G 2s Priv	N 40 39' 29.510"	W 073 06' 17.200"	40.6582	-73.10477	LNM 32/16, 1st Dist	696	12352_3	8/18/2016
12352	Relocate	SAILORS HAVEN CHANNEL LTD BUOY 6	R "6" Fl R 2s Priv	N 40 39' 29.480"	W 073 06' 18.300"	40.65819	-73.10508	LNM 32/16, 1st Dist	696	12352_3	8/18/2016
12352	Relocate	EAST-WEST CHANNEL BUOY 21	G C "21" Priv	N 40 39' 08.280"	W 073 24' 12.900"	40.6523	-73.40358	LNM 32/16, 1st Dist	696	12352_3	8/18/2016
12352	Relocate	EAST-WEST CHANNEL BUOY 22	R N "22" Priv	N 40 39' 02.040"	W 073 25' 06.000"	40.65057	-73.41833	LNM 32/16, 1st Dist	696	12352_3	8/18/2016
12352	Relocate	EAST-WEST CHANNEL BUOY 23	G C "23" Priv	N 40 38' 59.160"	W 073 25' 05.640"	40.64977	-73.41824	LNM 32/16, 1st Dist	696	12352_3	8/18/2016
12352	Relocate	WATCH HILL CHANNEL LTD BUOY 10	R "10" Fl R 2s Priv	N 40 41' 43.610"	W 072 59' 23.320"	40.69545	-72.98981	LNM 31/16, 1st Dist	695	12352_2	8/11/2016
12352	Relocate	WATCH HILL CHANNEL LTD BUOY 2	R "2" Fl R 4s Priv	N 40 42' 09.710"	W 073 00' 35.120"	40.7027	-73.00976	LNM 31/16, 1st Dist	695	12352_2	8/11/2016
12352	Relocate	WATCH HILL CHANNEL LTD BUOY 3	G "3" Fl G 4s Priv	N 40 42' 07.930"	W 073 00' 17.010"	40.7022	-73.00472	LNM 31/16, 1st Dist	695	12352_2	8/11/2016
12352	Relocate	WATCH HILL CHANNEL LTD BUOY 4	R "4" Fl R 4s Priv	N 40 42' 03.820"	W 073 00' 17.550"	40.70106	-73.00488	LNM 31/16, 1st Dist	695	12352_2	8/11/2016
12352	Relocate	WATCH HILL CHANNEL LTD BUOY 6	R "6" Fl R 4s Priv	N 40 41' 55.000"	W 072 59' 53.210"	40.69861	-72.99812	LNM 31/16, 1st Dist	695	12352_2	8/11/2016
12352	Relocate	WATCH HILL CHANNEL LTD BUOY 7	G "7" Fl G 4s Priv	N 40 41' 48.500"	W 072 59' 32.820"	40.6968	-72.99245	LNM 31/16, 1st Dist	695	12352_2	8/11/2016
12352	Relocate	WATCH HILL CHANNEL LTD BUOY 8	R "8" Fl R 4s Priv	N 40 41' 47.720"	W 072 59' 33.710"	40.69659	-72.9927	LNM 31/16, 1st Dist	695	12352_2	8/11/2016
12352	Add	BELLPORT BEACH CHANNEL BUOY 16	R N "16" Priv	N 40 43' 09.180"	W 072 55' 36.180"	40.71922	-72.92672	LNM 31/16, 1st Dist	695	12352_2	8/11/2016
12352	Add	BELLPORT BEACH CHANNEL BUOY 18	R N "18" Priv	N 40 43' 04.260"	W 072 55' 35.520"	40.71785	-72.92654	LNM 31/16, 1st Dist	695	12352_2	8/11/2016
12352	Relocate	WATCH HILL CHANNEL LTD BUOY 1	G "1" Fl G 4s Priv	N 40 42' 11.700"	W 073 00' 35.800"	40.70325	-73.00994	LNM 31/16, 1st Dist	695	12352_2	8/11/2016
12352	Relocate	WATCH HILL CHANNEL LTD BUOY 5	G "5" Fl G 2s Priv	N 40 41' 56.120"	W 072 59' 53.200"	40.69892	-72.99811	LNM 31/16, 1st Dist	695	12352_2	8/11/2016
12352	Relocate	BELLPORT BEACH CHANNEL BUOY 13	G C "13" Priv	N 40 43' 15.660"	W 072 55' 35.800"	40.72102	-72.92661	LNM 30/16, 1st Dist	695	12352_2	8/4/2016
12352	Relocate	BELLPORT BEACH CHANNEL BUOY 14	R N "14" Priv	N 40 43' 13.860"	W 072 55' 37.140"	40.72052	-72.92699	LNM 30/16, 1st Dist	695	12352_2	8/4/2016
12352	Change	BELLPORT BEACH CHANNEL BUOY 17	G C "17" Priv	N 40 43' 05.460"	W 072 55' 34.380"	40.71818	-72.92622	LNM 30/16, 1st Dist	695	12352_2	8/4/2016
12352	Relocate	BELLPORT BEACH CHANNEL BUOY 17	G C "17" Priv	N 40 43' 05.460"	W 072 55' 34.380"	40.71818	-72.92622	LNM 30/16, 1st Dist	695	12352_2	8/4/2016
12352	Relocate	BELLPORT BEACH CHANNEL BUOY 2	R N "2" Priv	N 40 43' 56.760"	W 072 55' 45.900"	40.73243	-72.92942	LNM 30/16, 1st Dist	695	12352_2	8/4/2016
12352	Relocate	BELLPORT BEACH CHANNEL BUOY 5	G C "5" Priv	N 40 43' 43.740"	W 072 55' 41.340"	40.72882	-72.92815	LNM 30/16, 1st Dist	695	12352_2	8/4/2016
12352	Relocate	BELLPORT BEACH CHANNEL BUOY 7	G C "7" Priv	N 40 43' 32.700"	W 072 55' 39.360"	40.72575	-72.9276	LNM 30/16, 1st Dist	695	12352_2	8/4/2016
12352	Relocate	BELLPORT BEACH CHANNEL BUOY 8	R N "8" Priv	N 40 43' 25.500"	W 072 55' 39.540"	40.72375	-72.92765	LNM 30/16, 1st Dist	695	12352_2	8/4/2016
12352	Relocate	BELLPORT BEACH CHANNEL BUOY 9	G C "9" Priv	N 40 43' 25.860"	W 072 55' 37.860"	40.72385	-72.92719	LNM 30/16, 1st Dist	695	12352_2	8/4/2016
12352	Relocate	BELLPORT BEACH CHANNEL BUOY 10	R N "10" Priv	N 40 43' 21.360"	W 072 55' 38.400"	40.7226	-72.92733	LNM 30/16, 1st Dist	695	12352_2	8/4/2016
12352	Change	BELLPORT BEACH CHANNEL BUOY 10	R N "10" Priv	N 40 43' 21.360"	W 072 55' 38.400"	40.7226	-72.92733	LNM 30/16, 1st Dist	695	12352_2	8/4/2016
12352	Relocate	BELLPORT BEACH CHANNEL BUOY 1	G C "1" Priv	N 40 43' 56.880"	W 072 55' 43.560"	40.73247	-72.92876	LNM 30/16, 1st Dist	695	12352_2	8/4/2016
12352	Relocate	BELLPORT BEACH CHANNEL BUOY 3	G C "3" Priv	N 40 43' 49.260"	W 072 55' 42.300"	40.73035	-72.92841	LNM 30/16, 1st Dist	695	12352_2	8/4/2016
12352	Relocate	BELLPORT BEACH CHANNEL BUOY 4	R N "4" Priv	N 40 43' 48.660"	W 072 55' 44.460"	40.73018	-72.92902	LNM 30/16, 1st Dist	695	12352_2	8/4/2016
12352	Relocate	BELLPORT BEACH CHANNEL BUOY 6	R N "6" Priv	N 40 43' 37.800"	W 072 55' 41.220"	40.72717	-72.92812	LNM 30/16, 1st Dist	695	12352_2	8/4/2016
12352	Relocate	BELLPORT BEACH CHANNEL BUOY 11	G C "11" Priv	N 40 43' 21.240"	W 072 55' 37.260"	40.72257	-72.92702	LNM 30/16, 1st Dist	695	12352_2	8/4/2016
12352	Relocate	BELLPORT BEACH CHANNEL BUOY 2	R N "2" Priv	N 40 43' 56.400"	W 072 55' 46.600"	40.73233	-72.92961	LNM 28/16, 1st Dist	695	12352_2	7/21/2016
12352	Relocate	SEA DOG CREEK BUOY SD3	G C "SD3" Priv	N 40 35' 44.880"	W 073 35' 26.880"	40.5958	-73.5908	LNM 24/16, 1st Dist	698	12352_5	6/23/2016
12352	Relocate	BROAD CHANNEL BUOY B4	R N "B4" Priv	N 40 35' 45.060"	W 073 41' 03.480"	40.59585	-73.6843	LNM 19/16, 1st Dist	699	12352_6	5/19/2016
12352	Relocate	Haunts Creek Buoy R6	R N "R6" Priv	N 40 36' 27.660"	W 073 31' 25.920"	40.60769	-73.52386	LNM 19/16, 1st Dist	698	12352_5	5/19/2016
12352	Delete	CARMAN CREEK DBN D12	R "D12" Priv	N 40 39' 22.000"	W 073 25' 50.000"	40.65611	-73.43056	LNM 15/16, 1st Dist	696	12352_3	4/21/2016
12352	Delete	CARMAN CREEK DBN D16	R "D16" Priv	N 40 39' 27.000"	W 073 25' 54.000"	40.6575	-73.43166	LNM 15/16, 1st Dist	696	12352_3	4/21/2016
12352	Delete	magenta Note - CAUTION: Fixed and floating obstructions	 CAUTION: Fixed and floating obstructions, some submerged, may exist within the magenta tinted bridge construction area. Mariners are advised to proceed with caution.	N 40 39' 52.930"	W 073 33' 30.960"	40.6647	-73.5586	LNM 15/16, 1st Dist	697	12352_4	4/7/2016
12352	Add	Fixed Bridge	None	N 40 37' 24.890"	W 073 30' 05.620"	40.62358	-73.50156	LNM 15/16, 1st Dist	697	12352_4	4/7/2016
12352	Add	Fixed Bridge Label	WANTAGH PARKWAY FIXED BRIDGE HOR CL 51 FT VERT CL 16 FT	N 40 37' 32.840"	W 073 30' 06.110"	40.62579	-73.50169	LNM 15/16, 1st Dist	697	12352_4	4/7/2016
12352	Delete	Bridge Construction	None	N 40 37' 24.890"	W 073 30' 05.620"	40.62358	-73.50156	LNM 15/16, 1st Dist	697	12352_4	4/7/2016
12352	Delete	Bridge Construction Label	Bridge under construction (see note)	N 40 37' 32.840"	W 073 30' 06.110"	40.62579	-73.50169	LNM 15/16, 1st Dist	697	12352_4	4/7/2016
12352	Relocate	DICKERSON CHANNEL BUOY 3	G C "3"	N 40 40' 03.393"	W 073 14' 38.435"	40.66761	-73.24401	LNM 12/16, 1st Dist	696	12352_3	3/31/2016
12352	Relocate	SHINNECOCK BAY BUOY 10	R N "10"	N 40 50' 33.429"	W 072 32' 25.839"	40.84262	-72.54051	LNM 12/16, 1st Dist	694	12352_1	3/31/2016
12352	Relocate	STATE BOAT CHANNEL BUOY 75	G C "75"	N 40 38' 39.958"	W 073 16' 32.382"	40.64443	-73.27567	LNM 12/16, 1st Dist	696	12352_3	3/31/2016
12352	Relocate	STATE BOAT CHANNEL BUOY 76	R N "76"	N 40 38' 34.954"	W 073 15' 56.391"	40.64304	-73.26566	LNM 12/16, 1st Dist	696	12352_3	3/31/2016
12352	Relocate	STATE BOAT CHANNEL BUOY 86	R N "86"	N 40 38' 31.353"	W 073 14' 46.853"	40.64204	-73.24635	LNM 11/16, 1st Dist	696	12352_3	3/24/2016
12353	Delete	USGS RESEARCH LTD BUOY W	Y "W" Fl Y 4s Priv	N 40 35' 04.210"	W 073 06' 24.220"	40.5845	-73.10673	LNM 08/16, 1st Dist	701	12353_1	3/3/2016
12353	Relocate	MORICHES INLET APPROACH LTD WHISTLE BUOY M	RW "M" Mo (A) WHIS AIS	N 40 44' 07.858"	W 072 45' 11.860"	40.73552	-72.7533	LNM 41/15, 1st Dist	701	12353_1	10/22/2015
12353	Change	MORICHES INLET APPROACH LTD WHISTLE BUOY M	RW "M" Mo (A) WHIS AIS	N 40 44' 07.858"	W 072 45' 11.860"	40.73552	-72.7533	LNM 41/15, 1st Dist	701	12353_1	10/22/2015
12353	Change	SHINNECOCK INLET APPROACH LTD WHISTLE BUOY SH	RW "SH" Mo (A) WHIS  AIS	N 40 49' 00.161"	W 072 28' 34.519"	40.81671	-72.47626	LNM 41/15, 1st Dist	701	12353_1	10/22/2015
12353	Add	Natural and Approximate shoreline PT 1 OF 6	None	N 40 42' 39.120"	W 072 55' 42.110"	40.71087	-72.92837	LNM 38/15, 1st Dist	701	12353_1	9/17/2015
12353	Add	Natural and Approximate shoreline PT 2 OF 6	None	N 40 43' 14.330"	W 072 54' 10.660"	40.72065	-72.90296	LNM 38/15, 1st Dist	701	12353_1	9/17/2015
12353	Add	Natural and Approximate shoreline PT 3 OF 6	None	N 40 43' 24.310"	W 072 53' 58.450"	40.72342	-72.89957	LNM 38/15, 1st Dist	701	12353_1	9/17/2015
12353	Add	Natural and Approximate shoreline PT 4 OF 6	None	N 40 43' 40.420"	W 072 52' 36.600"	40.72789	-72.87683	LNM 38/15, 1st Dist	701	12353_1	9/17/2015
12353	Add	Natural and Approximate shoreline PT 5 OF 6	None	N 40 43' 24.050"	W 072 53' 37.120"	40.72335	-72.89365	LNM 38/15, 1st Dist	701	12353_1	9/17/2015
12353	Add	Natural and Approximate shoreline PT 6 OF 6	None	N 40 43' 28.120"	W 072 53' 46.730"	40.72448	-72.89632	LNM 38/15, 1st Dist	701	12353_1	9/17/2015
12353	Delete	Natural shoreline PT 1 OF 4	None	N 40 42' 39.120"	W 072 55' 42.110"	40.71087	-72.92837	LNM 38/15, 1st Dist	701	12353_1	9/17/2015
12353	Delete	Natural shoreline PT 2 OF 4	None	N 40 43' 40.420"	W 072 52' 36.600"	40.72789	-72.87683	LNM 38/15, 1st Dist	701	12353_1	9/17/2015
12353	Delete	Natural shoreline PT 3 OF 4	None	N 40 43' 24.310"	W 072 53' 58.450"	40.72342	-72.89957	LNM 38/15, 1st Dist	701	12353_1	9/17/2015
12353	Delete	Natural shoreline PT 4 OF 4	None	N 40 43' 28.120"	W 072 53' 46.730"	40.72448	-72.89632	LNM 38/15, 1st Dist	701	12353_1	9/17/2015
12353	Add	USGS Research Lighted Buoy W	Y "W" FI Y 4s Priv	N 40 35' 04.210"	W 073 06' 24.220"	40.5845	-73.10673	LNM 29/15, 1st Dist	701	12353_1	8/6/2015
12353	Change	Shinnecock Inlet Breakwater Light 2	Fl R 2.5s 36ft 4M "2"	N 40 50' 17.952"	W 072 28' 29.010"	40.83832	-72.47472	LNM 06/14, 1st Dist	701	12353_1	2/20/2014
12353	Change	Shinnecock Inlet Breakwater Light 1	Fl G 2.5s 36ft 4M "1"	N 40 50' 23.490"	W 072 28' 40.122"	40.83986	-72.47781	LNM 06/14, 1st Dist	701	12353_1	2/20/2014
12353	Delete	Sounding in Feet	37	N 40 45' 41.210"	W 072 43' 38.040"	40.76145	-72.72723	LNM 48/13, 1st Dist	701	12353_1	11/21/2013
12353	Add	Wreck in Feet	34 Wk      Chart No. 1: K26	N 40 45' 39.800"	W 072 43' 45.600"	40.76105	-72.72933	LNM 48/13, 1st Dist	701	12353_1	11/21/2013
12353	Delete	Nantucket Traffic Lane Lighted Whistle Buoy NA	Y "NA" Fl Y 6s WHIS	N 40 25' 42.372"	W 073 11' 28.419"	40.42844	-73.19123	LNM 03/13, 1st Dist	701	12353_1	1/31/2013
12353	Delete	Nantucket Traffic Lane Lighted Whistle Buoy NA Racon	RACON (- .)	N 40 25' 42.372"	W 073 11' 28.419"	40.42844	-73.19123	LNM 03/13, 1st Dist	701	12353_1	1/31/2013
12353	Add	HURRICANES AND TROPICAL STORMS:	Hurricanes, tropical storms and other major storms may cause considerable damage to marine structures, aids to navigation and moored vessels, resulting in submerged debris in unknown locations.  Charted soundings, channel depths and shoreline may not reflect actual conditions following these storms. Fixed aids to navigation may have been damaged or destroyed. Buoys may have been moved from their charted positions, damaged, sunk, extinguished or otherwise made inoperative. Mariners should not rely upon the position or operation of an aid to navigation. Wrecks and submerged obstructions may have been displaced from charted locations. Pipelines may have become uncovered or moved.  Mariners are urged to exercise extreme caution and are requested to report aids to navigation discrepancies and hazards to navigation to the nearest United States Coast Guard unit.	N 40 45' 44.000"	W 073 14' 09.000"	40.76222	-73.23583	LNM 50/12, 1st Dist	701	12353_1	12/6/2012
12353	Add	Accurate Landmark	TANK    (Chart No. 1: E32)	N 40 38' 55.790"	W 073 09' 16.220"	40.64883	-73.1545	LNM 42/12, 1st Dist	701	12353_1	10/15/2012
12353	Add	Accurate Landmark	TANK    (Chart No. 1: E32)	N 40 43' 56.310"	W 073 13' 59.480"	40.73231	-73.23319	LNM 42/12, 1st Dist	701	12353_1	10/15/2012
12353	Delete	Accurate Landmark	FLAG TOWER    (Chart No. 1: E27)	N 40 42' 42.000"	W 072 55' 42.000"	40.71167	-72.92834	LNM 42/12, 1st Dist	701	12353_1	10/15/2012
12353	Delete	Accurate Landmark	FLAG TOWER    (Chart No. 1: E27)	N 40 39' 47.000"	W 073 04' 26.000"	40.66306	-73.07389	LNM 42/12, 1st Dist	701	12353_1	10/15/2012
12353	Delete	Accurate Landmark	TANK    (Chart No. 1: E32)	N 40 44' 14.000"	W 073 11' 35.000"	40.73722	-73.19305	LNM 42/12, 1st Dist	701	12353_1	10/15/2012
12353	Delete	Accurate Landmark	W GAB    (Chart No. 1: Ei)	N 40 39' 34.000"	W 073 05' 25.000"	40.65944	-73.09028	LNM 42/12, 1st Dist	701	12353_1	10/15/2012
12353	Relocate	Shinnecock Inlet Breakwater Light 2A	Fl R 2.5s 36ft 4M "2A"	N 40 50' 17.952"	W 072 28' 29.010"	40.83832	-72.47472	LNM 11/12, 1st Dist	701	12353_1	3/19/2012
12354	Add	GAIERGY AQUACULTURE PLATFORM LT A	Fl Y 4s "A" Priv	N 41 01' 45.329"	W 072 21' 47.732"	41.02926	-72.36326	LNM 24/17, 1st Dist	2221	12354_1	6/22/2017
12354	Change	WEST ROBINS OYSTER AQUACULTURE BUOY A	Y C "A" Priv	N 40 58' 10.429"	W 072 28' 44.515"	40.96956	-72.47903	LNM 19/17, 1st Dist	2221	12354_1	5/18/2017
12354	Change	WEST ROBINS OYSTER AQUACULTURE BUOY B	Y C "B" Priv	N 40 58' 16.276"	W 072 28' 36.742"	40.97119	-72.47688	LNM 19/17, 1st Dist	2221	12354_1	5/18/2017
12354	Change	WEST ROBINS OYSTER AQUACULTURE BUOY C	Y C "C" Priv	N 40 58' 05.755"	W 072 28' 22.969"	40.96827	-72.47305	LNM 19/17, 1st Dist	2221	12354_1	5/18/2017
12354	Change	WEST ROBINS OYSTER AQUACULTURE BUOY D	Y C "D" Priv	N 40 57' 59.909"	W 072 28' 30.741"	40.96664	-72.4752	LNM 19/17, 1st Dist	2221	12354_1	5/18/2017
12354	Add	MARAN AQUACULTURE POUND TRAP LT A	Fl Y 2s "A" Priv	N 40 55' 48.680"	W 072 27' 00.330"	40.93019	-72.45009	LNM 18/17, 1st Dist	2221	12354_1	5/11/2017
12354	Add	PORT JEFFERSON FRL	Q R 30ft	N 40 56' 52.207"	W 073 04' 19.127"	40.94783	-73.07198	LNM 11/17, 1st Dist	2221	12354_1	3/23/2017
12354	Change	PORT JEFFERSON REAR RANGE LIGHT	F 43ft	N 40 56' 47.401"	W 073 04' 14.893"	40.9465	-73.0708	LNM 10/17, 1st Dist	2221	12354_1	3/23/2017
12358	Add	GAIERGY AQUACULTURE PLATFORM LT A	Fl Y 4s "A" Priv	N 41 01' 45.329"	W 072 21' 47.732"	41.02926	-72.36326	LNM 24/17, 1st Dist	2219	12358_1	6/22/2017
12358	Change	WEST ROBINS OYSTER AQUACULTURE BUOY A	Y C "A" Priv	N 40 58' 10.429"	W 072 28' 44.515"	40.96956	-72.47903	LNM 19/17, 1st Dist	2219	12358_1	5/18/2017
12358	Change	WEST ROBINS OYSTER AQUACULTURE BUOY B	Y C "B" Priv	N 40 58' 16.276"	W 072 28' 36.742"	40.97119	-72.47688	LNM 19/17, 1st Dist	2219	12358_1	5/18/2017
12358	Change	WEST ROBINS OYSTER AQUACULTURE BUOY C	Y C "C" Priv	N 40 58' 05.755"	W 072 28' 22.969"	40.96827	-72.47305	LNM 19/17, 1st Dist	2219	12358_1	5/18/2017
12358	Change	WEST ROBINS OYSTER AQUACULTURE BUOY D	Y C "D" Priv	N 40 57' 59.909"	W 072 28' 30.741"	40.96664	-72.4752	LNM 19/17, 1st Dist	2219	12358_1	5/18/2017
12358	Add	MARAN AQUACULTURE POUND TRAP LT A	Fl Y 2s "A" Priv	N 40 55' 48.680"	W 072 27' 00.330"	40.93019	-72.45009	LNM 18/17, 1st Dist	2219	12358_1	5/11/2017
12362	Add	MOUNT SINAI HARBOR BUOY 1A	G C "1A" Priv	N 40 57' 46.000"	W 073 02' 30.100"	40.96278	-73.04169	LNM 24/17, 1st Dist	2215	12362_1	6/22/2017
12362	Add	PORT JEFFERSON FRL	Q R 30ft	N 40 56' 52.207"	W 073 04' 19.127"	40.94783	-73.07198	LNM 11/17, 1st Dist	2215	12362_1	3/23/2017
12362	Change	PORT JEFFERSON REAR RANGE LIGHT	F 43ft	N 40 56' 47.401"	W 073 04' 14.893"	40.9465	-73.0708	LNM 10/17, 1st Dist	2215	12362_1	3/23/2017
12363	Change	EATONS NECK LIGHT	F 144ft 14M	N 40 57' 14.400"	W 073 23' 43.400"	40.954	-73.39539	LNM 10/17, 1st Dist	2214	12363_1	3/23/2017
12363	Add	Disposal Area PT 1 OF 4	Disposal Area	N 41 00' 06.000"	W 073 29' 48.000"	41.00167	-73.49667	LNM 38/16, 1st Dist	2214	12363_1	9/15/2016
12363	Add	Disposal Area PT 2 OF 4	Disposal Area	N 41 00' 06.000"	W 073 28' 06.000"	41.00167	-73.46833	LNM 38/16, 1st Dist	2214	12363_1	9/15/2016
12363	Add	Disposal Area PT 3 OF 4	Disposal Area	N 40 58' 54.000"	W 073 29' 48.000"	40.98167	-73.49667	LNM 38/16, 1st Dist	2214	12363_1	9/15/2016
12363	Add	Disposal Area PT 4 OF 4	Disposal Area	N 40 58' 54.000"	W 073 28' 06.000"	40.98167	-73.46833	LNM 38/16, 1st Dist	2214	12363_1	9/15/2016
12363	Delete	Disposal Area PT 1 OF 4	Disposal Area	N 41 00' 00.400"	W 073 29' 30.000"	41.00011	-73.49167	LNM 38/16, 1st Dist	2214	12363_1	9/15/2016
12363	Delete	Disposal Area PT 2 OF 4	Disposal Area	N 40 58' 48.000"	W 073 29' 30.000"	40.98	-73.49167	LNM 38/16, 1st Dist	2214	12363_1	9/15/2016
12363	Delete	Disposal Area PT 3 OF 4	Disposal Area	N 40 58' 48.000"	W 073 27' 48.000"	40.98	-73.46333	LNM 38/16, 1st Dist	2214	12363_1	9/15/2016
12363	Delete	Disposal Area PT 4 OF 4	Disposal Area	N 41 00' 00.400"	W 073 27' 48.000"	41.00011	-73.46333	LNM 38/16, 1st Dist	2214	12363_1	9/15/2016
12363	Relocate	STONY BROOK HARBOR APPROACH CHANNEL LTD BUOY 3	G "3" Fl G 4s Priv	N 40 56' 15.960"	W 073 09' 27.660"	40.93777	-73.15768	LNM 14/16, 1st Dist	2214	12363_1	4/14/2016
12363	Relocate	STONY BROOK HARBOR APPROACH CHANNEL LTD BUOY 5	G "5" Fl G 4s Priv	N 40 56' 13.080"	W 073 09' 12.780"	40.93697	-73.15355	LNM 14/16, 1st Dist	2214	12363_1	4/14/2016
12363	Relocate	STONY BROOK HARBOR APPROACH CHANNEL LTD BUOY 7	G "7" Fl G 4s Priv	N 40 56' 10.980"	W 073 08' 58.320"	40.93638	-73.14954	LNM 14/16, 1st Dist	2214	12363_1	4/14/2016
12363	Relocate	STONY BROOK HARBOR APPROACH CHANNEL LTD BUOY 9	G "9" Fl G 4s Priv	N 40 55' 57.300"	W 073 08' 48.540"	40.93258	-73.14682	LNM 14/16, 1st Dist	2214	12363_1	4/14/2016
12363	Relocate	STONY BROOK HARBOR APPROACH CHANNEL LTD BUOY 11	G "11" Fl G 4s Priv	N 40 55' 50.280"	W 073 08' 50.040"	40.93063	-73.14723	LNM 14/16, 1st Dist	2214	12363_1	4/14/2016
12363	Change	PORT JEFFERSON APPROACH LTD WHISTLE BUOY PJ	RW "PJ" Mo (A) WHIS  AIS	N 40 59' 16.354"	W 073 06' 26.686"	40.98788	-73.10741	LNM 41/15, 1st Dist	2214	12363_1	10/22/2015
12363	Change	BRIDGE HARBOR CHANNEL APPROACH LTD WHISTLE BUOY BH	RW "BH" Mo (A) WHIS  AIS	N 41 06' 14.450"	W 073 11' 44.101"	41.10402	-73.19559	LNM 41/15, 1st Dist	2214	12363_1	10/22/2015
12363	Add	Swing Bridge PT 1 OF 5	None	N 40 48' 14.400"	W 073 55' 41.500"	40.804	-73.92819	LNM 33/15, 1st Dist	2214	12363_1	8/13/2015
12363	Add	Swing Bridge PT 2 OF 5	None	N 40 48' 11.100"	W 073 55' 48.000"	40.80308	-73.93	LNM 33/15, 1st Dist	2214	12363_1	8/13/2015
12363	Add	Swing Bridge PT 3 OF 5	None	N 40 48' 14.500"	W 073 55' 39.500"	40.80403	-73.92764	LNM 33/15, 1st Dist	2214	12363_1	8/13/2015
12363	Add	Swing Bridge PT 4 OF 5	None	N 40 48' 10.700"	W 073 55' 46.900"	40.80297	-73.9297	LNM 33/15, 1st Dist	2214	12363_1	8/13/2015
12363	Add	Swing Bridge PT 5 OF 5	None	N 40 48' 10.200"	W 073 55' 47.500"	40.80283	-73.92986	LNM 33/15, 1st Dist	2214	12363_1	8/13/2015
12363	Relocate	STRATFORD POINT LIGHT	Fl (2) 20s 52ft 16M	N 41 09' 07.300"	W 073 06' 11.600"	41.15203	-73.10323	LNM 31/15, 1st Dist	2214	12363_1	8/13/2015
12363	Change	CENTRE ISLAND REEF BUOY 17	G C "17"	N 40 56' 18.610"	W 073 31' 57.909"	40.9385	-73.53275	LNM 19/15, 1st Dist	2214	12363_1	5/21/2015
12364	Add	MOUNT SINAI HARBOR BUOY 1A	G C "1A" Priv	N 40 57' 46.000"	W 073 02' 30.100"	40.96278	-73.04169	LNM 24/17, 1st Dist	2212	12364_21	6/22/2017
12364	Relocate	MILFORD HARBOR CHANNEL BUOY 8	R N "8"	N 41 12' 35.888"	W 073 02' 56.199"	41.20997	-73.04894	LNM 24/17, 1st Dist	2193	12364_2	6/22/2017
12364	Add	PORT JEFFERSON FRL	Q R 30ft	N 40 56' 52.207"	W 073 04' 19.127"	40.94783	-73.07198	LNM 11/17, 1st Dist	2213	12364_22	3/23/2017
12364	Add	PORT JEFFERSON FRL	Q R 30ft	N 40 56' 52.207"	W 073 04' 19.127"	40.94783	-73.07198	LNM 11/17, 1st Dist	2212	12364_21	3/23/2017
12364	Change	EATONS NECK LIGHT	F 144ft 14M	N 40 57' 14.400"	W 073 23' 43.400"	40.954	-73.39539	LNM 10/17, 1st Dist	2208	12364_17	3/23/2017
12364	Change	EATONS NECK LIGHT	F 144ft 14M	N 40 57' 14.400"	W 073 23' 43.400"	40.954	-73.39539	LNM 10/17, 1st Dist	2211	12364_20	3/23/2017
12364	Change	PORT JEFFERSON REAR RANGE LIGHT	F 43ft	N 40 56' 47.401"	W 073 04' 14.893"	40.9465	-73.0708	LNM 10/17, 1st Dist	2213	12364_22	3/23/2017
12364	Change	PORT JEFFERSON REAR RANGE LIGHT	F 43ft	N 40 56' 47.401"	W 073 04' 14.893"	40.9465	-73.0708	LNM 10/17, 1st Dist	2212	12364_21	3/23/2017
12364	Change	Overhead Power Cable Label	OVHD PWR CAB AUTH CL 57 FT	N 41 12' 18.850"	W 073 06' 36.240"	41.20523	-73.11007	LNM 51/16, 1st Dist	2192	12364_1	12/15/2016
12364	Change	Depth Legend - Milton Harbor	1 1/2 FT FOR MID-WIDTH OF 50 FT MAY 2016	N 40 56' 46.000"	W 073 41' 52.000"	40.94611	-73.69778	LNM 50/16, 7th Dist	2203	12364_12	12/8/2016
12364	Change	Depth Legend - Milton Harbor	1 FT MID 40 FT 2016	N 40 57' 27.500"	W 073 41' 30.500"	40.95764	-73.6918	LNM 50/16, 7th Dist	2203	12364_12	12/8/2016
12364	Change	Depth Legend - Milton Harbor	2 1/2 FT MID 40 FT 2016	N 40 57' 25.000"	W 073 41' 25.000"	40.95694	-73.69028	LNM 50/16, 7th Dist	2203	12364_12	12/8/2016
12364	Change	Depth Note - Glen Cove Creek	The controlling depths at MLLW were 3 1/2 feet for a mid-width of 50 feet to 4051'34.6"N, 7338'24.9"W; thence 8 feet for a mid-width of 40 feet to 4051'39.0"N, 7338'14.0"W; thence 1 foot for a mid-width of 40 feet to the end of the project. Jul 2016 	N 40 52' 45.000"	W 073 38' 27.000"	40.87917	-73.64083	LNM 49/16, 1st Dist	2204	12364_13	12/1/2016
12364	Add	note- CAUTION	CAUTION: Fixed and floating obstructions, some submerged, may exist within the magenta tinted bridge construction area. Mariners are advised to proceed with caution.	N 40 50' 01.100"	W 073 51' 14.100"	40.83364	-73.85392	LNM 43/16, 1st Dist	2204	12364_13	10/20/2016
12364	Change	Bridge Construction	Chart No. 1: D.d, with magenta screen extending 500 feet from bridge	N 40 51' 22.700"	W 073 47' 36.500"	40.8563	-73.79347	LNM 43/16, 1st Dist	2207	12364_16	10/20/2016
12364	Change	Bridge Construction	Chart No. 1: D.d, with magenta screen extending 500 feet from bridge	N 40 51' 22.700"	W 073 47' 36.500"	40.8563	-73.79347	LNM 43/16, 1st Dist	2204	12364_13	10/20/2016
12364	Add	note- CAUTION	CAUTION: Fixed and floating obstructions, some submerged, may exist within the magenta tinted bridge construction area. Mariners are advised to proceed with caution. 	N 40 52' 05.400"	W 073 47' 59.400"	40.86817	-73.79984	LNM 43/16, 1st Dist	2207	12364_16	10/20/2016
12364	Change	Bridge Construction Label	Bridge under construction (see note)	N 40 51' 22.700"	W 073 47' 36.500"	40.8563	-73.79347	LNM 43/16, 1st Dist	2207	12364_16	10/20/2016
12364	Change	Bridge Construction Label	Bridge under construction (see note)	N 40 51' 22.700"	W 073 47' 36.500"	40.8563	-73.79347	LNM 43/16, 1st Dist	2204	12364_13	10/20/2016
12364	Change	Depth Legend - MILFORD HARBOR, CT	4 1/2 FT JUL 2016	N 41 12' 55.000"	W 073 03' 15.000"	41.21528	-73.05417	LNM 41/16, 1st Dist	2193	12364_2	10/13/2016
12364	Change	Depth Legend - MILFORD HARBOR, CT	5 1/2 FT JUL 2016	N 41 12' 33.800"	W 073 02' 56.600"	41.20939	-73.04906	LNM 41/16, 1st Dist	2193	12364_2	10/13/2016
12364	Delete	Notation  : Shoal to bare	Shoal to bare	N 41 12' 37.310"	W 073 02' 55.740"	41.21037	-73.04881	LNM 41/16, 1st Dist	2193	12364_2	10/13/2016
12364	Change	Depth Legend -MILFORD HARBOR	5 FT 2016	N 41 12' 45.110"	W 073 03' 07.810"	41.21253	-73.05217	LNM 41/16, 1st Dist	2193	12364_2	10/13/2016
12364	Change	PINE CREEK PT LTD BUOYS (4)	Y "A" ("B") ("C") ("D") Fl Y 4s Priv	N 41 06' 49.200"	W 073 15' 14.000"	41.11367	-73.25389	LNM 39/16, 1st Dist	2199	12364_8	10/6/2016
12364	Add	mooring area label: Mooring Field	Mooring Field	N 41 00' 01.910"	W 073 37' 54.860"	41.00053	-73.6319	LNM 40/16, 1st Dist	2202	12364_11	9/29/2016
12364	Add	mooring area PT 1 OF 9	None	N 41 00' 12.180"	W 073 37' 57.420"	41.00338	-73.63261	LNM 40/16, 1st Dist	2202	12364_11	9/29/2016
12364	Add	mooring area PT 1 OF 9	None	N 41 00' 12.180"	W 073 37' 57.420"	41.00338	-73.63261	LNM 40/16, 1st Dist	2204	12364_13	9/29/2016
12364	Add	mooring area PT 2 OF 9	None	N 41 00' 12.240"	W 073 37' 53.820"	41.0034	-73.63161	LNM 40/16, 1st Dist	2202	12364_11	9/29/2016
12364	Add	mooring area PT 2 OF 9	None	N 41 00' 12.240"	W 073 37' 53.820"	41.0034	-73.63161	LNM 40/16, 1st Dist	2204	12364_13	9/29/2016
12364	Add	mooring area PT 3 OF 9	None	N 41 00' 01.620"	W 073 37' 43.740"	41.00045	-73.62881	LNM 40/16, 1st Dist	2202	12364_11	9/29/2016
12364	Add	mooring area PT 3 OF 9	None	N 41 00' 01.620"	W 073 37' 43.740"	41.00045	-73.62881	LNM 40/16, 1st Dist	2204	12364_13	9/29/2016
12364	Add	mooring area PT 4 OF 9	None	N 40 59' 55.440"	W 073 37' 54.720"	40.99873	-73.63187	LNM 40/16, 1st Dist	2202	12364_11	9/29/2016
12364	Add	mooring area PT 4 OF 9	None	N 40 59' 55.440"	W 073 37' 54.720"	40.99873	-73.63187	LNM 40/16, 1st Dist	2204	12364_13	9/29/2016
12364	Add	mooring area PT 5 OF 9	None	N 40 59' 55.320"	W 073 38' 10.200"	40.9987	-73.63617	LNM 40/16, 1st Dist	2202	12364_11	9/29/2016
12364	Add	mooring area PT 5 OF 9	None	N 40 59' 55.320"	W 073 38' 10.200"	40.9987	-73.63617	LNM 40/16, 1st Dist	2204	12364_13	9/29/2016
12364	Add	mooring area PT 6 OF 9	None	N 41 00' 00.300"	W 073 38' 10.260"	41.00008	-73.63618	LNM 40/16, 1st Dist	2202	12364_11	9/29/2016
12364	Add	mooring area PT 6 OF 9	None	N 41 00' 00.300"	W 073 38' 10.260"	41.00008	-73.63618	LNM 40/16, 1st Dist	2204	12364_13	9/29/2016
12364	Add	mooring area PT 7 OF 9	None	N 41 00' 05.880"	W 073 38' 07.560"	41.00163	-73.63544	LNM 40/16, 1st Dist	2202	12364_11	9/29/2016
12364	Add	mooring area PT 7 OF 9	None	N 41 00' 05.880"	W 073 38' 07.560"	41.00163	-73.63544	LNM 40/16, 1st Dist	2204	12364_13	9/29/2016
12364	Add	mooring area PT 8 OF 9	None	N 41 00' 08.760"	W 073 38' 01.920"	41.00243	-73.63387	LNM 40/16, 1st Dist	2202	12364_11	9/29/2016
12364	Add	mooring area PT 8 OF 9	None	N 41 00' 08.760"	W 073 38' 01.920"	41.00243	-73.63387	LNM 40/16, 1st Dist	2204	12364_13	9/29/2016
12364	Add	mooring area PT 9 OF 9	None	N 41 00' 08.100"	W 073 38' 00.300"	41.00225	-73.63342	LNM 40/16, 1st Dist	2202	12364_11	9/29/2016
12364	Add	mooring area PT 9 OF 9	None	N 41 00' 08.100"	W 073 38' 00.300"	41.00225	-73.63342	LNM 40/16, 1st Dist	2204	12364_13	9/29/2016
12364	Add	mooring area label: Mooring Field	Mooring Field	N 41 00' 04.420"	W 073 37' 59.510"	41.00123	-73.63319	LNM 40/16, 1st Dist	2204	12364_13	9/29/2016
12364	Relocate	SOUTHWEST LEDGE LIGHT	Fl R 5s 57ft 14M HORN	N 41 14' 03.700"	W 072 54' 43.800"	41.23436	-72.91217	LNM 37/16, 1st Dist	2192	12364_1	9/22/2016
12364	Delete	Disposal Area PT 1 OF 4	Disposal Area	N 40 59' 16.100"	W 073 29' 31.800"	40.9878	-73.49216	LNM 38/16, 1st Dist	2211	12364_20	9/15/2016
12364	Delete	Disposal Area PT 2 OF 4	Disposal Area	N 40 58' 48.000"	W 073 29' 31.800"	40.98	-73.49216	LNM 38/16, 1st Dist	2211	12364_20	9/15/2016
12364	Delete	Disposal Area PT 3 OF 4	Disposal Area	N 40 58' 48.000"	W 073 27' 49.100"	40.98	-73.46364	LNM 38/16, 1st Dist	2211	12364_20	9/15/2016
12364	Delete	Disposal Area PT 4 OF 4	Disposal Area	N 40 59' 47.400"	W 073 27' 49.100"	40.9965	-73.46364	LNM 38/16, 1st Dist	2211	12364_20	9/15/2016
12364	Add	Disposal Area PT 1 OF 4	Disposal Area	N 41 00' 06.000"	W 073 29' 48.000"	41.00167	-73.49667	LNM 38/16, 1st Dist	2199	12364_8	9/15/2016
12364	Add	Disposal Area PT 2 OF 4	Disposal Area	N 41 00' 06.000"	W 073 28' 06.000"	41.00167	-73.46833	LNM 38/16, 1st Dist	2199	12364_8	9/15/2016
12364	Add	Disposal Area PT 3 OF 4	Disposal Area	N 40 58' 54.000"	W 073 29' 48.000"	40.98167	-73.49667	LNM 38/16, 1st Dist	2199	12364_8	9/15/2016
12364	Add	Disposal Area PT 4 OF 4	Disposal Area	N 40 58' 54.000"	W 073 28' 06.000"	40.98167	-73.46833	LNM 38/16, 1st Dist	2199	12364_8	9/15/2016
12364	Add	Disposal Area PT 1 OF 4	Disposal Area	N 40 59' 11.200"	W 073 29' 48.000"	40.98644	-73.49667	LNM 38/16, 1st Dist	2211	12364_20	9/15/2016
12364	Add	Disposal Area PT 2 OF 4	Disposal Area	N 40 58' 54.000"	W 073 29' 48.000"	40.98167	-73.49667	LNM 38/16, 1st Dist	2211	12364_20	9/15/2016
12364	Add	Disposal Area PT 3 OF 4	Disposal Area	N 40 58' 54.000"	W 073 28' 06.000"	40.98167	-73.46833	LNM 38/16, 1st Dist	2211	12364_20	9/15/2016
12364	Add	Disposal Area PT 4 OF 4	Disposal Area	N 40 59' 42.300"	W 073 28' 06.000"	40.99508	-73.46833	LNM 38/16, 1st Dist	2211	12364_20	9/15/2016
12364	Delete	Disposal Area PT 1 OF 4	Disposal Area	N 41 00' 00.400"	W 073 29' 30.000"	41.00011	-73.49167	LNM 38/16, 1st Dist	2199	12364_8	9/15/2016
12364	Delete	Disposal Area PT 2 OF 4	Disposal Area	N 40 58' 48.000"	W 073 29' 30.000"	40.98	-73.49167	LNM 38/16, 1st Dist	2199	12364_8	9/15/2016
12364	Delete	Disposal Area PT 3 OF 4	Disposal Area	N 40 58' 48.000"	W 073 27' 48.000"	40.98	-73.46333	LNM 38/16, 1st Dist	2199	12364_8	9/15/2016
12364	Delete	Disposal Area PT 4 OF 4	Disposal Area	N 41 00' 00.400"	W 073 27' 48.000"	41.00011	-73.46333	LNM 38/16, 1st Dist	2199	12364_8	9/15/2016
12364	Delete	Magenta channel reach separator and label	I and MIDDLE REACH (Mid Width)	N 41 10' 53.400"	W 073 10' 24.900"	41.1815	-73.17358	LNM 38/16, 1st Dist	2192	12364_1	9/15/2016
12364	Change	depth note - BRIDGEPORT HARBOR	Controlling depths for project widths in feet at Mean Lower Low Water 3-16 A Bridgeport Entrance Channel 27.4 B Bridgeport Reach 21.7 Pequonnock River C Lower Reach 7.4 (Mid Width) D Upper Reach 8.7 (Mid Width) Johnsons Creek E Entrance Channel 6.0 F Newfield Reach 8.7 Yellow Mill Channel G Lower Reach 12.7 H Upper Reach 9.8 (Mid Width)	N 41 12' 14.800"	W 073 09' 25.400"	41.20411	-73.15706	LNM 38/16, 1st Dist	2192	12364_1	9/15/2016
12364	Change	depth legend - HOUSATONIC RIVER 	5 1/2 FT 2016	N 41 12' 29.700"	W 073 06' 37.200"	41.20825	-73.11034	LNM 37/16, 1st Dist	2192	12364_1	9/15/2016
12364	Change	depth legend - HOUSATONIC RIVER	6 1/2 FT FOR A WIDTH OF 200 FT FEB 2016	N 41 11' 00.400"	W 073 07' 22.700"	41.18344	-73.12297	LNM 37/16, 1st Dist	2195	12364_4	9/15/2016
12364	Change	depth legend - HOUSATONIC RIVER	15 FT FOR A WIDTH OF 200 FT FEB 2016	N 41 10' 15.200"	W 073 06' 41.500"	41.17089	-73.11153	LNM 37/16, 1st Dist	2195	12364_4	9/15/2016
12364	Change	depth legend - HOUSATONIC RIVER	7 1/2 FT MID 100 FT 2016	N 41 11' 30.000"	W 073 06' 50.700"	41.19167	-73.11408	LNM 37/16, 1st Dist	2195	12364_4	9/15/2016
12364	Change	depth legend - HOUSATONIC RIVER	7 1/2 FT MID 100 FT 2016	N 41 11' 30.000"	W 073 06' 50.700"	41.19167	-73.11408	LNM 37/16, 1st Dist	2192	12364_1	9/15/2016
12364	Change	depth legend - HOUSATONIC RIVER 	13 FT FEB 2016	N 41 09' 42.700"	W 073 05' 53.900"	41.16186	-73.0983	LNM 37/16, 1st Dist	2195	12364_4	9/15/2016
12364	Add	NORTHPORT BAY CHANNEL LTD NO WAKE BUOY B	W Or "B" Fl 4s Priv	N 40 54' 46.620"	W 073 24' 18.300"	40.91295	-73.40508	LNM 32/16, 1st Dist	2209	12364_18	8/18/2016
12364	Add	NORTHPORT BAY CHANNEL LTD NO WAKE BUOY B	W Or "B" Fl 4s Priv	N 40 54' 46.620"	W 073 24' 18.300"	40.91295	-73.40508	LNM 32/16, 1st Dist	2211	12364_20	8/18/2016
12364	Add	NORTHPORT BAY CHANNEL LTD NO WAKE BUOY A	W Or "A" Fl 4s Priv	N 40 54' 43.800"	W 073 21' 56.280"	40.91217	-73.36563	LNM 32/16, 1st Dist	2209	12364_18	8/18/2016
12364	Add	SAND CITY LTD NO WAKE BUOY H	W Or "H" Fl 4s Priv	N 40 54' 53.889"	W 073 24' 00.660"	40.91497	-73.40018	LNM 32/16, 1st Dist	2209	12364_18	8/18/2016
12364	Add	CENTERPORT HARBOR LTD NO WAKE BUOY A	W Or "A" Fl 4s Priv	N 40 54' 21.480"	W 073 22' 58.620"	40.90597	-73.38295	LNM 32/16, 1st Dist	2209	12364_18	8/18/2016
12364	Add	HUNTINGTON INLET LTD NO WAKE BUOY A	W Or "A" Fl 4s Priv	N 40 54' 41.160"	W 073 25' 48.960"	40.91143	-73.43027	LNM 32/16, 1st Dist	2209	12364_18	8/18/2016
12364	Add	HUNTINGTON INLET LTD NO WAKE BUOY A	W Or "A" Fl 4s Priv	N 40 54' 41.160"	W 073 25' 48.960"	40.91143	-73.43027	LNM 32/16, 1st Dist	2211	12364_20	8/18/2016
12364	Add	HUNTINGTON INLET LTD NO WAKE BUOY B	W Or "B" Fl 4s Priv	N 40 54' 38.220"	W 073 25' 44.640"	40.91062	-73.42907	LNM 32/16, 1st Dist	2209	12364_18	8/18/2016
12364	Add	HUNTINGTON INLET LTD NO WAKE BUOY B	W Or "B" Fl 4s Priv	N 40 54' 38.220"	W 073 25' 44.640"	40.91062	-73.42907	LNM 32/16, 1st Dist	2211	12364_20	8/18/2016
12364	Add	Obstruction	Obstn rep PA	N 41 04' 13.900"	W 073 23' 40.000"	41.07053	-73.39445	LNM 33/16, 1st Dist	2199	12364_8	8/11/2016
12364	Add	Unlighted Mooring Buoy	None	N 40 49' 27.660"	W 073 47' 22.200"	40.82435	-73.7895	LNM 32/16, 1st Dist	2207	12364_16	8/4/2016
12364	Add	Unlighted Mooring Buoy	None	N 40 49' 27.660"	W 073 47' 22.200"	40.82435	-73.7895	LNM 32/16, 1st Dist	2204	12364_13	8/4/2016
12364	Delete	Lighted Mooring Buoy	Fl 1s Priv	N 40 49' 27.660"	W 073 47' 22.200"	40.82435	-73.7895	LNM 32/16, 1st Dist	2207	12364_16	8/4/2016
12364	Delete	Lighted Mooring Buoy	Fl 1s Priv	N 40 49' 27.660"	W 073 47' 22.200"	40.82435	-73.7895	LNM 32/16, 1st Dist	2204	12364_13	8/4/2016
12364	Delete	Anchorage Area PT 1 OF 3	None	N 40 54' 54.700"	W 073 44' 53.300"	40.9152	-73.74814	LNM 30/16, 1st Dist	2204	12364_13	7/21/2016
12364	Delete	Anchorage Area PT 2 OF 3	None	N 40 54' 10.700"	W 073 45' 11.000"	40.90297	-73.75305	LNM 30/16, 1st Dist	2204	12364_13	7/21/2016
12364	Delete	Anchorage Area PT 3 OF 3	None	N 40 54' 25.700"	W 073 46' 01.800"	40.90714	-73.76717	LNM 30/16, 1st Dist	2204	12364_13	7/21/2016
12364	Delete	Anchorage Area label	GEN ANCH 110.155 (see note A)	N 40 54' 24.300"	W 073 45' 17.700"	40.90675	-73.75491	LNM 30/16, 1st Dist	2204	12364_13	7/21/2016
12364	Delete	Anchorage Area PT 1 OF 4	None	N 40 51' 58.500"	W 073 43' 50.000"	40.86625	-73.73055	LNM 30/16, 1st Dist	2204	12364_13	7/21/2016
12364	Delete	Anchorage Area PT 2 OF 4	None	N 40 52' 07.200"	W 073 44' 15.400"	40.86867	-73.73761	LNM 30/16, 1st Dist	2204	12364_13	7/21/2016
12364	Delete	Anchorage Area PT 3 OF 4	None	N 40 49' 28.100"	W 073 46' 29.300"	40.82447	-73.7748	LNM 30/16, 1st Dist	2204	12364_13	7/21/2016
12364	Delete	Anchorage Area PT 4 OF 4	None	N 40 49' 03.000"	W 073 45' 45.800"	40.8175	-73.76273	LNM 30/16, 1st Dist	2204	12364_13	7/21/2016
12364	Delete	Anchorage Area label	GEN ANCHORAGE 110.155 (see note A)	N 40 54' 02.800"	W 073 45' 39.100"	40.90078	-73.76086	LNM 30/16, 1st Dist	2206	12364_15	7/21/2016
12364	Delete	Anchorage Area PT 1 OF 3	None	N 40 54' 49.700"	W 073 44' 55.300"	40.91381	-73.7487	LNM 30/16, 1st Dist	2206	12364_15	7/21/2016
12364	Delete	Anchorage Area PT 2 OF 3	None	N 40 54' 10.700"	W 073 45' 11.000"	40.90297	-73.75305	LNM 30/16, 1st Dist	2206	12364_15	7/21/2016
12364	Delete	Anchorage Area PT 3 OF 3	None	N 40 54' 25.300"	W 073 46' 00.600"	40.90703	-73.76683	LNM 30/16, 1st Dist	2206	12364_15	7/21/2016
12364	Delete	Anchorage Area label	GEN ANCHORAGE 110.155 (see note A)	N 40 54' 18.500"	W 073 45' 20.800"	40.90514	-73.75578	LNM 30/16, 1st Dist	2206	12364_15	7/21/2016
12364	Delete	Anchorage Area label	GEN ANCH 110.155 (see note A)	N 40 53' 30.500"	W 073 45' 53.000"	40.8918	-73.76472	LNM 30/16, 1st Dist	2204	12364_13	7/21/2016
12364	Delete	Anchorage Area PT 1 OF 3	None	N 40 48' 27.800"	W 073 47' 30.200"	40.80772	-73.79173	LNM 30/16, 1st Dist	2204	12364_13	7/21/2016
12364	Delete	Anchorage Area PT 2 OF 3	None	N 40 48' 56.700"	W 073 47' 53.200"	40.81575	-73.79811	LNM 30/16, 1st Dist	2204	12364_13	7/21/2016
12364	Delete	Anchorage Area PT 3 OF 3	None	N 40 48' 57.200"	W 073 47' 52.600"	40.81589	-73.79794	LNM 30/16, 1st Dist	2204	12364_13	7/21/2016
12364	Delete	Anchorage Area PT 1 OF 2	None	N 40 48' 02.700"	W 073 49' 08.500"	40.80075	-73.81903	LNM 30/16, 1st Dist	2204	12364_13	7/21/2016
12364	Delete	Anchorage Area PT 2 OF 2	None	N 40 47' 42.900"	W 073 47' 05.600"	40.79525	-73.78489	LNM 30/16, 1st Dist	2204	12364_13	7/21/2016
12364	Delete	Anchorage Area label	GEN ANCH 110.155 (see note A)	N 40 47' 08.300"	W 073 47' 44.000"	40.78564	-73.79556	LNM 30/16, 1st Dist	2204	12364_13	7/21/2016
12364	Delete	Anchorage Area PT 1 OF 4	None	N 40 54' 24.900"	W 073 46' 00.700"	40.90692	-73.76686	LNM 30/16, 1st Dist	2206	12364_15	7/21/2016
12364	Delete	Anchorage Area PT 2 OF 4	None	N 40 54' 01.500"	W 073 45' 23.800"	40.90042	-73.75661	LNM 30/16, 1st Dist	2206	12364_15	7/21/2016
12364	Delete	Anchorage Area PT 3 OF 4	None	N 40 53' 29.500"	W 073 46' 05.800"	40.89153	-73.76828	LNM 30/16, 1st Dist	2206	12364_15	7/21/2016
12364	Delete	Anchorage Area PT 4 OF 4	None	N 40 53' 20.900"	W 073 46' 37.700"	40.88914	-73.77714	LNM 30/16, 1st Dist	2206	12364_15	7/21/2016
12364	Delete	Anchorage Area PT 2 OF 3	None	N 40 48' 56.600"	W 073 47' 52.900"	40.81572	-73.79803	LNM 30/16, 1st Dist	2207	12364_16	7/21/2016
12364	Delete	Anchorage Area PT 3 OF 3	None	N 40 48' 57.200"	W 073 47' 52.300"	40.81589	-73.79786	LNM 30/16, 1st Dist	2207	12364_16	7/21/2016
12364	Delete	Anchorage Area PT 1 OF 4	None	N 40 50' 21.600"	W 073 45' 44.800"	40.83933	-73.76244	LNM 30/16, 1st Dist	2207	12364_16	7/21/2016
12364	Delete	Anchorage Area PT 2 OF 4	None	N 40 49' 28.200"	W 073 46' 29.300"	40.8245	-73.7748	LNM 30/16, 1st Dist	2207	12364_16	7/21/2016
12364	Delete	Anchorage Area PT 3 OF 4	None	N 40 49' 18.600"	W 073 46' 12.800"	40.82183	-73.77023	LNM 30/16, 1st Dist	2207	12364_16	7/21/2016
12364	Delete	Anchorage Area PT 1 OF 4	None	N 40 54' 25.700"	W 073 46' 01.800"	40.90714	-73.76717	LNM 30/16, 1st Dist	2204	12364_13	7/21/2016
12364	Delete	Anchorage Area PT 2 OF 4	None	N 40 54' 01.500"	W 073 45' 23.800"	40.90042	-73.75661	LNM 30/16, 1st Dist	2204	12364_13	7/21/2016
12364	Delete	Anchorage Area PT 3 OF 4	None	N 40 53' 29.500"	W 073 46' 05.700"	40.89153	-73.76825	LNM 30/16, 1st Dist	2204	12364_13	7/21/2016
12364	Delete	Anchorage Area PT 4 OF 4	None	N 40 53' 20.800"	W 073 46' 37.700"	40.88911	-73.77714	LNM 30/16, 1st Dist	2204	12364_13	7/21/2016
12364	Delete	Anchorage Area label	GEN ANCHORAGE 110.155 (see note A)	N 40 49' 20.500"	W 073 45' 55.500"	40.82236	-73.76542	LNM 30/16, 1st Dist	2207	12364_16	7/21/2016
12364	Delete	Anchorage Area label	GENERAL ANCHORAGE 110.155 (see note A)	N 40 50' 28.800"	W 073 44' 29.400"	40.84133	-73.7415	LNM 30/16, 1st Dist	2204	12364_13	7/21/2016
12364	Delete	Anchorage Area PT 1 OF 3	None	N 40 48' 36.400"	W 073 47' 36.500"	40.81011	-73.79347	LNM 30/16, 1st Dist	2207	12364_16	7/21/2016
12364	Delete	Anchorage Area PT 4 OF 4	None	N 40 48' 36.700"	W 073 46' 19.600"	40.8102	-73.77211	LNM 30/16, 1st Dist	2207	12364_16	7/21/2016
12364	Add	MOUNT SINAI HARBOR LTD BUOY 1	G "1" Fl G 4s Priv	N 40 57' 46.400"	W 073 02' 35.000"	40.96289	-73.04305	LNM 26/16, 1st Dist	2212	12364_21	7/7/2016
12364	Relocate	DUCK CREEK JUNCTION BUOY	GR C Priv	N 41 06' 17.160"	W 073 22' 40.980"	41.10477	-73.37805	LNM 26/16, 1st Dist	2197	12364_6	7/7/2016
12364	Relocate	STONY BROOK HARBOR APPROACH CHANNEL LTD BUOY 3	G "3" Fl G 4s Priv	N 40 56' 15.960"	W 073 09' 27.660"	40.93777	-73.15768	LNM 14/16, 1st Dist	2212	12364_21	4/14/2016
12364	Relocate	STONY BROOK HARBOR APPROACH CHANNEL LTD BUOY 5	G "5" Fl G 4s Priv	N 40 56' 13.080"	W 073 09' 12.780"	40.93697	-73.15355	LNM 14/16, 1st Dist	2212	12364_21	4/14/2016
12364	Relocate	STONY BROOK HARBOR APPROACH CHANNEL LTD BUOY 7	G "7" Fl G 4s Priv	N 40 56' 10.980"	W 073 08' 58.320"	40.93638	-73.14954	LNM 14/16, 1st Dist	2212	12364_21	4/14/2016
12364	Relocate	STONY BROOK HARBOR APPROACH CHANNEL LTD BUOY 9	G "9" Fl G 4s Priv	N 40 55' 57.300"	W 073 08' 48.540"	40.93258	-73.14682	LNM 14/16, 1st Dist	2212	12364_21	4/14/2016
12364	Relocate	STONY BROOK HARBOR APPROACH CHANNEL LTD BUOY 11	G "11" Fl G 4s Priv	N 40 55' 50.280"	W 073 08' 50.040"	40.93063	-73.14723	LNM 14/16, 1st Dist	2212	12364_21	4/14/2016
12364	Relocate	PORPOISE CHANNEL BUOY 11	G C "11" Priv	N 40 55' 07.200"	W 073 09' 43.560"	40.91867	-73.1621	LNM 14/16, 1st Dist	2212	12364_21	4/14/2016
12364	Relocate	PORPOISE CHANNEL BUOY 13	G C "13" Priv	N 40 54' 56.940"	W 073 10' 11.580"	40.91582	-73.16988	LNM 14/16, 1st Dist	2212	12364_21	4/14/2016
12364	Relocate	PORPOISE CHANNEL BUOY 15	G C "15" Priv	N 40 54' 52.200"	W 073 10' 27.060"	40.9145	-73.17419	LNM 14/16, 1st Dist	2212	12364_21	4/14/2016
12364	Relocate	PORPOISE CHANNEL BUOY 3	G C "3" Priv	N 40 55' 28.380"	W 073 09' 04.920"	40.92455	-73.15137	LNM 14/16, 1st Dist	2212	12364_21	4/14/2016
12364	Relocate	PORPOISE CHANNEL BUOY 5	G C "5" Priv	N 40 55' 27.240"	W 073 09' 15.120"	40.92423	-73.1542	LNM 14/16, 1st Dist	2212	12364_21	4/14/2016
12364	Relocate	PORPOISE CHANNEL BUOY 7	G C "7" Priv	N 40 55' 25.620"	W 073 09' 17.760"	40.92378	-73.15493	LNM 14/16, 1st Dist	2212	12364_21	4/14/2016
12364	Relocate	PORPOISE CHANNEL BUOY 9	G C "9" Priv	N 40 55' 16.920"	W 073 09' 23.400"	40.92137	-73.1565	LNM 14/16, 1st Dist	2212	12364_21	4/14/2016
12364	Relocate	PORPOISE CHANNEL LTD BUOY 1	G "1" Fl G 4s Priv	N 40 55' 35.100"	W 073 08' 57.360"	40.92642	-73.14927	LNM 14/16, 1st Dist	2212	12364_21	4/14/2016
12364	Relocate	PORPOISE CHANNEL LTD BUOY 10	R "10" Fl R 4s Priv	N 40 55' 08.160"	W 073 09' 43.680"	40.91893	-73.16213	LNM 14/16, 1st Dist	2212	12364_21	4/14/2016
12364	Relocate	PORPOISE CHANNEL LTD BUOY 12	R "12" Fl R 4s Priv	N 40 54' 57.780"	W 073 10' 12.240"	40.91605	-73.17007	LNM 14/16, 1st Dist	2212	12364_21	4/14/2016
12364	Relocate	PORPOISE CHANNEL LTD BUOY 14	R "14" Fl R 4s Priv	N 40 54' 53.400"	W 073 10' 27.780"	40.91483	-73.17439	LNM 14/16, 1st Dist	2212	12364_21	4/14/2016
12364	Relocate	PORPOISE CHANNEL LTD BUOY 2	R "2" Fl R 4s Priv	N 40 55' 35.700"	W 073 08' 58.440"	40.92658	-73.14957	LNM 14/16, 1st Dist	2212	12364_21	4/14/2016
12364	Relocate	PORPOISE CHANNEL LTD BUOY 4	R "4" Fl R 4s Priv	N 40 55' 29.940"	W 073 09' 06.060"	40.92498	-73.15168	LNM 14/16, 1st Dist	2212	12364_21	4/14/2016
12364	Relocate	PORPOISE CHANNEL LTD BUOY 6	R "6" Fl R 4s Priv	N 40 55' 26.940"	W 073 09' 18.420"	40.92415	-73.15511	LNM 14/16, 1st Dist	2212	12364_21	4/14/2016
12364	Relocate	PORPOISE CHANNEL LTD BUOY 8	R "8" Fl R 4s Priv	N 40 55' 17.580"	W 073 09' 24.720"	40.92155	-73.15687	LNM 14/16, 1st Dist	2212	12364_21	4/14/2016
12364	Add	GOODWIVES RIVER MID-CHANNEL BUOY A	RW "A" Priv	N 41 02' 28.080"	W 073 29' 04.020"	41.04113	-73.48445	LNM 10/16, 1st Dist	2200	12364_9	3/17/2016
12364	Add	GOODWIVES RIVER MID-CHANNEL BUOY B	RW "B" Priv	N 41 02' 32.340"	W 073 29' 05.880"	41.04232	-73.48497	LNM 10/16, 1st Dist	2200	12364_9	3/17/2016
12364	Add	GOODWIVES RIVER MID-CHANNEL BUOY C	RW "C" Priv	N 41 02' 39.240"	W 073 29' 07.980"	41.04424	-73.48555	LNM 10/16, 1st Dist	2200	12364_9	3/17/2016
12364	Add	GOODWIVES RIVER MID-CHANNEL BUOY D	RW "D" Priv	N 41 02' 45.240"	W 073 29' 05.100"	41.0459	-73.48475	LNM 10/16, 1st Dist	2200	12364_9	3/17/2016
12364	Delete	NORTHPORT ENTRANCE LTD BUOY 1	G "1" F G Priv	N 40 55' 42.760"	W 073 20' 42.170"	40.92854	-73.34505	LNM 10/16, 1st Dist	2211	12364_20	3/17/2016
12364	Change	ASH CREEK LTD BUOY 1	G "1" Fl G 6s Priv	N 41 08' 25.020"	W 073 13' 48.180"	41.14028	-73.23005	LNM 51/15, 1st Dist	2196	12364_5	12/31/2015
12364	Change	ASH CREEK LTD BUOY 1	G "1" Fl G 6s Priv	N 41 08' 25.020"	W 073 13' 48.180"	41.14028	-73.23005	LNM 51/15, 1st Dist	2192	12364_1	12/31/2015
12364	Change	ASH CREEK LTD BUOY 2	R "2" Fl R 3s Priv	N 41 08' 25.860"	W 073 13' 47.820"	41.14052	-73.22995	LNM 51/15, 1st Dist	2196	12364_5	12/31/2015
12364	Change	ASH CREEK LTD BUOY 2	R "2" Fl R 3s Priv	N 41 08' 25.860"	W 073 13' 47.820"	41.14052	-73.22995	LNM 51/15, 1st Dist	2192	12364_1	12/31/2015
12364	Change	ASH CREEK LTD BUOY 3	G "3" Fl G 6s Priv	N 41 08' 27.720"	W 073 13' 51.840"	41.14103	-73.23106	LNM 51/15, 1st Dist	2196	12364_5	12/31/2015
12364	Change	ASH CREEK LTD BUOY 4	R "4" Fl R 3s Priv	N 41 08' 28.560"	W 073 13' 51.180"	41.14127	-73.23088	LNM 51/15, 1st Dist	2196	12364_5	12/31/2015
12364	Change	ASH CREEK LTD BUOY 5	G "5" Fl G 6s Priv	N 41 08' 31.380"	W 073 13' 56.460"	41.14205	-73.23235	LNM 51/15, 1st Dist	2196	12364_5	12/31/2015
12364	Change	ASH CREEK LTD BUOY 6	R "6" Fl R 3s Priv	N 41 08' 31.980"	W 073 13' 55.920"	41.14222	-73.2322	LNM 51/15, 1st Dist	2196	12364_5	12/31/2015
12364	Add	Sounding in Feet	3	N 40 50' 56.400"	W 073 48' 17.500"	40.849	-73.80486	LNM 50/15, 1st Dist	2207	12364_16	12/10/2015
12364	Add	Sounding in Feet	3	N 40 50' 56.400"	W 073 48' 17.500"	40.849	-73.80486	LNM 50/15, 1st Dist	2204	12364_13	12/10/2015
12364	Add	Sounding in Feet	5	N 40 50' 58.800"	W 073 48' 22.100"	40.84967	-73.80614	LNM 50/15, 1st Dist	2207	12364_16	12/10/2015
12364	Delete	Sounding in Feet	6	N 40 51' 00.400"	W 073 48' 23.400"	40.85011	-73.8065	LNM 50/15, 1st Dist	2207	12364_16	12/10/2015
12364	Delete	Sounding in Feet	7	N 40 50' 54.000"	W 073 48' 16.800"	40.84833	-73.80466	LNM 50/15, 1st Dist	2207	12364_16	12/10/2015
12364	Delete	Sounding in Feet	6	N 40 50' 57.300"	W 073 48' 15.400"	40.84925	-73.80428	LNM 50/15, 1st Dist	2204	12364_13	12/10/2015
12364	Change	Depth Note - HUTCHINSON RIVER	The controlling depths were 6 1/2 feet from the entrance to the Pelham Highway Bridge; thence 3 1/2 feet to the Hutchinson River Parkway Bridge; thence 3 feet in the middle half of the channel to the Boston Post Road Bridge; thence shoal to bare to the east and west "Y" junction. Jul 2015	N 40 51' 20.000"	W 073 50' 33.000"	40.85556	-73.8425	LNM 50/15, 1st Dist	2204	12364_13	12/10/2015
12364	Change	Depth Legend - Westcott Cove	4 1/2 FT FOR MID-WIDTH OF 50 FT AUG 2015	N 41 02' 24.000"	W 073 31' 17.500"	41.04	-73.52153	LNM 49/15, 1st Dist	2201	12364_10	12/10/2015
12364	Add	magenta channel reach separator PT 1 OF 2	None	N 41 02' 09.850"	W 073 31' 15.070"	41.03607	-73.52085	LNM 49/15, 1st Dist	2201	12364_10	12/10/2015
12364	Add	magenta channel reach separator PT 2 OF 2	None	N 41 02' 10.160"	W 073 31' 13.820"	41.03616	-73.52051	LNM 49/15, 1st Dist	2201	12364_10	12/10/2015
12364	Change	Depth Legend - Westcott Cove	7 FT FOR A WIDTH OF 90 FT AUG 2015	N 41 02' 01.000"	W 073 31' 09.000"	41.03361	-73.51917	LNM 49/15, 1st Dist	2201	12364_10	12/10/2015
12364	Change	Depth Legend - Greenwich Harbor	8 FT FOR A WIDTH OF 130 FT SEP 2015	N 41 00' 15.000"	W 073 37' 20.500"	41.00417	-73.62236	LNM 49/15, 1st Dist	2202	12364_11	12/3/2015
12364	Add	magenta channel reach separator PT 1 OF 2	None	N 41 00' 28.520"	W 073 37' 23.070"	41.00792	-73.62308	LNM 49/15, 1st Dist	2204	12364_13	12/3/2015
12364	Add	magenta channel reach separator PT 2 OF 2	None	N 41 00' 28.640"	W 073 37' 21.370"	41.00796	-73.6226	LNM 49/15, 1st Dist	2204	12364_13	12/3/2015
12364	Change	Depth Legend - Greenwich Harbor	8 FT 2015	N 41 00' 15.000"	W 073 37' 20.500"	41.00417	-73.62236	LNM 49/15, 1st Dist	2204	12364_13	12/3/2015
12364	Change	Depth Legend - Greenwich Harbor	7 FT 2015	N 41 00' 56.000"	W 073 37' 26.000"	41.01556	-73.62389	LNM 49/15, 1st Dist	2204	12364_13	12/3/2015
12364	Substitute	Sounding in Feet	2 for 5	N 41 01' 06.500"	W 073 37' 27.400"	41.01847	-73.62428	LNM 49/15, 1st Dist	2204	12364_13	12/3/2015
12364	Substitute	Sounding in Feet	1 for 2	N 41 01' 01.000"	W 073 37' 36.700"	41.01694	-73.62686	LNM 49/15, 1st Dist	2204	12364_13	12/3/2015
12364	Change	Depth Legend - Southport Harbor	9 FT FOR MID-WIDTH OF 50 FT AUG 2015	N 41 07' 34.500"	W 073 17' 16.200"	41.12625	-73.28783	LNM 49/15, 1st Dist	2199	12364_8	12/3/2015
12364	Change	Depth Legend - Southport Harbor	8 FT	N 41 07' 55.000"	W 073 16' 59.000"	41.13194	-73.28306	LNM 49/15, 1st Dist	2199	12364_8	12/3/2015
12364	Change	Depth Legend -PORT JEFFERSON HARBOR	24 1/2 FT FOR WIDTH OF 300 FT JUL 2015	N 40 57' 45.300"	W 073 05' 06.000"	40.96258	-73.085	LNM 46/15, 1st Dist	2213	12364_22	11/12/2015
12364	Change	PORT JEFFERSON APPROACH LTD WHISTLE BUOY PJ	RW "PJ" Mo (A) WHIS  AIS	N 40 59' 16.354"	W 073 06' 26.686"	40.98788	-73.10741	LNM 41/15, 1st Dist	2212	12364_21	10/22/2015
12364	Change	BRIDGE HARBOR CHANNEL APPROACH LTD WHISTLE BUOY BH	RW "BH" Mo (A) WHIS  AIS	N 41 06' 14.450"	W 073 11' 44.101"	41.10402	-73.19559	LNM 41/15, 1st Dist	2192	12364_1	10/22/2015
12364	Change	Depth Note - WESTCHESTER CREEK	The controlling depths at Mean Lower Low Water were 3 feet for a mid-width of 50 feet from the channel entrance to a point at 4048'40.6"N, 7350'38.7"W; thence 2 feet for a mid-width of 64 feet to a point at 4049'08.1"N, 7350'23.0"W; thence 5 1/2 feet for a mid-width of 48 feet to a point at 4049'46.7"N, 7350'33.9"W; thence 5 feet in the Turning Basin to a point at 4049'51.8"N, 7350'31.8"W; thence 5 feet for a mid-width of 48 feet to the end of the project. Apr 2015	N 40 50' 23.000"	W 073 51' 44.000"	40.83972	-73.86222	LNM 40/15, 1st Dist	2204	12364_13	10/1/2015
12364	Delete	Rocky Point Channel Buoy 1	G C "1" Priv	N 41 00' 51.840"	W 073 33' 31.680"	41.0144	-73.5588	LNM 36/15, 1st Dist	2199	12364_8	9/17/2015
12364	Delete	Rocky Point Channel Buoy 2	R N "2" Priv	N 41 00' 51.600"	W 073 33' 30.960"	41.01433	-73.5586	LNM 36/15, 1st Dist	2199	12364_8	9/17/2015
12364	Add	DANGEROUS WRECK	PA Rep (2015)	N 40 50' 48.723"	W 073 46' 47.593"	40.84687	-73.77988	LNM 32/15, 1st Dist	2207	12364_16	8/20/2015
12364	Add	DANGEROUS WRECK	PA Rep (2015)	N 40 50' 48.723"	W 073 46' 47.593"	40.84687	-73.77988	LNM 32/15, 1st Dist	2204	12364_13	8/20/2015
12364	Relocate	STRATFORD POINT LIGHT	Fl (2) 20s 52ft 16M	N 41 09' 07.300"	W 073 06' 11.600"	41.15203	-73.10323	LNM 31/15, 1st Dist	2195	12364_4	8/13/2015
12364	Relocate	STRATFORD POINT LIGHT	Fl (2) 20s 52ft 16M	N 41 09' 07.300"	W 073 06' 11.600"	41.15203	-73.10323	LNM 31/15, 1st Dist	2192	12364_1	8/13/2015
12364	Change	Depth Legend - West River Channel 	4 FT 2012	N 41 16' 48.500"	W 072 56' 17.000"	41.28014	-72.93806	LNM 32/15, 1st Dist	2192	12364_1	8/6/2015
12364	Change	depth legend - Mamaroneck Harbor, NY	9 FT JUN 2015	N 40 56' 19.300"	W 073 43' 08.000"	40.93869	-73.71889	LNM 30/15, 1st Dist	2203	12364_12	8/6/2015
12364	Change	depth legend - Mamaroneck Harbor, NY	7 1/2 FT 2015	N 40 56' 37.600"	W 073 43' 40.900"	40.94378	-73.72803	LNM 30/15, 1st Dist	2203	12364_12	8/6/2015
12364	Change	depth legend - Mamaroneck Harbor, NY	8 FT 2015	N 40 56' 37.700"	W 073 44' 07.900"	40.94381	-73.73553	LNM 30/15, 1st Dist	2203	12364_12	8/6/2015
12364	Change	depth legend - Mamaroneck Harbor, NY	9 FT 2015	N 40 56' 49.500"	W 073 43' 49.800"	40.94708	-73.7305	LNM 30/15, 1st Dist	2203	12364_12	8/6/2015
12364	Change	depth legend - Mamaroneck Harbor, NY	9 FT 2015	N 40 56' 27.300"	W 073 43' 26.700"	40.94092	-73.72408	LNM 30/15, 1st Dist	2203	12364_12	8/6/2015
12364	Change	depth legend - Mamaroneck Harbor, NY	8 FT 2015	N 40 56' 31.800"	W 073 43' 46.600"	40.94217	-73.72961	LNM 30/15, 1st Dist	2203	12364_12	8/6/2015
12365	Change	EATONS NECK LIGHT	F 144ft 14M	N 40 57' 14.400"	W 073 23' 43.400"	40.954	-73.39539	LNM 10/17, 1st Dist	2191	12365_1	3/23/2017
12365	Delete	Disposal Area PT 1 OF 4	Disposal Area	N 41 00' 00.000"	W 073 29' 31.800"	41	-73.49216	LNM 38/16, 1st Dist	2191	12365_1	9/15/2016
12365	Delete	Disposal Area PT 2 OF 4	Disposal Area	N 40 58' 48.000"	W 073 29' 31.800"	40.98	-73.49216	LNM 38/16, 1st Dist	2191	12365_1	9/15/2016
12365	Delete	Disposal Area PT 3 OF 4	Disposal Area	N 40 58' 48.000"	W 073 27' 49.100"	40.98	-73.46364	LNM 38/16, 1st Dist	2191	12365_1	9/15/2016
12365	Delete	Disposal Area PT 4 OF 4	Disposal Area	N 41 00' 00.000"	W 073 27' 49.100"	41	-73.46364	LNM 38/16, 1st Dist	2191	12365_1	9/15/2016
12365	Add	Disposal Area PT 1 OF 4	Disposal Area	N 41 00' 00.000"	W 073 29' 48.000"	41	-73.49667	LNM 38/16, 1st Dist	2191	12365_1	9/15/2016
12365	Add	Disposal Area PT 2 OF 4	Disposal Area	N 40 58' 54.000"	W 073 29' 48.000"	40.98167	-73.49667	LNM 38/16, 1st Dist	2191	12365_1	9/15/2016
12365	Add	Disposal Area PT 3 OF 4	Disposal Area	N 40 58' 54.000"	W 073 28' 06.000"	40.98167	-73.46833	LNM 38/16, 1st Dist	2191	12365_1	9/15/2016
12365	Add	Disposal Area PT 4 OF 4	Disposal Area	N 41 00' 00.000"	W 073 28' 06.000"	41	-73.46833	LNM 38/16, 1st Dist	2191	12365_1	9/15/2016
12365	Add	NORTHPORT BAY CHANNEL LTD NO WAKE BUOY B	W Or "B" Fl 4s Priv	N 40 54' 46.620"	W 073 24' 18.300"	40.91295	-73.40508	LNM 32/16, 1st Dist	2191	12365_1	8/18/2016
12365	Add	NORTHPORT BAY CHANNEL LTD NO WAKE BUOY A	W Or "A" Fl 4s Priv	N 40 54' 43.800"	W 073 21' 56.280"	40.91217	-73.36563	LNM 32/16, 1st Dist	2191	12365_1	8/18/2016
12365	Add	SAND CITY LTD NO WAKE BUOY H	W Or "H" Fl 4s Priv	N 40 54' 53.889"	W 073 24' 00.660"	40.91497	-73.40018	LNM 32/16, 1st Dist	2191	12365_1	8/18/2016
12365	Add	CENTERPORT HARBOR LTD NO WAKE BUOY A	W Or "A" Fl 4s Priv	N 40 54' 21.480"	W 073 22' 58.620"	40.90597	-73.38295	LNM 32/16, 1st Dist	2191	12365_1	8/18/2016
12365	Add	HUNTINGTON INLET LTD NO WAKE BUOY A	W Or "A" Fl 4s Priv	N 40 54' 41.160"	W 073 25' 48.960"	40.91143	-73.43027	LNM 32/16, 1st Dist	2191	12365_1	8/18/2016
12365	Add	HUNTINGTON INLET LTD NO WAKE BUOY B	W Or "B" Fl 4s Priv	N 40 54' 38.220"	W 073 25' 44.640"	40.91062	-73.42907	LNM 32/16, 1st Dist	2191	12365_1	8/18/2016
12365	Delete	NORTHPORT ENTRANCE LTD BUOY 1	G "1" F G Priv	N 40 55' 42.760"	W 073 20' 42.170"	40.92854	-73.34505	LNM 10/16, 1st Dist	2191	12365_1	3/17/2016
12365	Change	CENTRE ISLAND REEF BUOY 17	G C "17"	N 40 56' 18.610"	W 073 31' 57.909"	40.9385	-73.53275	LNM 19/15, 1st Dist	2191	12365_1	5/21/2015
12366	Delete	TEXT-through	through	N 40 45' 49.392"	W 073 40' 53.436"	40.76372	-73.68151	LNM 07/17, 1st Dist	2190	12366_1	2/23/2017
12366	Add	ANCHORAGE LABEL	6	N 40 45' 49.382"	W 073 40' 56.876"	40.76372	-73.68246	LNM 07/17, 1st Dist	2190	12366_1	2/23/2017
12366	Add	ANCHORAGE LABEL	8	N 40 45' 49.382"	W 073 40' 51.286"	40.76372	-73.68092	LNM 07/17, 1st Dist	2190	12366_1	2/23/2017
12366	Change	Depth Note - Glen Cove Creek	The controlling depths at MLLW were 3 1/2 feet for a mid-widthof 50 feet to 4051'34.6"N, 7338'24.9"W; thence 8 feet fora mid-width of 40 feet to 4051'39.0"N, 7338'14.0"W; thence1 foot for a mid-width of 40 feet to the end of the project.Jul 2016	N 40 52' 10.000"	W 073 38' 36.000"	40.86945	-73.64333	Not Yet Published	2190	12366_1	12/1/2016
12366	Change	Bridge Construction	Chart No. 1: D.d, with magenta screen extending 500 feet from bridge	N 40 51' 22.700"	W 073 47' 36.500"	40.8563	-73.79347	LNM 43/16, 1st Dist	2190	12366_1	10/20/2016
12366	Change	Bridge Construction Label	Bridge under construction (see note)	N 40 51' 22.700"	W 073 47' 36.500"	40.8563	-73.79347	LNM 43/16, 1st Dist	2190	12366_1	10/20/2016
12366	Add	note- CAUTION	CAUTION: Fixed and floating obstructions, some submerged, may exist within the magenta tinted bridge construction area. Mariners are advised to proceed with caution. 	N 40 53' 25.500"	W 073 50' 01.300"	40.89042	-73.83369	Not Yet Published	2190	12366_1	10/20/2016
12366	Add	Unlighted Mooring Buoy	None	N 40 49' 27.660"	W 073 47' 22.200"	40.82435	-73.7895	LNM 32/16, 1st Dist	2190	12366_1	8/4/2016
12366	Delete	Lighted Mooring Buoy	Fl 1s Priv	N 40 49' 27.660"	W 073 47' 22.200"	40.82435	-73.7895	LNM 32/16, 1st Dist	2190	12366_1	8/4/2016
12366	Delete	Anchorage Area label	1A	N 40 53' 40.700"	W 073 45' 56.500"	40.89464	-73.76569	LNM 30/16, 1st Dist	2190	12366_1	7/21/2016
12366	Delete	Anchorage Area PT 1 OF 3	None	N 40 48' 26.700"	W 073 47' 28.500"	40.80742	-73.79125	LNM 30/16, 1st Dist	2190	12366_1	7/21/2016
12366	Delete	Anchorage Area PT 2 OF 3	None	N 40 48' 56.600"	W 073 47' 52.900"	40.81572	-73.79803	LNM 30/16, 1st Dist	2190	12366_1	7/21/2016
12366	Delete	Anchorage Area PT 3 OF 3	None	N 40 48' 57.100"	W 073 47' 52.300"	40.81586	-73.79786	LNM 30/16, 1st Dist	2190	12366_1	7/21/2016
12366	Delete	Anchorage Area PT 1 OF 3	None	N 40 51' 29.100"	W 073 44' 48.700"	40.85808	-73.74686	LNM 30/16, 1st Dist	2190	12366_1	7/21/2016
12366	Delete	Anchorage Area PT 2 OF 3	None	N 40 49' 28.200"	W 073 46' 29.300"	40.8245	-73.7748	LNM 30/16, 1st Dist	2190	12366_1	7/21/2016
12366	Delete	Anchorage Area PT 3 OF 3	None	N 40 49' 00.900"	W 073 45' 42.100"	40.81692	-73.7617	LNM 30/16, 1st Dist	2190	12366_1	7/21/2016
12366	Delete	Anchorage Area label	4	N 40 49' 21.500"	W 073 45' 49.400"	40.82264	-73.76373	LNM 30/16, 1st Dist	2190	12366_1	7/21/2016
12366	Delete	Anchorage Area label	7	N 40 47' 41.400"	W 073 47' 29.500"	40.79483	-73.79153	LNM 30/16, 1st Dist	2190	12366_1	7/21/2016
12366	Delete	Anchorage Area label	5	N 40 48' 18.800"	W 073 46' 17.600"	40.80522	-73.77155	LNM 30/16, 1st Dist	2190	12366_1	7/21/2016
12366	Delete	Anchorage Area label	4	N 40 50' 35.600"	W 073 45' 22.400"	40.84322	-73.75623	LNM 30/16, 1st Dist	2190	12366_1	7/21/2016
12366	Delete	Anchorage Area label	4	N 40 50' 10.200"	W 073 44' 21.500"	40.83617	-73.7393	LNM 30/16, 1st Dist	2190	12366_1	7/21/2016
12366	Delete	Anchorage Area PT 1 OF 2	None	N 40 49' 18.500"	W 073 46' 12.800"	40.8218	-73.77023	LNM 30/16, 1st Dist	2190	12366_1	7/21/2016
12366	Delete	Anchorage Area PT 2 OF 2	None	N 40 47' 41.000"	W 073 46' 28.700"	40.79472	-73.77464	LNM 30/16, 1st Dist	2190	12366_1	7/21/2016
12366	Delete	Anchorage Area label	2	N 40 48' 41.600"	W 073 47' 49.000"	40.81155	-73.79694	LNM 30/16, 1st Dist	2190	12366_1	7/21/2016
12366	Delete	Anchorage Area PT 1 OF 2	None	N 40 48' 03.200"	W 073 49' 11.700"	40.80089	-73.81992	LNM 30/16, 1st Dist	2190	12366_1	7/21/2016
12366	Delete	Anchorage Area PT 2 OF 2	None	N 40 47' 42.300"	W 073 47' 01.300"	40.79508	-73.78369	LNM 30/16, 1st Dist	2190	12366_1	7/21/2016
12366	Delete	Anchorage Area PT 1 OF 3	None	N 40 53' 21.200"	W 073 46' 38.900"	40.88922	-73.77747	LNM 30/16, 1st Dist	2190	12366_1	7/21/2016
12366	Delete	Anchorage Area PT 2 OF 3	None	N 40 53' 30.300"	W 073 46' 05.500"	40.89175	-73.7682	LNM 30/16, 1st Dist	2190	12366_1	7/21/2016
12366	Delete	Anchorage Area label	3	N 40 51' 23.600"	W 073 44' 07.700"	40.85656	-73.73547	LNM 30/16, 1st Dist	2190	12366_1	7/21/2016
12366	Delete	Anchorage Area PT 1 OF 4	None	N 40 51' 57.900"	W 073 43' 48.100"	40.86609	-73.73003	LNM 30/16, 1st Dist	2190	12366_1	7/21/2016
12366	Delete	Anchorage Area PT 2 OF 4	None	N 40 52' 07.300"	W 073 44' 15.400"	40.86869	-73.73761	LNM 30/16, 1st Dist	2190	12366_1	7/21/2016
12366	Delete	Anchorage Area PT 3 OF 4	None	N 40 51' 29.100"	W 073 44' 48.700"	40.85808	-73.74686	LNM 30/16, 1st Dist	2190	12366_1	7/21/2016
12366	Delete	Anchorage Area PT 4 OF 4	None	N 40 50' 54.600"	W 073 44' 17.000"	40.8485	-73.73805	LNM 30/16, 1st Dist	2190	12366_1	7/21/2016
12366	Delete	Anchorage Area PT 3 OF 3	None	N 40 53' 49.000"	W 073 45' 41.100"	40.89695	-73.76141	LNM 30/16, 1st Dist	2190	12366_1	7/21/2016
12366	Change	Depth Note - HUTCHINSON RIVER	The controlling depths were 6 1/2 feet from the entrance to the Pelham Highway Bridge; thence 3 1/2 feet to the Hutchinson River Parkway Bridge; thence 3 feet in the middle half of the channel to the Boston Post Road Bridge; thence shoal to bare to the east and west "Y" junction. Jul 2015	N 40 52' 15.000"	W 073 50' 03.000"	40.87083	-73.83417	LNM 50/15, 1st Dist	2190	12366_1	12/10/2015
12366	Add	Sounding in Feet	3	N 40 50' 56.400"	W 073 48' 17.500"	40.849	-73.80486	LNM 50/15, 1st Dist	2190	12366_1	12/10/2015
12366	Add	Sounding in Feet	5	N 40 50' 58.800"	W 073 48' 22.100"	40.84967	-73.80614	LNM 50/15, 1st Dist	2190	12366_1	12/10/2015
12366	Delete	Sounding in Feet	6	N 40 51' 00.400"	W 073 48' 23.400"	40.85011	-73.8065	LNM 50/15, 1st Dist	2190	12366_1	12/10/2015
12366	Delete	Sounding in Feet	7	N 40 50' 54.000"	W 073 48' 16.800"	40.84833	-73.80466	LNM 50/15, 1st Dist	2190	12366_1	12/10/2015
12366	Delete	Sounding in Feet	1	N 40 49' 02.300"	W 073 50' 29.700"	40.81731	-73.84158	LNM 40/15, 1st Dist	2190	12366_1	10/1/2015
12366	Delete	Sounding in Feet	1	N 40 48' 39.900"	W 073 50' 39.100"	40.81108	-73.84419	LNM 40/15, 1st Dist	2190	12366_1	10/1/2015
12366	Change	Depth Note - WESTCHESTER CREEK	The controlling depths at Mean Lower Low Water were 3 feet for a mid-width of 50 feet from the channel entrance to a point at 4048'40.6"N, 7350'38.7"W; thence 2 feet for a mid-width of 64 feet to a point at 4049'08.1"N, 7350'23.0"W; thence 5 1/2 feet for a mid-width of 48 feet to a point at 4049'46.7"N, 7350'33.9"W; thence 5 feet in the Turning Basin to a point at 4049'51.8"N, 7350'31.8"W; thence 5 feet for a mid-width of 48 feet to the end of the project. Apr 2015	N 40 49' 10.000"	W 073 49' 37.000"	40.81944	-73.82694	LNM 40/15, 1st Dist	2190	12366_1	10/1/2015
12366	Add	DANGEROUS WRECK	PA Rep (2015)	N 40 50' 48.723"	W 073 46' 47.593"	40.84687	-73.77988	LNM 32/15, 1st Dist	2190	12366_1	8/20/2015
12367	Change	Depth Legend - Milton Harbor	1 1/2 FT FOR MID-WIDTH OF 50 FT MAY 2016	N 40 56' 46.000"	W 073 41' 52.000"	40.94611	-73.69778	LNM 50/16, 7th Dist	2189	12367_1	12/8/2016
12367	Change	Depth Legend - Milton Harbor	1 FT MID 40 FT 2016	N 40 57' 27.500"	W 073 41' 30.500"	40.95764	-73.6918	LNM 50/16, 7th Dist	2189	12367_1	12/8/2016
12367	Change	Depth Legend - Milton Harbor	2 1/2 FT MID 40 FT 2016	N 40 57' 25.000"	W 073 41' 25.000"	40.95694	-73.69028	LNM 50/16, 7th Dist	2189	12367_1	12/8/2016
12367	Add	mooring area label: Mooring Field	Mooring Field	N 41 00' 01.770"	W 073 37' 54.700"	41.00049	-73.63186	LNM 40/16, 1st Dist	2189	12367_1	9/29/2016
12367	Add	mooring area PT 1 OF 9	None	N 41 00' 12.180"	W 073 37' 57.420"	41.00338	-73.63261	LNM 40/16, 1st Dist	2189	12367_1	9/29/2016
12367	Add	mooring area PT 2 OF 9	None	N 41 00' 12.240"	W 073 37' 53.820"	41.0034	-73.63161	LNM 40/16, 1st Dist	2189	12367_1	9/29/2016
12367	Add	mooring area PT 3 OF 9	None	N 41 00' 01.620"	W 073 37' 43.740"	41.00045	-73.62881	LNM 40/16, 1st Dist	2189	12367_1	9/29/2016
12367	Add	mooring area PT 4 OF 9	None	N 40 59' 55.440"	W 073 37' 54.720"	40.99873	-73.63187	LNM 40/16, 1st Dist	2189	12367_1	9/29/2016
12367	Add	mooring area PT 5 OF 9	None	N 40 59' 55.320"	W 073 38' 10.200"	40.9987	-73.63617	LNM 40/16, 1st Dist	2189	12367_1	9/29/2016
12367	Add	mooring area PT 6 OF 9	None	N 41 00' 00.300"	W 073 38' 10.260"	41.00008	-73.63618	LNM 40/16, 1st Dist	2189	12367_1	9/29/2016
12367	Add	mooring area PT 7 OF 9	None	N 41 00' 05.880"	W 073 38' 07.560"	41.00163	-73.63544	LNM 40/16, 1st Dist	2189	12367_1	9/29/2016
12367	Add	mooring area PT 8 OF 9	None	N 41 00' 08.760"	W 073 38' 01.920"	41.00243	-73.63387	LNM 40/16, 1st Dist	2189	12367_1	9/29/2016
12367	Add	mooring area PT 9 OF 9	None	N 41 00' 08.100"	W 073 38' 00.300"	41.00225	-73.63342	LNM 40/16, 1st Dist	2189	12367_1	9/29/2016
12367	Delete	Anchorage Area PT 1 OF 3	None	N 40 54' 25.200"	W 073 46' 00.700"	40.907	-73.76686	LNM 30/16, 1st Dist	2189	12367_1	7/21/2016
12367	Delete	Anchorage Area PT 2 OF 3	None	N 40 54' 01.900"	W 073 45' 23.300"	40.90053	-73.75647	LNM 30/16, 1st Dist	2189	12367_1	7/21/2016
12367	Delete	Anchorage Area PT 3 OF 3	None	N 40 53' 35.300"	W 073 45' 58.200"	40.89314	-73.76617	LNM 30/16, 1st Dist	2189	12367_1	7/21/2016
12367	Delete	Anchorage Area PT 1 OF 3	None	N 40 54' 57.300"	W 073 44' 52.100"	40.91592	-73.7478	LNM 30/16, 1st Dist	2189	12367_1	7/21/2016
12367	Delete	Anchorage Area PT 2 OF 3	None	N 40 54' 11.000"	W 073 45' 10.800"	40.90306	-73.753	LNM 30/16, 1st Dist	2189	12367_1	7/21/2016
12367	Delete	Anchorage Area PT 3 OF 3	None	N 40 54' 24.900"	W 073 45' 58.100"	40.90692	-73.76614	LNM 30/16, 1st Dist	2189	12367_1	7/21/2016
12367	Delete	Anchorage Area label	GENERAL ANCH 110.155 (see note A	N 40 53' 59.400"	W 073 45' 44.700"	40.89983	-73.76241	LNM 30/16, 1st Dist	2189	12367_1	7/21/2016
12367	Delete	Anchorage Area label	GENERAL ANCH 110.155 (see note A)	N 40 54' 18.600"	W 073 45' 19.300"	40.90517	-73.75536	LNM 30/16, 1st Dist	2189	12367_1	7/21/2016
12367	Change	Depth Legend - Greenwich Harbor	8 FT FOR A WIDTH OF 130 FT SEP 2015	N 41 00' 15.000"	W 073 37' 20.500"	41.00417	-73.62236	LNM 49/15, 1st Dist	2189	12367_1	12/3/2015
12367	Change	Depth Legend - Greenwich Harbor	4 FEET SEP 2015	N 41 00' 45.000"	W 073 37' 30.000"	41.0125	-73.625	LNM 49/15, 1st Dist	2189	12367_1	12/3/2015
12367	Change	Depth Legend - Greenwich Harbor	4 FEET SEP 2015	N 41 00' 59.000"	W 073 37' 31.000"	41.01639	-73.62527	LNM 49/15, 1st Dist	2189	12367_1	12/3/2015
12367	Add	magenta channel reach separator PT 1 OF 2	None	N 41 00' 28.520"	W 073 37' 23.070"	41.00792	-73.62308	LNM 49/15, 1st Dist	2189	12367_1	12/3/2015
12367	Add	magenta channel reach separator PT 2 OF 2	None	N 41 00' 28.640"	W 073 37' 21.370"	41.00796	-73.6226	LNM 49/15, 1st Dist	2189	12367_1	12/3/2015
12367	Add	Sounding in Feet	6	N 41 01' 05.000"	W 073 37' 28.000"	41.01805	-73.62444	LNM 49/15, 1st Dist	2189	12367_1	12/3/2015
12367	Delete	Channel Limits PT 1 OF 2	None	N 41 01' 06.610"	W 073 37' 26.680"	41.0185	-73.62408	LNM 49/15, 1st Dist	2189	12367_1	12/3/2015
12367	Delete	Channel Limits PT 2 OF 2	None	N 41 01' 02.200"	W 073 37' 27.420"	41.01728	-73.62428	LNM 49/15, 1st Dist	2189	12367_1	12/3/2015
12367	Add	Channel Limits PT 1 OF 4	None	N 41 01' 06.610"	W 073 37' 26.680"	41.0185	-73.62408	LNM 49/15, 1st Dist	2189	12367_1	12/3/2015
12367	Add	Channel Limits PT 2 OF 4	None	N 41 01' 06.470"	W 073 37' 28.490"	41.01846	-73.62458	LNM 49/15, 1st Dist	2189	12367_1	12/3/2015
12367	Add	Channel Limits PT 3 OF 4	None	N 41 01' 04.450"	W 073 37' 28.230"	41.0179	-73.62451	LNM 49/15, 1st Dist	2189	12367_1	12/3/2015
12367	Add	Channel Limits PT 4 OF 4	None	N 41 01' 02.200"	W 073 37' 27.420"	41.01728	-73.62428	LNM 49/15, 1st Dist	2189	12367_1	12/3/2015
12367	Add	Channel Limits PT 1 OF 9	None	N 41 00' 48.670"	W 073 37' 28.950"	41.01352	-73.62471	LNM 49/15, 1st Dist	2189	12367_1	12/3/2015
12367	Add	Channel Limits PT 2 OF 9	None	N 41 00' 47.640"	W 073 37' 28.820"	41.01323	-73.62467	LNM 49/15, 1st Dist	2189	12367_1	12/3/2015
12367	Add	Channel Limits PT 3 OF 9	None	N 41 00' 47.120"	W 073 37' 36.180"	41.01309	-73.62672	LNM 49/15, 1st Dist	2189	12367_1	12/3/2015
12367	Add	Channel Limits PT 4 OF 9	None	N 41 00' 47.940"	W 073 37' 37.500"	41.01332	-73.62708	LNM 49/15, 1st Dist	2189	12367_1	12/3/2015
12367	Add	Channel Limits PT 5 OF 9	None	N 41 00' 46.520"	W 073 37' 39.050"	41.01292	-73.62752	LNM 49/15, 1st Dist	2189	12367_1	12/3/2015
12367	Add	Channel Limits PT 6 OF 9	None	N 41 00' 44.640"	W 073 37' 34.820"	41.0124	-73.62634	LNM 49/15, 1st Dist	2189	12367_1	12/3/2015
12367	Add	Channel Limits PT 7 OF 9	None	N 41 00' 43.360"	W 073 37' 34.280"	41.01204	-73.62619	LNM 49/15, 1st Dist	2189	12367_1	12/3/2015
12367	Add	Channel Limits PT 8 OF 9	None	N 41 00' 42.320"	W 073 37' 33.490"	41.01176	-73.62597	LNM 49/15, 1st Dist	2189	12367_1	12/3/2015
12367	Add	Channel Limits PT 9 OF 9	None	N 41 00' 36.470"	W 073 37' 24.120"	41.01013	-73.62337	LNM 49/15, 1st Dist	2189	12367_1	12/3/2015
12367	Delete	Channel Limits PT 1 OF 2	None	N 41 00' 49.100"	W 073 37' 29.300"	41.01364	-73.62481	LNM 49/15, 1st Dist	2189	12367_1	12/3/2015
12367	Delete	Channel Limits PT 2 OF 2	None	N 41 00' 36.470"	W 073 37' 24.120"	41.01013	-73.62337	LNM 49/15, 1st Dist	2189	12367_1	12/3/2015
12367	Change	Depth Legend - Greenwich Harbor	7 FT FOR A WIDTH OF 100-140 FT SEP 2015	N 41 00' 56.000"	W 073 37' 26.000"	41.01556	-73.62389	LNM 49/15, 1st Dist	2189	12367_1	12/3/2015
12367	Substitute	Sounding in Feet	2 for 5	N 41 01' 06.500"	W 073 37' 27.400"	41.01847	-73.62428	LNM 49/15, 1st Dist	2189	12367_1	12/3/2015
12367	Add	Sounding in Feet	1	N 41 01' 01.000"	W 073 37' 36.700"	41.01694	-73.62686	LNM 49/15, 1st Dist	2189	12367_1	12/3/2015
12367	Add	Sounding in Feet	3	N 41 00' 44.100"	W 073 37' 34.200"	41.01225	-73.62617	LNM 49/15, 1st Dist	2189	12367_1	12/3/2015
12367	Delete	Rocky Point Channel Buoy 1	G C "1" Priv	N 41 00' 51.840"	W 073 33' 31.680"	41.0144	-73.5588	LNM 36/15, 1st Dist	2189	12367_1	9/17/2015
12367	Delete	Rocky Point Channel Buoy 2	R N "2" Priv	N 41 00' 51.600"	W 073 33' 30.960"	41.01433	-73.5586	LNM 36/15, 1st Dist	2189	12367_1	9/17/2015
12367	Change	tabulation - MAMARONECK HARBOR CHANNEL DEPTHS	tabulation - MAMARONECK HARBOR CHANNEL DEPTHS	N 40 57' 00.000"	W 073 45' 51.000"	40.95	-73.76417	LNM 33/15, 1st Dist	2189	12367_1	8/13/2015
12367	Add	Sounding in Feet	9	N 40 56' 52.120"	W 073 43' 49.880"	40.94781	-73.73052	LNM 30/15, 1st Dist	2189	12367_1	7/23/2015
12367	Add	Sounding in Feet	10	N 40 56' 52.240"	W 073 43' 46.310"	40.94785	-73.72953	LNM 30/15, 1st Dist	2189	12367_1	7/23/2015
12367	Add	Sounding in Feet	10	N 40 56' 50.350"	W 073 43' 42.690"	40.94732	-73.72852	LNM 30/15, 1st Dist	2189	12367_1	7/23/2015
12367	Add	Sounding in Feet	9	N 40 56' 47.590"	W 073 43' 43.180"	40.94655	-73.72866	LNM 30/15, 1st Dist	2189	12367_1	7/23/2015
12367	Add	Sounding in Feet	7	N 40 56' 55.230"	W 073 43' 38.780"	40.94867	-73.72744	LNM 30/15, 1st Dist	2189	12367_1	7/23/2015
12367	Add	Sounding in Feet	1	N 40 56' 57.060"	W 073 43' 35.550"	40.94918	-73.72654	LNM 30/15, 1st Dist	2189	12367_1	7/23/2015
12367	Add	Sounding in Feet	9	N 40 56' 52.690"	W 073 43' 42.470"	40.94797	-73.72846	LNM 30/15, 1st Dist	2189	12367_1	7/23/2015
12367	Add	Sounding in Feet	10	N 40 56' 50.150"	W 073 43' 46.270"	40.94727	-73.72952	LNM 30/15, 1st Dist	2189	12367_1	7/23/2015
12367	Change	Depth Legend - Greenwich Harbor 12 foot channel	7 FT FOR A WIDTH OF 100 FT DEC 2011	N 41 00' 56.000"	W 073 37' 26.000"	41.01556	-73.62389	LNM 17/15, 1st Dist	2189	12367_1	4/23/2015
12367	Add	Low Water Line PT 1 OF 5	None	N 41 01' 00.000"	W 073 37' 38.100"	41.01667	-73.62725	LNM 17/15, 1st Dist	2189	12367_1	4/23/2015
12367	Add	Low Water Line PT 2 OF 5	None	N 41 01' 03.000"	W 073 37' 38.600"	41.0175	-73.62739	LNM 17/15, 1st Dist	2189	12367_1	4/23/2015
12367	Add	Low Water Line PT 3 OF 5	None	N 41 01' 03.400"	W 073 37' 37.400"	41.01761	-73.62705	LNM 17/15, 1st Dist	2189	12367_1	4/23/2015
12367	Add	Low Water Line PT 4 OF 5	None	N 41 01' 02.400"	W 073 37' 36.400"	41.01733	-73.62678	LNM 17/15, 1st Dist	2189	12367_1	4/23/2015
12367	Add	Low Water Line PT 5 OF 5	None	N 41 01' 02.000"	W 073 37' 33.900"	41.01722	-73.62608	LNM 17/15, 1st Dist	2189	12367_1	4/23/2015
12367	Add	Sounding in Feet	2	N 41 01' 01.300"	W 073 37' 36.800"	41.01703	-73.62689	LNM 17/15, 1st Dist	2189	12367_1	4/23/2015
12367	Change	Depth Legend - Greenwich Harbor 8 foot anchorage	4 FEET DEC 2011	N 41 00' 44.500"	W 073 37' 31.000"	41.01236	-73.62527	LNM 17/15, 1st Dist	2189	12367_1	4/23/2015
12367	Change	Depth Legend -Greenwich Harbor 6 foot anchorage	4 FEET DEC 2011	N 41 00' 59.000"	W 073 37' 32.000"	41.01639	-73.62556	LNM 17/15, 1st Dist	2189	12367_1	4/23/2015
12367	Delete	Low Water Line PT 1 OF 4	None	N 41 01' 00.000"	W 073 37' 38.100"	41.01667	-73.62725	LNM 17/15, 1st Dist	2189	12367_1	4/23/2015
12367	Delete	Low Water Line PT 2 OF 4	None	N 41 01' 05.800"	W 073 37' 39.100"	41.01828	-73.62753	LNM 17/15, 1st Dist	2189	12367_1	4/23/2015
12367	Delete	Low Water Line PT 3 OF 4	None	N 41 01' 06.600"	W 073 37' 36.900"	41.0185	-73.62691	LNM 17/15, 1st Dist	2189	12367_1	4/23/2015
12367	Delete	Low Water Line PT 4 OF 4	None	N 41 01' 02.000"	W 073 37' 33.900"	41.01722	-73.62608	LNM 17/15, 1st Dist	2189	12367_1	4/23/2015
12367	Delete	Sounding in Feet	1/2	N 41 01' 05.500"	W 073 37' 38.700"	41.0182	-73.62742	LNM 17/15, 1st Dist	2189	12367_1	4/23/2015
12367	Change	Depth Legend - Greenwich Harbor 12 foot channel	8 FT FOR A WIDTH OF 130 FT DEC 2011	N 41 00' 15.000"	W 073 37' 20.500"	41.00417	-73.62236	LNM 17/15, 1st Dist	2189	12367_1	4/23/2015
12367	Delete	Sounding in Feet	1/2	N 41 01' 03.800"	W 073 37' 38.000"	41.01772	-73.62722	LNM 17/15, 1st Dist	2189	12367_1	4/23/2015
12367	Relocate	JAKE REEF BUOY "2J"	JAKE REEF BUOY 2J	N 41 00' 54.600"	W 073 35' 49.500"	41.01517	-73.59708	LNM 14/15, 1st Dist	2189	12367_1	4/16/2015
12367	Relocate	GREENWICH POINT BUOY 1GP	G S "1GP" Priv	N 41 00' 35.700"	W 073 34' 56.000"	41.00992	-73.58222	LNM 14/15, 1st Dist	2189	12367_1	4/16/2015
12367	Relocate	GREENWICH POINT BUOY 2GP	R S "2GP" Priv	N 41 00' 36.800"	W 073 34' 58.700"	41.01022	-73.58297	LNM 14/15, 1st Dist	2189	12367_1	4/16/2015
12367	Relocate	GREENWICH POINT BUOY 3GP	G S "3GP" Priv	N 41 00' 30.200"	W 073 34' 53.000"	41.00839	-73.58139	LNM 14/15, 1st Dist	2189	12367_1	4/16/2015
12367	Relocate	GREENWICH POINT BUOY 4GP	R S "4GP" Priv	N 41 00' 32.900"	W 073 34' 56.000"	41.00914	-73.58222	LNM 14/15, 1st Dist	2189	12367_1	4/16/2015
12367	Relocate	MAMARONECK HBR BY 16	R N '16"	N 40 56' 46.046"	W 073 43' 46.234"	40.94613	-73.72951	LNM 51/14, 1st Dist	2189	12367_1	1/8/2015
12367	Change	Depth Legend - Mianus River, CT	3 1/2 FT FOR MID-WIDTH OF 50 FT JUL 2014	N 41 01' 31.000"	W 073 35' 41.000"	41.02528	-73.59472	LNM 48/14, 1st Dist	2189	12367_1	11/27/2014
12367	Change	Depth Legend - Mianus River, CT	1 1/2 FT FOR MID-WIDTH OF 50 FT JUL 2014	N 41 02' 14.000"	W 073 35' 30.000"	41.03722	-73.59167	LNM 48/14, 1st Dist	2189	12367_1	11/27/2014
12367	Change	tabulation - PORT CHESTER HARBOR CHANNEL DEPTHS	tabulation - PORT CHESTER HARBOR CHANNEL DEPTHS	N 40 59' 00.000"	W 073 43' 00.000"	40.98333	-73.71667	LNM 47/14, 1st Dist	2189	12367_1	11/27/2014
12367	Add	ROCKY POINT CHANNEL BUOY 1	G C "1" Priv	N 41 00' 51.840"	W 073 33' 31.680"	41.0144	-73.5588	LNM 43/14, 1st Dist	2189	12367_1	11/6/2014
12367	Add	ROCKY POINT CHANNEL BUOY 2	R N "2" Priv	N 41 00' 51.600"	W 073 33' 30.960"	41.01433	-73.5586	LNM 43/14, 1st Dist	2189	12367_1	11/6/2014
12367	Relocate	Tide Mill Yacht Basin Channel Buoy 1	G C "1" Priv	N 40 59' 07.500"	W 073 39' 31.860"	40.98542	-73.65885	LNM 32/14, 1st Dist	2189	12367_1	9/4/2014
12367	Relocate	Tide Mill Yacht Basin Channel Buoy 2	R N "2" Priv	N 40 59' 08.100"	W 073 39' 33.420"	40.98558	-73.65929	LNM 32/14, 1st Dist	2189	12367_1	9/4/2014
12367	Relocate	Tide Mill Yacht Basin Channel Buoy 6	R N "6" Priv	N 40 59' 01.080"	W 073 39' 43.320"	40.98363	-73.66203	LNM 32/14, 1st Dist	2189	12367_1	9/4/2014
12367	Relocate	Tide Mill Yacht Basin Channel Buoy 7	G C "7" Priv	N 40 58' 56.100"	W 073 39' 47.040"	40.98225	-73.66306	LNM 32/14, 1st Dist	2189	12367_1	9/4/2014
12367	Relocate	Tide Mill Yacht Basin Channel Buoy 8	R N "8" Priv	N 40 58' 57.060"	W 073 39' 48.420"	40.98252	-73.66345	LNM 32/14, 1st Dist	2189	12367_1	9/4/2014
12367	Relocate	Tide Mill Yacht Basin Channel Buoy 10	R N "10" Priv	N 40 58' 52.020"	W 073 39' 48.180"	40.98112	-73.66338	LNM 32/14, 1st Dist	2189	12367_1	9/4/2014
12367	Relocate	Tide Mill Yacht Basin Channel Buoy 13	G C "13" Priv	N 40 58' 45.300"	W 073 39' 49.260"	40.97925	-73.66368	LNM 32/14, 1st Dist	2189	12367_1	9/4/2014
12367	Relocate	Tide Mill Yacht Basin Channel Buoy 14	R N "14" Priv	N 40 58' 45.900"	W 073 39' 50.460"	40.97942	-73.66402	LNM 32/14, 1st Dist	2189	12367_1	9/4/2014
12367	Relocate	Tide Mill Yacht Basin Channel Buoy 9	G C "9" Priv	N 40 58' 49.740"	W 073 39' 47.160"	40.98048	-73.6631	LNM 32/14, 1st Dist	2189	12367_1	9/4/2014
12367	Relocate	Tide Mill Yacht Basin Channel Buoy 11	G C "11" Priv	N 40 58' 47.340"	W 073 39' 47.340"	40.97982	-73.66315	LNM 32/14, 1st Dist	2189	12367_1	9/4/2014
12367	Relocate	Tide Mill Yacht Basin Channel Buoy 12	R N "12" Priv	N 40 58' 47.940"	W 073 39' 47.880"	40.97998	-73.6633	LNM 32/14, 1st Dist	2189	12367_1	9/4/2014
12367	Delete	Finch Rock Buoy 1A	G C "1A" Priv	N 41 00' 30.600"	W 073 35' 31.800"	41.0085	-73.59216	LNM 04/14, 1st Dist	2189	12367_1	2/6/2014
12367	Change	Tabulation - Port Chester Harbor Channel Depths	Tabulation - Port Chester Harbor Channel Depths	N 40 59' 00.000"	W 073 43' 00.000"	40.98333	-73.71667	LNM 06/14, 1st Dist	2189	12367_1	2/6/2014
12367	Change	Depth Legend - Milton Harbor to:	1 FT MID 40 FT 2013	N 40 57' 27.500"	W 073 41' 30.500"	40.95764	-73.6918	LNM 05/14, 1st Dist	2189	12367_1	2/6/2014
12367	Change	Depth Legend - Milton Harbor to:	2 FT MID 40 FT 2013	N 40 57' 25.000"	W 073 41' 25.000"	40.95694	-73.69028	LNM 05/14, 1st Dist	2189	12367_1	2/6/2014
12367	Change	Depth Legend - Milton Harbor to:	3 FT FOR MID-WIDTH OF 50 FT AUG 2013	N 40 56' 46.000"	W 073 41' 52.000"	40.94611	-73.69778	LNM 05/14, 1st Dist	2189	12367_1	2/6/2014
12367	Change	Tabulation - MAMARONECK HARBOR CHANNEL	Tabulation - MAMARONECK HARBOR CHANNEL	N 40 57' 00.000"	W 073 45' 51.000"	40.95	-73.76417	LNM 38/13, 1st Dist	2189	12367_1	9/13/2013
12367	Change	Great Captain Island Light	Al WR 12s 62ft 14M HORN	N 40 58' 56.951"	W 073 37' 23.254"	40.98249	-73.62312	LNM 09/13, 1st Dist	2189	12367_1	3/20/2013
12368	Delete	Disposal Area PT 1 OF 4	Disposal Area	N 40 59' 25.100"	W 073 27' 49.100"	40.99031	-73.46364	LNM 38/16, 1st Dist	2188	12368_1	9/15/2016
12368	Delete	Disposal Area PT 2 OF 4	Disposal Area	N 41 00' 00.400"	W 073 27' 49.100"	41.00011	-73.46364	LNM 38/16, 1st Dist	2188	12368_1	9/15/2016
12368	Delete	Disposal Area PT 3 OF 4	Disposal Area	N 41 00' 00.400"	W 073 29' 31.800"	41.00011	-73.49216	LNM 38/16, 1st Dist	2188	12368_1	9/15/2016
12368	Delete	Disposal Area PT 4 OF 4	Disposal Area	N 40 59' 25.100"	W 073 29' 31.800"	40.99031	-73.49216	LNM 38/16, 1st Dist	2188	12368_1	9/15/2016
12368	Add	Disposal Area PT 1 OF 4	Disposal Area	N 40 59' 25.100"	W 073 29' 48.000"	40.99031	-73.49667	LNM 38/16, 1st Dist	2188	12368_1	9/15/2016
12368	Add	Disposal Area PT 2 OF 4	Disposal Area	N 41 00' 06.000"	W 073 29' 48.000"	41.00167	-73.49667	LNM 38/16, 1st Dist	2188	12368_1	9/15/2016
12368	Add	Disposal Area PT 3 OF 4	Disposal Area	N 41 00' 06.000"	W 073 28' 06.000"	41.00167	-73.46833	LNM 38/16, 1st Dist	2188	12368_1	9/15/2016
12368	Add	Disposal Area PT 4 OF 4	Disposal Area	N 40 59' 25.100"	W 073 28' 06.000"	40.99031	-73.46833	LNM 38/16, 1st Dist	2188	12368_1	9/15/2016
12368	Add	Obstruction	Obstn rep (2016) PA	N 41 04' 13.900"	W 073 23' 40.000"	41.07053	-73.39445	LNM 33/16, 1st Dist	2188	12368_1	8/11/2016
12368	Relocate	DUCK CREEK JUNCTION BUOY	GR C Priv	N 41 06' 17.160"	W 073 22' 40.980"	41.10477	-73.37805	LNM 26/16, 1st Dist	2188	12368_1	7/7/2016
12368	Add	GOODWIVES RIVER MID-CHANNEL BUOY A	RW "A" Priv	N 41 02' 28.080"	W 073 29' 04.020"	41.04113	-73.48445	LNM 10/16, 1st Dist	2188	12368_1	3/17/2016
12368	Add	GOODWIVES RIVER MID-CHANNEL BUOY B	RW "B" Priv	N 41 02' 32.340"	W 073 29' 05.880"	41.04232	-73.48497	LNM 10/16, 1st Dist	2188	12368_1	3/17/2016
12368	Add	GOODWIVES RIVER MID-CHANNEL BUOY C	RW "C" Priv	N 41 02' 39.240"	W 073 29' 07.980"	41.04424	-73.48555	LNM 10/16, 1st Dist	2188	12368_1	3/17/2016
12368	Add	GOODWIVES RIVER MID-CHANNEL BUOY D	RW "D" Priv	N 41 02' 45.240"	W 073 29' 05.100"	41.0459	-73.48475	LNM 10/16, 1st Dist	2188	12368_1	3/17/2016
12368	Change	Depth Legend - Westcott Cove	4 1/2 FT FOR MID-WIDTH OF 50 FT AUG 2015	N 41 02' 24.000"	W 073 31' 17.500"	41.04	-73.52153	LNM 49/15, 1st Dist	2188	12368_1	12/10/2015
12368	Add	magenta channel reach separator PT 1 OF 2	None	N 41 02' 09.850"	W 073 31' 15.070"	41.03607	-73.52085	LNM 49/15, 1st Dist	2188	12368_1	12/10/2015
12368	Add	magenta channel reach separator PT 2 OF 2	None	N 41 02' 10.160"	W 073 31' 13.820"	41.03616	-73.52051	LNM 49/15, 1st Dist	2188	12368_1	12/10/2015
12368	Change	Depth Legend - Westcott Cove	7 FT FOR A WIDTH OF 90 FT AUG 2015	N 41 02' 01.000"	W 073 31' 09.000"	41.03361	-73.51917	LNM 49/15, 1st Dist	2188	12368_1	12/10/2015
12368	Delete	Rocky Point Channel Buoy 1	G C "1" Priv	N 41 00' 51.840"	W 073 33' 31.680"	41.0144	-73.5588	LNM 36/15, 1st Dist	2188	12368_1	9/17/2015
12368	Delete	Rocky Point Channel Buoy 2	R N "2" Priv	N 41 00' 51.600"	W 073 33' 30.960"	41.01433	-73.5586	LNM 36/15, 1st Dist	2188	12368_1	9/17/2015
12368	Add	ROCKY POINT CHANNEL BUOY 1	G C "1" Priv	N 41 00' 51.840"	W 073 33' 31.680"	41.0144	-73.5588	LNM 43/14, 1st Dist	2188	12368_1	11/6/2014
12368	Add	ROCKY POINT CHANNEL BUOY 2	R N "2" Priv	N 41 00' 51.600"	W 073 33' 30.960"	41.01433	-73.5586	LNM 43/14, 1st Dist	2188	12368_1	11/6/2014
12368	Change	tabulation - NORWALK HARBOR CHANNEL DEPTHS	tabulation - NORWALK HARBOR CHANNEL DEPTHS	N 41 06' 36.000"	W 073 27' 06.000"	41.11	-73.45167	LNM 25/14, 1st Dist	2188	12368_1	6/26/2014
12368	Delete	Manresa Island Northerly Light	Fl 4s Priv	N 41 04' 18.300"	W 073 24' 25.680"	41.07175	-73.40714	LNM 53/13, 1st Dist	2188	12368_1	1/9/2014
12368	Delete	Manresa Island Southerly Light	F G Priv	N 41 04' 15.360"	W 073 24' 28.560"	41.07093	-73.40794	LNM 53/13, 1st Dist	2188	12368_1	1/9/2014
12368	Add	Sounding in Feet	39	N 41 02' 18.521"	W 073 20' 31.225"	41.03848	-73.34201	LNM 48/13, 1st Dist	2188	12368_1	11/20/2013
12368	Add	Sounding in Feet	17	N 41 06' 06.736"	W 073 19' 33.589"	41.10187	-73.326	LNM 48/13, 1st Dist	2188	12368_1	11/20/2013
12368	Add	Sounding in Feet	13	N 41 04' 23.606"	W 073 20' 55.676"	41.07322	-73.3488	LNM 48/13, 1st Dist	2188	12368_1	11/20/2013
12368	Add	Sounding in Feet	12	N 41 04' 35.144"	W 073 20' 13.492"	41.07643	-73.33708	LNM 48/13, 1st Dist	2188	12368_1	11/20/2013
12368	Substitute	Sounding in Feet	10 for 16	N 41 06' 12.776"	W 073 20' 35.131"	41.10355	-73.34309	LNM 48/13, 1st Dist	2188	12368_1	11/20/2013
12368	Add	Sounding in Feet	49	N 41 01' 26.100"	W 073 25' 30.800"	41.02392	-73.42522	LNM 41/13, 1st Dist	2188	12368_1	10/4/2013
12368	Add	Wreck in Feet	55 Wk      Chart No. 1: K26	N 41 01' 21.200"	W 073 27' 12.300"	41.02256	-73.45341	LNM 41/13, 1st Dist	2188	12368_1	10/4/2013
12368	Delete	Sounding in Feet	56	N 41 01' 27.200"	W 073 25' 28.600"	41.02422	-73.42461	LNM 41/13, 1st Dist	2188	12368_1	10/4/2013
12368	Add	Wreck in Feet	39 Wk      Chart No. 1: K26	N 41 02' 10.370"	W 073 21' 51.310"	41.03621	-73.36425	LNM 41/13, 1st Dist	2188	12368_1	9/30/2013
12368	Add	Sounding in Feet	12	N 41 04' 21.900"	W 073 24' 28.490"	41.07275	-73.40791	LNM 41/13, 1st Dist	2188	12368_1	9/30/2013
12368	Add	Sounding in Feet	30	N 41 01' 59.930"	W 073 26' 22.830"	41.03331	-73.43967	LNM 41/13, 1st Dist	2188	12368_1	9/30/2013
12368	Add	Rock in Feet	17 Rk      Chart No. 1: K14.2	N 41 02' 14.750"	W 073 26' 49.030"	41.03743	-73.44695	LNM 41/13, 1st Dist	2188	12368_1	9/30/2013
12368	Add	Rock in Feet	26 Rk      Chart No. 1: K14.2	N 41 02' 15.760"	W 073 26' 22.540"	41.03771	-73.4396	LNM 41/13, 1st Dist	2188	12368_1	9/30/2013
12368	Add	Rock in Feet	23 Rk      Chart No. 1: K14.2	N 41 02' 18.430"	W 073 25' 45.730"	41.03845	-73.42937	LNM 41/13, 1st Dist	2188	12368_1	9/30/2013
12368	Add	Rock in Feet	26 Rk      Chart No. 1: K14.2	N 41 02' 52.110"	W 073 23' 48.850"	41.04781	-73.3969	LNM 41/13, 1st Dist	2188	12368_1	9/30/2013
12368	Add	Rock in Feet	13 Rk      Chart No. 1: K14.2	N 41 04' 00.420"	W 073 21' 45.680"	41.06678	-73.36269	LNM 41/13, 1st Dist	2188	12368_1	9/30/2013
12368	Add	Rock in Feet	27 Rk      Chart No. 1: K14.2	N 41 03' 10.090"	W 073 21' 31.930"	41.0528	-73.35887	LNM 41/13, 1st Dist	2188	12368_1	9/30/2013
12369	Change	PINE CREEK PT LTD BUOYS (4)	Y "A" ("B") ("C") ("D") Fl Y 4s Priv	N 41 06' 49.200"	W 073 15' 14.000"	41.11367	-73.25389	LNM 39/16, 1st Dist	2187	12369_1	10/6/2016
12369	Delete	Magenta channel reach separator and label	MIDDLE REACH	N 41 10' 53.500"	W 073 10' 25.100"	41.18153	-73.17364	LNM 38/16, 1st Dist	2187	12369_1	9/15/2016
12369	Change	tabulation - BRIDGEPORT AND BLACK ROCK HARBORS CHANNEL DEPTHS	tabulation - BRIDGEPORT AND BLACK ROCK HARBORS CHANNEL DEPTHS	N 41 10' 41.000"	W 073 15' 06.000"	41.17805	-73.25166	LNM 37/16, 1st Dist	2187	12369_1	9/8/2016
12369	Change	tabulation - HOUSATONIC RIVER CHANNEL DEPTHS	tabulation - HOUSATONIC RIVER CHANNEL DEPTHS	N 41 10' 38.000"	W 073 08' 27.000"	41.17722	-73.14083	LNM 37/16, 1st Dist	2187	12369_1	9/8/2016
12369	Change	ASH CREEK LTD BUOY 1	G "1" Fl G 6s Priv	N 41 08' 25.020"	W 073 13' 48.180"	41.14028	-73.23005	LNM 51/15, 1st Dist	2187	12369_1	12/31/2015
12369	Change	ASH CREEK LTD BUOY 2	R "2" Fl R 3s Priv	N 41 08' 25.860"	W 073 13' 47.820"	41.14052	-73.22995	LNM 51/15, 1st Dist	2187	12369_1	12/31/2015
12369	Change	ASH CREEK LTD BUOY 3	G "3" Fl G 6s Priv	N 41 08' 27.720"	W 073 13' 51.840"	41.14103	-73.23106	LNM 51/15, 1st Dist	2187	12369_1	12/31/2015
12369	Change	ASH CREEK LTD BUOY 4	R "4" Fl R 3s Priv	N 41 08' 28.560"	W 073 13' 51.180"	41.14127	-73.23088	LNM 51/15, 1st Dist	2187	12369_1	12/31/2015
12369	Change	ASH CREEK LTD BUOY 5	G "5" Fl G 6s Priv	N 41 08' 31.380"	W 073 13' 56.460"	41.14205	-73.23235	LNM 51/15, 1st Dist	2187	12369_1	12/31/2015
12369	Change	ASH CREEK LTD BUOY 6	R "6" Fl R 3s Priv	N 41 08' 31.980"	W 073 13' 55.920"	41.14222	-73.2322	LNM 51/15, 1st Dist	2187	12369_1	12/31/2015
12369	Change	Depth Legend - Southport Harbor	9 FT FOR MID-WIDTH OF 50 FT AUG 2015	N 41 07' 34.500"	W 073 17' 16.200"	41.12625	-73.28783	LNM 49/15, 1st Dist	2187	12369_1	12/3/2015
12369	Change	Depth Legend - Southport Harbor	9 FT FOR MID-WIDTH OF 50 FT AUG 2015	N 41 07' 44.400"	W 073 17' 05.000"	41.129	-73.28472	LNM 49/15, 1st Dist	2187	12369_1	12/3/2015
12369	Change	Depth Legend - Southport Harbor	8 FT AUG 2015	N 41 07' 55.000"	W 073 16' 59.000"	41.13194	-73.28306	LNM 49/15, 1st Dist	2187	12369_1	12/3/2015
12369	Change	BRIDGE HARBOR CHANNEL APPROACH LTD WHISTLE BUOY BH	RW "BH" Mo (A) WHIS  AIS	N 41 06' 14.450"	W 073 11' 44.101"	41.10402	-73.19559	LNM 41/15, 1st Dist	2187	12369_1	10/22/2015
12369	Relocate	STRATFORD POINT LIGHT	Fl (2) 20s 52ft 16M	N 41 09' 07.300"	W 073 06' 11.600"	41.15203	-73.10323	LNM 31/15, 1st Dist	2187	12369_1	8/13/2015
12369	Add	HOUSATONIC RIVER BKW LTD BUOY 2A	R "2A" Fl R 4s	N 41 09' 35.002"	W 073 05' 34.477"	41.15972	-73.09291	LNM 47/14, 1st Dist	2187	12369_1	12/11/2014
12369	Add	BLACK ROCK HARBOR ENTRANCE LTD BUOY 2A	R "2A" Fl R 4s	N 41 08' 11.704"	W 073 13' 01.069"	41.13659	-73.21696	LNM 47/14, 1st Dist	2187	12369_1	12/11/2014
12370	Relocate	MILFORD HARBOR CHANNEL BUOY 8	R N "8"	N 41 12' 35.888"	W 073 02' 56.199"	41.20997	-73.04894	LNM 24/17, 1st Dist	2185	12370_1	Not Yet
12370	Change	Overhead Power Cable Label	OVHD PWR CAB AUTH CL 57 FT	N 41 12' 18.850"	W 073 06' 36.240"	41.20523	-73.11007	LNM 51/16, 1st Dist	2185	12370_1	12/15/2016
12370	Change	Depth Legend - MILFORD HARBOR, CT	4 1/2 FT JUL 2016	N 41 12' 55.000"	W 073 03' 15.000"	41.21528	-73.05417	LNM 41/16, 1st Dist	2185	12370_1	10/13/2016
12370	Change	Depth Legend - MILFORD HARBOR, CT	5 1/2 FT JUL 2016	N 41 12' 33.800"	W 073 02' 56.600"	41.20939	-73.04906	LNM 41/16, 1st Dist	2185	12370_1	10/13/2016
12370	Delete	Notation  : Shoal to bare	Shoal to bare	N 41 12' 37.310"	W 073 02' 55.740"	41.21037	-73.04881	LNM 41/16, 1st Dist	2185	12370_1	10/13/2016
12370	Change	Depth Legend -MILFORD HARBOR	5 FT 2016	N 41 12' 45.110"	W 073 03' 07.810"	41.21253	-73.05217	LNM 41/16, 1st Dist	2185	12370_1	10/13/2016
12370	Change	tabulation - HOUSATONIC RIVER CHANNEL DEPTHS	tabulation - HOUSATONIC RIVER CHANNEL DEPTHS	N 41 13' 13.000"	W 073 04' 58.000"	41.22028	-73.08278	LNM 37/16, 1st Dist	2185	12370_1	9/8/2016
12370	Relocate	STRATFORD POINT LIGHT	Fl (2) 20s 52ft 16M	N 41 09' 07.300"	W 073 06' 11.600"	41.15203	-73.10323	LNM 31/15, 1st Dist	2185	12370_1	8/13/2015
12370	Change	Depth Legend - MILFORD HARBOR, CT	6 1/2 FT FOR 100 FT 2015	N 41 12' 33.800"	W 073 02' 56.600"	41.20939	-73.04906	LNM 30/15, 1st Dist	2185	12370_1	7/23/2015
12370	Change	Depth Legend - MILFORD HARBOR, CT	6 FT 2015	N 41 12' 43.870"	W 073 03' 05.030"	41.21218	-73.0514	LNM 30/15, 1st Dist	2185	12370_1	7/23/2015
12370	Delete	Sounding in Feet	1	N 41 12' 37.310"	W 073 02' 55.740"	41.21037	-73.04881	LNM 30/15, 1st Dist	2185	12370_1	7/23/2015
12370	Add	Notation  : Shoal to bare	Shoal to bare	N 41 12' 37.310"	W 073 02' 55.740"	41.21037	-73.04881	LNM 30/15, 1st Dist	2185	12370_1	7/23/2015
12370	Add	HOUSATONIC RIVER BKW LTD BUOY 2A	R "2A" Fl R 4s	N 41 09' 35.002"	W 073 05' 34.477"	41.15972	-73.09291	LNM 47/14, 1st Dist	2185	12370_1	12/11/2014
12370	Change	Charles Island Lighted Buoy 16	R "16" Fl R 4s (delete BELL)	N 41 11' 01.411"	W 073 03' 05.741"	41.18372	-73.0516	LNM 18/14, 1st Dist	2185	12370_1	5/15/2014
12370	Relocate	Charles Island Lighted Buoy 16	R "16" Fl R 4s	N 41 11' 01.411"	W 073 03' 05.741"	41.18372	-73.0516	LNM 18/14, 1st Dist	2185	12370_1	5/15/2014
12370	Delete	Housatonic River Breakwater Light 2A	Fl R 4s 27ft 5M "2A"	N 41 09' 38.657"	W 073 05' 34.939"	41.16074	-73.09304	LNM 06/14, 1st Dist	2185	12370_1	2/20/2014
12370	Relocate	Milford Harbor Light 10	Fl R 4s 27ft 4M "10"	N 41 12' 36.963"	W 073 02' 54.210"	41.21027	-73.04839	LNM 05/14, 1st Dist	2185	12370_1	2/13/2014
12370	Delete	Label:	ENTRANCE CHANNEL	N 41 09' 56.000"	W 073 06' 15.000"	41.16555	-73.10416	LNM 51/13, 1st Dist	2185	12370_1	12/13/2013
12370	Add	Channel Reach Separation Line PT 1 OF 2	(solid magenta line)	N 41 10' 34.600"	W 073 07' 18.500"	41.17628	-73.1218	LNM 51/13, 1st Dist	2185	12370_1	12/13/2013
12370	Add	Channel Reach Separation Line PT 2 OF 2	(solid magenta line)	N 41 10' 36.300"	W 073 07' 16.400"	41.17675	-73.12122	LNM 51/13, 1st Dist	2185	12370_1	12/13/2013
12370	Delete	Channel Reach Separation Line PT 1 OF 2	(solid magenta line)	N 41 11' 19.900"	W 073 07' 07.500"	41.18886	-73.11875	LNM 51/13, 1st Dist	2185	12370_1	12/13/2013
12370	Delete	Channel Reach Separation Line PT 2 OF 2	(solid magenta line)	N 41 11' 21.700"	W 073 07' 08.600"	41.18936	-73.11906	LNM 51/13, 1st Dist	2185	12370_1	12/13/2013
12370	Delete	Sounding in Feet	10	N 41 09' 32.900"	W 073 05' 38.400"	41.15914	-73.094	LNM 51/13, 1st Dist	2185	12370_1	12/13/2013
12370	Delete	Sounding in Feet	11	N 41 09' 30.700"	W 073 05' 36.300"	41.15853	-73.09341	LNM 51/13, 1st Dist	2185	12370_1	12/13/2013
12370	Delete	Channel Reach Separation Line PT 1 OF 2	(solid magenta line)	N 41 10' 06.000"	W 073 06' 31.300"	41.16833	-73.1087	LNM 51/13, 1st Dist	2185	12370_1	12/13/2013
12370	Delete	Channel Reach Separation Line PT 2 OF 2	(solid magenta line)	N 41 10' 07.500"	W 073 06' 29.400"	41.16875	-73.10817	LNM 51/13, 1st Dist	2185	12370_1	12/13/2013
12370	Add	Sounding in Feet	15	N 41 09' 32.300"	W 073 05' 37.400"	41.15897	-73.09372	LNM 51/13, 1st Dist	2185	12370_1	12/13/2013
12370	Add	Channel Reach Separation Line PT 1 OF 2	(solid magenta line)	N 41 11' 24.400"	W 073 06' 54.400"	41.19011	-73.11511	LNM 51/13, 1st Dist	2185	12370_1	12/13/2013
12370	Add	Channel Reach Separation Line PT 2 OF 2	(solid magenta line)	N 41 11' 25.900"	W 073 06' 56.800"	41.19053	-73.11578	LNM 51/13, 1st Dist	2185	12370_1	12/13/2013
12370	Add	Channel Reach Separation Line PT 1 OF 2	(solid magenta line)	N 41 09' 51.500"	W 073 06' 10.100"	41.16431	-73.10281	LNM 51/13, 1st Dist	2185	12370_1	12/13/2013
12370	Add	Channel Reach Separation Line PT 2 OF 2	(solid magenta line)	N 41 09' 52.900"	W 073 06' 08.300"	41.1647	-73.1023	LNM 51/13, 1st Dist	2185	12370_1	12/13/2013
12370	Change	Tabulation - Housatonic River Channel Depths	Tabulation - Housatonic River Channel Depths	N 41 13' 13.000"	W 073 04' 58.000"	41.22028	-73.08278	LNM 51/13, 1st Dist	2185	12370_1	12/13/2013
12370	Delete	Depth Legend - Milford Harbor, CT:	6 1/2 FT	N 41 12' 45.560"	W 073 03' 08.060"	41.21265	-73.05224	LNM 38/13, 1st Dist	2185	12370_1	9/13/2013
12370	Add	Depth Legend - Milford Harbor, CT:	7 FT 2012	N 41 12' 43.870"	W 073 03' 05.030"	41.21218	-73.0514	LNM 38/13, 1st Dist	2185	12370_1	9/13/2013
12370	Add	Depth Legend - Milford Harbor, CT:	6 1/2 FT 2010	N 41 12' 52.960"	W 073 03' 15.350"	41.21471	-73.05426	LNM 38/13, 1st Dist	2185	12370_1	9/13/2013
12370	Add	Channel Reach Separation Line PT 1 OF 2	(solid magenta line)	N 41 12' 45.290"	W 073 03' 05.500"	41.21258	-73.05153	LNM 38/13, 1st Dist	2185	12370_1	9/13/2013
12370	Add	Channel Reach Separation Line PT 2 OF 2	(solid magenta line)	N 41 12' 43.730"	W 073 03' 07.430"	41.21215	-73.05206	LNM 38/13, 1st Dist	2185	12370_1	9/13/2013
12370	Add	Sounding in Feet	1	N 41 12' 37.460"	W 073 02' 55.900"	41.21041	-73.04886	LNM 38/13, 1st Dist	2185	12370_1	9/13/2013
12370	Change	Depth Legend - Milford Harbor, CT to:	6 1/2 FT FOR 100 FT 2012	N 41 12' 36.770"	W 073 02' 56.400"	41.21021	-73.049	LNM 38/13, 1st Dist	2185	12370_1	9/13/2013
12370	Change	Depth Legend - Milford Harbor, CT to:	6 FT NOV 2010	N 41 12' 56.130"	W 073 03' 16.240"	41.21559	-73.05451	LNM 38/13, 1st Dist	2185	12370_1	9/13/2013
12370	Add	Sounding in Feet	3	N 41 13' 10.870"	W 073 03' 14.870"	41.21968	-73.05413	LNM 38/13, 1st Dist	2185	12370_1	9/13/2013
12370	Add	Channel Reach Separation Line PT 1 OF 2	(solid magenta line)	N 41 12' 46.020"	W 073 03' 04.680"	41.21278	-73.0513	LNM 38/13, 1st Dist	2185	12370_1	9/13/2013
12370	Add	Channel Reach Separation Line PT 2 OF 2	(solid magenta line)	N 41 12' 45.290"	W 073 03' 05.500"	41.21258	-73.05153	LNM 38/13, 1st Dist	2185	12370_1	9/13/2013
12370	Change	Bridge Construction Label	Bridge under construction (see note)	N 41 12' 17.200"	W 073 06' 34.900"	41.20478	-73.1097	LNM 15/13, 1st Dist	2185	12370_1	4/3/2013
12370	Add	Bridge Construction PT 1 OF 2	Chart No. 1: D.d, with magenta screen extending 500 feet from bridge	N 41 12' 18.200"	W 073 06' 40.800"	41.20506	-73.11134	LNM 15/13, 1st Dist	2185	12370_1	4/3/2013
12370	Add	Bridge Construction PT 2 OF 2	Chart No. 1: D.d, with magenta screen extending 500 feet from bridge	N 41 12' 21.200"	W 073 06' 29.900"	41.20589	-73.10831	LNM 15/13, 1st Dist	2185	12370_1	4/3/2013
12370	Add	Bridge Construction PT 1 OF 2	Chart No. 1: D.d, with magenta screen extending 500 feet from bridge	N 41 12' 16.400"	W 073 06' 27.900"	41.20456	-73.10775	LNM 15/13, 1st Dist	2185	12370_1	4/3/2013
12370	Add	Bridge Construction PT 2 OF 2	Chart No. 1: D.d, with magenta screen extending 500 feet from bridge	N 41 12' 13.100"	W 073 06' 40.600"	41.20364	-73.11127	LNM 15/13, 1st Dist	2185	12370_1	4/3/2013
12370	Add	Note - CAUTION:	Fixed and floating obstructions, some submerged, may exist within the magenta tinted bridge construction area. Mariners are advised to proceed with caution.	N 41 12' 35.000"	W 073 07' 37.000"	41.20972	-73.12695	LNM 15/13, 1st Dist	2185	12370_1	4/3/2013
12370	Change	Tabulation - Housatonic River Channel Depths	Tabulation - Housatonic River Channel Depths	N 41 13' 13.000"	W 073 04' 58.000"	41.22028	-73.08278	LNM 28/12, 1st Dist	2185	12370_1	7/9/2012
12371	Relocate	SOUTHWEST LEDGE LIGHT	Fl R 5s 57ft 14M HORN	N 41 14' 03.700"	W 072 54' 43.800"	41.23436	-72.91217	LNM 37/16, 1st Dist	2183	12371_1	9/22/2016
12371	Change	TOWNSEND LEDGE LTD BUOY 10A	R "10A" Fl R 4s	N 41 12' 30.720"	W 072 51' 47.161"	41.20853	-72.8631	LNM 29/16, 1st Dist	2183	12371_1	7/28/2016
12371	Relocate	TOWNSEND LEDGE LTD BUOY 10A	R "10A" Fl R 4s	N 41 12' 30.720"	W 072 51' 47.161"	41.20853	-72.8631	LNM 29/16, 1st Dist	2183	12371_1	7/28/2016
12371	Relocate	NEW HAVEN HARBOR CHANNEL BUOY 16	R N "16"	N 41 16' 22.282"	W 072 54' 38.514"	41.27286	-72.9107	LNM 24/16, 1st Dist	2183	12371_1	6/23/2016
12371	Delete	NEW HAVEN WHARF LIGHT A	F R "A" Priv	N 41 17' 42.420"	W 072 54' 20.100"	41.29512	-72.90559	LNM 22/15, 1st Dist	2184	12371_2	6/18/2015
12371	Delete	NEW HAVEN WHARF LIGHT A	F R "A" Priv	N 41 17' 42.420"	W 072 54' 20.100"	41.29512	-72.90559	LNM 22/15, 1st Dist	2183	12371_1	6/18/2015
12371	Delete	NEW HAVEN WHARF LIGHT B	F R "B" Priv	N 41 17' 43.200"	W 072 54' 20.160"	41.29533	-72.9056	LNM 22/15, 1st Dist	2184	12371_2	6/18/2015
12371	Delete	NEW HAVEN WHARF LIGHT B	F R "B" Priv	N 41 17' 43.200"	W 072 54' 20.160"	41.29533	-72.9056	LNM 22/15, 1st Dist	2183	12371_1	6/18/2015
12371	Delete	NEW HAVEN WHARF LIGHT C	F R "C" Priv	N 41 17' 45.360"	W 072 54' 18.240"	41.29593	-72.90507	LNM 22/15, 1st Dist	2184	12371_2	6/18/2015
12371	Delete	NEW HAVEN WHARF LIGHT C	F R "C" Priv	N 41 17' 45.360"	W 072 54' 18.240"	41.29593	-72.90507	LNM 22/15, 1st Dist	2183	12371_1	6/18/2015
12371	Delete	NEW HAVEN WHARF LIGHT D	F R 18ft "D" Priv	N 41 17' 46.200"	W 072 54' 16.260"	41.29617	-72.90452	LNM 22/15, 1st Dist	2184	12371_2	6/18/2015
12371	Delete	NEW HAVEN WHARF LIGHT D	F R 18ft "D" Priv	N 41 17' 46.200"	W 072 54' 16.260"	41.29617	-72.90452	LNM 22/15, 1st Dist	2183	12371_1	6/18/2015
12371	Change	label	EAST BRANCH	N 41 18' 25.000"	W 072 54' 21.500"	41.30695	-72.90598	LNM 15/15, 1st Dist	2183	12371_1	4/16/2015
12371	Change	label	WEST BRANCH	N 41 18' 20.000"	W 072 54' 26.500"	41.30556	-72.90736	LNM 15/15, 1st Dist	2183	12371_1	4/16/2015
12371	Add	magenta channel reach separator PT 1 OF 2	None	N 41 17' 55.230"	W 072 54' 14.830"	41.29868	-72.90412	LNM 15/15, 1st Dist	2183	12371_1	4/16/2015
12371	Add	magenta channel reach separator PT 2 OF 2	None	N 41 17' 56.960"	W 072 54' 17.070"	41.29916	-72.90474	LNM 15/15, 1st Dist	2183	12371_1	4/16/2015
12371	Add	magenta channel reach separator PT 1 OF 2	None	N 41 18' 16.760"	W 072 54' 22.220"	41.30466	-72.90617	LNM 15/15, 1st Dist	2183	12371_1	4/16/2015
12371	Add	magenta channel reach separator PT 2 OF 2	None	N 41 18' 18.870"	W 072 54' 22.510"	41.30524	-72.90625	LNM 15/15, 1st Dist	2183	12371_1	4/16/2015
12371	Delete	magenta channel reach separator PT 1 OF 2	None	N 41 17' 53.880"	W 072 54' 17.750"	41.2983	-72.90493	LNM 15/15, 1st Dist	2184	12371_2	4/16/2015
12371	Delete	magenta channel reach separator PT 1 OF 2	None	N 41 17' 53.880"	W 072 54' 17.750"	41.2983	-72.90493	LNM 15/15, 1st Dist	2183	12371_1	4/16/2015
12371	Delete	magenta channel reach separator PT 2 OF 2	None	N 41 17' 54.650"	W 072 54' 18.890"	41.29852	-72.90525	LNM 15/15, 1st Dist	2184	12371_2	4/16/2015
12371	Delete	magenta channel reach separator PT 2 OF 2	None	N 41 17' 54.650"	W 072 54' 18.890"	41.29852	-72.90525	LNM 15/15, 1st Dist	2183	12371_1	4/16/2015
12371	Delete	magenta channel reach separator PT 1 OF 2	None	N 41 18' 16.550"	W 072 54' 22.170"	41.3046	-72.90616	LNM 15/15, 1st Dist	2183	12371_1	4/16/2015
12371	Delete	magenta channel reach separator PT 2 OF 2	None	N 41 18' 16.770"	W 072 54' 19.580"	41.30466	-72.90544	LNM 15/15, 1st Dist	2183	12371_1	4/16/2015
12371	Add	magenta channel reach separator PT 1 OF 2	None	N 41 17' 55.230"	W 072 54' 14.830"	41.29868	-72.90412	LNM 15/15, 1st Dist	2184	12371_2	4/16/2015
12371	Add	magenta channel reach separator PT 2 OF 2	None	N 41 17' 56.420"	W 072 54' 16.370"	41.29901	-72.90455	LNM 15/15, 1st Dist	2184	12371_2	4/16/2015
12371	Add	magenta channel reach separator PT 1 OF 2	None	N 41 18' 19.470"	W 072 54' 21.300"	41.30541	-72.90591	LNM 15/15, 1st Dist	2183	12371_1	4/16/2015
12371	Add	magenta channel reach separator PT 2 OF 2	None	N 41 18' 19.590"	W 072 54' 20.000"	41.30544	-72.90556	LNM 15/15, 1st Dist	2183	12371_1	4/16/2015
12371	Add	tabulation - New Haven Harbor Channel Depths	tabulation - New Haven Harbor Channel Depths	N 41 17' 45.000"	W 072 52' 27.000"	41.29583	-72.87417	LNM 15/15, 1st Dist	2183	12371_1	4/9/2015
12371	Add	tabulation - Quinnipiac and Mill Rivers Channel Depths	tabulation - Quinnipiac and Mill Rivers Channel Depths	N 41 17' 00.000"	W 072 52' 27.000"	41.28333	-72.87417	LNM 15/15, 1st Dist	2183	12371_1	4/9/2015
12371	Delete	tabulation - New Haven Harbor Channel Depths	tabulation - New Haven Harbor Channel Depths	N 41 17' 30.000"	W 072 52' 27.000"	41.29167	-72.87417	LNM 15/15, 1st Dist	2183	12371_1	4/9/2015
12371	Delete	label: WEST RIVER CHANNEL (see tabulation)	WEST RIVER CHANNEL (see tabulation)	N 41 16' 54.500"	W 072 55' 16.000"	41.28181	-72.92111	LNM 14/15, 1st Dist	2184	12371_2	4/2/2015
12371	Add	Depth Legend - West River Channel	6 FT JAN 2012	N 41 16' 40.000"	W 072 56' 12.000"	41.27778	-72.93667	LNM 14/15, 1st Dist	2183	12371_1	4/2/2015
12371	Add	Sounding in Feet	8	N 41 16' 56.450"	W 072 55' 01.100"	41.28235	-72.91697	LNM 14/15, 1st Dist	2184	12371_2	4/2/2015
12371	Add	Sounding in Feet	8	N 41 16' 56.450"	W 072 55' 01.100"	41.28235	-72.91697	LNM 14/15, 1st Dist	2183	12371_1	4/2/2015
12371	Delete	tabulation - West River Channel	tabulation - West River Channel	N 41 16' 47.000"	W 072 57' 46.000"	41.27972	-72.96278	LNM 14/15, 1st Dist	2183	12371_1	4/2/2015
12371	Delete	label: (see tabulation)	(see tabulation)	N 41 16' 56.700"	W 072 55' 25.200"	41.28242	-72.92367	LNM 14/15, 1st Dist	2183	12371_1	4/2/2015
12371	Add	Depth Legend - West River Channel	4 FT JAN 2012	N 41 16' 38.000"	W 072 56' 05.000"	41.27722	-72.93472	LNM 14/15, 1st Dist	2183	12371_1	4/2/2015
12371	Add	Depth Legend - West River Channel	4 FT 2012	N 41 16' 48.500"	W 072 56' 17.000"	41.28014	-72.93806	LNM 14/15, 1st Dist	2183	12371_1	4/2/2015
12371	Add	magenta channel reach separator PT 1 OF 2	N/A	N 41 16' 51.450"	W 072 56' 16.350"	41.28096	-72.93787	LNM 14/15, 1st Dist	2183	12371_1	4/2/2015
12371	Add	magenta channel reach separator PT 2 OF 2	N/A	N 41 16' 51.320"	W 072 56' 17.960"	41.28092	-72.93832	LNM 14/15, 1st Dist	2183	12371_1	4/2/2015
12371	Add	Depth Legend - West River Channel	4 1/2 FT JAN 2012	N 41 16' 54.000"	W 072 56' 20.000"	41.28167	-72.93889	LNM 14/15, 1st Dist	2183	12371_1	4/2/2015
12371	Add	Depth Legend - West River Channel	9 FT JAN 2012	N 41 16' 54.000"	W 072 55' 27.000"	41.28167	-72.92416	LNM 14/15, 1st Dist	2184	12371_2	4/2/2015
12371	Add	Depth Legend - West River Channel	9 FT JAN 2012	N 41 16' 54.000"	W 072 55' 27.000"	41.28167	-72.92416	LNM 14/15, 1st Dist	2183	12371_1	4/2/2015
12371	Change	tabulation - New Haven Harbor Channel	tabulation - New Haven Harbor Channel	N 41 17' 30.000"	W 072 52' 27.000"	41.29167	-72.87417	LNM 10/15, 1st Dist	2183	12371_1	3/12/2015
12371	Change	Depth Legend - New Haven Wharf	23 FT FEB 2014	N 41 17' 45.000"	W 072 54' 21.700"	41.29583	-72.90603	LNM 08/15, 1st Dist	2184	12371_2	2/26/2015
12371	Change	Depth Legend - New Haven Reach Turning Basin	35 FT FEB 2014	N 41 17' 26.500"	W 072 54' 42.500"	41.2907	-72.9118	LNM 08/15, 1st Dist	2184	12371_2	2/26/2015
12371	Change	Depth Legend - New Haven Reach Turning Basin	35 FT FEB 2014	N 41 17' 26.500"	W 072 54' 42.500"	41.2907	-72.9118	LNM 08/15, 1st Dist	2183	12371_1	2/26/2015
12371	Change	Depth Legend -New Haven Wharf	23 FT 2014	N 41 17' 45.000"	W 072 54' 21.700"	41.29583	-72.90603	LNM 08/15, 1st Dist	2183	12371_1	2/26/2015
12371	Relocate	New Haven Long Wharf Light	Fl G 4s 19ft 4M	N 41 17' 33.731"	W 072 54' 54.872"	41.2927	-72.91525	LNM 47/13, 1st Dist	2184	12371_2	12/2/2013
12371	Relocate	New Haven Long Wharf Light	Fl G 4s 19ft 4M	N 41 17' 33.731"	W 072 54' 54.872"	41.2927	-72.91525	LNM 47/13, 1st Dist	2183	12371_1	12/2/2013
12371	Relocate	Sandy Point Breakwater Light	Fl 4s 17ft 7M	N 41 15' 44.365"	W 072 55' 04.393"	41.26233	-72.91788	LNM 36/13, 1st Dist	2183	12371_1	9/12/2013
12371	Change	Sandy Point Breakwater Light	Fl 4s 17ft 7M	N 41 15' 44.365"	W 072 55' 04.393"	41.26233	-72.91788	LNM 36/13, 1st Dist	2183	12371_1	9/12/2013
12371	Relocate	West Haven Channel Buoy 3	G C "3"	N 41 16' 53.466"	W 072 55' 11.460"	41.28152	-72.91985	LNM 32/13, 1st Dist	2184	12371_2	8/8/2013
12371	Relocate	West Haven Channel Buoy 3	G C "3"	N 41 16' 53.466"	W 072 55' 11.460"	41.28152	-72.91985	LNM 32/13, 1st Dist	2183	12371_1	8/8/2013
12371	Delete	Anchorage Area PT 1 OF 6	Chart No. 1: N12.1	N 41 17' 31.300"	W 072 54' 51.700"	41.29203	-72.91436	LNM 16/13, 1st Dist	2184	12371_2	4/15/2013
12371	Delete	Anchorage Area PT 1 OF 6	Chart No. 1: N12.1	N 41 17' 31.300"	W 072 54' 51.700"	41.29203	-72.91436	LNM 16/13, 1st Dist	2183	12371_1	4/15/2013
12371	Delete	Anchorage Area PT 2 OF 6	Chart No. 1: N12.1	N 41 17' 37.800"	W 072 54' 48.600"	41.29383	-72.9135	LNM 16/13, 1st Dist	2184	12371_2	4/15/2013
12371	Delete	Anchorage Area PT 2 OF 6	Chart No. 1: N12.1	N 41 17' 37.800"	W 072 54' 48.600"	41.29383	-72.9135	LNM 16/13, 1st Dist	2183	12371_1	4/15/2013
12371	Delete	Anchorage Area PT 3 OF 6	Chart No. 1: N12.1	N 41 17' 43.900"	W 072 54' 55.100"	41.29553	-72.91531	LNM 16/13, 1st Dist	2184	12371_2	4/15/2013
12371	Delete	Anchorage Area PT 3 OF 6	Chart No. 1: N12.1	N 41 17' 43.900"	W 072 54' 55.100"	41.29553	-72.91531	LNM 16/13, 1st Dist	2183	12371_1	4/15/2013
12371	Delete	Anchorage Area PT 4 OF 6	Chart No. 1: N12.1	N 41 17' 47.500"	W 072 54' 47.400"	41.29653	-72.91317	LNM 16/13, 1st Dist	2184	12371_2	4/15/2013
12371	Delete	Anchorage Area PT 4 OF 6	Chart No. 1: N12.1	N 41 17' 47.500"	W 072 54' 47.400"	41.29653	-72.91317	LNM 16/13, 1st Dist	2183	12371_1	4/15/2013
12371	Delete	Anchorage Area PT 5 OF 6	Chart No. 1: N12.1	N 41 17' 47.500"	W 072 54' 38.300"	41.29653	-72.91064	LNM 16/13, 1st Dist	2184	12371_2	4/15/2013
12371	Delete	Anchorage Area PT 5 OF 6	Chart No. 1: N12.1	N 41 17' 47.500"	W 072 54' 38.300"	41.29653	-72.91064	LNM 16/13, 1st Dist	2183	12371_1	4/15/2013
12371	Delete	Anchorage Area PT 6 OF 6	Chart No. 1: N12.1	N 41 17' 52.500"	W 072 54' 24.200"	41.29792	-72.90672	LNM 16/13, 1st Dist	2184	12371_2	4/15/2013
12371	Delete	Anchorage Area PT 6 OF 6	Chart No. 1: N12.1	N 41 17' 52.500"	W 072 54' 24.200"	41.29792	-72.90672	LNM 16/13, 1st Dist	2183	12371_1	4/15/2013
12371	Delete	Anchorage Area Label	ANCHORAGE AREA	N 41 17' 44.100"	W 072 54' 42.300"	41.29558	-72.91175	LNM 16/13, 1st Dist	2184	12371_2	4/15/2013
12371	Delete	Anchorage Area Label	ANCHORAGE AREA	N 41 17' 44.100"	W 072 54' 42.300"	41.29558	-72.91175	LNM 16/13, 1st Dist	2183	12371_1	4/15/2013
12371	Change	Bridge Construction	Chart No. 1: D.d, with magenta screen extending 500 feet from bridge	N 41 17' 55.800"	W 072 54' 14.600"	41.29883	-72.90405	LNM 15/13, 1st Dist	2184	12371_2	4/3/2013
12371	Change	Bridge Construction	Chart No. 1: D.d, with magenta screen extending 500 feet from bridge	N 41 17' 55.800"	W 072 54' 14.600"	41.29883	-72.90405	LNM 15/13, 1st Dist	2183	12371_1	4/3/2013
12371	Delete	Fixed Bridge Label	FIXED BRIDGE HOR CL 283 FT VERT CL 60 FT	N 41 17' 55.800"	W 072 54' 14.600"	41.29883	-72.90405	LNM 15/13, 1st Dist	2184	12371_2	4/3/2013
12371	Delete	Fixed Bridge Label	FIXED BRIDGE HOR CL 283 FT VERT CL 60 FT	N 41 17' 55.800"	W 072 54' 14.600"	41.29883	-72.90405	LNM 15/13, 1st Dist	2183	12371_1	4/3/2013
12371	Add	Bridge Construction PT 1 OF 2	Chart No. 1: D.d, with magenta screen extending 500 feet from bridge	N 41 17' 56.400"	W 072 54' 16.600"	41.299	-72.90461	LNM 15/13, 1st Dist	2184	12371_2	4/3/2013
12371	Add	Bridge Construction PT 2 OF 2	Chart No. 1: D.d, with magenta screen extending 500 feet from bridge	N 41 17' 51.500"	W 072 54' 10.600"	41.29764	-72.90295	LNM 15/13, 1st Dist	2184	12371_2	4/3/2013
12371	Add	Bridge Construction PT 1 OF 2	Chart No. 1: D.d, with magenta screen extending 500 feet from bridge	N 41 17' 51.400"	W 072 54' 11.800"	41.29761	-72.90327	LNM 15/13, 1st Dist	2184	12371_2	4/3/2013
12371	Add	Bridge Construction PT 2 OF 2	Chart No. 1: D.d, with magenta screen extending 500 feet from bridge	N 41 17' 56.400"	W 072 54' 18.700"	41.299	-72.9052	LNM 15/13, 1st Dist	2184	12371_2	4/3/2013
12371	Add	Bridge Construction Label	Bridges under construction (see note)	N 41 17' 55.800"	W 072 54' 14.600"	41.29883	-72.90405	LNM 15/13, 1st Dist	2184	12371_2	4/3/2013
12371	Add	Bridge Construction Label	Bridges under construction (see note)	N 41 17' 55.800"	W 072 54' 14.600"	41.29883	-72.90405	LNM 15/13, 1st Dist	2183	12371_1	4/3/2013
12371	Add	note - CAUTION:	Fixed and floating obstructions, some submerged, may exist within the magenta tinted bridge construction area. Mariners are advised to proceed with caution.	N 41 17' 34.500"	W 072 53' 45.200"	41.29292	-72.89589	LNM 15/13, 1st Dist	2183	12371_1	4/3/2013
12371	Add	Bridge Construction PT 1 OF 2	Chart No. 1: D.d, with magenta screen extending 500 feet from bridge	N 41 17' 58.200"	W 072 54' 20.900"	41.2995	-72.90581	LNM 15/13, 1st Dist	2183	12371_1	4/3/2013
12371	Add	Bridge Construction PT 2 OF 2	Chart No. 1: D.d, with magenta screen extending 500 feet from bridge	N 41 17' 51.400"	W 072 54' 11.800"	41.29761	-72.90327	LNM 15/13, 1st Dist	2183	12371_1	4/3/2013
12371	Add	Bridge Construction PT 1 OF 2	Chart No. 1: D.d, with magenta screen extending 500 feet from bridge	N 41 17' 51.500"	W 072 54' 10.600"	41.29764	-72.90295	LNM 15/13, 1st Dist	2183	12371_1	4/3/2013
12371	Add	Bridge Construction PT 2 OF 2	Chart No. 1: D.d, with magenta screen extending 500 feet from bridge	N 41 17' 59.000"	W 072 54' 20.000"	41.29972	-72.90556	LNM 15/13, 1st Dist	2183	12371_1	4/3/2013
12371	Change	Depth Legend - New Haven Harbor to:	27 1/2 FT FEB 2012	N 41 17' 26.500"	W 072 54' 42.500"	41.2907	-72.9118	LNM 11/13, 1st Dist	2184	12371_2	3/5/2013
12371	Change	Depth Legend - New Haven Harbor to:	27 1/2 FT 2012	N 41 17' 26.500"	W 072 54' 42.500"	41.2907	-72.9118	LNM 11/13, 1st Dist	2183	12371_1	3/5/2013
12371	Change	Depth Legend - New Haven Harbor to:	25 FT 1994 - 2012	N 41 17' 45.000"	W 072 54' 21.700"	41.29583	-72.90603	LNM 11/13, 1st Dist	2184	12371_2	3/5/2013
12371	Change	Depth Legend - New Haven Harbor to:	25 FT 1994 - 2012	N 41 17' 45.000"	W 072 54' 21.700"	41.29583	-72.90603	LNM 11/13, 1st Dist	2183	12371_1	3/5/2013
12371	Change	Tabulation - NEW HAVEN HARBOR CHANNEL DEPTHS	Tabulation - NEW HAVEN HARBOR CHANNEL DEPTHS	N 41 17' 30.000"	W 072 52' 27.000"	41.29167	-72.87417	LNM 11/13, 1st Dist	2183	12371_1	3/5/2013
12371	Relocate	New Haven Harbor Outer Channel Range Front Light	F G 34ft	N 41 15' 38.743"	W 072 56' 05.064"	41.26076	-72.93474	LNM 37/12, 1st Dist	2183	12371_1	9/17/2012
12371	Change	New Haven Harbor Outer Channel Range Front Light	F G 34ft	N 41 15' 38.743"	W 072 56' 05.064"	41.26076	-72.93474	LNM 37/12, 1st Dist	2183	12371_1	9/17/2012
12371	Relocate	New Haven Harbor Outer Channel Range Rear Light	F G 68ft	N 41 16' 01.016"	W 072 56' 19.741"	41.26695	-72.93882	LNM 37/12, 1st Dist	2183	12371_1	9/17/2012
12371	Change	New Haven Harbor Outer Channel Range Rear Light	F G 68ft	N 41 16' 01.016"	W 072 56' 19.741"	41.26695	-72.93882	LNM 37/12, 1st Dist	2183	12371_1	9/17/2012
12372	Change	MYSTIC RIVER AUXILLARY DBN 5	G "5" Priv	N 41 20' 31.342"	W 071 57' 57.143"	41.34204	-71.96587	LNM 18/17, 1st Dist	2164	12372_1	5/11/2017
12372	Change	MYSTIC RIVER AUXILLARY DBN 7	G "7" Priv	N 41 20' 32.615"	W 071 57' 53.625"	41.34239	-71.9649	LNM 18/17, 1st Dist	2164	12372_1	5/11/2017
12372	Change	MYSTIC RIVER AUXILLARY DBN 8	R "8" Priv	N 41 20' 36.383"	W 071 57' 49.937"	41.34344	-71.96387	LNM 18/17, 1st Dist	2164	12372_1	5/11/2017
12372	Relocate	LATIMER REEF BUOY 12	R N "12"	N 41 18' 15.476"	W 071 55' 32.357"	41.3043	-71.92565	LNM 06/17, 1st Dist	2164	12372_1	2/16/2017
12372	Add	disposal area PT 1 OF 10	(use Chart No. 1: N24)	N 41 16' 40.290"	W 072 05' 13.800"	41.27786	-72.08717	LNM 06/17, 1st Dist	2164	12372_1	2/2/2017
12372	Add	disposal area PT 2 OF 10	(use Chart No. 1: N24)	N 41 16' 48.600"	W 072 05' 13.800"	41.28017	-72.08717	LNM 06/17, 1st Dist	2164	12372_1	2/2/2017
12372	Add	disposal area PT 3 OF 10	(use Chart No. 1: N24)	N 41 16' 48.600"	W 072 05' 53.400"	41.28017	-72.09817	LNM 06/17, 1st Dist	2164	12372_1	2/2/2017
12372	Add	disposal area PT 4 OF 10	(use Chart No. 1: N24)	N 41 16' 20.400"	W 072 05' 53.400"	41.27234	-72.09817	LNM 06/17, 1st Dist	2164	12372_1	2/2/2017
12372	Add	disposal area PT 5 OF 10	(use Chart No. 1: N24)	N 41 16' 13.200"	W 072 06' 06.600"	41.27033	-72.10183	LNM 06/17, 1st Dist	2164	12372_1	2/2/2017
12372	Add	disposal area PT 6 OF 10	(use Chart No. 1: N24)	N 41 16' 48.600"	W 072 06' 26.400"	41.28017	-72.10733	LNM 06/17, 1st Dist	2164	12372_1	2/2/2017
12372	Add	disposal area PT 7 OF 10	(use Chart No. 1: N24)	N 41 16' 48.600"	W 072 07' 13.200"	41.28017	-72.12033	LNM 06/17, 1st Dist	2164	12372_1	2/2/2017
12372	Add	disposal area PT 8 OF 10	(use Chart No. 1: N24)	N 41 15' 58.200"	W 072 07' 13.200"	41.26617	-72.12033	LNM 06/17, 1st Dist	2164	12372_1	2/2/2017
12372	Add	disposal area PT 9 OF 10	(use Chart No. 1: N24)	N 41 15' 48.600"	W 072 06' 34.800"	41.2635	-72.10966	LNM 06/17, 1st Dist	2164	12372_1	2/2/2017
12372	Add	disposal area PT 10 OF 10	(use Chart No. 1: N24)	N 41 15' 48.600"	W 072 05' 13.800"	41.2635	-72.08717	LNM 06/17, 1st Dist	2164	12372_1	2/2/2017
12372	Relocate	LITTLE GULL ISLAND REEF BUOY 1	G C "1"	N 41 12' 29.662"	W 072 06' 08.682"	41.20824	-72.10241	LNM 01/17, 1st Dist	2164	12372_1	1/12/2017
12372	Delete	HAMBURG COVE BUOY 15	G C "15" Priv	N 41 22' 34.244"	W 072 21' 39.437"	41.37618	-72.36095	LNM 47/16, 1st Dist	2174	12372_10	12/1/2016
12372	Delete	HAMBURG COVE BUOY 21	G C "21" Priv	N 41 22' 36.165"	W 072 21' 36.444"	41.37671	-72.36012	LNM 47/16, 1st Dist	2174	12372_10	12/1/2016
12372	Delete	HAMBURG COVE BUOY 23	G C "23" Priv	N 41 22' 39.345"	W 072 21' 33.349"	41.37759	-72.35926	LNM 47/16, 1st Dist	2174	12372_10	12/1/2016
12372	Delete	HAMBURG COVE BUOY 25	G C "25" Priv	N 41 22' 41.787"	W 072 21' 31.410"	41.37827	-72.35873	LNM 47/16, 1st Dist	2174	12372_10	12/1/2016
12372	Delete	HAMBURG COVE DBN 17	G "17" Priv	N 41 22' 34.844"	W 072 21' 38.000"	41.37635	-72.36056	LNM 47/16, 1st Dist	2174	12372_10	12/1/2016
12372	Delete	HAMBURG COVE DBN 19	G "19" Priv	N 41 22' 35.685"	W 072 21' 37.502"	41.37658	-72.36042	LNM 47/16, 1st Dist	2174	12372_10	12/1/2016
12372	Delete	HAMBURG COVE DBN 27	G "27" Priv	N 41 22' 45.200"	W 072 21' 28.000"	41.37922	-72.35778	LNM 47/16, 1st Dist	2174	12372_10	12/1/2016
12372	Delete	HAMBURG COVE DBN 29	G "29" Priv	N 41 22' 47.548"	W 072 21' 26.000"	41.37988	-72.35722	LNM 47/16, 1st Dist	2174	12372_10	12/1/2016
12372	Delete	HAMBURG COVE DBN 31	G "31" Priv	N 41 22' 48.325"	W 072 21' 25.334"	41.38009	-72.35704	LNM 47/16, 1st Dist	2174	12372_10	12/1/2016
12372	Delete	HAMBURG COVE ENTRANCE BUOY 3	G C "3" Priv	N 41 22' 29.516"	W 072 22' 10.616"	41.37487	-72.36961	LNM 47/16, 1st Dist	2174	12372_10	12/1/2016
12372	Delete	HAMBURG COVE ENTRANCE BUOY 4	R N "4" Priv	N 41 22' 29.542"	W 072 22' 06.239"	41.37487	-72.3684	LNM 47/16, 1st Dist	2174	12372_10	12/1/2016
12372	Delete	HAMBURG COVE ENTRANCE BUOY 5	G C "5" Priv	N 41 22' 30.653"	W 072 22' 04.765"	41.37518	-72.36799	LNM 47/16, 1st Dist	2174	12372_10	12/1/2016
12372	Delete	HAMBURG COVE ENTRANCE BUOY 6	R N "6" Priv	N 41 22' 22.798"	W 072 22' 04.103"	41.373	-72.36781	LNM 47/16, 1st Dist	2174	12372_10	12/1/2016
12372	Delete	HAMBURG COVE ENTRANCE DBN 10	R "10" Priv	N 41 22' 29.800"	W 072 22' 01.000"	41.37494	-72.36694	LNM 47/16, 1st Dist	2174	12372_10	12/1/2016
12372	Delete	HAMBURG COVE ENTRANCE DBN 13	G "13" Priv	N 41 22' 30.309"	W 072 21' 55.865"	41.37509	-72.36552	LNM 47/16, 1st Dist	2174	12372_10	12/1/2016
12372	Delete	HAMBURG COVE ENTRANCE DBN 8	R "8" Priv	N 41 22' 30.119"	W 072 22' 02.460"	41.37503	-72.36735	LNM 47/16, 1st Dist	2174	12372_10	12/1/2016
12372	Add	HAMBURG COVE NOTE	Hamburg Cove is marked by seasonal uncharted private aids to navigation. Mariners are advised to use caution.	N 41 22' 22.000"	W 072 21' 20.000"	41.37278	-72.35555	LNM 47/16, 1st Dist	2174	12372_10	12/1/2016
12372	Delete	OLD SAYBROOK NORTH COVE BUOY 1	G C "1" Priv	N 41 17' 24.540"	W 072 21' 19.620"	41.29015	-72.35545	LNM 45/16, 1st Dist	2175	12372_11	11/17/2016
12372	Relocate	OLD SAYBROOK NORTH COVE BUOY 2	R N "2" Priv	N 41 17' 27.060"	W 072 21' 08.040"	41.29085	-72.35223	LNM 45/16, 1st Dist	2175	12372_11	11/17/2016
12372	Relocate	OLD SAYBROOK NORTH COVE BUOY 3	G C "3" Priv	N 41 17' 25.140"	W 072 21' 12.180"	41.29032	-72.35339	LNM 45/16, 1st Dist	2175	12372_11	11/17/2016
12372	Add	OLD SAYBROOK NORTH COVE BUOY 4	R N "4" Priv	N 41 17' 26.100"	W 072 21' 15.060"	41.29058	-72.35419	LNM 45/16, 1st Dist	2175	12372_11	11/17/2016
12372	Relocate	OLD SAYBROOK NORTH COVE BUOY 5	G C "5" Priv	N 41 17' 23.040"	W 072 21' 32.760"	41.28973	-72.3591	LNM 45/16, 1st Dist	2175	12372_11	11/17/2016
12372	Add	OLD SAYBROOK NORTH COVE BUOY 6	R N "6" Priv	N 41 17' 24.360"	W 072 21' 32.940"	41.2901	-72.35915	LNM 45/16, 1st Dist	2175	12372_11	11/17/2016
12372	Add	GRAVING DOCK 3 NORTH LIGHT	Q R Priv	N 41 20' 53.600"	W 072 05' 03.100"	41.34822	-72.0842	LNM 43/16, 1st Dist	2172	12372_4	11/3/2016
12374	Delete	HAMMONASSET RIVER DBN 1	G "1" Priv	N 41 15' 59.400"	W 072 32' 02.640"	41.2665	-72.53407	LNM 28/16, 1st Dist	2162	12374_1	7/21/2016
12374	Add	Sounding in Feet	24	N 41 14' 02.700"	W 072 29' 27.200"	41.23409	-72.49089	LNM 16/16, 1st Dist	2162	12374_1	4/14/2016
12374	Add	Obstruction in Feet	12 Obstn       	N 41 15' 12.700"	W 072 29' 33.000"	41.25353	-72.4925	LNM 16/16, 1st Dist	2162	12374_1	4/14/2016
12374	Add	Sounding in Feet	21	N 41 14' 53.200"	W 072 33' 37.000"	41.24811	-72.56028	LNM 16/16, 1st Dist	2162	12374_1	4/14/2016
12374	Add	Sounding in Feet	21	N 41 14' 45.900"	W 072 33' 43.800"	41.24608	-72.56216	LNM 16/16, 1st Dist	2162	12374_1	4/14/2016
12374	Add	Sounding in Feet	21	N 41 14' 45.200"	W 072 33' 51.100"	41.24589	-72.56419	LNM 16/16, 1st Dist	2162	12374_1	4/14/2016
12374	Delete	Sounding in Feet	27	N 41 14' 54.300"	W 072 33' 37.100"	41.24842	-72.5603	LNM 16/16, 1st Dist	2162	12374_1	4/14/2016
12374	Add	Sounding in Feet	22	N 41 14' 13.300"	W 072 32' 01.500"	41.23703	-72.53375	LNM 16/16, 1st Dist	2162	12374_1	4/14/2016
12374	Delete	Sounding in Feet	28	N 41 14' 07.900"	W 072 32' 04.500"	41.23553	-72.53458	LNM 16/16, 1st Dist	2162	12374_1	4/14/2016
12374	Substitute	Sounding in Feet	32 for 38	N 41 14' 06.000"	W 072 30' 46.500"	41.235	-72.51292	LNM 16/16, 1st Dist	2162	12374_1	4/14/2016
12374	Add	Sounding in Feet	39	N 41 14' 01.500"	W 072 31' 01.600"	41.23375	-72.51711	LNM 16/16, 1st Dist	2162	12374_1	4/14/2016
12374	Add	Sounding in Feet	25	N 41 14' 10.100"	W 072 29' 25.700"	41.23614	-72.49047	LNM 16/16, 1st Dist	2162	12374_1	4/14/2016
12374	Delete	Sounding in Feet	28	N 41 14' 04.100"	W 072 29' 24.300"	41.23447	-72.49008	LNM 16/16, 1st Dist	2162	12374_1	4/14/2016
12374	Delete	Sounding in Feet	34	N 41 14' 09.800"	W 072 29' 27.900"	41.23606	-72.49108	LNM 16/16, 1st Dist	2162	12374_1	4/14/2016
12374	Add	Sounding in Feet	22	N 41 14' 38.400"	W 072 33' 59.400"	41.244	-72.5665	LNM 16/16, 1st Dist	2162	12374_1	4/14/2016
12374	Add	Sounding in Feet	25	N 41 14' 06.200"	W 072 32' 07.900"	41.23505	-72.53553	LNM 16/16, 1st Dist	2162	12374_1	4/14/2016
12374	Change	Depth Legend - Patchogue River	6 1/2 FT MAY 2015	N 41 16' 31.300"	W 072 28' 06.300"	41.27536	-72.46841	LNM 39/15, 1st Dist	2162	12374_1	9/24/2015
12374	Change	Depth Note - PATCHOGUE RIVER	The controlling depth was 6 1/2 feet for a width of 75 feet. Jun 2015	N 41 16' 31.000"	W 072 29' 07.000"	41.27528	-72.48528	LNM 39/15, 1st Dist	2162	12374_1	9/24/2015
12374	Substitute	Sounding in Feet	46 for 55	N 41 13' 46.800"	W 072 27' 26.400"	41.22967	-72.45734	LNM 36/15, 1st Dist	2162	12374_1	9/3/2015
12374	Add	Sounding in Feet	45	N 41 13' 25.600"	W 072 28' 38.000"	41.22378	-72.47722	LNM 36/15, 1st Dist	2162	12374_1	9/3/2015
12374	Delete	Sounding in Feet	60	N 41 13' 24.900"	W 072 28' 40.000"	41.22358	-72.47778	LNM 36/15, 1st Dist	2162	12374_1	9/3/2015
12374	Substitute	Sounding in Feet	26 for 30	N 41 14' 46.300"	W 072 28' 26.500"	41.24619	-72.47403	LNM 36/15, 1st Dist	2162	12374_1	9/3/2015
12374	Substitute	Sounding in Feet	38 for 67	N 41 14' 40.900"	W 072 27' 25.000"	41.24469	-72.45695	LNM 36/15, 1st Dist	2162	12374_1	9/3/2015
12374	Add	Sounding in Feet	32	N 41 14' 20.700"	W 072 27' 04.000"	41.23908	-72.45111	LNM 36/15, 1st Dist	2162	12374_1	9/3/2015
12374	Add	Sounding in Feet	16	N 41 15' 40.300"	W 072 28' 10.800"	41.2612	-72.46967	LNM 36/15, 1st Dist	2162	12374_1	9/3/2015
12374	Add	Sounding in Feet	14	N 41 15' 31.800"	W 072 27' 58.900"	41.25883	-72.46636	LNM 36/15, 1st Dist	2162	12374_1	9/3/2015
12374	Add	Sounding in Feet	4	N 41 15' 07.700"	W 072 28' 28.300"	41.25214	-72.47453	LNM 36/15, 1st Dist	2162	12374_1	9/3/2015
12374	Add	Sounding in Feet	35	N 41 14' 44.000"	W 072 28' 14.200"	41.24556	-72.47061	LNM 36/15, 1st Dist	2162	12374_1	9/3/2015
12374	Add	Sounding in Feet	34	N 41 14' 55.500"	W 072 27' 40.600"	41.24875	-72.46128	LNM 36/15, 1st Dist	2162	12374_1	9/3/2015
12374	Add	Sounding in Feet	34	N 41 14' 53.400"	W 072 27' 14.100"	41.24817	-72.45392	LNM 36/15, 1st Dist	2162	12374_1	9/3/2015
12374	Delete	Sounding in Feet	44	N 41 14' 54.200"	W 072 27' 13.000"	41.24839	-72.45361	LNM 36/15, 1st Dist	2162	12374_1	9/3/2015
12374	Relocate	PATCHOGUE RIVER CHANNEL BUOY 3	G C "3" 	N 41 16' 01.418"	W 072 28' 22.794"	41.26706	-72.473	LNM 26/15, 1st Dist	2162	12374_1	7/16/2015
12374	Change	Depth Legend - Clinton Harbor	8 FT MID 80 FT 2015	N 41 15' 53.370"	W 072 31' 26.770"	41.26482	-72.5241	LNM 18/15, 1st Dist	2162	12374_1	4/30/2015
12374	Change	Depth Legend - Clinton Harbor	8 FT 2015	N 41 16' 07.070"	W 072 31' 41.610"	41.26863	-72.52823	LNM 18/15, 1st Dist	2162	12374_1	4/30/2015
12374	Change	Depth Legend - Clinton Harbor	4 1/2 FT 2015	N 41 15' 29.910"	W 072 31' 37.880"	41.25831	-72.52719	LNM 18/15, 1st Dist	2162	12374_1	4/30/2015
12374	Add	Depth Legend - Clinton Harbor	5 1/2 FT	N 41 16' 07.890"	W 072 31' 36.250"	41.26886	-72.52673	LNM 18/15, 1st Dist	2162	12374_1	4/30/2015
12374	Add	Rock in Feet (Within Corresponding Depth Area)	19 Rk   	N 41 14' 37.900"	W 072 33' 18.100"	41.24386	-72.55503	Not Yet Published	2162	12374_1	4/9/2015
12374	Add	Rock in Feet (Within Corresponding Depth Area)	7 Rk     	N 41 15' 05.100"	W 072 33' 04.400"	41.25142	-72.55122	Not Yet Published	2162	12374_1	4/9/2015
12374	Add	Rock in Feet (Within Corresponding Depth Area)	3 Rk     	N 41 14' 47.900"	W 072 32' 59.500"	41.24664	-72.54986	Not Yet Published	2162	12374_1	4/9/2015
12374	Add	Rock in Feet (Within Corresponding Depth Area)	5 Rk     	N 41 14' 47.500"	W 072 32' 55.600"	41.24653	-72.54877	Not Yet Published	2162	12374_1	4/9/2015
12374	Add	Rock in Feet (Within Corresponding Depth Area)	56 Rk    	N 41 14' 12.300"	W 072 30' 12.700"	41.23675	-72.50352	Not Yet Published	2162	12374_1	4/9/2015
12374	Add	Rock in Feet (Within Corresponding Depth Area)	30 Rk     	N 41 14' 32.800"	W 072 29' 16.100"	41.24244	-72.48781	Not Yet Published	2162	12374_1	4/9/2015
12374	Add	Rock in Feet (Within Corresponding Depth Area)	59 Rk     	N 41 13' 28.800"	W 072 33' 28.900"	41.22467	-72.55803	Not Yet Published	2162	12374_1	4/9/2015
12374	Add	Rock in Feet (Within Corresponding Depth Area)	48 Rk     	N 41 14' 16.700"	W 072 29' 48.700"	41.23797	-72.49686	Not Yet Published	2162	12374_1	4/9/2015
12374	Add	Rock in Feet (Within Corresponding Depth Area)	30 Rk     	N 41 14' 27.900"	W 072 29' 15.200"	41.24109	-72.48756	Not Yet Published	2162	12374_1	4/9/2015
12374	Add	Rock in Feet (Within Corresponding Depth Area)	57 Rk     	N 41 14' 01.700"	W 072 30' 20.300"	41.23381	-72.50564	Not Yet Published	2162	12374_1	4/9/2015
12374	Add	Rock in Feet (Within Corresponding Depth Area)	4 Rk     	N 41 15' 04.900"	W 072 30' 27.600"	41.25136	-72.50767	Not Yet Published	2162	12374_1	4/9/2015
12374	Add	Rock in Feet (Within Corresponding Depth Area)	5 Rk     	N 41 14' 45.400"	W 072 33' 15.600"	41.24594	-72.55434	Not Yet Published	2162	12374_1	4/9/2015
12374	Add	Rock in Feet (Within Corresponding Depth Area)	10 Rk     	N 41 14' 43.400"	W 072 33' 07.300"	41.24539	-72.55202	Not Yet Published	2162	12374_1	4/9/2015
12374	Add	Rock in Feet (Within Corresponding Depth Area)	19 Rk     	N 41 14' 38.800"	W 072 33' 13.300"	41.24411	-72.5537	Not Yet Published	2162	12374_1	4/9/2015
12374	Add	Rock in Feet (Within Corresponding Depth Area)	10 Rk     	N 41 14' 50.100"	W 072 33' 10.700"	41.24725	-72.55297	Not Yet Published	2162	12374_1	4/9/2015
12374	Delete	Sounding in Feet	7	N 41 14' 47.900"	W 072 32' 58.500"	41.24664	-72.54958	Not Yet Published	2162	12374_1	4/9/2015
12374	Delete	Sounding in Feet	11	N 41 14' 45.300"	W 072 33' 02.000"	41.24592	-72.55055	Not Yet Published	2162	12374_1	4/9/2015
12374	Add	Rock in Feet (Within Corresponding Depth Area)	49 Rk     	N 41 13' 53.000"	W 072 31' 09.600"	41.23139	-72.51933	Not Yet Published	2162	12374_1	4/9/2015
12374	Add	Rock in Feet (Within Corresponding Depth Area)	18 Rk     	N 41 14' 40.700"	W 072 33' 23.500"	41.24464	-72.55653	Not Yet Published	2162	12374_1	4/9/2015
12374	Add	Rock in Feet (Within Corresponding Depth Area)	17 Rk     	N 41 15' 16.700"	W 072 34' 19.500"	41.25464	-72.57208	Not Yet Published	2162	12374_1	4/9/2015
12374	Add	Rock in Feet (Within Corresponding Depth Area)	15 Rk    	N 41 15' 01.900"	W 072 33' 16.300"	41.25053	-72.55453	Not Yet Published	2162	12374_1	4/9/2015
12374	Add	Rock in Feet (Within Corresponding Depth Area)	12 Rk     	N 41 14' 51.900"	W 072 33' 08.500"	41.24775	-72.55236	Not Yet Published	2162	12374_1	4/9/2015
12374	Add	Rock in Feet (Within Corresponding Depth Area)	3 Rk     	N 41 14' 45.400"	W 072 33' 00.600"	41.24594	-72.55016	Not Yet Published	2162	12374_1	4/9/2015
12374	Add	Rock in Feet (Within Corresponding Depth Area)	47 Rk     	N 41 14' 23.100"	W 072 29' 40.900"	41.23975	-72.4947	Not Yet Published	2162	12374_1	4/9/2015
12374	Add	Rock in Feet (Within Corresponding Depth Area)	54 Rk     	N 41 14' 05.000"	W 072 30' 12.300"	41.23472	-72.50342	Not Yet Published	2162	12374_1	4/9/2015
12374	Change	Depth Note - PATCHOGUE RIVER	The controlling depth was 7 feet for a width of 75 feet.  Sep 2014	N 41 16' 31.000"	W 072 29' 07.000"	41.27528	-72.48528	LNM 08/15, 1st Dist	2162	12374_1	2/26/2015
12374	Change	Depth Legend - Patchogue River	7 1/2 FT SEP 2014	N 41 16' 31.300"	W 072 28' 06.300"	41.27536	-72.46841	Not Yet Published	2162	12374_1	2/26/2015
12375	Delete	HAMBURG COVE BUOY 15	G C "15" Priv	N 41 22' 34.244"	W 072 21' 39.437"	41.37618	-72.36095	LNM 47/16, 1st Dist	2161	12375_1	12/1/2016
12375	Delete	HAMBURG COVE BUOY 21	G C "21" Priv	N 41 22' 36.165"	W 072 21' 36.444"	41.37671	-72.36012	LNM 47/16, 1st Dist	2161	12375_1	12/1/2016
12375	Delete	HAMBURG COVE BUOY 23	G C "23" Priv	N 41 22' 39.345"	W 072 21' 33.349"	41.37759	-72.35926	LNM 47/16, 1st Dist	2161	12375_1	12/1/2016
12375	Delete	HAMBURG COVE BUOY 25	G C "25" Priv	N 41 22' 41.787"	W 072 21' 31.410"	41.37827	-72.35873	LNM 47/16, 1st Dist	2161	12375_1	12/1/2016
12375	Delete	HAMBURG COVE DBN 17	G "17" Priv	N 41 22' 34.844"	W 072 21' 38.000"	41.37635	-72.36056	LNM 47/16, 1st Dist	2161	12375_1	12/1/2016
12375	Delete	HAMBURG COVE DBN 19	G "19" Priv	N 41 22' 35.685"	W 072 21' 37.502"	41.37658	-72.36042	LNM 47/16, 1st Dist	2161	12375_1	12/1/2016
12375	Delete	HAMBURG COVE DBN 27	G "27" Priv	N 41 22' 45.200"	W 072 21' 28.000"	41.37922	-72.35778	LNM 47/16, 1st Dist	2161	12375_1	12/1/2016
12375	Delete	HAMBURG COVE DBN 29	G "29" Priv	N 41 22' 47.548"	W 072 21' 26.000"	41.37988	-72.35722	LNM 47/16, 1st Dist	2161	12375_1	12/1/2016
12375	Delete	HAMBURG COVE DBN 31	G "31" Priv	N 41 22' 48.325"	W 072 21' 25.334"	41.38009	-72.35704	LNM 47/16, 1st Dist	2161	12375_1	12/1/2016
12375	Delete	HAMBURG COVE ENTRANCE BUOY 3	G C "3" Priv	N 41 22' 29.516"	W 072 22' 10.616"	41.37487	-72.36961	LNM 47/16, 1st Dist	2161	12375_1	12/1/2016
12375	Delete	HAMBURG COVE ENTRANCE BUOY 4	R N "4" Priv	N 41 22' 29.542"	W 072 22' 06.239"	41.37487	-72.3684	LNM 47/16, 1st Dist	2161	12375_1	12/1/2016
12375	Delete	HAMBURG COVE ENTRANCE BUOY 5	G C "5" Priv	N 41 22' 30.653"	W 072 22' 04.765"	41.37518	-72.36799	LNM 47/16, 1st Dist	2161	12375_1	12/1/2016
12375	Delete	HAMBURG COVE ENTRANCE BUOY 6	R N "6" Priv	N 41 22' 22.798"	W 072 22' 04.103"	41.373	-72.36781	LNM 47/16, 1st Dist	2161	12375_1	12/1/2016
12375	Delete	HAMBURG COVE ENTRANCE DBN 10	R "10" Priv	N 41 22' 29.800"	W 072 22' 01.000"	41.37494	-72.36694	LNM 47/16, 1st Dist	2161	12375_1	12/1/2016
12375	Delete	HAMBURG COVE ENTRANCE DBN 13	G "13" Priv	N 41 22' 30.309"	W 072 21' 55.865"	41.37509	-72.36552	LNM 47/16, 1st Dist	2161	12375_1	12/1/2016
12375	Delete	HAMBURG COVE ENTRANCE DBN 8	R "8" Priv	N 41 22' 30.119"	W 072 22' 02.460"	41.37503	-72.36735	LNM 47/16, 1st Dist	2161	12375_1	12/1/2016
12375	Add	HAMBURG COVE NOTE	Hamburg Cove is marked by seasonal uncharted private aids to navigation. Mariners are advised to use caution.	N 41 22' 15.000"	W 072 21' 40.000"	41.37083	-72.36111	LNM 47/16, 1st Dist	2161	12375_1	12/1/2016
12375	Delete	OLD SAYBROOK NORTH COVE BUOY 1	G C "1" Priv	N 41 17' 24.540"	W 072 21' 19.620"	41.29015	-72.35545	LNM 45/16, 1st Dist	2161	12375_1	11/17/2016
12375	Relocate	OLD SAYBROOK NORTH COVE BUOY 2	R N "2" Priv	N 41 17' 27.060"	W 072 21' 08.040"	41.29085	-72.35223	LNM 45/16, 1st Dist	2161	12375_1	11/17/2016
12375	Relocate	OLD SAYBROOK NORTH COVE BUOY 3	G C "3" Priv	N 41 17' 25.140"	W 072 21' 12.180"	41.29032	-72.35339	LNM 45/16, 1st Dist	2161	12375_1	11/17/2016
12375	Add	OLD SAYBROOK NORTH COVE BUOY 4	R N "4" Priv	N 41 17' 26.100"	W 072 21' 15.060"	41.29058	-72.35419	LNM 45/16, 1st Dist	2161	12375_1	11/17/2016
12375	Relocate	OLD SAYBROOK NORTH COVE BUOY 5	G C "5" Priv	N 41 17' 23.040"	W 072 21' 32.760"	41.28973	-72.3591	LNM 45/16, 1st Dist	2161	12375_1	11/17/2016
12375	Add	OLD SAYBROOK NORTH COVE BUOY 6	R N "6" Priv	N 41 17' 24.360"	W 072 21' 32.940"	41.2901	-72.35915	LNM 45/16, 1st Dist	2161	12375_1	11/17/2016
12375	Change	Depth Legend - NORTH COVE	3 FT 2016	N 41 17' 21.000"	W 072 21' 52.000"	41.28917	-72.36444	LNM 39/16, 1st Dist	2161	12375_1	9/22/2016
12375	Change	Depth Legend - NORTH COVE	4 FT FOR MID-WIDTH OF 50 FT 2016	N 41 17' 25.000"	W 072 21' 19.000"	41.29028	-72.35528	LNM 39/16, 1st Dist	2161	12375_1	9/22/2016
12375	Change	Depth Legend - NORTH COVE	2 1/2 FT 2016	N 41 17' 22.100"	W 072 21' 39.000"	41.28947	-72.36083	LNM 39/16, 1st Dist	2161	12375_1	9/22/2016
12375	Relocate	HAMBURG COVE ENTRANCE BUOY 2	R N "2"	N 41 22' 27.119"	W 072 22' 19.770"	41.3742	-72.37216	LNM 19/16, 1st Dist	2161	12375_1	5/19/2016
12375	Add	Special Anchorage Area PT 1 OF 8	None	N 41 19' 54.750"	W 072 21' 08.400"	41.33187	-72.35233	LNM 16/16, 1st Dist	2161	12375_1	4/14/2016
12375	Add	Special Anchorage Area PT 2 OF 8	None	N 41 19' 21.500"	W 072 20' 49.650"	41.32264	-72.34712	LNM 16/16, 1st Dist	2161	12375_1	4/14/2016
12375	Add	Special Anchorage Area PT 3 OF 8	None	N 41 19' 17.800"	W 072 20' 49.250"	41.32161	-72.34702	LNM 16/16, 1st Dist	2161	12375_1	4/14/2016
12375	Add	Special Anchorage Area PT 4 OF 8	None	N 41 19' 17.050"	W 072 20' 59.000"	41.3214	-72.34972	LNM 16/16, 1st Dist	2161	12375_1	4/14/2016
12375	Add	Special Anchorage Area PT 5 OF 8	None	N 41 19' 25.400"	W 072 21' 00.950"	41.32372	-72.35027	LNM 16/16, 1st Dist	2161	12375_1	4/14/2016
12375	Add	Special Anchorage Area PT 6 OF 8	None	N 41 19' 29.500"	W 072 21' 17.600"	41.32486	-72.35489	LNM 16/16, 1st Dist	2161	12375_1	4/14/2016
12375	Add	Special Anchorage Area PT 7 OF 8	None	N 41 19' 35.400"	W 072 21' 22.900"	41.3265	-72.35636	LNM 16/16, 1st Dist	2161	12375_1	4/14/2016
12375	Add	Special Anchorage Area PT 8 OF 8	None	N 41 19' 52.350"	W 072 21' 26.100"	41.33121	-72.35725	LNM 16/16, 1st Dist	2161	12375_1	4/14/2016
12375	Add	Special Anchorage Area PT 1 OF 4	None	N 41 17' 27.000"	W 072 21' 35.000"	41.29083	-72.35973	LNM 16/16, 1st Dist	2161	12375_1	4/14/2016
12375	Add	Special Anchorage Area PT 2 OF 4	None	N 41 17' 24.000"	W 072 22' 01.000"	41.29	-72.36694	LNM 16/16, 1st Dist	2161	12375_1	4/14/2016
12375	Add	Special Anchorage Area PT 3 OF 4	None	N 41 17' 16.000"	W 072 22' 00.000"	41.28778	-72.36667	LNM 16/16, 1st Dist	2161	12375_1	4/14/2016
12375	Add	Special Anchorage Area PT 4 OF 4	None	N 41 17' 19.000"	W 072 21' 33.000"	41.28861	-72.35917	LNM 16/16, 1st Dist	2161	12375_1	4/14/2016
12375	Add	Special Anchorage Area label	A	N 41 19' 39.300"	W 072 21' 11.200"	41.32758	-72.35311	LNM 16/16, 1st Dist	2161	12375_1	4/14/2016
12375	Delete	Special Anchorage Area PT 1 OF 6	None	N 41 19' 50.050"	W 072 21' 06.040"	41.33057	-72.35168	LNM 16/16, 1st Dist	2161	12375_1	4/14/2016
12375	Delete	Special Anchorage Area PT 2 OF 6	None	N 41 19' 48.580"	W 072 21' 10.810"	41.33016	-72.353	LNM 16/16, 1st Dist	2161	12375_1	4/14/2016
12375	Delete	Special Anchorage Area PT 3 OF 6	None	N 41 19' 35.720"	W 072 21' 03.500"	41.32659	-72.35098	LNM 16/16, 1st Dist	2161	12375_1	4/14/2016
12375	Delete	Special Anchorage Area PT 4 OF 6	None	N 41 19' 17.050"	W 072 20' 59.000"	41.3214	-72.34972	LNM 16/16, 1st Dist	2161	12375_1	4/14/2016
12375	Delete	Special Anchorage Area PT 5 OF 6	None	N 41 19' 17.870"	W 072 20' 49.360"	41.32163	-72.34705	LNM 16/16, 1st Dist	2161	12375_1	4/14/2016
12375	Delete	Special Anchorage Area PT 6 OF 6	None	N 41 19' 21.580"	W 072 20' 49.710"	41.32266	-72.34715	LNM 16/16, 1st Dist	2161	12375_1	4/14/2016
12375	Change	Special Anchorage Area Note	SPECIAL ANCHORAGES 110.1, 110.55, & 110.55b (see note A) 1 2 3 A B C	N 41 19' 47.000"	W 072 17' 05.000"	41.32972	-72.28472	LNM 16/16, 1st Dist	2161	12375_1	4/14/2016
12375	Delete	Special Anchorage Area label	4	N 41 19' 30.000"	W 072 20' 58.000"	41.325	-72.34944	LNM 16/16, 1st Dist	2161	12375_1	4/14/2016
12375	Add	Special Anchorage Area PT 1 OF 6	None	N 41 17' 26.000"	W 072 21' 04.000"	41.29055	-72.35111	LNM 16/16, 1st Dist	2161	12375_1	4/14/2016
12375	Add	Special Anchorage Area PT 2 OF 6	None	N 41 17' 24.600"	W 072 21' 16.000"	41.29016	-72.35445	LNM 16/16, 1st Dist	2161	12375_1	4/14/2016
12375	Add	Special Anchorage Area PT 3 OF 6	None	N 41 17' 20.000"	W 072 21' 09.000"	41.28889	-72.3525	LNM 16/16, 1st Dist	2161	12375_1	4/14/2016
12375	Add	Special Anchorage Area PT 4 OF 6	None	N 41 17' 16.000"	W 072 21' 05.000"	41.28778	-72.35139	LNM 16/16, 1st Dist	2161	12375_1	4/14/2016
12375	Add	Special Anchorage Area PT 5 OF 6	None	N 41 17' 16.000"	W 072 21' 03.000"	41.28778	-72.35083	LNM 16/16, 1st Dist	2161	12375_1	4/14/2016
12375	Add	Special Anchorage Area PT 6 OF 6	None	N 41 17' 21.500"	W 072 21' 04.500"	41.28931	-72.35125	LNM 16/16, 1st Dist	2161	12375_1	4/14/2016
12375	Add	Special Anchorage Area Label	B	N 41 17' 22.000"	W 072 21' 07.000"	41.28944	-72.35194	LNM 16/16, 1st Dist	2161	12375_1	4/14/2016
12375	Add	Special Anchorage Area Label	C	N 41 17' 21.200"	W 072 21' 48.000"	41.28922	-72.36333	LNM 16/16, 1st Dist	2161	12375_1	4/14/2016
12375	Add	Sounding in Feet	47	N 41 14' 19.000"	W 072 26' 38.900"	41.23861	-72.44414	LNM 36/15, 1st Dist	2161	12375_1	9/3/2015
12375	Delete	Sounding in Feet	55	N 41 14' 17.800"	W 072 26' 40.200"	41.23828	-72.4445	LNM 36/15, 1st Dist	2161	12375_1	9/3/2015
12375	Add	Sounding in Feet	45	N 41 14' 42.100"	W 072 25' 58.600"	41.24503	-72.43295	LNM 36/15, 1st Dist	2161	12375_1	9/3/2015
12375	Add	Sounding in Feet	32	N 41 14' 20.700"	W 072 27' 04.000"	41.23908	-72.45111	LNM 36/15, 1st Dist	2161	12375_1	9/3/2015
12375	Add	Sounding in Feet	48	N 41 14' 42.300"	W 072 26' 30.600"	41.24508	-72.44183	LNM 36/15, 1st Dist	2161	12375_1	9/3/2015
12375	Delete	Channel Limits PT 2 OF 4	Chart No. 1: I20	N 41 23' 12.880"	W 072 23' 10.340"	41.38691	-72.38621	Not Yet Published	2161	12375_1	4/9/2015
12375	Delete	Channel Limits PT 4 OF 4	Chart No. 1: I20	N 41 23' 11.290"	W 072 23' 10.340"	41.38647	-72.38621	Not Yet Published	2161	12375_1	4/9/2015
12375	Delete	Sounding in Feet	37	N 41 15' 31.900"	W 072 24' 18.800"	41.25886	-72.40522	LNM 11/15, 1st Dist	2161	12375_1	3/12/2015
12375	Add	Sounding in Feet	17	N 41 15' 19.200"	W 072 23' 35.500"	41.25533	-72.3932	LNM 11/15, 1st Dist	2161	12375_1	3/12/2015
12375	Substitute	Sounding in Feet	13 for 22	N 41 15' 21.800"	W 072 23' 08.500"	41.25605	-72.3857	LNM 11/15, 1st Dist	2161	12375_1	3/12/2015
12375	Add	Rock in Feet	21 Rk      	N 41 15' 31.200"	W 072 24' 20.400"	41.25867	-72.40567	LNM 11/15, 1st Dist	2161	12375_1	3/12/2015
12375	Substitute	Sounding in Feet	18 for 29	N 41 15' 08.000"	W 072 23' 08.000"	41.25222	-72.38556	Not Yet Published	2161	12375_1	3/12/2015
12375	Change	Depth Legend - NORTH COVE	5 FT FOR  MID-WIDTH OF 50 FT 2014	N 41 17' 25.000"	W 072 21' 19.000"	41.29028	-72.35528	LNM 06/15, 1st Dist	2161	12375_1	2/5/2015
12375	Change	Depth Legend - NORTH COVE	3 FT 2014	N 41 17' 22.100"	W 072 21' 39.000"	41.28947	-72.36083	LNM 06/15, 1st Dist	2161	12375_1	2/5/2015
12375	Change	Depth Legend - NORTH COVE	3 1/2 FT 2014	N 41 17' 21.000"	W 072 21' 52.000"	41.28917	-72.36444	LNM 06/15, 1st Dist	2161	12375_1	2/5/2015
12375	Add	Channel Limits PT 1 OF 7	Chart No. 1: I20	N 41 23' 14.130"	W 072 23' 09.570"	41.38726	-72.38599	Not Yet Published	2161	12375_1	12/18/2014
12375	Add	Channel Limits PT 2 OF 7	Chart No. 1: I20	N 41 23' 08.950"	W 072 22' 53.250"	41.38582	-72.38146	Not Yet Published	2161	12375_1	12/18/2014
12375	Add	Channel Limits PT 3 OF 7	Chart No. 1: I20	N 41 23' 08.050"	W 072 22' 49.360"	41.38557	-72.38038	Not Yet Published	2161	12375_1	12/18/2014
12375	Add	Channel Limits PT 4 OF 7	Chart No. 1: I20	N 41 23' 03.390"	W 072 22' 42.970"	41.38427	-72.3786	Not Yet Published	2161	12375_1	12/18/2014
12375	Add	Channel Limits PT 5 OF 7	Chart No. 1: I20	N 41 23' 12.770"	W 072 23' 10.340"	41.38688	-72.38621	Not Yet Published	2161	12375_1	2/5/2015
12375	Add	Channel Limits PT 6 OF 7	Chart No. 1: I20	N 41 23' 07.580"	W 072 22' 54.020"	41.38544	-72.38168	Not Yet Published	2161	12375_1	12/18/2014
12375	Add	Channel Limits PT 7 OF 7	Chart No. 1: I20	N 41 23' 04.430"	W 072 22' 47.060"	41.38456	-72.37974	Not Yet Published	2161	12375_1	12/18/2014
12375	Delete	Sounding in Feet	9	N 41 23' 06.530"	W 072 22' 51.990"	41.38515	-72.38111	Not Yet Published	2161	12375_1	12/18/2014
12375	Delete	Channel Limits PT 1 OF 4	Chart No. 1: I20	N 41 23' 14.770"	W 072 23' 18.700"	41.38744	-72.38853	Not Yet Published	2161	12375_1	2/5/2015
12375	Delete	Channel Limits PT 2 OF 4	Chart No. 1: I20	N 41 23' 12.880"	W 072 23' 10.260"	41.38691	-72.38618	Not Yet Published	2161	12375_1	12/18/2014
12375	Delete	Channel Limits PT 3 OF 4	Chart No. 1: I20	N 41 23' 13.320"	W 072 23' 19.110"	41.38703	-72.38864	Not Yet Published	2161	12375_1	2/5/2015
12375	Delete	Channel Limits PT 4 OF 4	Chart No. 1: I20	N 41 23' 11.290"	W 072 23' 10.230"	41.38647	-72.38618	Not Yet Published	2161	12375_1	12/18/2014
12375	Delete	Channel Limits PT 1 OF 6	Chart No. 1: I20	N 41 23' 15.280"	W 072 23' 19.130"	41.38758	-72.38865	Not Yet Published	2161	12375_1	2/5/2015
12375	Delete	Channel Limits PT 2 OF 6	Chart No. 1: I20	N 41 23' 08.360"	W 072 22' 49.720"	41.38565	-72.38048	Not Yet Published	2161	12375_1	12/18/2014
12375	Delete	Channel Limits PT 3 OF 6	Chart No. 1: I20	N 41 23' 06.230"	W 072 22' 47.050"	41.38506	-72.37974	Not Yet Published	2161	12375_1	12/18/2014
12375	Delete	Channel Limits PT 4 OF 6	Chart No. 1: I20	N 41 23' 13.370"	W 072 23' 17.980"	41.38705	-72.38833	Not Yet Published	2161	12375_1	2/5/2015
12375	Delete	Channel Limits PT 5 OF 6	Chart No. 1: I20	N 41 23' 06.900"	W 072 22' 50.760"	41.38525	-72.38077	Not Yet Published	2161	12375_1	12/18/2014
12375	Delete	Channel Limits PT 6 OF 6	Chart No. 1: I20	N 41 23' 05.030"	W 072 22' 48.340"	41.38473	-72.3801	Not Yet Published	2161	12375_1	12/18/2014
12375	Delete	Sounding in Feet	13	N 41 23' 12.650"	W 072 23' 04.450"	41.38685	-72.38457	Not Yet Published	2161	12375_1	12/18/2014
12375	Relocate	ESSEX ANCHORAGE BUOY A	Y C "A" Priv	N 41 20' 43.320"	W 072 22' 37.500"	41.34537	-72.37708	LNM 49/14, 1st Dist	2161	12375_1	12/18/2014
12375	Relocate	ESSEX ANCHORAGE BUOY B	Y C "B" Priv	N 41 20' 52.080"	W 072 22' 48.600"	41.3478	-72.38017	LNM 49/14, 1st Dist	2161	12375_1	12/18/2014
12375	Relocate	ESSEX ANCHORAGE BUOY F	Y C "F" Priv	N 41 21' 03.840"	W 072 22' 51.000"	41.35107	-72.38084	LNM 49/14, 1st Dist	2161	12375_1	12/18/2014
12375	Relocate	ESSEX ANCHORAGE BUOY D	Y C "D" Priv	N 41 20' 55.140"	W 072 22' 59.940"	41.34865	-72.38332	LNM 49/14, 1st Dist	2161	12375_1	12/18/2014
12375	Relocate	ESSEX ANCHORAGE BUOY E	Y C "E" Priv	N 41 20' 54.060"	W 072 22' 50.460"	41.34835	-72.38068	LNM 49/14, 1st Dist	2161	12375_1	12/18/2014
12375	Relocate	ESSEX ANCHORAGE BUOY G	Y C "G" Priv	N 41 21' 06.840"	W 072 23' 00.120"	41.3519	-72.38337	LNM 49/14, 1st Dist	2161	12375_1	12/18/2014
12375	Relocate	ESSEX ANCHORAGE BUOY H	Y C "H" Priv	N 41 21' 08.340"	W 072 22' 59.520"	41.35232	-72.3832	LNM 49/14, 1st Dist	2161	12375_1	12/18/2014
12375	Relocate	ESSEX ANCHORAGE BUOY I	Y C "I" Priv	N 41 21' 05.820"	W 072 22' 51.240"	41.35162	-72.3809	LNM 49/14, 1st Dist	2161	12375_1	12/18/2014
12375	Relocate	ESSEX ANCHORAGE BUOY J	Y C "J" Priv	N 41 21' 22.440"	W 072 22' 51.060"	41.35623	-72.38085	LNM 49/14, 1st Dist	2161	12375_1	12/18/2014
12375	Change	ESSEX MEADOWS ANCHORAGE BUOY A	W Or C "A" Priv	N 41 22' 21.540"	W 072 22' 47.880"	41.37265	-72.37997	LNM 49/14, 1st Dist	2161	12375_1	12/18/2014
12375	Add	ESSEX ANCHORAGE DAYBEACON C	Y "C"	N 41 20' 54.240"	W 072 23' 02.400"	41.3484	-72.384	LNM 49/14, 1st Dist	2161	12375_1	12/18/2014
12375	Change	ESSEX MEADOWS ANCHORAGE BUOY B	Y C "B" Priv	N 41 22' 29.220"	W 072 22' 54.060"	41.37478	-72.38168	LNM 49/14, 1st Dist	2161	12375_1	12/18/2014
12375	Relocate	ESSEX ANCHORAGE BUOY A	Y C "A" Priv	N 41 20' 42.960"	W 072 22' 37.740"	41.34527	-72.37715	LNM 47/14, 1st Dist	2161	12375_1	12/11/2014
12375	Relocate	ESSEX ANCHORAGE BUOY B	Y C "B" Priv	N 41 20' 48.720"	W 072 22' 49.020"	41.34687	-72.38028	LNM 47/14, 1st Dist	2161	12375_1	12/11/2014
12375	Relocate	ESSEX ANCHORAGE BUOY D	Y C "D" Priv	N 41 20' 54.900"	W 072 22' 59.760"	41.34858	-72.38327	LNM 47/14, 1st Dist	2161	12375_1	12/11/2014
12375	Relocate	ESSEX ANCHORAGE BUOY E	Y C "E" Priv	N 41 20' 51.300"	W 072 22' 51.120"	41.34758	-72.38087	LNM 47/14, 1st Dist	2161	12375_1	12/11/2014
12375	Relocate	ESSEX ANCHORAGE BUOY F	Y C "F" Priv	N 41 21' 05.400"	W 072 22' 52.020"	41.3515	-72.38112	LNM 47/14, 1st Dist	2161	12375_1	12/11/2014
12375	Relocate	ESSEX ANCHORAGE BUOY G	Y C "G" Priv	N 41 21' 05.760"	W 072 23' 01.620"	41.3516	-72.38378	LNM 47/14, 1st Dist	2161	12375_1	12/11/2014
12375	Relocate	ESSEX ANCHORAGE BUOY H	Y C "H" Priv	N 41 21' 09.360"	W 072 23' 00.840"	41.3526	-72.38357	LNM 47/14, 1st Dist	2161	12375_1	12/11/2014
12375	Relocate	ESSEX ANCHORAGE BUOY I	Y C "I" Priv	N 41 21' 09.120"	W 072 22' 52.680"	41.35253	-72.3813	LNM 47/14, 1st Dist	2161	12375_1	12/11/2014
12375	Relocate	BROCKWAY ISLAND ANCHORAGE BUOY A	W C "A" Priv	N 41 22' 21.540"	W 072 22' 47.880"	41.37265	-72.37997	LNM 47/14, 1st Dist	2161	12375_1	12/11/2014
12375	Change	BROCKWAY ISLAND ANCHORAGE BUOY A	W C "A" Priv	N 41 22' 21.540"	W 072 22' 47.880"	41.37265	-72.37997	LNM 47/14, 1st Dist	2161	12375_1	12/11/2014
12375	Relocate	BROCKWAY ISLAND ANCHORAGE BUOY B	W C "B" Priv	N 41 22' 29.220"	W 072 22' 54.060"	41.37478	-72.38168	LNM 47/14, 1st Dist	2161	12375_1	12/11/2014
12375	Change	BROCKWAY ISLAND ANCHORAGE BUOY B	W C "B" Priv	N 41 22' 29.220"	W 072 22' 54.060"	41.37478	-72.38168	LNM 47/14, 1st Dist	2161	12375_1	12/11/2014
12375	Change	LONG SAND SHOAL LTD BUOY 8A	R "8A" Q R	N 41 13' 30.355"	W 072 23' 08.305"	41.2251	-72.38564	LNM 45/14, 1st Dist	2161	12375_1	11/20/2014
12375	Add	Rock in Feet (Within Corresponding Depth Area)	2 Rk     	N 41 16' 10.200"	W 072 25' 20.200"	41.2695	-72.42228	LNM 41/14, 1st Dist	2161	12375_1	10/9/2014
12375	Add	Rock in Feet	3 Rk      	N 41 16' 21.800"	W 072 25' 48.000"	41.27272	-72.43	LNM 41/14, 1st Dist	2161	12375_1	10/9/2014
12375	Add	Rock in Feet	3 Rk      	N 41 16' 22.400"	W 072 26' 34.600"	41.27289	-72.44295	LNM 41/14, 1st Dist	2161	12375_1	10/9/2014
12375	Delete	Sounding in Feet	6	N 41 16' 09.460"	W 072 25' 20.110"	41.26929	-72.42226	LNM 41/14, 1st Dist	2161	12375_1	10/9/2014
12375	Add	Rock in Feet	8 Rk      	N 41 16' 20.500"	W 072 25' 51.600"	41.27236	-72.431	LNM 41/14, 1st Dist	2161	12375_1	10/9/2014
12375	Add	Rock in Feet	5 Rk     	N 41 16' 04.900"	W 072 25' 54.000"	41.26803	-72.43166	LNM 41/14, 1st Dist	2161	12375_1	10/9/2014
12375	Delete	Sounding in Feet	15	N 41 16' 21.560"	W 072 25' 50.740"	41.27266	-72.43076	LNM 41/14, 1st Dist	2161	12375_1	10/9/2014
12375	Add	Rock in Feet	4 Rk      	N 41 15' 09.100"	W 072 25' 18.500"	41.25253	-72.42181	LNM 34/14, 1st Dist	2161	12375_1	8/21/2014
12375	Delete	Sounding in Feet	16	N 41 15' 38.230"	W 072 25' 56.000"	41.26062	-72.43222	LNM 34/14, 1st Dist	2161	12375_1	8/21/2014
12375	Add	Rock in Feet	12 Rk     	N 41 15' 42.400"	W 072 25' 45.900"	41.26178	-72.42942	LNM 34/14, 1st Dist	2161	12375_1	8/21/2014
12375	Add	Rock in Feet	11 Rk      	N 41 15' 38.200"	W 072 25' 54.300"	41.26061	-72.43175	LNM 34/14, 1st Dist	2161	12375_1	8/21/2014
12375	Add	Rock in Feet	10 Rk      	N 41 15' 44.500"	W 072 25' 48.000"	41.26236	-72.43	LNM 34/14, 1st Dist	2161	12375_1	8/21/2014
12375	Delete	Sounding in Feet	8	N 41 15' 09.400"	W 072 25' 19.150"	41.25261	-72.42199	LNM 34/14, 1st Dist	2161	12375_1	8/21/2014
12375	Change	tabulation - CONNECTICUT RIVER CHANNEL DEPTHS	tabulation - CONNECTICUT RIVER CHANNEL DEPTHS	N 41 19' 25.000"	W 072 25' 28.000"	41.32361	-72.42445	LNM 34/14, 1st Dist	2161	12375_1	8/21/2014
12375	Change	Depth Legend - Essex Shoal 8-Foot Anchorage	8 FT 2013	N 41 21' 08.000"	W 072 22' 56.000"	41.35222	-72.38223	LNM 34/14, 1st Dist	2161	12375_1	8/21/2014
12375	Change	Depth Legend - Essex Shoal 10-Foot Channel	8 FT 2013	N 41 20' 51.460"	W 072 22' 54.460"	41.34763	-72.3818	LNM 34/14, 1st Dist	2161	12375_1	8/21/2014
12375	Change	Depth Legend - Essex Shoal 10-Foot Anchorage	8 FT 2013	N 41 20' 58.000"	W 072 22' 56.000"	41.34945	-72.38223	LNM 34/14, 1st Dist	2161	12375_1	8/21/2014
12375	Change	Depth Legend - Essex Shoal 10-Foot Channel	8 FT 2013	N 41 21' 15.800"	W 072 22' 56.440"	41.35439	-72.38235	LNM 34/14, 1st Dist	2161	12375_1	8/21/2014
12375	Relocate	Old Saybrook North Cove Buoy 1	G C "1" Priv	N 41 17' 24.540"	W 072 21' 19.620"	41.29015	-72.35545	LNM 10/14, 1st Dist	2161	12375_1	3/20/2014
12375	Relocate	Old Saybrook North Cove Buoy 2	R N "2" Priv	N 41 17' 24.480"	W 072 21' 32.760"	41.29013	-72.3591	LNM 10/14, 1st Dist	2161	12375_1	3/20/2014
12375	Relocate	Old Saybrook North Cove Buoy 3	G C "3" Priv	N 41 17' 23.100"	W 072 21' 32.700"	41.28975	-72.35909	LNM 10/14, 1st Dist	2161	12375_1	3/20/2014
12375	Delete	Eight Mile River Buoy 2	R N "2" Priv	N 41 23' 02.340"	W 072 21' 15.600"	41.38398	-72.35433	LNM 09/14, 1st Dist	2161	12375_1	3/13/2014
12375	Delete	Eight Mile River Daybeacon 3	G "3" Priv	N 41 23' 02.640"	W 072 21' 13.740"	41.38407	-72.35381	LNM 09/14, 1st Dist	2161	12375_1	3/13/2014
12375	Delete	Eight Mile River Daybeacon 5	G "5" Priv	N 41 23' 02.220"	W 072 21' 11.520"	41.38395	-72.3532	LNM 09/14, 1st Dist	2161	12375_1	3/13/2014
12375	Delete	Eight Mile River Daybeacon 7	G "7" Priv	N 41 23' 02.340"	W 072 21' 09.960"	41.38398	-72.35277	LNM 09/14, 1st Dist	2161	12375_1	3/13/2014
12375	Delete	Eight Mile River Daybeacon 9	G "9" Priv	N 41 23' 02.820"	W 072 21' 08.640"	41.38412	-72.3524	LNM 09/14, 1st Dist	2161	12375_1	3/13/2014
12375	Delete	Eight Mile River Daybeacon 11	G "11" Priv	N 41 23' 03.960"	W 072 21' 07.980"	41.38443	-72.35222	LNM 09/14, 1st Dist	2161	12375_1	3/13/2014
12375	Delete	Eight Mile River Daybeacon 13	G "13" Priv	N 41 23' 04.980"	W 072 21' 07.380"	41.38472	-72.35205	LNM 09/14, 1st Dist	2161	12375_1	3/13/2014
12375	Delete	Eight Mile River Daybeacon 15	G "15" Priv	N 41 23' 10.380"	W 072 21' 06.480"	41.38622	-72.3518	LNM 09/14, 1st Dist	2161	12375_1	3/13/2014
12375	Delete	Eight Mile River Daybeacon 17	G "17" Priv	N 41 23' 11.400"	W 072 21' 06.660"	41.3865	-72.35185	LNM 09/14, 1st Dist	2161	12375_1	3/13/2014
12375	Add	Legend:	(see note)	N 41 23' 04.000"	W 072 21' 09.000"	41.38445	-72.3525	LNM 09/14, 1st Dist	2161	12375_1	3/13/2014
12375	Add	Note - EIGHTMILE RIVER:	Eightmile River is marked by uncharted private aids to navigation. Mariners are advised to use caution.	N 41 23' 14.000"	W 072 21' 37.000"	41.38722	-72.36028	LNM 09/14, 1st Dist	2161	12375_1	3/13/2014
12375	Substitute	Rock in Feet (Within Corresponding Depth Area)	36 Rk (Chart No. 1: K14.1) for 53	N 41 14' 39.536"	W 072 24' 42.055"	41.24432	-72.41168	LNM 04/14, 1st Dist	2161	12375_1	1/30/2014
12375	Add	Rock in Feet (Within Corresponding Depth Area)	39 Rk     Chart No. 1: K14.1	N 41 14' 33.102"	W 072 24' 59.965"	41.24253	-72.41666	LNM 04/14, 1st Dist	2161	12375_1	1/30/2014
12375	Relocate	Saybrook Daybeacon	W Bn	N 41 16' 07.349"	W 072 20' 17.131"	41.26871	-72.33809	LNM 52/13, 1st Dist	2161	12375_1	1/9/2014
12375	Relocate	Hatchett Reef Buoy 6	R N "6"	N 41 15' 53.141"	W 072 16' 00.945"	41.26476	-72.26693	LNM 50/13, 1st Dist	2161	12375_1	12/16/2013
12375	Add	Black Hall River Buoy 2	R N "2" Priv	N 41 16' 57.517"	W 072 19' 20.013"	41.28264	-72.32223	LNM 47/13, 1st Dist	2161	12375_1	12/2/2013
12375	Delete	Old Saybrook Rock Regulatory Buoy A	W Or C "A" Priv	N 41 15' 39.540"	W 072 24' 00.240"	41.26098	-72.40007	LNM 47/13, 1st Dist	2161	12375_1	12/2/2013
12375	Delete	Old Saybrook Rock Regulatory Buoy B	W Or C "B" Priv	N 41 16' 00.600"	W 072 24' 04.080"	41.26683	-72.40113	LNM 47/13, 1st Dist	2161	12375_1	12/2/2013
12375	Delete	Old Saybrook Rock Regulatory Buoy C	W Or C "C" Priv	N 41 16' 04.560"	W 072 23' 50.400"	41.26793	-72.39733	LNM 47/13, 1st Dist	2161	12375_1	12/2/2013
12375	Delete	Old Saybrook Rock Regulatory Buoy D	W Or C "D" Priv	N 41 16' 18.480"	W 072 24' 23.340"	41.2718	-72.40649	LNM 47/13, 1st Dist	2161	12375_1	12/2/2013
12375	Relocate	Connecticut River Light 25	Fl G 4s 26ft 3M "25"	N 41 20' 42.508"	W 072 22' 36.140"	41.34514	-72.37671	LNM 47/13, 1st Dist	2161	12375_1	12/2/2013
12375	Add	Chartlet - Revised hydrography	Chartlet - Revised hydrography	N 41 13' 43.880"	W 072 26' 01.270"	41.22886	-72.43369	LNM 42/13, 1st Dist	2161	12375_1	10/8/2013
12375	Add	Chartlet - Revised hydrography	Chartlet - Revised hydrography	N 41 13' 47.080"	W 072 23' 37.820"	41.22974	-72.39384	LNM 42/13, 1st Dist	2161	12375_1	10/8/2013
12375	Change	Hamburg Cove Entrance Buoy 6	R N "6" Priv	N 41 22' 30.500"	W 072 22' 04.900"	41.37514	-72.36803	LNM 26/13, 1st Dist	2161	12375_1	6/20/2013
12375	Relocate	Connecticut River Light 22	Fl R 4s 26ft 3M "22"	N 41 19' 51.514"	W 072 20' 59.809"	41.33097	-72.34995	LNM 05/13, 1st Dist	2161	12375_1	2/14/2013
12375	Delete	Hamburg Cove Entrance Daybeacon 12	R "12" Priv	N 41 22' 30.000"	W 072 21' 57.000"	41.375	-72.36584	LNM 04/13, 1st Dist	2161	12375_1	2/6/2013
12375	Relocate	Connecticut River Lighted Buoy 2	R "2" Fl R 2.5s	N 41 15' 47.443"	W 072 20' 28.898"	41.26318	-72.34136	LNM 02/13, 1st Dist	2161	12375_1	1/23/2013
12375	Relocate	Connecticut River Lighted Buoy 5	G "5" Fl G 4s	N 41 16' 18.683"	W 072 20' 29.988"	41.27186	-72.34166	LNM 02/13, 1st Dist	2161	12375_1	1/23/2013
12375	Relocate	Saybrook Daybeacon	W Bn	N 41 16' 07.363"	W 072 20' 17.128"	41.26871	-72.33809	LNM 41/12, 1st Dist	2161	12375_1	10/15/2012
12375	Delete	No-Discharge Zone PT 1 OF 2	No-Discharge Zone, Chart No. 1 N1.2	N 41 13' 15.700"	W 072 17' 33.800"	41.22103	-72.29272	LNM 17/12, 1st Dist	2161	12375_1	4/24/2012
12375	Delete	No-Discharge Zone PT 2 OF 2	No-Discharge Zone, Chart No. 1 N1.2	N 41 13' 41.000"	W 072 15' 28.500"	41.22805	-72.25792	LNM 17/12, 1st Dist	2161	12375_1	4/24/2012
12375	Substitute	NOTE Z - NO-DISCHARGE ZONE, 40 CFR 140:	This chart falls entirely within the limits of a No-Discharge Zone (NDZ).  Under the Clean Water Act, Section 312, all vessels operating within a No-Discharge Zone (NDZ) are completely prohibited from discharging any sewage, treated or untreated, into the waters.  All vessels with an installed marine sanitation device (MSD) that are navigating, moored, anchored, or docked within a NDZ must have the MSD disabled to prevent the overboard discharge of sewage (treated or untreated) or install a holding tank. Regulations for the NDZ are contained in the U.S. Coast Pilot. Additional information concerning the regulations and requirements may be obtained from the Environmental Protection Agency (EPA) web site: http://www.epa.gov/owow/oceans/regulatory/vessel_sewage/.	N 41 19' 21.500"	W 072 18' 01.500"	41.32264	-72.30042	LNM 17/12, 1st Dist	2161	12375_1	4/24/2012
12375	Relocate	West Beach Shoal Buoy	W Or C Priv	N 41 16' 16.000"	W 072 27' 08.000"	41.27111	-72.45222	LNM 07/12, 1st Dist	2161	12375_1	2/23/2012
12375	Change	Connecticut River Light 29	Fl G 4s 26ft 3M "29"	N 41 22' 07.534"	W 072 22' 34.523"	41.36876	-72.37626	LNM 32/11, 1st Dist	2161	12375_1	8/24/2011
12375	Relocate	Connecticut River Light 29	Fl G 4s 26ft 3M "29"	N 41 22' 07.534"	W 072 22' 34.523"	41.36876	-72.37626	LNM 32/11, 1st Dist	2161	12375_1	8/24/2011
12375	Change	Connecticut River Light 35	Fl G 4s 26ft 3M "35"	N 41 23' 22.181"	W 072 24' 50.510"	41.3895	-72.41403	LNM 32/11, 1st Dist	2161	12375_1	8/24/2011
12375	Relocate	Connecticut River Light 35	Fl G 4s 26ft 3M "35"	N 41 23' 22.181"	W 072 24' 50.510"	41.3895	-72.41403	LNM 32/11, 1st Dist	2161	12375_1	8/24/2011
12375	Change	Connecticut River Light 25	Fl G 4s 26ft 3M "25"	N 41 20' 42.554"	W 072 22' 36.244"	41.34515	-72.37673	LNM 31/11, 1st Dist	2161	12375_1	8/10/2011
12375	Change	Connecticut River Light 32	Fl R 4s 21ft 3M "32"	N 41 23' 09.656"	W 072 22' 51.606"	41.38602	-72.381	LNM 31/11, 1st Dist	2161	12375_1	8/10/2011
12375	Relocate	Connecticut River Light 32	Fl R 4s 21ft 3M "32"	N 41 23' 09.656"	W 072 22' 51.606"	41.38602	-72.381	LNM 31/11, 1st Dist	2161	12375_1	8/10/2011
12375	Relocate	Connecticut River Light 25	Fl G 4s 26ft 3M "25"	N 41 20' 42.554"	W 072 22' 36.244"	41.34515	-72.37673	LNM 31/11, 1st Dist	2161	12375_1	8/10/2011
12375	Relocate	Indian Town East Breakwater Light	Fl 2s 28ft Priv	N 41 16' 34.406"	W 072 24' 18.805"	41.27622	-72.40522	LNM 22/11, 1st Dist	2161	12375_1	6/6/2011
12375	Add	General Anchorage Area PT 1 OF 4	None	N 41 15' 12.100"	W 072 15' 28.500"	41.25336	-72.25792	LNM 07/11, 1st Dist	2161	12375_1	2/14/2011
12375	Add	General Anchorage Area PT 2 OF 4	None	N 41 15' 05.000"	W 072 16' 02.000"	41.25139	-72.26722	LNM 07/11, 1st Dist	2161	12375_1	2/14/2011
12375	Add	General Anchorage Area PT 3 OF 4	None	N 41 14' 11.000"	W 072 15' 38.000"	41.23639	-72.26056	LNM 07/11, 1st Dist	2161	12375_1	2/14/2011
12375	Add	General Anchorage Area PT 4 OF 4	None	N 41 14' 13.000"	W 072 15' 28.500"	41.23695	-72.25792	LNM 07/11, 1st Dist	2161	12375_1	2/14/2011
12375	Add	General Anchorage Area label	NEW LONDON ANCHORAGE GROUND 110.146 (see note A)	N 41 14' 56.300"	W 072 15' 45.000"	41.24897	-72.2625	LNM 07/11, 1st Dist	2161	12375_1	2/14/2011
12377	Delete	Channel Limits PT 2 OF 4	Chart No. 1: I20	N 41 23' 12.880"	W 072 23' 10.340"	41.38691	-72.38621	Not Yet Published	2157	12377_1	4/9/2015
12377	Delete	Channel Limits PT 4 OF 4	Chart No. 1: I20	N 41 23' 11.290"	W 072 23' 10.340"	41.38647	-72.38621	Not Yet Published	2157	12377_1	4/9/2015
12377	Delete	Channel Limits PT 1 OF 4	Chart No. 1: I20	N 41 23' 14.770"	W 072 23' 18.700"	41.38744	-72.38853	Not Yet Published	2157	12377_1	12/18/2014
12377	Delete	Channel Limits PT 3 OF 4	Chart No. 1: I20	N 41 23' 13.320"	W 072 23' 19.110"	41.38703	-72.38864	Not Yet Published	2157	12377_1	12/18/2014
12377	Delete	Channel Limits PT 1 OF 6	Chart No. 1: I20	N 41 23' 15.280"	W 072 23' 19.130"	41.38758	-72.38865	Not Yet Published	2157	12377_1	12/18/2014
12377	Delete	Channel Limits PT 4 OF 6	Chart No. 1: I20	N 41 23' 13.370"	W 072 23' 17.980"	41.38705	-72.38833	Not Yet Published	2157	12377_1	12/18/2014
12377	Add	magenta channel reach separation line PT 1 OF 2	magenta channel reach separation line	N 41 33' 17.130"	W 072 33' 35.820"	41.55476	-72.55995	Not Yet Published	2158	12377_2	12/18/2014
12377	Add	magenta channel reach separation line PT 2 OF 2	magenta channel reach separation line	N 41 33' 18.500"	W 072 33' 35.050"	41.55514	-72.55974	Not Yet Published	2158	12377_2	12/18/2014
12377	Add	magenta channel reach separation line PT 1 OF 2	magenta channel reach separation line	N 41 31' 51.300"	W 072 33' 05.040"	41.53092	-72.5514	Not Yet Published	2158	12377_2	12/18/2014
12377	Add	magenta channel reach separation line PT 2 OF 2	magenta channel reach separation line	N 41 31' 51.860"	W 072 33' 06.870"	41.53107	-72.55191	Not Yet Published	2158	12377_2	12/18/2014
12377	Change	CONNECTICUT RIVER HADAM ISLAND LIGHT	Fl 2.5s 40ft	N 41 29' 36.590"	W 072 30' 48.260"	41.4935	-72.5134	LNM 47/14, 1st Dist	2157	12377_1	12/11/2014
12377	Delete	CONNECTICUT RIVER RANGE B REAR LIGHT	F R 57ft	N 41 29' 35.888"	W 072 30' 45.729"	41.4933	-72.5127	LNM 47/14, 1st Dist	2157	12377_1	12/11/2014
12377	Relocate	Straits Hill Light	Q 23ft 7M	N 41 33' 48.968"	W 072 36' 14.879"	41.5636	-72.60413	LNM 52/13, 1st Dist	2158	12377_2	1/9/2014
12377	Relocate	Connecticut River Light 42	Fl R 4s 31ft 3M "42"	N 41 25' 44.790"	W 072 26' 11.362"	41.42911	-72.43649	LNM 47/13, 1st Dist	2157	12377_1	12/2/2013
12377	Relocate	Connecticut River Light 36	Fl R 4s 21ft 3M "36"	N 41 23' 59.575"	W 072 25' 11.899"	41.39988	-72.41998	LNM 47/13, 1st Dist	2157	12377_1	12/2/2013
12377	Relocate	Connecticut River Light 76	Fl R 4s 31ft 3M "76"	N 41 33' 32.246"	W 072 34' 36.317"	41.55896	-72.57675	LNM 41/13, 1st Dist	2158	12377_2	10/11/2013
12377	Relocate	Connecticut River Light 80	Fl R 4s 31ft 3M "80"	N 41 33' 40.027"	W 072 36' 09.336"	41.56112	-72.60259	LNM 40/13, 1st Dist	2158	12377_2	10/7/2013
12377	Relocate	Connecticut River Light 45	Fl G 4s 31ft 3M "45"	N 41 26' 12.519"	W 072 27' 31.856"	41.43681	-72.45885	LNM 40/13, 1st Dist	2157	12377_1	10/7/2013
12377	Relocate	Connecticut River Light 48	Fl R 4s 36ft 3M "48"	N 41 27' 53.860"	W 072 27' 58.730"	41.46496	-72.46632	LNM 40/13, 1st Dist	2157	12377_1	10/7/2013
12377	Relocate	Connecticut River Light 61	Fl G 4s 31ft 3M "61"	N 41 30' 04.427"	W 072 32' 59.596"	41.50123	-72.54989	LNM 40/13, 1st Dist	2157	12377_1	10/7/2013
12377	Relocate	Connecticut River Light 61	Fl G 4s 31ft 3M "61"	N 41 30' 04.427"	W 072 32' 59.596"	41.50123	-72.54989	LNM 40/13, 1st Dist	2158	12377_2	10/7/2013
12378	Add	magenta channel reach separation line PT 1 OF 2	magenta channel reach separation line	N 41 44' 59.020"	W 072 38' 50.720"	41.74973	-72.64742	Not Yet Published	2159	12378_1	12/18/2014
12378	Add	magenta channel reach separation line PT 2 OF 2	magenta channel reach separation line	N 41 45' 00.110"	W 072 38' 49.350"	41.75003	-72.64704	Not Yet Published	2159	12378_1	12/18/2014
12378	Add	magenta channel reach separation line PT 1 OF 2	magenta channel reach separation line	N 41 40' 56.250"	W 072 36' 32.950"	41.68229	-72.60915	Not Yet Published	2159	12378_1	12/18/2014
12378	Add	magenta channel reach separation line PT 2 OF 2	magenta channel reach separation line	N 41 40' 56.490"	W 072 36' 31.000"	41.68236	-72.60861	Not Yet Published	2159	12378_1	12/18/2014
12378	Change	Depth Legend - Wethersfield Cove	6 FT APR 2014	N 41 43' 24.500"	W 072 39' 25.700"	41.72347	-72.65714	LNM 29/14, 1st Dist	2159	12378_1	7/17/2014
12378	Add	Sounding in Feet	5	N 41 43' 27.400"	W 072 39' 24.940"	41.72428	-72.65693	LNM 29/14, 1st Dist	2159	12378_1	7/17/2014
12378	Change	Depth Legend - Wethersfield Cove	3 FT APR 2014	N 41 43' 32.100"	W 072 39' 11.200"	41.72558	-72.65311	LNM 29/14, 1st Dist	2159	12378_1	7/17/2014
12378	Delete	Sounding in Feet	5	N 41 43' 27.800"	W 072 39' 25.700"	41.72439	-72.65714	LNM 29/14, 1st Dist	2159	12378_1	7/17/2014
12378	Relocate	Connecticut River Light 98	Fl R 2.5s 21ft 3M "98"	N 41 36' 00.089"	W 072 37' 30.538"	41.60003	-72.62515	LNM 52/13, 1st Dist	2160	12378_2	1/9/2014
12378	Relocate	Connecticut River Light 125	Fl G 4s 26ft 3M "125"	N 41 41' 23.949"	W 072 38' 09.026"	41.68999	-72.63584	LNM 52/13, 1st Dist	2159	12378_1	1/9/2014
12378	Relocate	Straits Hill Light	Q 23ft 7M	N 41 33' 48.968"	W 072 36' 14.879"	41.5636	-72.60413	LNM 52/13, 1st Dist	2160	12378_2	1/9/2014
12378	Relocate	Wethersfield Cove Daybeacon 3	G "3"	N 41 43' 30.581"	W 072 39' 20.496"	41.72516	-72.65569	LNM 43/13, 1st Dist	2159	12378_1	10/28/2013
12378	Relocate	Hartford Jetty Light 143	Fl G 4s 26ft 3M "143"	N 41 45' 03.657"	W 072 39' 02.752"	41.75101	-72.65076	LNM 43/13, 1st Dist	2159	12378_1	10/28/2013
12378	Relocate	Connecticut River Light 100	Fl R 4s 36ft 3M "100"	N 41 36' 07.834"	W 072 36' 56.170"	41.60218	-72.6156	LNM 40/13, 1st Dist	2160	12378_2	10/7/2013
12378	Relocate	Connecticut River Light 105	Fl G 4s 21ft 3M "105"	N 41 37' 09.622"	W 072 37' 39.029"	41.61934	-72.62751	LNM 40/13, 1st Dist	2160	12378_2	10/7/2013
12378	Relocate	Connecticut River Light 107	Fl G 2.5s 21ft 3M "107"	N 41 37' 49.669"	W 072 37' 58.010"	41.63046	-72.63278	LNM 40/13, 1st Dist	2160	12378_2	10/7/2013
12378	Relocate	Connecticut River Light 80	Fl R 4s 31ft 3M "80"	N 41 33' 40.027"	W 072 36' 09.336"	41.56112	-72.60259	LNM 40/13, 1st Dist	2160	12378_2	10/7/2013
12378	Relocate	Connecticut River Light 95	Fl G 4s 21ft 3M "95"	N 41 35' 46.793"	W 072 38' 17.331"	41.59633	-72.63815	LNM 40/13, 1st Dist	2160	12378_2	10/7/2013
12378	Relocate	Connecticut River Light 120	Fl R 4s 36ft 3M "120"	N 41 41' 07.789"	W 072 36' 36.071"	41.6855	-72.61002	LNM 36/13, 1st Dist	2159	12378_1	9/12/2013
12378	Relocate	Connecticut River Light 140	Fl R 4s 36ft 3M "140"	N 41 44' 02.965"	W 072 38' 26.687"	41.73416	-72.64075	LNM 36/13, 1st Dist	2159	12378_1	9/12/2013
12378	Relocate	Connecticut River Light 122	Fl R 4s 36ft 3M "122"	N 41 41' 18.847"	W 072 36' 53.201"	41.68857	-72.61478	LNM 36/13, 1st Dist	2159	12378_1	9/12/2013
12378	Relocate	Connecticut River Range F Front Light 110	Fl R 2.5s 26ft "110"	N 41 38' 35.577"	W 072 37' 24.684"	41.64322	-72.62352	LNM 40/12, 1st Dist	2160	12378_2	10/10/2012
12378	Relocate	Connecticut River Range F Rear Light	F R 53ft	N 41 38' 34.408"	W 072 37' 24.606"	41.64289	-72.6235	LNM 40/12, 1st Dist	2160	12378_2	10/10/2012
12378	Change	Connecticut River Range F Front Light 110	Fl R 2.5s 26ft "110"	N 41 38' 35.577"	W 072 37' 24.684"	41.64322	-72.62352	LNM 40/12, 1st Dist	2160	12378_2	10/10/2012
12378	Change	Connecticut River Range F Rear Light	F R 53ft	N 41 38' 34.408"	W 072 37' 24.606"	41.64289	-72.6235	LNM 40/12, 1st Dist	2160	12378_2	10/10/2012
12378	Relocate	Connecticut River Range E Front Light 102	Fl R 2.5s 25ft "102"	N 41 36' 40.134"	W 072 36' 42.719"	41.61115	-72.61187	LNM 37/12, 1st Dist	2160	12378_2	9/17/2012
12378	Change	Connecticut River Range E Front Light 102	Fl R 2.5s 25ft "102"	N 41 36' 40.134"	W 072 36' 42.719"	41.61115	-72.61187	LNM 37/12, 1st Dist	2160	12378_2	9/17/2012
12378	Relocate	Connecticut River Range E Rear Light	F R 45ft	N 41 36' 38.076"	W 072 36' 39.038"	41.61058	-72.61085	LNM 37/12, 1st Dist	2160	12378_2	9/17/2012
12378	Relocate	Connecticut River Range G Front Light 116	Fl R 2.5s 47ft "116"	N 41 40' 24.821"	W 072 36' 29.970"	41.67356	-72.60832	LNM 37/12, 1st Dist	2159	12378_1	9/17/2012
12378	Relocate	Connecticut River Range G Front Light 116	Fl R 2.5s 47ft "116"	N 41 40' 24.821"	W 072 36' 29.970"	41.67356	-72.60832	LNM 37/12, 1st Dist	2160	12378_2	9/17/2012
12378	Change	Connecticut River Range G Front Light 116	Fl R 2.5s 47ft "116"	N 41 40' 24.821"	W 072 36' 29.970"	41.67356	-72.60832	LNM 37/12, 1st Dist	2159	12378_1	9/17/2012
12378	Change	Connecticut River Range G Front Light 116	Fl R 2.5s 47ft "116"	N 41 40' 24.821"	W 072 36' 29.970"	41.67356	-72.60832	LNM 37/12, 1st Dist	2160	12378_2	9/17/2012
12378	Relocate	Connecticut River Range G Rear Light	F R 109ft	N 41 40' 25.524"	W 072 36' 27.326"	41.67376	-72.60759	LNM 37/12, 1st Dist	2159	12378_1	9/17/2012
12378	Relocate	Connecticut River Range G Rear Light	F R 109ft	N 41 40' 25.524"	W 072 36' 27.326"	41.67376	-72.60759	LNM 37/12, 1st Dist	2160	12378_2	9/17/2012
12378	Change	Connecticut River Range G Rear Light	F R 109ft	N 41 40' 25.524"	W 072 36' 27.326"	41.67376	-72.60759	LNM 37/12, 1st Dist	2159	12378_1	9/17/2012
12378	Change	Connecticut River Range G Rear Light	F R 109ft	N 41 40' 25.524"	W 072 36' 27.326"	41.67376	-72.60759	LNM 37/12, 1st Dist	2160	12378_2	9/17/2012
12378	Relocate	Connecticut River Range J Front Light	Fl G 2.5s 37ft 	N 41 41' 58.884"	W 072 38' 12.110"	41.69969	-72.6367	LNM 37/12, 1st Dist	2159	12378_1	9/17/2012
12378	Change	Connecticut River Range J Front Light	Fl G 2.5s 37ft 	N 41 41' 58.884"	W 072 38' 12.110"	41.69969	-72.6367	LNM 37/12, 1st Dist	2159	12378_1	9/17/2012
12378	Relocate	Connecticut River Range J Rear Light	F G 51ft	N 41 41' 58.549"	W 072 38' 14.680"	41.6996	-72.63741	LNM 37/12, 1st Dist	2159	12378_1	9/17/2012
12378	Change	Connecticut River Range J Rear Light	F G 51ft	N 41 41' 58.549"	W 072 38' 14.680"	41.6996	-72.63741	LNM 37/12, 1st Dist	2159	12378_1	9/17/2012
12378	Relocate	Straits Hill Light	Q 23ft 7M	N 41 33' 49.005"	W 072 36' 14.729"	41.56361	-72.60409	LNM 37/12, 1st Dist	2160	12378_2	9/17/2012
12378	Relocate	Straits Hill Light	Q 23ft 7M	N 41 33' 48.968"	W 072 36' 14.879"	41.5636	-72.60413	LNM 33/12, 1st Dist	2160	12378_2	8/22/2012
12378	Change	Tabulation - CONNECTICUT RIVER CHANNEL DEPTHS 	Tabulation - CONNECTICUT RIVER CHANNEL DEPTHS 	N 41 44' 24.000"	W 072 36' 25.000"	41.74	-72.60694	LNM 22/12, 1st Dist	2159	12378_1	5/24/2012
12401	Add	NAVAL WEAPON STATION EARL BUOY 1	"1" Q	N 40 27' 35.317"	W 074 02' 28.246"	40.45981	-74.04118	LNM 15/17, 1st Dist	2246	12401_1	4/20/2017
12401	Add	NAVAL WEAPON STATION EARL BUOY 2	"2" Q	N 40 27' 47.400"	W 074 03' 00.600"	40.46317	-74.05016	LNM 15/17, 1st Dist	2246	12401_1	4/20/2017
12401	Add	NAVAL WEAPON STATION EARL BUOY 3	"3" Q	N 40 27' 27.800"	W 074 02' 10.300"	40.45772	-74.03619	LNM 15/17, 1st Dist	2246	12401_1	4/20/2017
12401	Add	NAVAL WEAPON STATION EARL BUOY 4	"4" Q	N 40 27' 56.000"	W 074 03' 24.000"	40.46556	-74.05666	LNM 15/17, 1st Dist	2246	12401_1	4/20/2017
12401	Add	NAVAL WEAPON STATION EARL BUOY 6	"6" Q	N 40 27' 25.519"	W 074 03' 44.662"	40.45709	-74.06241	LNM 15/17, 1st Dist	2246	12401_1	4/20/2017
12401	Add	NAVAL WEAPON STATION EARL BUOY 7	"7" Q	N 40 26' 29.470"	W 074 02' 51.132"	40.44152	-74.04754	LNM 15/17, 1st Dist	2246	12401_1	4/20/2017
12401	Add	NAVAL WEAPON STATION EARL BUOY 8	"8" Q	N 40 26' 57.960"	W 074 04' 03.000"	40.44943	-74.0675	LNM 15/17, 1st Dist	2246	12401_1	4/20/2017
12401	Add	NAVAL WEAPON STATION EARL BUOY 9	"9" Q	N 40 26' 06.300"	W 074 03' 12.480"	40.43508	-74.05347	LNM 15/17, 1st Dist	2246	12401_1	4/20/2017
12402	Change	tabulation - LOWER BAY CHANNEL DEPTHS	tabulation - LOWER BAY CHANNEL DEPTHS	N 40 35' 46.000"	W 074 05' 52.000"	40.59611	-74.09778	LNM 10/17, 1st Dist	2247	12402_1	3/9/2017
12402	Relocate	CONEY ISLAND CHANNEL BUOY 3	G C "3"	N 40 33' 54.317"	W 073 58' 25.648"	40.56509	-73.97379	LNM 04/17, 1st Dist	2247	12402_1	2/2/2017
13003	Change	HALFWAY ROCK LIGHT	Fl R 5s 76ft 19M (MRASS)	N 43 39' 20.800"	W 070 02' 12.426"	43.65578	-70.03678	LNM 22/17, 1st Dist	2156	13003_1	6/8/2017
13003	Relocate	NOAA ODAS BUOY 44008	Y ODAS "44008" Fl (4) Y 20s PA	N 40 30' 16.000"	W 069 14' 52.000"	40.50444	-69.24778	LNM 17/17, 1st Dist	2156	13003_1	5/4/2017
13003	Relocate	NOAA Lighted Data Buoy 41001 (ODAS)	Y ODAS "41001" Fl (4) Y 20s PA	N 34 38' 48.000"	W 072 37' 18.000"	34.64667	-72.62167	LNM 17/17, 5th Dist	2156	13003_1	5/4/2017
13003	Add	CARIBBEAN WIND LTD RESEARCH BUOY BW1	Y "BW1" Fl Y 4s Priv	N 40 55' 03.270"	W 070 55' 55.150"	40.91758	-70.93198	LNM 15/17, 1st Dist	2156	13003_1	4/20/2017
13003	Add	CARIBBEAN WIND LTD RESEARCH BUOY BW2	Y "BW2" Fl Y 4s Priv	N 41 07' 05.170"	W 070 39' 34.500"	41.1181	-70.65958	LNM 15/17, 1st Dist	2156	13003_1	4/20/2017
13003	Add	CARIBBEAN WIND LTD RESEARCH BUOY BW3	Y "BW3" Fl Y 10s Priv	N 41 07' 05.170"	W 070 34' 24.500"	41.1181	-70.57347	LNM 15/17, 1st Dist	2156	13003_1	4/20/2017
13003	Change	Dangerous Wreck	(Chart No. 1: K28)	N 35 43' 07.020"	W 075 24' 21.780"	35.71862	-75.40605	LNM 13/17, 5th Dist	2156	13003_1	4/6/2017
13003	Add	MANANA ISLAND VAIS 14M	V-AIS "14M"	N 43 45' 18.715"	W 069 22' 28.075"	43.7552	-69.37447	LNM 12/17, 1st Dist	2156	13003_1	3/30/2017
13003	Add	Obstruction	Unexploded ordnance (reported 2017)	N 39 45' 01.200"	W 073 23' 29.400"	39.75033	-73.3915	LNM 13/17, 1st Dist	2156	13003_1	3/30/2017
13003	Add	Submerged Obstruction	Obstn PA  (Chart No. 1: K40)	N 35 43' 07.020"	W 075 24' 21.780"	35.71862	-75.40605	LNM 12/17, 5th Dist	2156	13003_1	3/23/2017
13003	Add	Scripps Lighted Data Buoy CDIP 171	Y "CDIP 171" Fl (5) Y 20s PA	N 36 36' 14.000"	W 074 50' 19.000"	36.60389	-74.83861	LNM 11/17, 5th Dist	2156	13003_1	3/23/2017
13003	Relocate	MOUNT DESERT LIGHT	F 15s 75ft 20M	N 43 58' 07.010"	W 068 07' 42.012"	43.96861	-68.12833	LNM 04/17, 1st Dist	2156	13003_1	2/2/2017
13003	Add	Submarine Cable  PT 6 OF 7	Chart No. 1: L30.1	N 41 07' 55.160"	W 071 30' 08.250"	41.13199	-71.50229	LNM 05/17, 1st Dist	2156	13003_1	1/26/2017
13003	Add	Submarine Cable  PT 7 OF 7	Chart No. 1: L30.1	N 41 10' 02.120"	W 071 30' 58.090"	41.16726	-71.51614	LNM 05/17, 1st Dist	2156	13003_1	1/26/2017
13003	Add	Submarine Cable  PT 2 OF 7	Chart No. 1: L30.1	N 41 06' 36.540"	W 071 31' 45.140"	41.11015	-71.52921	LNM 05/17, 1st Dist	2156	13003_1	1/26/2017
13003	Add	Submarine Cable  PT 4 OF 7	Chart No. 1: L30.1	N 41 07' 13.870"	W 071 30' 50.510"	41.12052	-71.51403	LNM 05/17, 1st Dist	2156	13003_1	1/26/2017
13003	Add	Submarine Cable  PT 1 OF 7	Chart No. 1: L30.1	N 41 06' 24.650"	W 071 32' 15.390"	41.10685	-71.53761	LNM 05/17, 1st Dist	2156	13003_1	1/26/2017
13003	Add	Submarine Cable  PT 3 OF 7	Chart No. 1: L30.1	N 41 06' 53.080"	W 071 31' 16.690"	41.11475	-71.5213	LNM 05/17, 1st Dist	2156	13003_1	1/26/2017
13003	Add	Submarine Cable  PT 5 OF 7	Chart No. 1: L30.1	N 41 07' 32.890"	W 071 30' 28.140"	41.1258	-71.50782	LNM 05/17, 1st Dist	2156	13003_1	1/26/2017
13003	Change	Cape May Light	Fl 15s 165ft 22M	N 38 55' 58.784"	W 074 57' 37.379"	38.93299	-74.96038	LNM 01/17, 5th Dist	2156	13003_1	1/12/2017
13003	Delete	WHOI LTD BUOY Z	Y "Z" Fl Y 4s Priv	N 41 15' 57.000"	W 071 01' 54.000"	41.26583	-71.03167	LNM 49/16, 1st Dist	2156	13003_1	12/15/2016
13003	Add	14 fathom sounding and label: Wk	14 Wk	N 42 23' 02.000"	W 070 21' 21.700"	42.38389	-70.35603	LNM 49/16, 1st Dist	2156	13003_1	12/8/2016
13003	Add	14 fathom sounding and label: Wk	14 Wk	N 42 10' 55.460"	W 070 13' 27.970"	42.18207	-70.22443	LNM 49/16, 1st Dist	2156	13003_1	12/8/2016
13003	Change	HIGHLAND LIGHT	Fl 5s 170ft 14M	N 42 02' 22.282"	W 070 03' 39.377"	42.03952	-70.06094	LNM 45/16, 1st Dist	2156	13003_1	11/17/2016
13003	Change	Chesapeake Lights (2)	2 Fl 4s 84ft 5M Priv (delete HORN and RACON ( - . )	N 36 54' 16.696"	W 075 42' 45.818"	36.90464	-75.71273	LNM 40/16, 5th Dist	2156	13003_1	10/13/2016
13003	Delete	DEPTH IN FEET	54	N 44 26' 52.000"	W 067 07' 19.000"	44.44778	-67.12195	WNM 36/16, NGA	2156	13003_1	9/1/2016
13003	Add	DEPTH IN FEET	47	N 44 26' 47.000"	W 067 07' 19.000"	44.44639	-67.12195	WNM 36/16, NGA	2156	13003_1	9/1/2016
13003	Add	NEMAC/SALEM STATE UNIVERSITY AQUACULTURE LTD BUOY A	Y "A" Fl Y 2s Priv	N 42 40' 59.998"	W 070 27' 00.000"	42.68333	-70.45	LNM 30/16, 1st Dist	2156	13003_1	8/4/2016
13003	Delete	SOUNDING IN FATHOMS	49	N 41 12' 48.000"	W 066 24' 54.000"	41.21333	-66.415	WNM 30/16, NGA	2156	13003_1	7/21/2016
13003	Add	SOUNDING IN FATHOMS	42	N 41 12' 48.000"	W 066 24' 12.000"	41.21333	-66.40334	WNM 30/16, NGA	2156	13003_1	7/21/2016
13003	Add	SOUNDING IN FATHOMS	45	N 41 15' 30.000"	W 066 19' 06.000"	41.25834	-66.31834	WNM 30/16, NGA	2156	13003_1	7/21/2016
13003	Relocate	WHOI RESEARCH LTD BUOY DMON MDR	Y "DMON MDR" Fl Y 4S Priv	N 43 58' 44.640"	W 068 05' 07.284"	43.97906	-68.08536	LNM 28/16, 1st Dist	2156	13003_1	7/21/2016
13003	Add	DEPTH IN FATHOMS	69	N 42 10' 00.000"	W 069 24' 42.000"	42.16667	-69.41167	WNM 27/16, NGA	2156	13003_1	6/30/2016
13003	Delete	DEPTH IN FATHOMS	80	N 42 10' 18.000"	W 069 25' 06.000"	42.17167	-69.41833	WNM 27/16, NGA	2156	13003_1	6/30/2016
13003	Add	USGS RESEARCH LTD BUOY W	Y "W" Fl Y 4s Priv	N 41 50' 22.800"	W 070 19' 44.400"	41.83967	-70.329	LNM 22/16, 1st Dist	2156	13003_1	6/9/2016
13003	Delete	CARMAN CREEK DBN D12	R "D12" Priv	N 40 39' 22.000"	W 073 25' 50.000"	40.65611	-73.43056	LNM 15/16, 1st Dist	2156	13003_1	4/21/2016
13003	Change	BOON ISLAND LIGHT	Fl 5s 137ft 14M HORN	N 43 07' 17.218"	W 070 28' 35.119"	43.12145	-70.47643	LNM 10/16, 1st Dist	2156	13003_1	3/17/2016
13003	Change	EGG ROCK LIGHT	Fl R 5s 64ft 18M HORN (MRASS)	N 44 21' 14.188"	W 068 08' 18.033"	44.35394	-68.13834	LNM 09/16, 1st Dist	2156	13003_1	3/10/2016
13003	Add	DANGEROUS WRECK	PA	N 42 34' 59.400"	W 070 21' 43.200"	42.58317	-70.362	CNM 02/16, Canada	2156	13003_1	3/10/2016
13003	Delete	USGS RESEARCH LTD BUOY W	Y "W" Fl Y 4s Priv	N 40 35' 04.210"	W 073 06' 24.220"	40.5845	-73.10673	LNM 08/16, 1st Dist	2156	13003_1	3/3/2016
13003	Change	GOAT ISLAND LIGHT	Fl 6s 38ft 12M HORN (MRASS)	N 43 21' 28.300"	W 070 25' 30.300"	43.35786	-70.42509	LNM 07/16, 1st Dist	2156	13003_1	2/25/2016
13003	Change	WOOD ISLAND LIGHT	Al WG 10s 71ft 13M HORN (MRASS)	N 43 27' 24.700"	W 070 19' 44.600"	43.45686	-70.32906	LNM 06/16, 1st Dist	2156	13003_1	2/18/2016
13003	Change	WEST QUODDY HEAD LIGHT	Fl (2) 15s 25m/83ft 18M HORN (MRASS)	N 44 48' 54.387"	W 066 57' 02.416"	44.81511	-66.95067	LNM 06/16, 1st Dist	2156	13003_1	2/18/2016
13003	Relocate	PORTLAND HEAD LIGHT	Fl 4s 101ft 24M HORN (MRASS)	N 43 37' 23.174"	W 070 12' 28.312"	43.6231	-70.20786	LNM 05/16, 1st Dist	2156	13003_1	2/11/2016
13003	Change	HERON NECK LIGHT	F R 92ft 7M HORN (MRASS)	N 44 01' 30.400"	W 068 51' 43.800"	44.02511	-68.86217	LNM 05/16, 1st Dist	2156	13003_1	2/11/2016
13003	Change	PORTLAND HEAD LIGHT	Fl 4s 101ft 24M HORN (MRASS)	N 43 37' 23.174"	W 070 12' 28.312"	43.6231	-70.20786	LNM 05/16, 1st Dist	2156	13003_1	2/11/2016
13003	Change	SEGUIN LIGHT	F 180ft 18M HORN (MRASS)	N 43 42' 26.900"	W 069 45' 28.900"	43.70747	-69.75803	LNM 04/16, 1st Dist	2156	13003_1	2/4/2016
13003	Change	CAPE ELIZABETH LIGHT	Fl (4) 15s 129ft 15M HORN (MRASS)	N 43 33' 57.864"	W 070 12' 00.209"	43.56607	-70.20006	LNM 04/16, 1st Dist	2156	13003_1	2/4/2016
13003	Delete	Superbuoy DART 44402	Y "44402" Fl (4) Y 20s (DART) PA	N 39 23' 54.000"	W 070 56' 30.000"	39.39833	-70.94167	WNM 05/16, NGA	2156	13003_1	1/28/2016
13003	Add	Superbuoy DART 44402	Y "44402" Fl (4) Y 20s (DART) PA	N 39 17' 54.000"	W 070 39' 36.000"	39.29833	-70.66	WNM 05/16, NGA	2156	13003_1	1/28/2016
13003	Add	DANGEROUS WRECK	None	N 42 34' 05.800"	W 070 21' 43.200"	42.56828	-70.362	LNM 50/15, 1st Dist	2156	13003_1	12/24/2015
13003	Relocate	BLOCK ISLAND WIND FARM WTG-5	Q Y "WTG-5" Priv	N 41 06' 22.790"	W 071 32' 15.500"	41.10633	-71.53764	LNM 49/15, 1st Dist	2156	13003_1	12/17/2015
13003	Change	BLOCK ISLAND WIND FARM WTG-1	Q Y "WTG-1" Priv	N 41 07' 32.740"	W 071 30' 27.040"	41.12576	-71.50751	LNM 49/15, 1st Dist	2156	13003_1	12/17/2015
13003	Relocate	BLOCK ISLAND WIND FARM WTG-1	Q Y "WTG-1" Priv	N 41 07' 32.740"	W 071 30' 27.040"	41.12576	-71.50751	LNM 49/15, 1st Dist	2156	13003_1	12/17/2015
13003	Change	BLOCK ISLAND WIND FARM WTG-5	Q Y "WTG-5" Priv	N 41 06' 22.790"	W 071 32' 15.500"	41.10633	-71.53764	LNM 49/15, 1st Dist	2156	13003_1	12/17/2015
13003	Relocate	NOAA Lighted Data Buoy 44066 (ODAS)	Y ODAS "44066" Fl (4) Y 20s PA	N 39 34' 05.000"	W 072 35' 06.000"	39.56805	-72.585	LNM 47/15, 5th Dist	2156	13003_1	12/3/2015
13003	Relocate	GAY HEAD LIGHT	Al WR 15s 175ft 20M	N 41 20' 54.420"	W 070 50' 03.676"	41.34845	-70.83436	LNM 46/15, 1st Dist	2156	13003_1	11/26/2015
13003	Add	OBSTRUCTION	Obstn	N 44 47' 17.000"	W 066 43' 06.000"	44.78806	-66.71833	WNM 45/15, NGA	2156	13003_1	11/5/2015
13003	Change	MACHIAS SEAL ISLAND LIGHT	Fl 3s 25m 17M	N 44 30' 06.000"	W 067 06' 07.000"	44.50167	-67.10194	WNM 45/15, NGA	2156	13003_1	11/5/2015
13003	Change	SOUTHWEST HEAD LIGHT	Fl 10s 47.5m 16M	N 44 36' 03.000"	W 066 54' 20.000"	44.60083	-66.90556	WNM 45/15, NGA	2156	13003_1	11/5/2015
13003	Change	GREEN ISLAND LIGHT	Fl 5s 82ft 19M	N 43 41' 18.000"	W 066 08' 36.000"	43.68833	-66.14333	WNM 45/15, NGA	2156	13003_1	11/5/2015
