Chart	Action	ItemName	ChartingLa	Latitude	Longitude	LatDD	LongDD	PublishedD	Kapp	RNCPanel	RNCPosted
12253	Change	Depth Legend - Craney Island Rehandling Basin - North Access Channel to:	15 FT 2017	N 36 53' 57.280"	W 076 20' 28.360"	36.89925	-76.34121	LNM 26/17, 5th Dist	593	12253_1	6/22/2017
12253	Change	Tabulation - ELIZABETH RIVER CHANNEL DEPTHS	Tabulation - ELIZABETH RIVER CHANNEL DEPTHS	N 36 49' 40.000"	W 076 19' 00.000"	36.82778	-76.31667	LNM 18/17, 5th Dist	593	12253_1	4/27/2017
12253	Change	Tabulation - Elizabeth River Southern Branch	Tabulation - Elizabeth River Southern Branch	N 36 49' 01.000"	W 076 19' 00.000"	36.81694	-76.31667	LNM 15/17, 5th Dist	593	12253_1	3/30/2017
12253	Change	Tabulation - Elizabeth River	Tabulation - Elizabeth River	N 36 49' 40.000"	W 076 19' 00.000"	36.82778	-76.31667	LNM 15/17, 5th Dist	593	12253_1	3/30/2017
12253	Change	Craney Island Creek Light 6	Q R 15ft 4M "6"	N 36 52' 52.623"	W 076 20' 47.129"	36.88128	-76.34643	LNM 07/17, 5th Dist	593	12253_1	2/23/2017
12253	Change	Elizabeth River Southern Branch Light 9	Fl G 2.5s 15ft 4M "9"	N 36 47' 17.064"	W 076 18' 07.048"	36.78807	-76.30196	LNM 07/17, 5th Dist	593	12253_1	2/23/2017
12253	Change	Elizabeth River Southern Branch Light 22	Fl R 4s 15ft 4M "22"	N 36 46' 34.415"	W 076 17' 49.253"	36.77623	-76.29701	LNM 07/17, 5th Dist	593	12253_1	2/23/2017
12253	Change	Elizabeth River Southern Branch Light 42	Fl R 4s 15ft 4M "42"	N 36 43' 46.971"	W 076 16' 30.655"	36.72971	-76.27518	LNM 07/17, 5th Dist	593	12253_1	2/23/2017
12253	Relocate	Craney Island Creek Light 6	Q R 15ft 4M "6"	N 36 52' 52.623"	W 076 20' 47.129"	36.88128	-76.34643	LNM 07/17, 5th Dist	593	12253_1	2/23/2017
12214	Relocate	Indian River Inlet Lighted Buoy 2	R "2" Fl R 4s	N 38 36' 32.653"	W 075 03' 22.148"	38.60907	-75.05615	LNM 16/17, 5th Dist	554	12214_1	4/27/2017
12214	Add	Submerged Obstruction	Obstn PA  (Chart No. 1: K40)	N 38 49' 04.680"	W 074 50' 07.680"	38.81797	-74.83546	LNM 10/17, 5th Dist	554	12214_1	3/16/2017
12214	Add	Harbor of Refuge Lighted Mooring Buoy CG	W Bu "CG" Fl 4s	N 38 47' 47.720"	W 075 07' 54.300"	38.79659	-75.13175	LNM 09/17, 5th Dist	554	12214_1	3/9/2017
12214	Delete	Harbor of Refuge Lighted Mooring Buoy CG	"CG" Fl 4s	N 38 48' 58.052"	W 075 10' 00.921"	38.81612	-75.16692	LNM 09/17, 5th Dist	554	12214_1	3/9/2017
12214	Change	Cape May Light	Fl 15s 165ft 22M	N 38 55' 58.784"	W 074 57' 37.379"	38.93299	-74.96038	LNM 01/17, 5th Dist	554	12214_1	1/12/2017
12214	Add	Harbor Of Refuge North End Lighted Buoy 1	G "1" Fl G 4s	N 38 50' 01.062"	W 075 06' 25.296"	38.83363	-75.10703	LNM 52/16, 5th Dist	554	12214_1	1/5/2017
12214	Change	Cape May Harbor Range Front Light 4	Q R 13ft "4"	N 38 57' 07.762"	W 074 52' 35.156"	38.95216	-74.87643	LNM 51/16, 5th Dist	554	12214_1	12/22/2016
12214	Delete	Channel Limits PT 1 OF 2	Chart No. 1: I20	N 38 36' 29.840"	W 075 03' 46.350"	38.60829	-75.06287	LNM 25/16, 5th Dist	554	12214_1	6/23/2016
12214	Delete	Channel Limits PT 2 OF 2	Chart No. 1: I20	N 38 36' 33.280"	W 075 03' 00.790"	38.60925	-75.05022	LNM 25/16, 5th Dist	554	12214_1	6/23/2016
12214	Delete	Channel Limits PT 1 OF 2	Chart No. 1: I20	N 38 36' 27.830"	W 075 03' 46.190"	38.60773	-75.06283	LNM 25/16, 5th Dist	554	12214_1	6/23/2016
12214	Delete	Channel Limits PT 2 OF 2	Chart No. 1: I20	N 38 36' 31.460"	W 075 03' 00.520"	38.60874	-75.05015	LNM 25/16, 5th Dist	554	12214_1	6/23/2016
12214	Add	Channel Limits PT 1 OF 2	Chart No. 1: I20	N 38 36' 30.250"	W 075 03' 47.220"	38.6084	-75.06312	LNM 25/16, 5th Dist	554	12214_1	6/23/2016
12214	Add	Channel Limits PT 2 OF 2	Chart No. 1: I20	N 38 36' 31.950"	W 075 03' 25.310"	38.60888	-75.05703	LNM 25/16, 5th Dist	554	12214_1	6/23/2016
12214	Add	Channel Limits PT 1 OF 2	Chart No. 1: I20	N 38 36' 28.290"	W 075 03' 46.940"	38.60786	-75.06304	LNM 25/16, 5th Dist	554	12214_1	6/23/2016
12214	Add	Channel Limits PT 2 OF 2	Chart No. 1: I20	N 38 36' 29.980"	W 075 03' 25.060"	38.60833	-75.05696	LNM 25/16, 5th Dist	554	12214_1	6/23/2016
12214	Relocate	Delaware Bay Main Channel Lighted Buoy 10	R "10" Fl R 4s	N 38 56' 24.769"	W 075 06' 17.396"	38.94021	-75.10484	LNM 23/16, 5th Dist	554	12214_1	6/16/2016
12214	Relocate	Delaware Bay Main Channel Lighted Buoy 14	R "14" Fl R 2.5s	N 39 00' 18.404"	W 075 08' 24.760"	39.00511	-75.14021	LNM 23/16, 5th Dist	554	12214_1	6/16/2016
12214	Delete	Brandywine Shoal Midway Buoy 2	R N "2"	N 38 59' 47.404"	W 075 07' 39.658"	38.9965	-75.12769	LNM 23/16, 5th Dist	554	12214_1	6/16/2016
12214	Change	Tanker Anchorage Buoy D	Y C "D"	N 39 00' 49.405"	W 075 14' 55.679"	39.01373	-75.2488	LNM 21/16, 5th Dist	554	12214_1	5/26/2016
12214	Change	Tanker Anchorage Lighted Buoy G	Y "G" Fl Y 4s	N 38 57' 39.404"	W 075 10' 41.666"	38.96095	-75.17824	LNM 21/16, 5th Dist	554	12214_1	5/26/2016
12214	Relocate	Tanker Anchorage Buoy D	Y C "D"	N 39 00' 49.405"	W 075 14' 55.679"	39.01373	-75.2488	LNM 21/16, 5th Dist	554	12214_1	5/26/2016
12214	Relocate	Tanker Anchorage Lighted Buoy G	Y "G" Fl Y 4s	N 38 57' 39.404"	W 075 10' 41.666"	38.96095	-75.17824	LNM 21/16, 5th Dist	554	12214_1	5/26/2016
12214	Change	Cape May Inlet West Jetty Light 5	Fl G 4s 38ft 5M "5"	N 38 56' 11.715"	W 074 51' 55.311"	38.93659	-74.86536	LNM 43/15, 5th Dist	554	12214_1	10/29/2015
12214	Add	Wreck in Feet	31 Wk      Chart No. 1: K26	N 38 50' 27.820"	W 074 55' 37.020"	38.84106	-74.92695	LNM 40/15, 5th Dist	554	12214_1	10/1/2015
12214	Delete	Sounding in Feet	32	N 38 50' 28.000"	W 074 55' 36.800"	38.84111	-74.92689	LNM 40/15, 5th Dist	554	12214_1	10/1/2015
12214	Relocate	Lower Middle Wreck Buoy LMW	R N "LMW"	N 39 00' 05.656"	W 075 12' 16.779"	39.00157	-75.20466	LNM 31/15, 5th Dist	554	12214_1	8/13/2015
12214	Relocate	NOAA Lighted Data Buoy 44009 (ODAS)	Y ODAS "44009" Fl (4) Y 20s PA	N 38 27' 40.302"	W 074 42' 08.480"	38.4612	-74.70235	LNM 30/15, 5th Dist	554	12214_1	8/6/2015
12214	Delete	Sewell Point Buoy A	Y C "A"	N 38 55' 48.505"	W 074 51' 55.911"	38.93014	-74.86553	LNM 29/15, 5th Dist	554	12214_1	7/30/2015
12214	Delete	Sewell Point Buoy C	Y C "C"	N 38 55' 35.205"	W 074 52' 43.814"	38.92645	-74.87884	LNM 29/15, 5th Dist	554	12214_1	7/30/2015
12214	Delete	Obstruction in Feet	64 Obstn     (Chart No. 1: K41)	N 38 53' 25.700"	W 075 05' 20.500"	38.89047	-75.08903	LNM 28/15, 5th Dist	554	12214_1	7/16/2015
12214	Delete	Obstruction	Obstn PA    (Chart No. 1: K40)	N 38 52' 16.400"	W 075 06' 07.300"	38.87122	-75.10203	LNM 28/15, 5th Dist	554	12214_1	7/16/2015
12214	Add	Obstruction in Feet	34 Obstn     (Chart No. 1: K41)	N 38 55' 29.600"	W 075 07' 09.500"	38.92489	-75.11931	LNM 28/15, 5th Dist	554	12214_1	7/16/2015
12214	Delete	Obstruction in Feet	35 Obstn     (Chart No. 1: K41)	N 38 55' 31.900"	W 075 06' 05.500"	38.92553	-75.10152	LNM 28/15, 5th Dist	554	12214_1	7/16/2015
12214	Delete	Obstruction in Feet	55 Obstn     (Chart No. 1: K41)	N 38 49' 49.900"	W 075 05' 18.200"	38.83053	-75.08839	LNM 28/15, 5th Dist	554	12214_1	7/16/2015
12214	Add	Obstruction in Feet	37 Obstn     (Chart No. 1: K41)	N 38 53' 35.000"	W 075 03' 48.600"	38.89305	-75.0635	LNM 28/15, 5th Dist	554	12214_1	7/16/2015
12214	Delete	Rock in Feet	48 Rk      Chart No. 1: K14.2	N 38 47' 49.450"	W 074 50' 08.450"	38.79707	-74.83568	LNM 26/15, 5th Dist	554	12214_1	6/25/2015
12214	Delete	Obstruction in Feet	52 Obstn       Chart No. 1: K41	N 38 46' 33.670"	W 074 44' 23.860"	38.77602	-74.73996	LNM 26/15, 5th Dist	554	12214_1	6/25/2015
12214	Delete	Obstruction in Feet	56 Obstns       Chart No. 1: K41	N 38 46' 10.240"	W 074 44' 44.560"	38.76951	-74.74571	LNM 26/15, 5th Dist	554	12214_1	6/25/2015
12214	Delete	Obstruction in Feet	66 Obstn       Chart No. 1: K41	N 38 45' 31.340"	W 074 42' 57.500"	38.75871	-74.71597	LNM 26/15, 5th Dist	554	12214_1	6/25/2015
12214	Delete	Obstruction in Feet	37 Obstns       Chart No. 1: K41	N 38 48' 25.780"	W 074 55' 14.260"	38.80716	-74.92063	LNM 26/15, 5th Dist	554	12214_1	6/25/2015
12214	Delete	Obstruction in Feet	45 Obstn       Chart No. 1: K41	N 38 46' 20.590"	W 074 55' 55.920"	38.77238	-74.9322	LNM 26/15, 5th Dist	554	12214_1	6/25/2015
12214	Delete	Obstruction in Feet	64 Obstn       Chart No. 1: K41	N 38 45' 20.110"	W 074 48' 08.020"	38.75558	-74.80223	LNM 26/15, 5th Dist	554	12214_1	6/25/2015
12214	Delete	Rock in Feet	62 Rk      Chart No. 1: K14.2	N 38 44' 59.280"	W 074 48' 22.820"	38.7498	-74.80634	LNM 26/15, 5th Dist	554	12214_1	6/25/2015
12214	Delete	Obstruction in Feet	58 Obstn       Chart No. 1: K41	N 38 47' 17.950"	W 074 45' 28.250"	38.78832	-74.75785	LNM 26/15, 5th Dist	554	12214_1	6/25/2015
12214	Add	Wreck in Feet	61 Wk      Chart No. 1: K26	N 38 48' 08.190"	W 074 42' 26.710"	38.80228	-74.70742	LNM 26/15, 5th Dist	554	12214_1	6/25/2015
12214	Delete	Obstruction in Feet	55 Obstns       Chart No. 1: K41	N 38 46' 00.380"	W 074 44' 48.140"	38.76677	-74.7467	LNM 26/15, 5th Dist	554	12214_1	6/25/2015
12214	Delete	Obstruction in Feet	62 Obstn       Chart No. 1: K41	N 38 47' 50.300"	W 074 35' 11.510"	38.79731	-74.58653	LNM 26/15, 5th Dist	554	12214_1	6/25/2015
12214	Add	Fenwick Island Yacht Club Warning Light A	Fl 4s 15ft "A" Priv	N 38 27' 56.580"	W 075 03' 32.100"	38.46572	-75.05891	LNM 22/15, 5th Dist	554	12214_1	6/11/2015
12214	Change	Fenwick Island Light	Iso 8s 83ft Priv	N 38 27' 06.000"	W 075 03' 18.000"	38.45167	-75.055	LNM 20/15, 5th Dist	554	12214_1	5/28/2015
12214	Change	Cape May Canal West Entrance North Jetty Light 11	Fl G 2.5s 34ft 6M "11" HORN (MRASS)	N 38 58' 03.684"	W 074 57' 59.690"	38.96769	-74.96658	LNM 17/15, 5th Dist	554	12214_1	5/7/2015
12214	Add	Note - MARINER ACTIVATED SOUND SIGNALS:	Sound signals labeled with (MRASS) require user activation.  See USCG Light List.	N 39 01' 17.000"	W 074 55' 21.000"	39.02139	-74.9225	LNM 17/15, 5th Dist	554	12214_1	5/7/2015
12214	Delete	Obstruction in Feet with Basket	60 Obstn       Chart No. 1: K42	N 38 49' 10.020"	W 074 31' 15.850"	38.81945	-74.52107	LNM 17/15, 5th Dist	554	12214_1	4/30/2015
12214	Change	Delaware Bay Approach Lighted Whistle Buoy CH	RW "CH" Mo (A) WHIS RACON (-.-) AIS  (Chart No. 1: S17.2)	N 38 46' 13.977"	W 075 01' 19.524"	38.77055	-75.02209	LNM 07/15, 5th Dist	554	12214_1	2/26/2015
12214	Add	Sounding in Feet	4	N 38 53' 53.500"	W 075 00' 02.200"	38.89819	-75.00061	LNM 47/14, 5th Dist	554	12214_1	11/20/2014
12214	Add	Sounding in Feet	5	N 38 54' 06.800"	W 075 00' 07.100"	38.90189	-75.00198	LNM 47/14, 5th Dist	554	12214_1	11/20/2014
12214	Add	Sounding in Feet	9	N 38 55' 24.900"	W 074 57' 23.200"	38.92358	-74.95644	LNM 47/14, 5th Dist	554	12214_1	11/20/2014
12214	Add	Harbor of Refuge Lighted Mooring Buoy CG	"CG" Fl 4s   (Chart No. 1: Q41)	N 38 48' 58.052"	W 075 10' 00.921"	38.81612	-75.16692	LNM 43/14, 5th Dist	554	12214_1	11/6/2014
12214	Relocate	Five Fathom Bank Northeast Lighted Bell Buoy 2FB	R "2FB" Fl R 4s BELL	N 38 58' 12.411"	W 074 31' 34.554"	38.97012	-74.52627	LNM 40/14, 5th Dist	554	12214_1	10/9/2014
12214	Change	Delaware Bay North Approach Lighted Buoy 2	R "2" Q R (delete BELL)	N 38 48' 19.000"	W 074 55' 18.000"	38.80528	-74.92167	LNM 38/14, 5th Dist	554	12214_1	10/2/2014
12214	Change	Cape May Inlet Lighted Buoy 2CM	R "2CM" Fl R 2.5s (delete BELL)	N 38 55' 47.005"	W 074 51' 20.509"	38.92972	-74.8557	LNM 32/14, 5th Dist	554	12214_1	8/21/2014
12214	Substitute	Sounding in Feet	21 for 44	N 38 52' 37.700"	W 075 01' 36.000"	38.87714	-75.02666	LNM 28/14, 5th Dist	554	12214_1	7/10/2014
12214	Substitute	Sounding in Feet	8 for 25	N 38 52' 58.900"	W 075 00' 05.300"	38.88303	-75.00147	LNM 28/14, 5th Dist	554	12214_1	7/10/2014
12214	Add	Sounding in Feet	8	N 38 53' 02.300"	W 075 00' 32.200"	38.88397	-75.00894	LNM 28/14, 5th Dist	554	12214_1	7/10/2014
12214	Change	Indian River Inlet South Jetty Light 3	Fl G 4s 30ft 6M "3"	N 38 36' 28.203"	W 075 03' 33.049"	38.60783	-75.05918	LNM 15/14, 5th Dist	554	12214_1	4/24/2014
12214	Add	Obstruction in Feet	17 Obstn       Chart No. 1: K41	N 38 56' 50.208"	W 075 05' 05.082"	38.94728	-75.08475	LNM 15/14, 5th Dist	554	12214_1	4/10/2014
12214	Delete	Sounding in Feet	30	N 38 56' 49.100"	W 075 05' 08.600"	38.94697	-75.08572	LNM 15/14, 5th Dist	554	12214_1	4/10/2014
12214	Change	Disposal Area Label	Disposal Area Depth from survey of 2013	N 38 56' 47.900"	W 075 05' 06.300"	38.94664	-75.08508	LNM 15/14, 5th Dist	554	12214_1	4/10/2014
12214	Add	Fixed Bridge	Chart No. 1: D22	N 38 36' 29.800"	W 075 03' 47.800"	38.60828	-75.06328	LNM 14/14, 5th Dist	554	12214_1	4/10/2014
12214	Delete	Bridge Construction Note	Caution: Fixed and floating obstructions, some submerged, may exist within the magenta tinted bridge construction area. Mariners are advised to proceed with caution.	N 38 28' 27.000"	W 075 07' 50.000"	38.47417	-75.13055	LNM 14/14, 5th Dist	554	12214_1	4/10/2014
12214	Add	Fixed Bridge Label	FIXED BRIDGE HOR CL 200 FT VERT CL 45 FT	N 38 36' 08.000"	W 075 04' 01.000"	38.60222	-75.06695	LNM 14/14, 5th Dist	554	12214_1	4/10/2014
12214	Delete	Bridge Construction	Chart No. 1: D.d, with magenta screen extending 500 feet from bridge	N 38 36' 30.000"	W 075 03' 46.000"	38.60833	-75.06277	LNM 14/14, 5th Dist	554	12214_1	4/10/2014
12214	Delete	Bridge Construction Label	Bridge under construction	N 38 36' 09.000"	W 075 04' 11.000"	38.6025	-75.06973	LNM 14/14, 5th Dist	554	12214_1	4/10/2014
12214	Add	Obstruction in Feet	45 Obstn       Chart No. 1: K41	N 38 46' 20.580"	W 074 55' 55.920"	38.77238	-74.9322	LNM 11/14, 5th Dist	554	12214_1	3/13/2014
12214	Add	Obstruction in Feet	21 Obstn       Chart No. 1: K41	N 38 50' 53.900"	W 074 49' 49.420"	38.8483	-74.83039	LNM 11/14, 5th Dist	554	12214_1	3/13/2014
12214	Delete	Sounding in Feet	32	N 38 50' 48.580"	W 074 49' 48.660"	38.84683	-74.83018	LNM 11/14, 5th Dist	554	12214_1	3/13/2014
12214	Change	Indian River Inlet Lighted Buoy 1	G "1" Fl G 2.5s	N 38 36' 32.902"	W 075 02' 46.447"	38.60914	-75.04623	LNM 51/13, 5th Dist	554	12214_1	12/23/2013
12214	Add	Obstruction in Feet	16 Obstn       Chart No. 1: K41	N 38 57' 12.700"	W 074 59' 29.200"	38.95353	-74.99145	LNM 51/13, 5th Dist	554	12214_1	12/10/2013
12214	Delete	Sounding in Feet	11	N 38 54' 31.680"	W 074 57' 43.980"	38.9088	-74.96222	LNM 42/13, 5th Dist	554	12214_1	10/9/2013
12214	Add	Sounding in Feet	5	N 38 54' 35.340"	W 074 57' 45.030"	38.90982	-74.96251	LNM 42/13, 5th Dist	554	12214_1	10/9/2013
12214	Add	Sounding in Feet	10	N 38 54' 27.830"	W 074 57' 44.240"	38.90773	-74.96229	LNM 42/13, 5th Dist	554	12214_1	10/9/2013
12214	Add	Sounding in Feet	5	N 38 53' 43.480"	W 074 57' 24.660"	38.89541	-74.95685	LNM 42/13, 5th Dist	554	12214_1	10/9/2013
12214	Add	Sounding in Feet	6	N 38 53' 35.490"	W 074 57' 11.440"	38.89319	-74.95318	LNM 42/13, 5th Dist	554	12214_1	10/9/2013
12214	Add	Sounding in Feet	11	N 38 53' 47.130"	W 074 57' 04.580"	38.89642	-74.95127	LNM 42/13, 5th Dist	554	12214_1	10/9/2013
12214	Add	Unsurveyed Area (Chart No. 1 I25) PT 1 OF 12	Unsurveyed Area	N 38 53' 51.610"	W 074 57' 07.740"	38.89767	-74.95215	LNM 42/13, 5th Dist	554	12214_1	10/9/2013
12214	Add	Unsurveyed Area (Chart No. 1 I25) PT 2 OF 12	Unsurveyed Area	N 38 54' 00.720"	W 074 57' 25.760"	38.9002	-74.95715	LNM 42/13, 5th Dist	554	12214_1	10/9/2013
12214	Add	Unsurveyed Area (Chart No. 1 I25) PT 3 OF 12	Unsurveyed Area	N 38 54' 07.290"	W 074 57' 29.380"	38.90202	-74.95816	LNM 42/13, 5th Dist	554	12214_1	10/9/2013
12214	Add	Unsurveyed Area (Chart No. 1 I25) PT 4 OF 12	Unsurveyed Area	N 38 54' 19.310"	W 074 57' 39.780"	38.90536	-74.96105	LNM 42/13, 5th Dist	554	12214_1	10/9/2013
12214	Add	Sounding in Feet	9	N 38 53' 33.310"	W 074 56' 21.400"	38.89259	-74.93928	LNM 42/13, 5th Dist	554	12214_1	10/9/2013
12214	Add	Sounding in Feet	9	N 38 53' 35.530"	W 074 56' 45.460"	38.8932	-74.94596	LNM 42/13, 5th Dist	554	12214_1	10/9/2013
12214	Add	Sounding in Feet	9	N 38 53' 25.760"	W 074 56' 52.710"	38.89049	-74.94798	LNM 42/13, 5th Dist	554	12214_1	10/9/2013
12214	Delete	Sounding in Feet	35	N 38 54' 13.390"	W 074 57' 43.380"	38.90372	-74.96205	LNM 42/13, 5th Dist	554	12214_1	10/9/2013
12214	Delete	Sounding in Feet	14	N 38 53' 34.480"	W 074 56' 37.250"	38.89291	-74.94368	LNM 42/13, 5th Dist	554	12214_1	10/9/2013
12214	Delete	Sounding in Feet	8	N 38 53' 26.150"	W 074 56' 49.750"	38.8906	-74.94715	LNM 42/13, 5th Dist	554	12214_1	10/9/2013
12214	Delete	Sounding in Feet	24	N 38 53' 45.260"	W 074 57' 01.700"	38.8959	-74.95047	LNM 42/13, 5th Dist	554	12214_1	10/9/2013
12214	Add	Unsurveyed Area (Chart No. 1 I25) PT 12 OF 12	Unsurveyed Area	N 38 53' 47.880"	W 074 57' 13.100"	38.89663	-74.95364	LNM 42/13, 5th Dist	554	12214_1	10/9/2013
12214	Add	Unsurveyed Area (Chart No. 1 I25) PT 11 OF 12	Unsurveyed Area	N 38 53' 46.590"	W 074 57' 16.270"	38.89627	-74.95452	LNM 42/13, 5th Dist	554	12214_1	10/9/2013
12214	Add	Unsurveyed Area (Chart No. 1 I25) PT 10 OF 12	Unsurveyed Area	N 38 53' 48.320"	W 074 57' 27.580"	38.89676	-74.95766	LNM 42/13, 5th Dist	554	12214_1	10/9/2013
12214	Add	Unsurveyed Area (Chart No. 1 I25) PT 9 OF 12	Unsurveyed Area	N 38 53' 49.610"	W 074 57' 28.980"	38.89711	-74.95805	LNM 42/13, 5th Dist	554	12214_1	10/9/2013
12214	Add	Unsurveyed Area (Chart No. 1 I25) PT 8 OF 12	Unsurveyed Area	N 38 53' 59.840"	W 074 57' 33.680"	38.89996	-74.95936	LNM 42/13, 5th Dist	554	12214_1	10/9/2013
12214	Add	Unsurveyed Area (Chart No. 1 I25) PT 7 OF 12	Unsurveyed Area	N 38 54' 09.210"	W 074 57' 43.060"	38.90256	-74.96196	LNM 42/13, 5th Dist	554	12214_1	10/9/2013
12214	Add	Unsurveyed Area (Chart No. 1 I25) PT 6 OF 12	Unsurveyed Area	N 38 54' 18.570"	W 074 57' 50.490"	38.90516	-74.96403	LNM 42/13, 5th Dist	554	12214_1	10/9/2013
12214	Add	Unsurveyed Area (Chart No. 1 I25) PT 5 OF 12	Unsurveyed Area	N 38 54' 21.900"	W 074 57' 45.950"	38.90608	-74.96276	LNM 42/13, 5th Dist	554	12214_1	10/9/2013
12214	Relocate	Delaware Traffic Lane Lighted Buoy DB	Y "DB" Fl Y 4s	N 38 38' 12.404"	W 074 52' 10.617"	38.63678	-74.86961	LNM 30/13, 5th Dist	554	12214_1	7/30/2013
12214	Relocate	Lower Middle Wreck Buoy LMW	R N "LMW"	N 39 00' 05.664"	W 075 12' 16.318"	39.00157	-75.20454	LNM 23/13, 5th Dist	554	12214_1	6/10/2013
12214	Change	Cape May Canal West Entrance North Jetty Light 11	Fl G 2.5s 34ft 6M "11" HORN	N 38 58' 03.684"	W 074 57' 59.690"	38.96769	-74.96658	LNM 11/13, 5th Dist	554	12214_1	3/18/2013
12214	Change	McCrie Shoal Lighted Gong Buoy 2MS	R "2MS" Fl R 4s	N 38 50' 29.205"	W 074 50' 16.607"	38.84145	-74.83794	LNM 04/13, 5th Dist	554	12214_1	1/23/2013
12214	Add	HURRICANES AND TROPICAL STORMS NOTE	HURRICANES AND TROPICAL STORMS Note: Hurricanes, tropical storms and other major storms may cause considerable damage to marine structures, aids to navigation and moored vessels, resulting in submerged debris in unknown locations. Charted soundings, channel depths and shoreline may not reflect actual conditions following these storms. Fixed aids to navigation may have been damaged or destroyed. Buoys may have been moved from their charted positions, damaged, sunk, extinguished or otherwise made inoperative. Mariners should not rely upon the position or operation of an aid to navigation. Wrecks and submerged obstructions may have been displaced from charted locations. Pipelines may have become uncovered or moved. Mariners are urged to exercise extreme caution and are requested to report aids to navigation discrepancies and hazards to navigation to the nearest United States Coast Guard uni	N 38 39' 38.000"	W 075 12' 34.000"	38.66056	-75.20944	LNM 50/12, 5th Dist	554	12214_1	12/6/2012
12214	Change	Delaware Bay Main Channel Lighted Buoy 12	R "12" Fl R 4s	N 38 58' 52.204"	W 075 07' 36.658"	38.98117	-75.12685	LNM 42/12, 5th Dist	554	12214_1	10/17/2012
12214	Change	Harbor Of Refuge North End Light 1	Fl G 4s 40ft 7M "1"	N 38 49' 57.343"	W 075 06' 20.723"	38.8326	-75.10576	LNM 28/12, 5th Dist	554	12214_1	7/13/2012
12214	Add	Obstruction	Obstn PA         Chart No. 1: K40	N 38 52' 16.380"	W 075 06' 07.320"	38.87122	-75.10204	LNM 12/12, 5th Dist	554	12214_1	3/19/2012
12214	Change	Cape May Harbor Range Front Light - Light 4	Q R 16ft 4M "4"	N 38 57' 07.762"	W 074 52' 35.156"	38.95216	-74.87643	LNM 11/12, 5th Dist	554	12214_1	3/14/2012
12214	Relocate	Brown Shoal Light	Fl 2.5s 23ft 7M RACON (_...)	N 38 55' 21.042"	W 075 06' 00.657"	38.92251	-75.10018	LNM 05/12, 5th Dist	554	12214_1	2/2/2012
12214	Delete	Hereford Inlet Lighted Whistle Buoy H	RW "H" Mo (A) WHIS	N 38 59' 36.207"	W 074 45' 33.803"	38.99339	-74.75939	LNM 42/11, 5th Dist	554	12214_1	10/26/2011
12214	Delete	Obstruction	Obstn         Chart No. 1: K40	N 38 41' 17.500"	W 074 46' 15.700"	38.68819	-74.77103	LNM 35/11, 5th Dist	554	12214_1	8/29/2011
12214	Change	Delaware Bay East Icebreaker Light 2	Q R 15ft 6M "2"	N 38 50' 17.803"	W 075 06' 39.354"	38.83828	-75.11093	LNM 19/11, 5th Dist	554	12214_1	5/11/2011
12214	Change	Delaware Bay West Icebreaker Light W	Fl 4s 22ft 6M "W"	N 38 50' 08.635"	W 075 07' 10.250"	38.83573	-75.11951	LNM 19/11, 5th Dist	554	12214_1	5/11/2011
12214	Relocate	Tanker Anchorage Lighted Buoy B	Y "B" Fl Y 6s	N 38 57' 05.404"	W 075 12' 11.671"	38.9515	-75.20324	LNM 12/11, 5th Dist	554	12214_1	3/24/2011
12214	Relocate	Roosevelt Inlet Range Front Light	Q 29ft	N 38 47' 15.338"	W 075 09' 44.379"	38.78759	-75.16233	LNM 10/11, 5th Dist	554	12214_1	3/14/2011
12214	Relocate	Hereford Inlet Lighted Whistle Buoy H	RW "H" Mo (A) WHIS	N 38 59' 36.207"	W 074 45' 33.803"	38.99339	-74.75939	LNM 08/11, 5th Dist	554	12214_1	3/8/2011
12214	Add	Bridge Construction PT 1 OF 2	None	N 38 36' 35.500"	W 075 03' 48.300"	38.60986	-75.06342	LNM 52/10, 5th Dist	554	12214_1	12/22/2010
12214	Add	Bridge Construction PT 2 OF 2	None	N 38 36' 27.700"	W 075 03' 47.700"	38.60769	-75.06325	LNM 52/10, 5th Dist	554	12214_1	12/22/2010
12214	Add	Bridge Construction Label	Bridge under construction	N 38 36' 08.100"	W 075 04' 10.000"	38.60225	-75.06944	LNM 52/10, 5th Dist	554	12214_1	12/22/2010
12214	Add	Caution Note	CAUTIONFixed and floating obstructions, some submerged, may exist within the magenta tinted bridge construction area. Mariners are advised to proceed with caution.	N 38 28' 27.000"	W 075 07' 50.000"	38.47417	-75.13055	LNM 52/10, 5th Dist	554	12214_1	12/22/2010
12277	Delete	Anchorage Area 3 PT 1 OF 6	(Chart No. 1 N12.1	N 39 32' 20.000"	W 075 33' 07.720"	39.53889	-75.55215	LNM 13/17, 5th Dist	631	12277_1	3/23/2017
12277	Delete	Anchorage Area 3 PT 2 OF 6	(Chart No. 1 N12.1	N 39 33' 24.190"	W 075 32' 59.650"	39.55672	-75.5499	LNM 13/17, 5th Dist	631	12277_1	3/23/2017
12277	Delete	Anchorage Area 3 PT 3 OF 6	(Chart No. 1 N12.1	N 39 33' 17.750"	W 075 32' 40.750"	39.55493	-75.54465	LNM 13/17, 5th Dist	631	12277_1	3/23/2017
12277	Delete	Anchorage Area 3 PT 4 OF 6	(Chart No. 1 N12.1	N 39 33' 06.470"	W 075 32' 36.900"	39.5518	-75.54359	LNM 13/17, 5th Dist	631	12277_1	3/23/2017
12277	Delete	Anchorage Area 3 PT 5 OF 6	(Chart No. 1 N12.1	N 39 32' 34.840"	W 075 32' 38.690"	39.54301	-75.54408	LNM 13/17, 5th Dist	631	12277_1	3/23/2017
12277	Delete	Anchorage Area 3 PT 6 OF 6	(Chart No. 1 N12.1	N 39 32' 21.600"	W 075 32' 43.490"	39.53933	-75.54541	LNM 13/17, 5th Dist	631	12277_1	3/23/2017
12277	Add	Anchorage Area 3 PT 1 OF 5	(Chart No. 1 N12.1)	N 39 32' 19.950"	W 075 33' 08.470"	39.53888	-75.55235	LNM 13/17, 5th Dist	631	12277_1	3/23/2017
12277	Add	Anchorage Area 3 PT 2 OF 5	(Chart No. 1 N12.1)	N 39 33' 09.000"	W 075 33' 10.000"	39.5525	-75.55278	LNM 13/17, 5th Dist	631	12277_1	3/23/2017
12277	Add	Anchorage Area 3 PT 3 OF 5	(Chart No. 1 N12.1)	N 39 33' 09.000"	W 075 32' 38.000"	39.5525	-75.54389	LNM 13/17, 5th Dist	631	12277_1	3/23/2017
12277	Add	Anchorage Area 3 PT 4 OF 5	(Chart No. 1 N12.1)	N 39 32' 34.600"	W 075 32' 38.200"	39.54295	-75.54395	LNM 13/17, 5th Dist	631	12277_1	3/23/2017
12277	Add	Anchorage Area 3 PT 5 OF 5	(Chart No. 1 N12.1)	N 39 32' 21.630"	W 075 32' 42.710"	39.53934	-75.5452	LNM 13/17, 5th Dist	631	12277_1	3/23/2017
12277	Change	Tabulation - CHESAPEAKE AND DELAWARE CANAL CHANNEL DEPTHS	Tabulation - CHESAPEAKE AND DELAWARE CANAL CHANNEL DEPTHS	N 39 34' 40.000"	W 075 43' 00.000"	39.57778	-75.71667	LNM 10/17, 5th Dist	631	12277_1	3/9/2017
12277	Change	Tabulation - SALEM RIVER CHANNEL	Tabulation - SALEM RIVER CHANNEL	N 39 33' 50.000"	W 075 43' 03.000"	39.56389	-75.7175	LNM 09/17, 5th Dist	631	12277_1	3/2/2017
12277	Change	Tabulation - CHESAPEAKE AND DELAWARE CANAL CHANNEL DEPTHS	Tabulation - CHESAPEAKE AND DELAWARE CANAL CHANNEL DEPTHS	N 39 34' 40.000"	W 075 43' 00.000"	39.57778	-75.71667	LNM 06/17, 5th Dist	631	12277_1	2/2/2017
12277	Change	Delaware River Light 15	Fl G 6s 15ft 5M "15"	N 39 35' 24.874"	W 075 33' 55.359"	39.59024	-75.56538	LNM 44/16, 5th Dist	631	12277_1	11/10/2016
12277	Change	Delaware River Lighted Buoy 11	G "11" Q G AIS	N 39 33' 06.467"	W 075 32' 36.904"	39.5518	-75.54359	LNM 37/16, 5th Dist	631	12277_1	9/15/2016
12277	Relocate	Delaware City Light 1	Fl G 4s 15ft 4M "1"	N 39 34' 45.310"	W 075 35' 06.852"	39.57925	-75.58524	LNM 31/16, 5th Dist	631	12277_1	8/11/2016
12277	Change	Delaware City Light 1	Fl G 4s 15ft 4M "1"	N 39 34' 45.532"	W 075 35' 06.777"	39.57932	-75.58521	LNM 30/16, 5th Dist	631	12277_1	8/11/2016
12277	Delete	Reedy Island Anchorage Buoy A	Y C "A"	N 39 33' 15.810"	W 075 33' 08.900"	39.55439	-75.55247	LNM 27/16, 5th Dist	631	12277_1	7/7/2016
12277	Change	Delaware River Lighted Buoy 12	R "12" Q R	N 39 33' 07.904"	W 075 32' 14.625"	39.5522	-75.5374	LNM 23/16, 5th Dist	631	12277_1	6/16/2016
12277	Change	Delaware River Lighted Buoy 13	G "13" Fl G 4s (delete GONG)	N 39 34' 08.663"	W 075 33' 05.702"	39.56907	-75.55158	LNM 23/16, 5th Dist	631	12277_1	6/16/2016
12277	Relocate	Delaware River Lighted Buoy 12	R "12" Q R	N 39 33' 07.904"	W 075 32' 14.625"	39.5522	-75.5374	LNM 23/16, 5th Dist	631	12277_1	6/16/2016
12277	Delete	Reedy Island Flats Buoy 27	G C "27"	N 39 32' 57.264"	W 075 33' 03.238"	39.54924	-75.5509	LNM 21/16, 5th Dist	631	12277_1	5/26/2016
12277	Add	Reedy Island Anchorage Buoy A	Y C "A"	N 39 33' 15.810"	W 075 33' 08.900"	39.55439	-75.55247	LNM 21/16, 5th Dist	631	12277_1	5/26/2016
12277	Add	Reedy Island Anchorage Buoy B	Y C "B"	N 39 33' 04.680"	W 075 33' 02.850"	39.5513	-75.55079	LNM 21/16, 5th Dist	631	12277_1	5/26/2016
12277	Delete	Baker Range Rear Light	F G 110ft	N 39 32' 27.098"	W 075 34' 11.493"	39.54086	-75.56986	LNM 17/16, 5th Dist	631	12277_1	5/5/2016
12277	Add	Salem River Entrance Channel 14 V-AIS ATON	V-AIS "14"  (Chart No. 1 S18.2)	N 39 34' 15.704"	W 075 29' 53.256"	39.57103	-75.49812	LNM 40/15, 5th Dist	2976	12277_3	10/22/2015
12277	Change	Bulkhead Shoal Channel Range Front Light	Q R 37ft Priv	N 39 35' 37.975"	W 075 36' 13.215"	39.59388	-75.60367	LNM 38/15, 5th Dist	631	12277_1	10/1/2015
12277	Change	Bulkhead Shoal Channel Range Rear Light	F R 71ft Priv	N 39 35' 55.615"	W 075 36' 44.226"	39.59878	-75.61228	LNM 38/15, 5th Dist	631	12277_1	10/1/2015
12277	Delete	Bulkhead Shoal Channel Buoy 10	R N "10"	N 39 35' 26.106"	W 075 35' 37.009"	39.59058	-75.59361	LNM 34/15, 5th Dist	631	12277_1	9/3/2015
12277	Add	New Castle Range Line PT 1 OF 2	(Chart No. 1: M1)	N 39 36' 10.250"	W 075 34' 14.840"	39.60285	-75.57079	LNM 32/15, 5th Dist	631	12277_1	8/6/2015
12277	Add	New Castle Range Line PT 2 OF 2	(Chart No. 1: M1)	N 39 33' 07.510"	W 075 32' 21.060"	39.55209	-75.53918	LNM 32/15, 5th Dist	631	12277_1	8/6/2015
12277	Delete	New Castle Range Line PT 1 OF 3	(Chart No. 1: M1)	N 39 36' 10.270"	W 075 34' 14.900"	39.60285	-75.57081	LNM 32/15, 5th Dist	631	12277_1	8/6/2015
12277	Delete	New Castle Range Line PT 2 OF 3	(Chart No. 1: M1)	N 39 33' 45.850"	W 075 32' 45.070"	39.56274	-75.54585	LNM 32/15, 5th Dist	631	12277_1	8/6/2015
12277	Delete	New Castle Range Line PT 3 OF 3	(Chart No. 1: M1)	N 39 33' 07.120"	W 075 32' 26.320"	39.55198	-75.54064	LNM 32/15, 5th Dist	631	12277_1	8/6/2015
12277	Delete	Reedy Island Range Line PT 1 OF 3	(Chart No. 1: M1)	N 39 32' 22.020"	W 075 32' 37.170"	39.53945	-75.54366	LNM 32/15, 5th Dist	631	12277_1	8/6/2015
12277	Delete	Reedy Island Range Line PT 2 OF 3	(Chart No. 1: M1)	N 39 32' 36.130"	W 075 32' 32.220"	39.54337	-75.54228	LNM 32/15, 5th Dist	631	12277_1	8/6/2015
12277	Delete	Reedy Island Range Line PT 3 OF 3	(Chart No. 1: M1)	N 39 33' 07.120"	W 075 32' 26.320"	39.55198	-75.54064	LNM 32/15, 5th Dist	631	12277_1	8/6/2015
12277	Add	Reedy Island Range Line PT 1 OF 2	(Chart No. 1: M1)	N 39 33' 07.470"	W 075 32' 21.380"	39.55207	-75.53927	LNM 32/15, 5th Dist	631	12277_1	8/6/2015
12277	Add	Reedy Island Range Line PT 2 OF 2	(Chart No. 1: M1)	N 39 32' 21.980"	W 075 32' 37.300"	39.53944	-75.54369	LNM 32/15, 5th Dist	631	12277_1	8/6/2015
12277	Delete	Salem River Entrance Channel Light 14	Fl R 4s 15ft 4M "14" AIS  (Chart No. 1: S17.2)	N 39 34' 15.704"	W 075 29' 53.256"	39.57103	-75.49812	LNM 28/15, 5th Dist	2976	12277_3	7/23/2015
12277	Change	Salem River Entrance Channel Light 12	Q R 15ft 4M "12"	N 39 34' 08.030"	W 075 30' 27.391"	39.5689	-75.50761	LNM 28/15, 5th Dist	2976	12277_3	7/23/2015
12277	Change	Salem River Entrance Channel Light 12	Q R 15ft 4M "12"	N 39 34' 08.030"	W 075 30' 27.391"	39.5689	-75.50761	LNM 28/15, 5th Dist	631	12277_1	7/23/2015
12277	Relocate	Salem River Entrance Channel Light 12	Q R 15ft 4M "12"	N 39 34' 08.030"	W 075 30' 27.391"	39.5689	-75.50761	LNM 28/15, 5th Dist	2976	12277_3	7/23/2015
12277	Relocate	Salem River Entrance Channel Light 12	Q R 15ft 4M "12"	N 39 34' 08.030"	W 075 30' 27.391"	39.5689	-75.50761	LNM 28/15, 5th Dist	631	12277_1	7/23/2015
12277	Add	Salem River Entrance Channel Light 13	Fl G 4s 15ft 4M "13"	N 39 34' 21.770"	W 075 29' 42.020"	39.57272	-75.495	LNM 28/15, 5th Dist	2976	12277_3	7/23/2015
12277	Relocate	Salem River Entrance Channel Light 6	Fl R 4s 15ft 3M "6"	N 39 33' 34.787"	W 075 31' 26.320"	39.55966	-75.52398	LNM 19/15, 5th Dist	631	12277_1	5/21/2015
12277	Change	Salem River Entrance Channel Light 14	Fl R 4s 15ft 4M "14" AIS  (Chart No. 1: S17.2)	N 39 34' 15.704"	W 075 29' 53.256"	39.57103	-75.49812	LNM 10/15, 5th Dist	2976	12277_3	3/19/2015
12277	Change	New Castle Range Lighted Buoy 1N	G "1N" Q G AIS  (Chart No. 1: S17.2)	N 39 33' 06.467"	W 075 32' 36.904"	39.5518	-75.54359	LNM 07/15, 5th Dist	631	12277_1	2/26/2015
12277	Change	New Castle Range Lighted Gong Buoy 3N	G "3N" Fl G 4s GONG AIS  (Chart No. 1: S17.2)	N 39 34' 08.663"	W 075 33' 05.702"	39.56907	-75.55158	LNM 07/15, 5th Dist	631	12277_1	2/26/2015
12277	Change	Chesapeake and Delaware Canal Junction Lighted Buoy CD	RG "CD" Fl (2+1) R 6s AIS  (Chart No. 1: S17.2)	N 39 33' 51.773"	W 075 33' 17.564"	39.56438	-75.55488	LNM 07/15, 5th Dist	631	12277_1	2/26/2015
12277	Delete	Harbor North Channel Buoy 1	G C "1" Priv	N 39 31' 05.670"	W 075 52' 45.380"	39.51824	-75.87927	LNM 05/15, 5th Dist	632	12277_2	2/12/2015
12277	Delete	Harbor North Channel Buoy 2	R N "2" Priv	N 39 31' 05.150"	W 075 52' 46.720"	39.5181	-75.87965	LNM 05/15, 5th Dist	632	12277_2	2/12/2015
12277	Delete	Harbor North Channel Buoy 3	G C "3" Priv	N 39 31' 00.740"	W 075 52' 41.940"	39.51687	-75.87832	LNM 05/15, 5th Dist	632	12277_2	2/12/2015
12277	Delete	Harbor North Channel Buoy 4	R N "4" Priv	N 39 31' 00.020"	W 075 52' 43.110"	39.51667	-75.87864	LNM 05/15, 5th Dist	632	12277_2	2/12/2015
12277	Delete	Harbor North Channel Buoy 5	G C "5" Priv	N 39 30' 55.740"	W 075 52' 38.590"	39.51548	-75.87739	LNM 05/15, 5th Dist	632	12277_2	2/12/2015
12277	Delete	Harbor North Channel Buoy 6	R N "6" Priv	N 39 30' 55.220"	W 075 52' 39.840"	39.51534	-75.87773	LNM 05/15, 5th Dist	632	12277_2	2/12/2015
12277	Delete	Harbor North Channel Buoy 7	G C "7" Priv	N 39 30' 51.770"	W 075 52' 35.230"	39.51438	-75.87645	LNM 05/15, 5th Dist	632	12277_2	2/12/2015
12277	Delete	Harbor North Channel Buoy 8	R N "8" Priv	N 39 30' 50.990"	W 075 52' 36.910"	39.51416	-75.87692	LNM 05/15, 5th Dist	632	12277_2	2/12/2015
12277	Change	Tabulation - SALEM RIVER CHANNEL	Tabulation - SALEM RIVER CHANNEL	N 39 33' 50.000"	W 075 43' 03.000"	39.56389	-75.7175	LNM 40/14, 5th Dist	631	12277_1	10/9/2014
12277	Change	Tabulation - CHESAPEAKE AND DELAWARE CANAL CHANNEL DEPTHS	Tabulation - CHESAPEAKE AND DELAWARE CANAL CHANNEL DEPTHS	N 39 34' 40.000"	W 075 43' 00.000"	39.57778	-75.71667	LNM 40/14, 5th Dist	631	12277_1	10/9/2014
12268	Add	Bridge Construction PT 1 OF 2	Chart No. 1: D.d, with magenta screen extending 500 feet from bridge	N 38 45' 26.700"	W 075 59' 53.650"	38.75742	-75.99824	LNM 15/17, 5th Dist	615	12268_1	4/13/2017
12268	Add	Bridge Construction PT 2 OF 2	Chart No. 1: D.d, with magenta screen extending 500 feet from bridge	N 38 45' 22.880"	W 075 59' 47.250"	38.75636	-75.99646	LNM 15/17, 5th Dist	615	12268_1	4/13/2017
12268	Add	Bridge Construction Label	Bridge under construction (see note)	N 38 45' 24.900"	W 075 59' 50.630"	38.75692	-75.9974	LNM 15/17, 5th Dist	615	12268_1	4/13/2017
12268	Add	Bridge Construction Note	CAUTION Fixed and floating obstructions, some submerged, may exist within the magenta tinted bridge construction area.  Mariners are advised to proceed with caution.	N 38 41' 08.080"	W 075 50' 59.360"	38.68558	-75.84982	LNM 15/17, 5th Dist	615	12268_1	4/13/2017
12268	Add	Choptank River Lighted Mooring Buoy A	W Bu "A" Fl 4s Priv	N 38 34' 45.000"	W 076 02' 45.000"	38.57917	-76.04583	LNM 11/17, 5th Dist	615	12268_1	3/23/2017
12268	Change	Cambridge Sewer Outfall Warning Light	Fl 2.5s 15ft 4M	N 38 34' 21.207"	W 076 03' 10.048"	38.57256	-76.05279	LNM 07/17, 5th Dist	615	12268_1	2/23/2017
12268	Change	Choptank River Channel Light 31	Fl G 4s 15ft 3M "31"	N 38 34' 41.528"	W 076 01' 31.897"	38.5782	-76.02553	LNM 39/16, 5th Dist	615	12268_1	10/6/2016
12268	Relocate	Choptank River Channel Daybeacon 43	G "43"	N 38 40' 59.301"	W 075 58' 23.601"	38.68314	-75.97322	LNM 24/16, 5th Dist	615	12268_1	6/23/2016
12268	Change	Hambrooks Bar Warning Light	Fl 2.5s 19ft 6M	N 38 35' 42.237"	W 076 04' 51.143"	38.59507	-76.08087	LNM 12/16, 5th Dist	615	12268_1	3/31/2016
12238	Relocate	Horn Harbor Daybeacon 14	R "14"	N 37 21' 45.164"	W 076 17' 28.184"	37.36255	-76.29116	LNM 27/17, 5th Dist	580	12238_1	7/13/2017
12238	Relocate	Horn Harbor Lighted Buoy 2	R "2" Fl R 4s	N 37 20' 13.783"	W 076 15' 33.633"	37.33716	-76.25935	LNM 27/17, 5th Dist	580	12238_1	7/13/2017
12238	Relocate	Horn Harbor Daybeacon 19	G "19"	N 37 22' 05.453"	W 076 18' 05.778"	37.36818	-76.30161	LNM 27/17, 5th Dist	580	12238_1	7/13/2017
12238	Relocate	Milford Haven East Warning Daybeacon A	W "A"	N 37 27' 22.555"	W 076 12' 44.259"	37.45626	-76.2123	LNM 27/17, 5th Dist	580	12238_1	7/13/2017
12238	Relocate	Milford Haven East Warning Daybeacon C	W "C"	N 37 27' 49.987"	W 076 15' 12.277"	37.46389	-76.25341	LNM 27/17, 5th Dist	580	12238_1	7/13/2017
12238	Delete	Milford Haven East Buoy 7	G C "7"	N 37 27' 46.690"	W 076 15' 13.799"	37.46297	-76.25383	LNM 27/17, 5th Dist	580	12238_1	7/13/2017
12238	Delete	Milford Haven East Buoy 8	R N "8"	N 37 27' 55.121"	W 076 15' 30.540"	37.46531	-76.25848	LNM 27/17, 5th Dist	580	12238_1	7/13/2017
12238	Delete	Milford Haven East Buoy 9	G C "9"	N 37 28' 02.458"	W 076 15' 45.682"	37.46735	-76.26269	LNM 27/17, 5th Dist	580	12238_1	7/13/2017
12238	Change	Milford Haven East Warning Daybeacon F	W "F"	N 37 28' 04.308"	W 076 15' 53.786"	37.46786	-76.26494	LNM 27/17, 5th Dist	580	12238_1	7/13/2017
12238	Relocate	Milford Haven East Warning Daybeacon F	W "F"	N 37 28' 04.308"	W 076 15' 53.786"	37.46786	-76.26494	LNM 27/17, 5th Dist	580	12238_1	7/13/2017
12238	Delete	Milford Haven East Buoy 13	G C "13"	N 37 28' 05.054"	W 076 15' 58.135"	37.46807	-76.26615	LNM 27/17, 5th Dist	580	12238_1	7/13/2017
12238	Relocate	Milford Haven East Warning Daybeacon H	W "H"	N 37 28' 05.324"	W 076 16' 00.255"	37.46815	-76.26674	LNM 27/17, 5th Dist	580	12238_1	7/13/2017
12238	Relocate	Milford Haven East Warning Daybeacon J	W "J"	N 37 27' 58.194"	W 076 16' 08.445"	37.46616	-76.26901	LNM 27/17, 5th Dist	580	12238_1	7/13/2017
12238	Delete	Milford Haven East Buoy 18	R N "18"	N 37 27' 58.628"	W 076 16' 13.565"	37.46629	-76.27043	LNM 27/17, 5th Dist	580	12238_1	7/13/2017
12238	Change	Milford Haven East Warning Daybeacon B	W "B"	N 37 27' 37.508"	W 076 14' 01.106"	37.46042	-76.23364	LNM 27/17, 5th Dist	580	12238_1	7/13/2017
12238	Change	Milford Haven East Warning Daybeacon D	W "D"	N 37 27' 55.904"	W 076 15' 13.814"	37.46553	-76.25384	LNM 27/17, 5th Dist	580	12238_1	7/13/2017
12238	Change	Milford Haven East Warning Daybeacon E	W "E"	N 37 28' 05.636"	W 076 15' 41.102"	37.46823	-76.26141	LNM 27/17, 5th Dist	580	12238_1	7/13/2017
12238	Change	Milford Haven East Warning Daybeacon C	W "C"	N 37 27' 49.987"	W 076 15' 12.277"	37.46389	-76.25341	LNM 27/17, 5th Dist	580	12238_1	7/13/2017
12238	Change	Milford Haven East Warning Daybeacon A	W "A"	N 37 27' 22.555"	W 076 12' 44.259"	37.45626	-76.2123	LNM 27/17, 5th Dist	580	12238_1	7/13/2017
12238	Change	Milford Haven East Warning Daybeacon J	W "J"	N 37 27' 58.194"	W 076 16' 08.445"	37.46616	-76.26901	LNM 27/17, 5th Dist	580	12238_1	7/13/2017
12238	Change	Milford Haven East Warning Daybeacon H	W "H"	N 37 28' 05.324"	W 076 16' 00.255"	37.46815	-76.26674	LNM 27/17, 5th Dist	580	12238_1	7/13/2017
12238	Change	Milford Haven East Warning Daybeacon G	W "G"	N 37 28' 03.686"	W 076 15' 59.528"	37.46769	-76.26653	LNM 27/17, 5th Dist	580	12238_1	7/13/2017
12238	Relocate	Sarah Creek Daybeacon 6	R "6"	N 37 15' 07.739"	W 076 28' 58.484"	37.25215	-76.48291	LNM 25/17, 5th Dist	580	12238_1	6/29/2017
12238	Relocate	White House Cove Daybeacon 2	R "2"	N 37 08' 37.425"	W 076 22' 33.083"	37.14373	-76.37585	LNM 23/17, 5th Dist	580	12238_1	6/8/2017
12238	Add	Obstruction in Feet	14 Obstn   (Chart No. 1: K41)	N 37 07' 28.000"	W 076 13' 04.300"	37.12444	-76.21786	LNM 23/17, 5th Dist	580	12238_1	6/8/2017
12238	Add	Back River Channel Buoy 6A	R N "6A"	N 37 06' 32.792"	W 076 16' 41.918"	37.10911	-76.27831	LNM 19/17, 5th Dist	580	12238_1	5/11/2017
12238	Relocate	Back River Channel Daybeacon 12	R "12"	N 37 06' 20.091"	W 076 18' 21.026"	37.10558	-76.30584	LNM 18/17, 5th Dist	580	12238_1	5/11/2017
12238	Relocate	Back River Channel Light 22	Fl R 4s 15ft 4M "22"	N 37 05' 24.199"	W 076 20' 03.960"	37.09005	-76.33443	LNM 18/17, 5th Dist	580	12238_1	5/11/2017
12238	Relocate	Poquoson Flats Channel Daybeacon 2PF	R "2PF"	N 37 06' 27.136"	W 076 14' 46.082"	37.10754	-76.24613	LNM 18/17, 5th Dist	580	12238_1	5/11/2017
12238	Change	York River West Range Rear Passing Lights (2)	2 Fl 4s 15ft 4M	N 37 13' 32.729"	W 076 29' 27.655"	37.22576	-76.49101	LNM 16/17, 5th Dist	580	12238_1	4/27/2017
12238	Change	Goodwin Thorofare Channel Warning Daybeacon D	W "D"	N 37 13' 19.151"	W 076 25' 05.604"	37.22198	-76.41822	LNM 12/17, 5th Dist	580	12238_1	3/23/2017
12238	Relocate	Goodwin Thorofare Warning Daybeacon D	W "D"	N 37 13' 19.151"	W 076 25' 05.604"	37.22198	-76.41822	LNM 10/17, 5th Dist	580	12238_1	3/16/2017
12238	Delete	Winter Harbor Channel Warning Daybeacon C	W "C"	N 37 22' 11.958"	W 076 15' 09.131"	37.36999	-76.25253	LNM 10/17, 5th Dist	580	12238_1	3/16/2017
12238	Delete	Winter Harbor Channel Warning Daybeacon B	W "B"	N 37 22' 03.416"	W 076 14' 56.462"	37.36761	-76.24902	LNM 10/17, 5th Dist	580	12238_1	3/16/2017
12238	Delete	Winter Harbor Channel Warning Daybeacon D	W "D"	N 37 22' 22.399"	W 076 15' 27.661"	37.37289	-76.25768	LNM 10/17, 5th Dist	580	12238_1	3/16/2017
12238	Delete	Winter Harbor Channel Warning Daybeacon E	W "E"	N 37 22' 28.916"	W 076 15' 25.136"	37.3747	-76.25698	LNM 10/17, 5th Dist	580	12238_1	3/16/2017
12238	Delete	Winter Harbor Channel Warning Daybeacon F	W "F"	N 37 22' 35.961"	W 076 15' 22.517"	37.37666	-76.25626	LNM 10/17, 5th Dist	580	12238_1	3/16/2017
12238	Delete	Winter Harbor Channel Warning Daybeacon A	W "A"	N 37 21' 54.445"	W 076 14' 44.415"	37.36512	-76.24567	LNM 10/17, 5th Dist	580	12238_1	3/16/2017
12238	Delete	Winter Harbor Channel Warning Daybeacon G	W "G"	N 37 22' 38.886"	W 076 15' 39.132"	37.37747	-76.26087	LNM 10/17, 5th Dist	580	12238_1	3/16/2017
12238	Delete	Winter Harbor Channel Warning Daybeacon H	W "H"	N 37 22' 41.631"	W 076 15' 46.810"	37.37823	-76.263	LNM 10/17, 5th Dist	580	12238_1	3/16/2017
12238	Change	Goodwin Thorofare Channel Warning Daybeacon A	W "A"	N 37 12' 50.756"	W 076 24' 28.341"	37.2141	-76.40788	LNM 09/17, 5th Dist	580	12238_1	3/9/2017
12238	Change	Goodwin Thorofare Channel Warning Daybeacon B	W "B"	N 37 12' 56.211"	W 076 24' 48.393"	37.21561	-76.41344	LNM 09/17, 5th Dist	580	12238_1	3/9/2017
12238	Delete	Goodwin Thorofare Channel Buoy 14	R N "14"	N 37 13' 12.544"	W 076 25' 03.694"	37.22015	-76.41769	LNM 09/17, 5th Dist	580	12238_1	3/9/2017
12238	Delete	Goodwin Thorofare Channel Buoy 15	G C "15"	N 37 13' 13.364"	W 076 25' 05.341"	37.22038	-76.41815	LNM 09/17, 5th Dist	580	12238_1	3/9/2017
12238	Change	Goodwin Thorofare Channel Warning Daybeacon C	W "C"	N 37 13' 05.918"	W 076 25' 00.087"	37.21831	-76.41669	LNM 09/17, 5th Dist	580	12238_1	3/9/2017
12238	Change	Goodwin Thorofare Warning Daybeacon D	W "D"	N 37 13' 19.190"	W 076 25' 05.709"	37.222	-76.41825	LNM 09/17, 5th Dist	580	12238_1	3/9/2017
12238	Add	Shoaling Label	Shl to 6 ft 2017	N 37 06' 33.000"	W 076 16' 40.800"	37.10917	-76.278	LNM 07/17, 5th Dist	580	12238_1	2/23/2017
12238	Relocate	Back Creek - Mobjack Bay Daybeacon 3	G "3"	N 37 12' 31.713"	W 076 24' 49.746"	37.20881	-76.41382	LNM 06/17, 5th Dist	580	12238_1	2/16/2017
12238	Relocate	Back Creek - Mobjack Bay Daybeacon 4	R "4"	N 37 12' 32.760"	W 076 24' 54.750"	37.2091	-76.41521	LNM 06/17, 5th Dist	580	12238_1	2/16/2017
12238	Relocate	Dandy Haven Marina Entrance Daybeacon 8	R "8" Priv	N 37 05' 51.100"	W 076 18' 02.800"	37.09753	-76.30078	LNM 05/17, 5th Dist	580	12238_1	2/9/2017
12211	Add	Chincoteague Channel CBFS Data Buoy A	Y C "A" Priv	N 37 53' 06.400"	W 075 24' 53.500"	37.88511	-75.41486	LNM 22/17, 5th Dist	552	12211_1	6/8/2017
12211	Add	Chincoteague Inlet CBFS Data Buoy A	Y C "A" Priv	N 37 50' 42.900"	W 075 25' 05.600"	37.84525	-75.41822	LNM 22/17, 5th Dist	552	12211_1	6/8/2017
12211	Add	Greenbackville CBFS Data Buoy A	Y C "A" Priv	N 38 00' 06.700"	W 075 22' 46.600"	38.00186	-75.37961	LNM 22/17, 5th Dist	552	12211_1	6/8/2017
12211	Change	Chincoteague Bay, Greenbackville to:	2 FT MID 40 FT MAR 2016	N 38 00' 12.430"	W 075 23' 10.880"	38.00345	-75.38635	LNM 19/17, 5th Dist	552	12211_1	5/11/2017
12211	Change	Depth Legend - Lewis Creek and Chincoteague Bay to:	4 1/2 FT APR 2015	N 37 56' 53.000"	W 075 21' 53.000"	37.94806	-75.36472	LNM 18/17, 5th Dist	552	12211_1	4/27/2017
12211	Delete	Chincoteague Bay Daybeacon 26	R "26"	N 38 06' 56.814"	W 075 15' 47.694"	38.11578	-75.26324	LNM 16/17, 5th Dist	552	12211_1	4/27/2017
12211	Delete	Chincoteague Bay Daybeacon 23	G "23"	N 38 04' 30.006"	W 075 17' 00.768"	38.075	-75.28355	LNM 16/17, 5th Dist	552	12211_1	4/27/2017
12211	Delete	Chincoteague Bay Daybeacon 16A	R "16A"	N 38 01' 02.496"	W 075 20' 50.904"	38.01736	-75.34747	LNM 16/17, 5th Dist	552	12211_1	4/27/2017
12211	Relocate	Chincoteague Bay Buoy 16	R N "16"	N 38 00' 42.260"	W 075 21' 11.270"	38.01174	-75.35313	LNM 16/17, 5th Dist	552	12211_1	4/27/2017
12211	Change	Depth Legend - Chincoteague Harbor of Refuge Channel to:	3 1/2 FT 2016	N 37 54' 08.830"	W 075 24' 29.090"	37.90245	-75.40808	LNM 17/17, 5th Dist	552	12211_1	4/27/2017
12211	Change	Depth Legend - Lewis Creek and Chincoteague Bay to:	4 1/2 FT SEP 2016	N 37 56' 53.000"	W 075 21' 53.000"	37.94806	-75.36472	LNM 17/17, 5th Dist	552	12211_1	4/27/2017
12211	Change	Depth Legend - Commercial Fish Harbor to:	7 FT MAR 2016	N 38 19' 38.120"	W 075 06' 10.260"	38.32726	-75.10285	LNM 17/17, 5th Dist	553	12211_2	4/27/2017
12211	Relocate	Chincoteague Channel Buoy 25	G C "25"	N 37 55' 15.490"	W 075 23' 42.610"	37.92097	-75.39517	LNM 15/17, 5th Dist	552	12211_1	4/20/2017
12211	Relocate	Chincoteague Channel Buoy 19	G C "19"	N 37 54' 21.480"	W 075 24' 34.850"	37.90597	-75.40968	LNM 15/17, 5th Dist	552	12211_1	4/20/2017
12211	Delete	Sinepuxent Bay Channel Buoy 10A	R N "10A"	N 38 17' 56.908"	W 075 07' 05.316"	38.29914	-75.11814	LNM 15/17, 5th Dist	552	12211_1	4/20/2017
12211	Delete	Sinepuxent Bay Channel Buoy 21	G C "21"	N 38 14' 13.082"	W 075 09' 28.150"	38.23697	-75.15782	LNM 15/17, 5th Dist	552	12211_1	4/20/2017
12211	Delete	Sinepuxent Bay Channel Buoy 27	G C "27"	N 38 13' 16.520"	W 075 10' 23.225"	38.22126	-75.17312	LNM 15/17, 5th Dist	552	12211_1	4/20/2017
12211	Delete	Sinepuxent Bay Channel Buoy 29	G C "29"	N 38 12' 24.421"	W 075 11' 10.678"	38.20678	-75.1863	LNM 15/17, 5th Dist	552	12211_1	4/20/2017
12211	Relocate	Greenbackville Lighted Wreck Buoy WR5	G "WR5" Q G	N 38 00' 23.720"	W 075 23' 20.392"	38.00659	-75.389	LNM 14/17, 5th Dist	552	12211_1	4/13/2017
12211	Relocate	Winter Quarter Shoal Lighted Buoy 6	R "6" Fl R 6s	N 37 59' 42.534"	W 075 01' 22.477"	37.99515	-75.02291	LNM 13/17, 5th Dist	552	12211_1	4/6/2017
12211	Relocate	Chincoteague Channel Lighted Buoy 28	R "28" Fl R 4s	N 37 55' 45.640"	W 075 23' 29.080"	37.92934	-75.39141	LNM 13/17, 5th Dist	552	12211_1	4/6/2017
12211	Delete	Wallops Island Warning Daybeacon	W Bn	N 37 53' 46.434"	W 075 24' 55.734"	37.89623	-75.41548	LNM 10/17, 5th Dist	552	12211_1	3/16/2017
12205	Relocate	Alligator River Light 1AR	Fl G 2.5s 15ft 5M "1AR"	N 35 58' 09.868"	W 075 58' 46.338"	35.96941	-75.97954	LNM 27/17, 5th Dist	533	12205_6	7/13/2017
12205	Change	Roanoke Island West Side Light 2	Fl R 2.5s 15ft 4M "2"	N 35 50' 24.108"	W 075 40' 07.524"	35.84003	-75.66875	LNM 25/17, 5th Dist	532	12205_5	6/29/2017
12205	Change	Tabulation - PAMLICO AND ROANOKE SOUND CHANNEL DEPTHS	Tabulation - PAMLICO AND ROANOKE SOUND CHANNEL DEPTHS	N 35 54' 00.000"	W 075 47' 50.000"	35.9	-75.79723	LNM 26/17, 5th Dist	532	12205_5	6/22/2017
12205	Relocate	Chesapeake Channel Lighted Bell Buoy 2C	R "2C" Fl R 2.5s BELL	N 36 57' 18.528"	W 075 58' 22.246"	36.95515	-75.97285	LNM 16/17, 5th Dist	528	12205_1	4/27/2017
12205	Change	Tabulation - PAMLICO AND ROANOKE SOUND CHANNEL DEPTHS	Tabulation - PAMLICO AND ROANOKE SOUND CHANNEL DEPTHS	N 35 54' 00.000"	W 075 47' 50.000"	35.9	-75.79723	LNM 18/17, 5th Dist	532	12205_5	4/27/2017
12205	Change	Chowan River Light 26	Fl R 4s 15ft 4M "26"	N 36 21' 52.200"	W 076 49' 13.016"	36.3645	-76.82028	LNM 15/17, 5th Dist	538	12205_11	4/20/2017
12205	Change	Roanoke River Channel Light 3	Fl G 2.5s 15ft 4M "3"	N 35 56' 48.954"	W 076 41' 00.569"	35.94693	-76.68349	LNM 15/17, 5th Dist	537	12205_10	4/20/2017
12205	Change	Scuppernong River Channel Light 7	Q G 15ft 4M "7"	N 35 55' 14.374"	W 076 16' 46.647"	35.92066	-76.27962	LNM 15/17, 5th Dist	533	12205_6	4/20/2017
12205	Delete	NC Artificial Fishing Reef Buoy AR160	Y C "AR160" Priv	N 35 43' 56.520"	W 075 26' 46.260"	35.73237	-75.44618	LNM 14/17, 5th Dist	531	12205_4	4/13/2017
12205	Change	Oregon Inlet Channel Light 54	Q R 15ft 4M "54"	N 35 47' 21.013"	W 075 34' 16.883"	35.78917	-75.57136	LNM 09/17, 5th Dist	532	12205_5	3/9/2017
12205	Relocate	Pembroke Creek Daybeacon 8	R "8"	N 36 03' 24.583"	W 076 37' 30.678"	36.05683	-76.62519	LNM 08/17, 5th Dist	537	12205_10	3/2/2017
12205	Change	Chowan River Entrance Light 2CR	Mo (A) 15ft 5M "2CR"	N 36 01' 44.517"	W 076 40' 20.573"	36.02903	-76.67238	LNM 08/17, 5th Dist	537	12205_10	3/2/2017
12205	Change	Roanoke Sound Channel Light 30A	Q R 15ft 4M "30A"	N 35 55' 05.230"	W 075 38' 57.689"	35.91812	-75.64936	LNM 07/17, 5th Dist	532	12205_5	2/23/2017
12205	Change	Roanoke Sound Channel Light 30	Fl R 2.5s 15ft 4M "30"	N 35 54' 50.634"	W 075 38' 47.784"	35.91407	-75.64661	LNM 07/17, 5th Dist	532	12205_5	2/23/2017
12256	Change	Little Creek Harbor Jetty Light 6	Fl R 2.5s 15ft 4M "6"	N 36 55' 44.799"	W 076 10' 41.793"	36.92911	-76.17828	LNM 25/17, 5th Dist	596	12256_1	6/29/2017
12256	Add	Sounding in Feet	14	N 36 59' 27.600"	W 076 17' 38.300"	36.991	-76.29398	LNM 23/17, 5th Dist	596	12256_1	6/8/2017
12256	Add	Sounding in Feet	30	N 36 59' 49.700"	W 076 18' 56.500"	36.99714	-76.3157	LNM 23/17, 5th Dist	596	12256_1	6/8/2017
12256	Delete	Sounding in Feet	24	N 36 59' 26.800"	W 076 17' 40.400"	36.99078	-76.29456	LNM 23/17, 5th Dist	596	12256_1	6/8/2017
12256	Delete	Sounding in Feet	48	N 36 59' 49.700"	W 076 18' 57.600"	36.99714	-76.316	LNM 23/17, 5th Dist	596	12256_1	6/8/2017
12256	Relocate	Thimble Shoal Channel Lighted Buoy 14	R "14" Fl R 2.5s	N 36 59' 42.340"	W 076 11' 05.570"	36.99509	-76.18488	LNM 19/17, 5th Dist	596	12256_1	5/18/2017
12256	Change	Depth Legend - Little River (Creek) to: 22 FT FOR A WIDTH OF 400 FT OCT 2016	22 FT FOR A WIDTH OF 400 FT OCT 2016	N 36 55' 44.210"	W 076 10' 38.260"	36.92895	-76.17729	LNM 15/17, 5th Dist	596	12256_1	4/13/2017
12256	Change	Depth Legend - Little River (Creek) to: 22 FT FOR A WIDTH OF 400 FT OCT 2016	22 FT FOR A WIDTH OF 400 FT OCT 2016	N 36 57' 21.070"	W 076 10' 23.340"	36.95585	-76.17315	LNM 15/17, 5th Dist	596	12256_1	4/13/2017
12256	Change	Depth Legend - Little River (Creek) Basin to: 22 FT OCT 2016	22 FT OCT 2016	N 36 54' 56.040"	W 076 10' 42.050"	36.91557	-76.17834	LNM 15/17, 5th Dist	596	12256_1	4/13/2017
12256	Change	Little Creek Harbor Light 5	Fl G 2.5s 15ft 4M "5"	N 36 55' 41.796"	W 076 10' 34.369"	36.92828	-76.17622	LNM 07/17, 5th Dist	596	12256_1	2/23/2017
12256	Change	Naval Boat Channel Light 8	Fl R 2.5s 15ft 4M "8"	N 36 57' 40.964"	W 076 18' 46.992"	36.96138	-76.31306	LNM 07/17, 5th Dist	596	12256_1	2/23/2017
12256	Change	Tabulation - NORFOLK HARBOR AND APPROACHES	Tabulation - NORFOLK HARBOR AND APPROACHES	N 36 56' 21.000"	W 076 15' 18.000"	36.93917	-76.255	LNM 02/17, 5th Dist	596	12256_1	1/5/2017
12256	Change	Tabulation - PHOEBUS AND WILLOUGHBY CHANNEL DEPTHS	Tabulation - PHOEBUS AND WILLOUGHBY CHANNEL DEPTHS	N 36 56' 21.000"	W 076 17' 00.000"	36.93917	-76.28333	LNM 02/17, 5th Dist	596	12256_1	1/5/2017
12256	Change	Willoughby Bay Channel Light 2	Fl R 2.5s 15ft 4M "2"	N 36 58' 58.157"	W 076 18' 38.477"	36.98282	-76.31069	LNM 46/16, 5th Dist	596	12256_1	11/24/2016
12256	Change	Hampton River Channel Light 6	Q R 15ft 4M "6"	N 37 00' 14.003"	W 076 19' 26.636"	37.00389	-76.32407	LNM 46/16, 5th Dist	596	12256_1	11/24/2016
12256	Change	Phoebus Channel Entrance Light 1	Fl G 2.5s 15ft 4M "1"	N 36 59' 57.280"	W 076 18' 54.700"	36.99924	-76.31519	LNM 46/16, 5th Dist	596	12256_1	11/24/2016
12256	Delete	Sounding in Feet	3	N 36 58' 53.380"	W 076 18' 34.690"	36.98149	-76.30964	LNM 36/16, 5th Dist	596	12256_1	9/1/2016
12256	Add	Sounding in Feet	2	N 36 58' 52.833"	W 076 18' 36.085"	36.98134	-76.31002	LNM 36/16, 5th Dist	596	12256_1	9/1/2016
12256	Delete	Sounding in Feet	11	N 36 59' 43.300"	W 076 15' 18.380"	36.99536	-76.2551	LNM 36/16, 5th Dist	596	12256_1	9/1/2016
12256	Add	Sounding in Feet	5	N 36 59' 44.325"	W 076 15' 18.310"	36.99565	-76.25509	LNM 36/16, 5th Dist	596	12256_1	9/1/2016
12256	Delete	Sounding in Feet	11	N 36 59' 45.400"	W 076 15' 08.780"	36.99594	-76.25244	LNM 36/16, 5th Dist	596	12256_1	9/1/2016
12256	Add	Sounding in Feet	6	N 36 59' 45.491"	W 076 15' 10.230"	36.99597	-76.25284	LNM 36/16, 5th Dist	596	12256_1	9/1/2016
12256	Change	Little Creek Harbor Jetty Light 3	Q G 25ft 5M "3"	N 36 55' 58.710"	W 076 10' 35.059"	36.93298	-76.17641	LNM 15/16, 5th Dist	596	12256_1	4/21/2016
12256	Relocate	Little Creek Harbor Light 5	Fl G 2.5s 15ft 3M "5"	N 36 55' 41.796"	W 076 10' 34.369"	36.92828	-76.17622	LNM 11/16, 5th Dist	596	12256_1	3/24/2016
12256	Relocate	Willoughby Bay Channel Warning Daybeacon A	W "A"	N 36 58' 55.523"	W 076 18' 34.744"	36.98209	-76.30965	LNM 11/16, 5th Dist	596	12256_1	3/24/2016
12256	Change	Willoughby Bay Channel Warning Daybeacon A	W "A"	N 36 58' 55.523"	W 076 18' 34.744"	36.98209	-76.30965	LNM 11/16, 5th Dist	596	12256_1	3/24/2016
12256	Add	Willoughby Bay Channel Daybeacon 4	R "4"	N 36 58' 44.002"	W 076 18' 40.418"	36.97889	-76.31123	LNM 11/16, 5th Dist	596	12256_1	3/24/2016
12256	Change	Willoughby Bay Channel Daybeacon 11	G "11"	N 36 57' 45.603"	W 076 17' 47.453"	36.96267	-76.29652	LNM 07/16, 5th Dist	596	12256_1	2/25/2016
12256	Delete	Fort Wool Light	Fl 4s 25ft 5M	N 36 59' 12.529"	W 076 18' 10.791"	36.98681	-76.30299	LNM 38/15, 5th Dist	596	12256_1	10/1/2015
12256	Delete	Willoughby Bay Channel Buoy 1A	G C "1A"	N 36 58' 54.336"	W 076 18' 37.515"	36.98176	-76.31042	LNM 34/15, 5th Dist	596	12256_1	9/3/2015
12256	Add	Willoughby Bay Channel Buoy 3	G C "3"	N 36 58' 52.147"	W 076 18' 38.368"	36.98115	-76.31066	LNM 34/15, 5th Dist	596	12256_1	9/3/2015
12256	Relocate	Willoughby Bay Channel Light 2	Fl R 2.5s 15ft 3M "2"	N 36 58' 58.157"	W 076 18' 38.477"	36.98282	-76.31069	LNM 34/15, 5th Dist	596	12256_1	9/3/2015
12256	Change	Willoughby Bay Channel Daybeacon 3A	G "3A"	N 36 58' 42.177"	W 076 18' 36.801"	36.97838	-76.31022	LNM 34/15, 5th Dist	596	12256_1	9/3/2015
12256	Relocate	Willoughby Bay Channel Daybeacon 3A	G "3A"	N 36 58' 42.177"	W 076 18' 36.801"	36.97838	-76.31022	LNM 34/15, 5th Dist	596	12256_1	9/3/2015
12256	Change	Naval Boat Channel Light 4	Fl R 6s 15ft 4M "4"	N 36 57' 48.736"	W 076 19' 14.089"	36.96354	-76.32058	LNM 27/15, 5th Dist	596	12256_1	7/16/2015
12256	Change	Little Creek Harbor Jetty Light 4	Q R 25ft 5M "4"	N 36 55' 54.925"	W 076 10' 44.205"	36.93192	-76.17895	LNM 19/15, 5th Dist	596	12256_1	5/21/2015
12256	Change	Willoughby Bay Channel Daybeacon 9	G "9"	N 36 57' 53.038"	W 076 18' 06.770"	36.96473	-76.30188	LNM 18/15, 5th Dist	596	12256_1	5/14/2015
12256	Relocate	Thimble Shoal Channel Lighted Buoy 19	G "19" Q G	N 37 00' 22.727"	W 076 15' 30.984"	37.00631	-76.25861	LNM 04/15, 5th Dist	596	12256_1	1/29/2015
12256	Change	Tabulation - Phoebus and Willoughby Channel Depths	Tabulation - Phoebus and Willoughby Channel Depths	N 36 56' 21.000"	W 076 17' 00.000"	36.93917	-76.28333	LNM 04/15, 5th Dist	596	12256_1	1/22/2015
12256	Change	Phoebus Channel Wreck Light WR2	Q R 15ft 4M "WR2"	N 36 59' 57.941"	W 076 18' 43.217"	36.99943	-76.312	LNM 52/14, 5th Dist	596	12256_1	1/8/2015
12256	Change	Willoughby Bay Channel Wreck Light WR13	Q G 15ft 4M "WR13"	N 36 57' 44.896"	W 076 17' 23.148"	36.96247	-76.28976	LNM 44/14, 5th Dist	596	12256_1	11/13/2014
12256	Change	Depth Legend - Little River (Creek) to:	23 FEET FOR A WIDTH OF 400 FEET SEP 2013	N 36 55' 48.000"	W 076 10' 38.500"	36.93	-76.17736	LNM 37/14, 5th Dist	596	12256_1	9/11/2014
12256	Change	Depth Legend - Little River (Creek) to:	23 FEET FOR A WIDTH OF 400 FEET SEP 2013	N 36 56' 46.000"	W 076 10' 35.000"	36.94611	-76.17639	LNM 37/14, 5th Dist	596	12256_1	9/11/2014
12256	Relocate	Thimble Shoal Channel Lighted Buoy 15	G "15" Fl G 4s	N 36 59' 56.225"	W 076 12' 47.578"	36.99895	-76.21322	LNM 34/14, 5th Dist	596	12256_1	9/4/2014
12256	Relocate	Thimble Shoal Channel Lighted Buoy 18	R "18" Q R	N 37 00' 39.985"	W 076 14' 56.399"	37.01111	-76.249	LNM 34/14, 5th Dist	596	12256_1	9/4/2014
12256	Relocate	Thimble Shoal Channel Lighted Bell Buoy 9	G "9" Fl G 4s BELL	N 36 58' 40.929"	W 076 07' 55.243"	36.97803	-76.13201	LNM 34/14, 5th Dist	596	12256_1	9/4/2014
12256	Change	Thimble Shoal Channel Lighted Buoy 13	G "13" Fl G 2.5s (delete BELL)	N 36 59' 31.149"	W 076 11' 10.115"	36.99199	-76.18614	LNM 34/14, 5th Dist	596	12256_1	9/4/2014
12256	Relocate	Thimble Shoal Channel Lighted Buoy 11	G "11" Fl G 6s	N 36 59' 06.071"	W 076 09' 32.660"	36.98502	-76.15907	LNM 34/14, 5th Dist	596	12256_1	9/4/2014
12256	Relocate	Thimble Shoal Channel Lighted Buoy 12	R "12" Fl R 6s	N 36 59' 15.532"	W 076 09' 28.927"	36.98765	-76.15804	LNM 34/14, 5th Dist	596	12256_1	9/4/2014
12256	Relocate	Thimble Shoal Channel Lighted Buoy 13	G "13" Fl G 2.5s	N 36 59' 31.149"	W 076 11' 10.115"	36.99199	-76.18614	LNM 34/14, 5th Dist	596	12256_1	9/4/2014
12256	Relocate	Thimble Shoal Channel Lighted Buoy 14	R "14" Fl R 2.5s	N 36 59' 40.639"	W 076 11' 06.345"	36.99462	-76.1851	LNM 34/14, 5th Dist	596	12256_1	9/4/2014
12256	Relocate	Thimble Shoal Channel Lighted Buoy 16	R "16" Fl R 4s	N 37 00' 05.745"	W 076 12' 43.773"	37.00159	-76.21216	LNM 34/14, 5th Dist	596	12256_1	9/4/2014
12256	Add	Sounding in Feet	77	N 37 00' 28.170"	W 076 15' 48.920"	37.00782	-76.26359	LNM 28/14, 5th Dist	596	12256_1	7/17/2014
12256	Delete	Obstruction in Feet	55 Obstn       Chart No. 1: K41	N 37 00' 28.260"	W 076 15' 48.800"	37.00785	-76.26356	LNM 28/14, 5th Dist	596	12256_1	7/17/2014
12256	Add	Obstruction in Feet	41 Obstn       Chart No. 1: K41	N 36 58' 30.610"	W 076 06' 30.100"	36.97517	-76.10836	LNM 28/14, 5th Dist	596	12256_1	7/17/2014
12256	Change	Thimble Shoal Channel Lighted Buoy 12	R "12" Fl R 6s (delete GONG)	N 36 59' 17.362"	W 076 09' 28.160"	36.98816	-76.15782	LNM 26/14, 5th Dist	596	12256_1	7/10/2014
12256	Relocate	Little Creek Harbor Jetty Light 3	Q G 25ft 6M "3"	N 36 55' 58.710"	W 076 10' 35.059"	36.93298	-76.17641	LNM 25/14, 5th Dist	596	12256_1	7/3/2014
12256	Change	Little Creek Harbor Jetty Light 3	Q G 25ft 6M "3"	N 36 55' 58.710"	W 076 10' 35.059"	36.93298	-76.17641	LNM 25/14, 5th Dist	596	12256_1	7/3/2014
12256	Change	Little Creek Harbor Jetty Light 4	Q R 25ft 6M "4"	N 36 55' 54.925"	W 076 10' 44.205"	36.93192	-76.17895	LNM 25/14, 5th Dist	596	12256_1	7/3/2014
12256	Relocate	Little Creek Harbor Jetty Light 4	Q R 25ft 6M "4"	N 36 55' 54.925"	W 076 10' 44.205"	36.93192	-76.17895	LNM 25/14, 5th Dist	596	12256_1	7/3/2014
12256	Delete	Little Creek Cove Range Front Daybeacon	WR Bn 21ft	N 36 54' 48.530"	W 076 09' 46.770"	36.91348	-76.16299	LNM 12/14, 5th Dist	596	12256_1	4/3/2014
12256	Delete	Little Creek Cove Range Rear Daybeacon	WR Bn 29ft	N 36 54' 48.530"	W 076 09' 40.771"	36.91348	-76.16132	LNM 12/14, 5th Dist	596	12256_1	4/3/2014
12266	Add	Dotted Oyster Reef PT 1 OF 4	Chart No. 1: K46.2	N 38 47' 00.250"	W 076 16' 29.840"	38.7834	-76.27496	LNM 27/17, 5th Dist	610	12266_1	6/29/2017
12266	Add	Dotted Oyster Reef PT 2 OF 4	Chart No. 1: K46.2	N 38 46' 55.400"	W 076 16' 32.000"	38.78205	-76.27556	LNM 27/17, 5th Dist	610	12266_1	6/29/2017
12266	Add	Dotted Oyster Reef PT 3 OF 4	Chart No. 1: K46.2	N 38 46' 53.700"	W 076 16' 31.500"	38.78158	-76.27541	LNM 27/17, 5th Dist	610	12266_1	6/29/2017
12266	Add	Dotted Oyster Reef PT 4 OF 4	Chart No. 1: K46.2	N 38 47' 00.250"	W 076 16' 26.410"	38.7834	-76.274	LNM 27/17, 5th Dist	610	12266_1	6/29/2017
12266	Add	Dotted Oyster Reef Label	Oyster Reef(auth min 2 ft)	N 38 46' 57.320"	W 076 16' 29.950"	38.78259	-76.27499	LNM 27/17, 5th Dist	610	12266_1	6/29/2017
12266	Relocate	Knapps Narrows West Channel Buoy 4	R N "4"	N 38 43' 15.840"	W 076 20' 27.014"	38.72107	-76.34084	LNM 23/17, 5th Dist	610	12266_1	6/8/2017
12266	Change	Knapps Narrows West Channel Daybeacon 3	G "3"	N 38 43' 17.022"	W 076 20' 35.730"	38.72139	-76.34326	LNM 22/17, 5th Dist	610	12266_1	6/8/2017
12266	Add	Knapps Narrows West Channel Buoy 3A	G C "3A"	N 38 43' 17.160"	W 076 20' 27.000"	38.72143	-76.34084	LNM 22/17, 5th Dist	610	12266_1	6/8/2017
12266	Relocate	Knapps Narrows West Channel Buoy 4	R N "4"	N 38 43' 15.480"	W 076 20' 26.640"	38.72097	-76.34074	LNM 22/17, 5th Dist	610	12266_1	6/8/2017
12266	Change	Knapps Narrows West Channel Warning Daybeacon A	W "A"	N 38 43' 17.904"	W 076 20' 26.014"	38.72164	-76.34056	LNM 22/17, 5th Dist	610	12266_1	6/8/2017
12266	Relocate	Rockhold Creek Channel Buoy 5	G C "5"	N 38 46' 02.913"	W 076 33' 20.709"	38.76748	-76.55576	LNM 14/17, 5th Dist	610	12266_1	4/13/2017
12266	Relocate	Rockhold Creek Channel Buoy 7	G C "7"	N 38 46' 05.774"	W 076 33' 26.003"	38.76827	-76.55722	LNM 14/17, 5th Dist	610	12266_1	4/13/2017
12266	Change	Herring Bay Light 2	Fl R 4s 15ft 4M "2"	N 38 44' 25.870"	W 076 32' 38.904"	38.74052	-76.54414	LNM 07/17, 5th Dist	610	12266_1	2/23/2017
12266	Add	Poplar Island Narrows Lighted Mooring Buoy B	W Bu "B" Fl 4s Priv	N 38 46' 10.000"	W 076 21' 10.000"	38.76944	-76.35278	LNM 06/17, 5th Dist	610	12266_1	2/16/2017
12266	Add	Poplar Island Narrows Lighted Mooring Buoy A	W Bu "A" Fl 4s Priv	N 38 46' 07.000"	W 076 21' 23.000"	38.76861	-76.35639	LNM 06/17, 5th Dist	610	12266_1	2/16/2017
12266	Add	Poplar Island Narrows Lighted Mooring Buoy C	W Bu "C" Fl 4s Priv	N 38 46' 18.000"	W 076 21' 22.000"	38.77167	-76.35611	LNM 06/17, 5th Dist	610	12266_1	2/16/2017
12266	Add	Poplar Island Narrows Lighted Mooring Buoy D	W Bu "D" Fl 4s Priv	N 38 46' 21.000"	W 076 21' 10.000"	38.7725	-76.35278	LNM 06/17, 5th Dist	610	12266_1	2/16/2017
12266	Change	Rose Haven Channel Light 1	Q G 15ft 4M "1"	N 38 44' 01.746"	W 076 32' 18.954"	38.73382	-76.5386	LNM 03/17, 5th Dist	610	12266_1	1/26/2017
12266	Relocate	Rose Haven Channel Light 1	Q G 15ft 4M "1"	N 38 44' 01.746"	W 076 32' 18.954"	38.73382	-76.5386	LNM 03/17, 5th Dist	610	12266_1	1/26/2017
12252	Change	James River Channel Light 143	Fl G 4s 15ft 5M "143"	N 37 22' 23.284"	W 077 18' 40.526"	37.37313	-77.31126	LNM 23/17, 5th Dist	590	12252_1	6/8/2017
12252	Change	James River Channel Light 156	Q R 15ft 5M "156"	N 37 23' 50.973"	W 077 22' 55.759"	37.39749	-77.38216	LNM 23/17, 5th Dist	590	12252_1	6/8/2017
12252	Add	Dotted Fish Haven PT 1 OF 4	Chart No. 1: K46.2	N 37 22' 43.340"	W 077 20' 00.660"	37.3787	-77.33352	LNM 24/17, 5th Dist	590	12252_1	6/8/2017
12252	Add	Dotted Fish Haven PT 3 OF 4	Chart No. 1: K46.2	N 37 22' 42.310"	W 077 19' 57.000"	37.37842	-77.3325	LNM 24/17, 5th Dist	590	12252_1	6/8/2017
12252	Add	Dotted Fish Haven PT 4 OF 4	Chart No. 1: K46.2	N 37 22' 42.640"	W 077 20' 00.780"	37.37851	-77.33355	LNM 24/17, 5th Dist	590	12252_1	6/8/2017
12252	Add	Dotted Fish Haven Label	Obstn Fish Haven (auth min 14 ft)	N 37 22' 42.830"	W 077 19' 58.850"	37.37856	-77.33302	LNM 24/17, 5th Dist	590	12252_1	6/8/2017
12252	Add	Dotted Fish Haven PT 2 OF 4	Chart No. 1: K46.2	N 37 22' 43.030"	W 077 19' 56.900"	37.37862	-77.33247	LNM 24/17, 5th Dist	590	12252_1	6/8/2017
12252	Change	James River Channel Light 108	Fl R 4s 15ft 5M "108"	N 37 18' 32.664"	W 077 14' 34.138"	37.30907	-77.24281	LNM 08/17, 5th Dist	590	12252_1	3/2/2017
12252	Change	James River Channel Light 118	Fl R 4s 15ft 5M "118"	N 37 19' 02.627"	W 077 16' 16.766"	37.3174	-77.27132	LNM 08/17, 5th Dist	590	12252_1	3/2/2017
12252	Change	James River Channel Light 124	Fl R 4s 15ft 5M "124"	N 37 20' 02.051"	W 077 16' 20.880"	37.3339	-77.27247	LNM 07/17, 5th Dist	590	12252_1	2/23/2017
12252	Change	James River Channel Light 132	Fl R 4s 15ft 5M "132"	N 37 21' 11.715"	W 077 16' 30.136"	37.35325	-77.27504	LNM 07/17, 5th Dist	590	12252_1	2/23/2017
12252	Change	Tabulation - JAMES RIVER CHANNEL DEPTHS	Tabulation - JAMES RIVER CHANNEL DEPTHS	N 37 20' 38.000"	W 077 17' 34.000"	37.34389	-77.29278	LNM 07/17, 5th Dist	590	12252_1	2/16/2017
12252	Change	Tabulation - JAMES RIVER CHANNEL DEPTHS	Tabulation - JAMES RIVER CHANNEL DEPTHS	N 37 20' 38.000"	W 077 17' 34.000"	37.34389	-77.29278	LNM 06/17, 5th Dist	590	12252_1	2/2/2017
12252	Change	James River Channel Light 146	Fl R 4s 15ft 5M "146"	N 37 22' 47.235"	W 077 19' 10.637"	37.37979	-77.31962	LNM 49/16, 5th Dist	590	12252_1	12/15/2016
12252	Change	James River Channel Light 133	Fl G 4s 15ft 4M "133"	N 37 21' 08.839"	W 077 16' 40.151"	37.35246	-77.27782	LNM 49/16, 5th Dist	590	12252_1	12/15/2016
12252	Change	Appomattox River Channel Light 8	Fl R 4s 15ft 4M "8"	N 37 18' 45.654"	W 077 17' 29.112"	37.31268	-77.29142	LNM 46/16, 5th Dist	590	12252_1	11/24/2016
12252	Change	James River Channel Light 155	Q G 15ft 4M "155"	N 37 23' 09.440"	W 077 23' 06.847"	37.38596	-77.38524	LNM 46/16, 5th Dist	590	12252_1	11/24/2016
12252	Change	James River Channel Light 156	Q R 15ft 4M "156"	N 37 23' 50.973"	W 077 22' 55.759"	37.39749	-77.38216	LNM 34/16, 5th Dist	590	12252_1	9/1/2016
12252	Change	James River Channel Light 107	Fl G 6s 15ft 5M "107"	N 37 18' 44.239"	W 077 13' 56.387"	37.31229	-77.23233	LNM 34/16, 5th Dist	590	12252_1	9/1/2016
12252	Change	James River Channel Light 158	Fl R 4s 18ft 4M "158"	N 37 25' 08.328"	W 077 23' 44.652"	37.41898	-77.39574	LNM 38/15, 5th Dist	590	12252_1	10/1/2015
12252	Change	James River Channel Light 154	Fl R 4s 15ft 4M "154"	N 37 23' 04.712"	W 077 22' 52.777"	37.38464	-77.38132	LNM 38/15, 5th Dist	590	12252_1	10/1/2015
12252	Change	James River Channel Light 127	Fl G 2.5s 15ft 5M "127"	N 37 20' 25.998"	W 077 16' 13.728"	37.34055	-77.27048	LNM 37/15, 5th Dist	590	12252_1	9/24/2015
12252	Add	Overhead Power Cable PT 1 OF 2	(Chart No. 1: D26)	N 37 19' 01.010"	W 077 20' 13.240"	37.31695	-77.33701	LNM 34/15, 5th Dist	590	12252_1	8/27/2015
12252	Add	Overhead Power Cable PT 2 OF 2	(Chart No. 1: D26)	N 37 18' 39.750"	W 077 20' 15.770"	37.31104	-77.33772	LNM 34/15, 5th Dist	590	12252_1	8/27/2015
12252	Add	Overhead Power Cable PT 1 OF 2	(Chart No. 1: D26)	N 37 23' 02.320"	W 077 23' 02.060"	37.38398	-77.3839	LNM 34/15, 5th Dist	590	12252_1	8/27/2015
12252	Add	Overhead Power Cable PT 2 OF 2	(Chart No. 1: D26)	N 37 23' 07.760"	W 077 22' 51.510"	37.38549	-77.38097	LNM 34/15, 5th Dist	590	12252_1	8/27/2015
12252	Add	Overhead Power Cable Label	OVHD PWR CAB	N 37 23' 04.750"	W 077 22' 57.310"	37.38465	-77.38258	LNM 34/15, 5th Dist	590	12252_1	8/27/2015
12252	Add	Overhead Power Cable Label	OVHD PWR CAB	N 37 23' 05.370"	W 077 22' 58.360"	37.38483	-77.38288	LNM 34/15, 5th Dist	590	12252_1	8/27/2015
12252	Add	Overhead Power Cable Label	OVHD PWR CAB	N 37 18' 51.830"	W 077 20' 13.410"	37.3144	-77.33706	LNM 34/15, 5th Dist	590	12252_1	8/27/2015
12252	Add	Overhead Power Cable PT 1 OF 2	(Chart No. 1: D26)	N 37 22' 57.470"	W 077 22' 49.150"	37.38263	-77.38032	LNM 34/15, 5th Dist	590	12252_1	8/27/2015
12252	Add	Overhead Power Cable PT 2 OF 2	(Chart No. 1: D26)	N 37 23' 06.230"	W 077 22' 42.700"	37.38506	-77.37852	LNM 34/15, 5th Dist	590	12252_1	8/27/2015
12252	Add	Overhead Power Cable PT 1 OF 2	(Chart No. 1: D26)	N 37 21' 25.550"	W 077 17' 35.450"	37.3571	-77.29318	LNM 34/15, 5th Dist	590	12252_1	8/27/2015
12252	Add	Overhead Power Cable PT 2 OF 2	(Chart No. 1: D26)	N 37 21' 08.830"	W 077 17' 35.210"	37.35245	-77.29311	LNM 34/15, 5th Dist	590	12252_1	8/27/2015
12252	Add	Overhead Power Cable PT 1 OF 2	(Chart No. 1: D26)	N 37 23' 03.150"	W 077 23' 02.730"	37.38421	-77.38409	LNM 34/15, 5th Dist	590	12252_1	8/27/2015
12252	Add	Overhead Power Cable PT 2 OF 2	(Chart No. 1: D26)	N 37 23' 08.550"	W 077 22' 52.150"	37.38571	-77.38115	LNM 34/15, 5th Dist	590	12252_1	8/27/2015
12252	Add	Overhead Power Cable PT 1 OF 2	(Chart No. 1: D26)  	N 37 18' 39.890"	W 077 20' 14.600"	37.31108	-77.33739	LNM 34/15, 5th Dist	590	12252_1	8/27/2015
12252	Add	Overhead Power Cable PT 2 OF 2	(Chart No. 1: D26)  	N 37 19' 00.290"	W 077 20' 12.630"	37.31675	-77.33685	LNM 34/15, 5th Dist	590	12252_1	8/27/2015
12252	Add	Overhead Power Cable Label	OVHD PWR CAB	N 37 18' 52.870"	W 077 20' 14.180"	37.31469	-77.33727	LNM 34/15, 5th Dist	590	12252_1	8/27/2015
12252	Add	Overhead Power Cable Label	OVHD PWR CAB	N 37 21' 17.530"	W 077 17' 35.220"	37.35487	-77.29311	LNM 34/15, 5th Dist	590	12252_1	8/27/2015
12252	Add	Overhead Power Cable Label	OVHD PWR CAB	N 37 23' 01.640"	W 077 22' 46.080"	37.38379	-77.37946	LNM 34/15, 5th Dist	590	12252_1	8/27/2015
12252	Relocate	James River Channel Buoy 119	G C "119"	N 37 19' 13.534"	W 077 16' 38.919"	37.32043	-77.27748	LNM 06/15, 5th Dist	590	12252_1	2/5/2015
12252	Relocate	James River Channel Lighted Buoy 106	R "106" Fl R 4s	N 37 19' 08.033"	W 077 13' 08.210"	37.3189	-77.21895	LNM 06/15, 5th Dist	590	12252_1	2/5/2015
12252	Relocate	James River Bermuda 100 Light A	F Y 15ft "A" Priv	N 37 21' 07.533"	W 077 17' 05.919"	37.35209	-77.28498	LNM 06/15, 5th Dist	590	12252_1	2/5/2015
12252	Relocate	James River Channel Lighted Buoy 111	G "111" Fl G 4s	N 37 18' 18.634"	W 077 15' 15.715"	37.30518	-77.25436	LNM 06/15, 5th Dist	590	12252_1	2/5/2015
12252	Relocate	James River Channel Buoy 171	G C "171"	N 37 29' 39.020"	W 077 25' 25.116"	37.49417	-77.42365	LNM 06/15, 5th Dist	591	12252_2	2/5/2015
12252	Change	James River Channel Light 112	Fl R 4s 15ft 5M "112"	N 37 18' 26.069"	W 077 15' 31.133"	37.30724	-77.25865	LNM 38/14, 5th Dist	590	12252_1	10/2/2014
12252	Relocate	James River Channel Lighted Buoy 162	R "162" Fl R 2.5s	N 37 25' 20.467"	W 077 25' 02.942"	37.42235	-77.41748	LNM 36/14, 5th Dist	591	12252_2	9/18/2014
12252	Change	James River Channel Light 151	Q G 15ft 4M "151"	N 37 22' 35.827"	W 077 21' 34.233"	37.37662	-77.35951	LNM 05/14, 5th Dist	590	12252_1	2/6/2014
12252	Change	James River Channel Light 137	Fl G 4s 18ft 5M "137"	N 37 21' 28.035"	W 077 18' 10.657"	37.35779	-77.30296	LNM 01/14, 5th Dist	590	12252_1	1/16/2014
12252	Change	James River Channel Light 168	Fl R 4s 18ft 4M "168"	N 37 29' 27.511"	W 077 25' 18.374"	37.49097	-77.42177	LNM 01/14, 5th Dist	591	12252_2	1/16/2014
12252	Change	Appomattox River Junction Light AR	Fl (2+1) G 6s 15ft 5M "AR"	N 37 19' 19.442"	W 077 16' 43.368"	37.32207	-77.27872	LNM 52/13, 5th Dist	590	12252_1	1/9/2014
12252	Change	James River Channel Light 144	Fl R 4s 15ft 5M "144"	N 37 22' 26.697"	W 077 18' 36.916"	37.37408	-77.31026	LNM 52/13, 5th Dist	590	12252_1	1/9/2014
12252	Change	James River Channel Light 166	Fl R 4s 15ft 4M "166"	N 37 26' 59.792"	W 077 25' 05.966"	37.44994	-77.41833	LNM 52/13, 5th Dist	591	12252_2	1/9/2014
12252	Delete	Sounding in Feet	32	N 37 18' 41.800"	W 077 14' 05.300"	37.31161	-77.2348	LNM 35/13, 5th Dist	590	12252_1	8/22/2013
12252	Delete	Channel Limits PT 1 OF 2	Chart No. 1: I20	N 37 20' 42.300"	W 077 16' 04.500"	37.34509	-77.26791	LNM 35/13, 5th Dist	590	12252_1	8/22/2013
12252	Delete	Channel Limits PT 2 OF 2	Chart No. 1: I20	N 37 20' 31.800"	W 077 16' 05.900"	37.34217	-77.2683	LNM 35/13, 5th Dist	590	12252_1	8/22/2013
12252	Delete	Sounding in Feet	32	N 37 18' 29.600"	W 077 14' 33.500"	37.30822	-77.24264	LNM 35/13, 5th Dist	590	12252_1	8/22/2013
12252	Delete	Sounding in Feet	31	N 37 18' 34.400"	W 077 14' 22.700"	37.30956	-77.23964	LNM 35/13, 5th Dist	590	12252_1	8/22/2013
12252	Add	Channel Limits PT 1 OF 4	Chart No. 1: I20	N 37 20' 42.300"	W 077 16' 04.500"	37.34509	-77.26791	LNM 35/13, 5th Dist	590	12252_1	8/22/2013
12252	Add	Channel Limits PT 2 OF 4	Chart No. 1: I20	N 37 20' 40.500"	W 077 16' 03.500"	37.34458	-77.26764	LNM 35/13, 5th Dist	590	12252_1	8/22/2013
12252	Add	Channel Limits PT 3 OF 4	Chart No. 1: I20	N 37 20' 33.700"	W 077 16' 04.500"	37.34269	-77.26791	LNM 35/13, 5th Dist	590	12252_1	8/22/2013
12252	Add	Channel Limits PT 4 OF 4	Chart No. 1: I20	N 37 20' 31.800"	W 077 16' 05.900"	37.34217	-77.2683	LNM 35/13, 5th Dist	590	12252_1	8/22/2013
12252	Add	Channel Limits PT 1 OF 2	Chart No. 1: I20	N 37 23' 12.000"	W 077 23' 07.500"	37.38667	-77.38541	LNM 35/13, 5th Dist	590	12252_1	8/22/2013
12252	Add	Channel Limits PT 2 OF 2	Chart No. 1: I20	N 37 23' 09.400"	W 077 23' 05.700"	37.38594	-77.38492	LNM 35/13, 5th Dist	590	12252_1	8/22/2013
12252	Delete	Sounding in Feet	31	N 37 18' 31.800"	W 077 14' 27.900"	37.30883	-77.24108	LNM 35/13, 5th Dist	590	12252_1	8/22/2013
12252	Delete	Sounding in Feet	31	N 37 18' 37.500"	W 077 14' 13.700"	37.31042	-77.23714	LNM 35/13, 5th Dist	590	12252_1	8/22/2013
12252	Add	Channel Limits PT 1 OF 4	Chart No. 1: I20	N 37 19' 19.900"	W 077 16' 40.300"	37.32219	-77.27786	LNM 35/13, 5th Dist	590	12252_1	8/22/2013
12252	Add	Channel Limits PT 2 OF 4	Chart No. 1: I20	N 37 19' 24.700"	W 077 16' 40.500"	37.32353	-77.27792	LNM 35/13, 5th Dist	590	12252_1	8/22/2013
12252	Add	Channel Limits PT 3 OF 4	Chart No. 1: I20	N 37 19' 19.900"	W 077 16' 36.600"	37.32219	-77.27683	LNM 35/13, 5th Dist	590	12252_1	8/22/2013
12252	Add	Channel Limits PT 4 OF 4	Chart No. 1: I20	N 37 19' 24.600"	W 077 16' 36.800"	37.3235	-77.27689	LNM 35/13, 5th Dist	590	12252_1	8/22/2013
12252	Delete	Sounding in Feet	34	N 37 19' 22.900"	W 077 16' 39.700"	37.32303	-77.27769	LNM 35/13, 5th Dist	590	12252_1	8/22/2013
12252	Add	Channel Limits PT 1 OF 6	Chart No. 1: I20	N 37 18' 30.700"	W 077 14' 35.200"	37.30853	-77.24311	LNM 35/13, 5th Dist	590	12252_1	8/22/2013
12252	Add	Channel Limits PT 2 OF 6	Chart No. 1: I20	N 37 18' 32.800"	W 077 14' 29.500"	37.30911	-77.24153	LNM 35/13, 5th Dist	590	12252_1	8/22/2013
12252	Add	Channel Limits PT 3 OF 6	Chart No. 1: I20	N 37 18' 44.500"	W 077 14' 06.700"	37.31236	-77.23519	LNM 35/13, 5th Dist	590	12252_1	8/22/2013
12252	Add	Channel Limits PT 4 OF 6	Chart No. 1: I20	N 37 18' 27.900"	W 077 14' 33.900"	37.30775	-77.24275	LNM 35/13, 5th Dist	590	12252_1	8/22/2013
12252	Add	Channel Limits PT 5 OF 6	Chart No. 1: I20	N 37 18' 30.200"	W 077 14' 27.700"	37.30839	-77.24103	LNM 35/13, 5th Dist	590	12252_1	8/22/2013
12252	Add	Channel Limits PT 6 OF 6	Chart No. 1: I20	N 37 18' 42.000"	W 077 14' 04.600"	37.31167	-77.23461	LNM 35/13, 5th Dist	590	12252_1	8/22/2013
12252	Change	tabulation - JAMES RIVER CHANNEL DEPTHS	tabulation - JAMES RIVER CHANNEL DEPTHS	N 37 20' 38.000"	W 077 17' 34.000"	37.34389	-77.29278	LNM 34/13, 5th Dist	590	12252_1	8/12/2013
12252	Add	James River Lighted Data Buoy A	Y "A" Fl Y 4s Priv	N 37 22' 43.342"	W 077 20' 00.661"	37.37871	-77.33352	LNM 31/13, 5th Dist	590	12252_1	7/31/2013
12252	Add	James River Lighted Data Buoy B	Y "B" Fl Y 4s Priv	N 37 22' 43.028"	W 077 19' 56.899"	37.37862	-77.33247	LNM 31/13, 5th Dist	590	12252_1	7/31/2013
12252	Add	Overhead Power Cable Label	OVHD PWR CAB AUTH CL 45 FT	N 37 15' 19.000"	W 077 22' 38.000"	37.25528	-77.37722	LNM 15/13, 5th Dist	592	12252_3	4/2/2013
12252	Add	Overhead Power Cable  PT 1 OF 2	Chart No. 1: D26  	N 37 15' 10.950"	W 077 22' 36.400"	37.25304	-77.37678	LNM 15/13, 5th Dist	592	12252_3	4/2/2013
12252	Add	Overhead Power Cable  PT 2 OF 2	Chart No. 1: D26  	N 37 15' 11.950"	W 077 22' 47.400"	37.25332	-77.37984	LNM 15/13, 5th Dist	592	12252_3	4/2/2013
12252	Add	Overhead Power Cable Label	OVHD PWR CAB AUTH CL 46 FT	N 37 15' 11.400"	W 077 22' 41.400"	37.25317	-77.37817	LNM 15/13, 5th Dist	592	12252_3	4/2/2013
12252	Add	Overhead Power Cable  PT 1 OF 2	Chart No. 1: D26  	N 37 15' 18.500"	W 077 22' 40.600"	37.25514	-77.37794	LNM 15/13, 5th Dist	592	12252_3	4/2/2013
12252	Add	Overhead Power Cable  PT 2 OF 2	Chart No. 1: D26  	N 37 15' 19.500"	W 077 22' 35.400"	37.25542	-77.3765	LNM 15/13, 5th Dist	592	12252_3	4/2/2013
12252	Delete	Fixed Bridge	Chart No. 1: D22	N 37 15' 01.000"	W 077 22' 41.000"	37.25028	-77.37805	LNM 15/13, 5th Dist	592	12252_3	4/2/2013
12252	Delete	Fixed Bridge Label	CONVEYOR BELT MOVABLE SPAN HOR CL 50 FT VERT CL 11 FT (APPROX)	N 37 15' 01.000"	W 077 22' 41.000"	37.25028	-77.37805	LNM 15/13, 5th Dist	592	12252_3	4/2/2013
12252	Delete	Overhead Power Cable 	Chart No. 1: D26  	N 37 21' 56.000"	W 077 23' 31.000"	37.36555	-77.39194	LNM 14/13, 5th Dist	590	12252_1	4/2/2013
12252	Delete	Overhead Power Cable 	Chart No. 1: D26  	N 37 25' 23.000"	W 077 24' 22.150"	37.42305	-77.40615	LNM 14/13, 5th Dist	590	12252_1	4/2/2013
12252	Delete	Overhead Power Cable 	Chart No. 1: D26  	N 37 25' 23.000"	W 077 24' 22.150"	37.42305	-77.40615	LNM 14/13, 5th Dist	591	12252_2	4/2/2013
12252	Delete	Overhead Power Cable Label	OVHD CABS 15 ft vert cl rep	N 37 21' 56.000"	W 077 23' 31.000"	37.36555	-77.39194	LNM 14/13, 5th Dist	590	12252_1	4/2/2013
12252	Delete	Overhead Power Cable 	Chart No. 1: D26  	N 37 22' 14.000"	W 077 23' 15.000"	37.37056	-77.3875	LNM 14/13, 5th Dist	590	12252_1	4/2/2013
12252	Delete	Overhead Power Cable Label	OVHD PWR CAB	N 37 25' 23.000"	W 077 24' 22.150"	37.42305	-77.40615	LNM 14/13, 5th Dist	590	12252_1	4/2/2013
12252	Delete	Overhead Power Cable Label	OVHD PWR CAB	N 37 25' 23.000"	W 077 24' 22.150"	37.42305	-77.40615	LNM 14/13, 5th Dist	591	12252_2	4/2/2013
12252	Delete	Overhead Power Cable Label	OVHD PWR CAB 25 ft vert cl rep	N 37 22' 14.000"	W 077 23' 15.000"	37.37056	-77.3875	LNM 14/13, 5th Dist	590	12252_1	4/2/2013
12252	Relocate	James River Channel Light 139	Fl G 6s 18ft 4M "139"	N 37 21' 54.093"	W 077 18' 35.407"	37.36502	-77.30984	LNM 07/13, 5th Dist	590	12252_1	2/21/2013
12252	Change	Appomattox River Junction Light AR	Fl (2+1) G 6s 19ft 5M "AR"	N 37 19' 19.442"	W 077 16' 43.368"	37.32207	-77.27872	LNM 07/13, 5th Dist	590	12252_1	2/21/2013
12252	Change	James River Channel Light 147	Fl G 4s 15ft 5M "147"	N 37 22' 43.833"	W 077 19' 18.113"	37.37884	-77.3217	LNM 07/13, 5th Dist	590	12252_1	2/21/2013
12252	Change	James River Channel Light 155A	Fl G 2.5s 15ft 4M "155A"	N 37 23' 38.508"	W 077 23' 02.171"	37.39403	-77.38393	LNM 07/13, 5th Dist	590	12252_1	2/21/2013
12252	Change	James River Channel Light 160	Q R 15ft 4M "160"	N 37 25' 30.803"	W 077 24' 08.874"	37.42522	-77.40247	LNM 07/13, 5th Dist	590	12252_1	2/21/2013
12226	Change	Mattawoman Creek Light 2	Fl R 4s 15ft 4M "2"	N 37 23' 32.336"	W 075 59' 23.744"	37.39231	-75.98993	LNM 51/16, 5th Dist	564	12226_1	12/22/2016
12226	Relocate	Chesapeake Channel Mid-Channel Lighted Whistle Buoy CB	RW "CB" Mo (A) WHIS	N 37 30' 01.308"	W 076 02' 36.457"	37.50036	-76.04346	LNM 45/16, 5th Dist	564	12226_1	11/17/2016
12226	Delete	Hungar Creek Daybeacon 2	R "2"	N 37 24' 20.850"	W 075 58' 30.774"	37.40579	-75.97521	LNM 34/16, 5th Dist	564	12226_1	9/1/2016
12226	Add	Hungar Creek Lighted Wreck Buoy WR2	R "WR2" Q R	N 37 24' 20.785"	W 075 58' 31.961"	37.40577	-75.97555	LNM 34/16, 5th Dist	564	12226_1	9/1/2016
12226	Delete	Hungar Creek Daybeacon 5	G "5"	N 37 24' 37.428"	W 075 58' 02.172"	37.4104	-75.96727	LNM 34/16, 5th Dist	564	12226_1	9/1/2016
12226	Change	Nandua Creek Channel Buoy 8	R N "8"	N 37 37' 38.527"	W 075 54' 30.321"	37.62737	-75.90842	LNM 34/16, 5th Dist	564	12226_1	9/1/2016
12226	Change	Nandua Creek Channel Buoy 19	G C "19"	N 37 36' 45.317"	W 075 53' 12.579"	37.61259	-75.88683	LNM 34/16, 5th Dist	564	12226_1	9/1/2016
12226	Change	Nandua Creek Channel Buoy 21	G C "21"	N 37 37' 02.978"	W 075 52' 52.497"	37.61749	-75.88125	LNM 34/16, 5th Dist	564	12226_1	9/1/2016
12226	Delete	Nandua Creek Channel Daybeacon 17	G "17"	N 37 36' 53.259"	W 075 53' 27.808"	37.6148	-75.89106	LNM 34/16, 5th Dist	564	12226_1	9/1/2016
12226	Add	Nandua Creek Channel Lighted Wreck Buoy WR17	G "WR17" Q G	N 37 36' 53.232"	W 075 53' 28.265"	37.61479	-75.89118	LNM 34/16, 5th Dist	564	12226_1	9/1/2016
12226	Add	Hungar Creek Lighted Wreck Buoy WR5	G "WR5" Q G	N 37 24' 37.241"	W 075 58' 01.906"	37.41034	-75.96719	LNM 34/16, 5th Dist	564	12226_1	9/1/2016
12226	Relocate	Nandua Creek Channel Buoy 19	G C "19"	N 37 36' 45.317"	W 075 53' 12.579"	37.61259	-75.88683	LNM 34/16, 5th Dist	564	12226_1	9/1/2016
12226	Relocate	Nandua Creek Channel Buoy 21	G C "21"	N 37 37' 02.978"	W 075 52' 52.497"	37.61749	-75.88125	LNM 34/16, 5th Dist	564	12226_1	9/1/2016
12226	Change	Nandua Creek Channel Buoy 9	G C "9"	N 37 37' 46.063"	W 075 54' 12.257"	37.62946	-75.9034	LNM 34/16, 5th Dist	564	12226_1	9/1/2016
12226	Change	Pocomoke Sound Light 2	Fl R 4s 15ft 4M "2"	N 37 43' 37.059"	W 075 54' 36.829"	37.72696	-75.91023	LNM 07/16, 5th Dist	564	12226_1	2/25/2016
12226	Add	Pile	Pile     Chart No. 1: F22	N 37 40' 20.470"	W 075 50' 17.380"	37.67235	-75.83816	LNM 03/16, 5th Dist	564	12226_1	1/14/2016
12226	Add	Accurate Landmark	ABAND LT HO  (Chart No. 1: E1)	N 37 23' 25.800"	W 076 11' 22.400"	37.3905	-76.18955	LNM 51/15, 5th Dist	564	12226_1	1/7/2016
12226	Delete	Wolf Trap Light	Fl 15s 52ft 14M	N 37 23' 25.800"	W 076 11' 22.400"	37.3905	-76.18955	LNM 48/15, 5th Dist	564	12226_1	12/10/2015
12226	Change	Pungoteague Creek Channel Light 1	Q G 24ft 4M "1P"	N 37 39' 39.940"	W 075 53' 51.239"	37.66109	-75.89757	LNM 24/15, 5th Dist	564	12226_1	6/25/2015
12226	Change	Pungoteague Creek Channel Light 1P	Q G 15ft 4M "1P"	N 37 39' 39.940"	W 075 53' 51.239"	37.66109	-75.89757	LNM 20/15, 5th Dist	564	12226_1	5/28/2015
12226	Change	Pungoteague Creek Warning Light A	Fl 2.5s 15ft 4M "A"	N 37 39' 48.217"	W 075 53' 52.982"	37.66339	-75.89805	LNM 20/15, 5th Dist	564	12226_1	5/28/2015
12226	Relocate	Chesapeake Channel Lighted Buoy 47	G "47" Q G	N 37 34' 19.280"	W 076 03' 04.911"	37.57202	-76.05136	LNM 10/15, 5th Dist	564	12226_1	3/19/2015
12226	Change	Tabulation - RAPPAHANOCK SHOAL CHANNEL DEPTHS	Tabulation - RAPPAHANOCK SHOAL CHANNEL DEPTHS	N 37 24' 30.000"	W 075 51' 00.000"	37.40833	-75.85	LNM 10/15, 5th Dist	564	12226_1	3/12/2015
12226	Change	Chesapeake Channel Lighted Buoy 45	G "45" Fl G 2.5s	N 37 32' 54.189"	W 076 02' 29.795"	37.54839	-76.04161	LNM 40/14, 5th Dist	564	12226_1	10/2/2014
12221	Relocate	Horn Harbor Lighted Buoy 2	R "2" Fl R 4s	N 37 20' 13.783"	W 076 15' 33.633"	37.33716	-76.25935	LNM 27/17, 5th Dist	558	12221_1	7/13/2017
12221	Change	Virginia Inside Passage Daybeacon 224	R "224"	N 37 22' 20.856"	W 075 52' 17.448"	37.37246	-75.87151	LNM 24/17, 5th Dist	558	12221_1	6/22/2017
12221	Change	Virginia Inside Passage Daybeacon 226	R "226"	N 37 21' 33.054"	W 075 52' 51.162"	37.35918	-75.88087	LNM 24/17, 5th Dist	558	12221_1	6/22/2017
12221	Change	Virginia Inside Passage Daybeacon 227	G "227"	N 37 20' 53.160"	W 075 52' 54.600"	37.3481	-75.88184	LNM 24/17, 5th Dist	558	12221_1	6/22/2017
12221	Change	Virginia Inside Passage Daybeacon 228	R "228"	N 37 20' 17.028"	W 075 53' 28.626"	37.33806	-75.89129	LNM 24/17, 5th Dist	558	12221_1	6/22/2017
12221	Change	Virginia Inside Passage Daybeacon 229	G "229"	N 37 19' 09.504"	W 075 53' 22.746"	37.31931	-75.88965	LNM 24/17, 5th Dist	558	12221_1	6/22/2017
12221	Change	Virginia Inside Passage Daybeacon 230	R "230"	N 37 18' 33.204"	W 075 54' 02.580"	37.30922	-75.90072	LNM 24/17, 5th Dist	558	12221_1	6/22/2017
12221	Change	Virginia Inside Passage Daybeacon 232	R "232"	N 37 17' 20.892"	W 075 53' 44.514"	37.28913	-75.8957	LNM 24/17, 5th Dist	558	12221_1	6/22/2017
12221	Relocate	White House Cove Daybeacon 2	R "2"	N 37 08' 37.425"	W 076 22' 33.083"	37.14373	-76.37585	LNM 23/17, 5th Dist	558	12221_1	6/8/2017
12221	Change	Virginia Inside Passage Daybeacon 191	G "191"	N 37 22' 56.862"	W 075 46' 21.072"	37.38246	-75.77252	LNM 23/17, 5th Dist	558	12221_1	6/8/2017
12221	Change	Virginia Inside Passage Daybeacon 215	G "215"	N 37 23' 23.032"	W 075 51' 14.966"	37.38973	-75.85416	LNM 23/17, 5th Dist	558	12221_1	6/8/2017
12221	Add	Sounding in Feet	14	N 36 59' 27.600"	W 076 17' 38.300"	36.991	-76.29398	LNM 23/17, 5th Dist	558	12221_1	6/8/2017
12221	Add	Obstruction in Feet	14 Obstn   (Chart No. 1: K41)	N 37 07' 28.000"	W 076 13' 04.300"	37.12444	-76.21786	LNM 23/17, 5th Dist	558	12221_1	6/8/2017
12221	Delete	Sounding in Feet	22	N 36 59' 29.800"	W 076 17' 30.500"	36.99161	-76.29181	LNM 23/17, 5th Dist	558	12221_1	6/8/2017
12221	Delete	Virginia Inside Passage Daybeacon 199A	G "199A"	N 37 24' 12.726"	W 075 49' 37.536"	37.40353	-75.8271	LNM 22/17, 5th Dist	558	12221_1	6/8/2017
12221	Delete	Virginia Inside Passage Daybeacon 211	G "211"	N 37 23' 53.598"	W 075 50' 51.690"	37.39822	-75.84769	LNM 22/17, 5th Dist	558	12221_1	6/8/2017
12221	Delete	Virginia Inside Passage Daybeacon 219	G "219"	N 37 22' 29.345"	W 075 51' 45.199"	37.37482	-75.86256	LNM 22/17, 5th Dist	558	12221_1	6/8/2017
12221	Relocate	Thimble Shoal Channel Lighted Buoy 14	R "14" Fl R 2.5s	N 36 59' 42.340"	W 076 11' 05.570"	36.99509	-76.18488	LNM 19/17, 5th Dist	558	12221_1	5/18/2017
12221	Relocate	Poquoson Flats Channel Daybeacon 2PF	R "2PF"	N 37 06' 27.136"	W 076 14' 46.082"	37.10754	-76.24613	LNM 18/17, 5th Dist	558	12221_1	5/11/2017
12221	Relocate	Chesapeake Channel Lighted Bell Buoy 2C	R "2C" Fl R 2.5s BELL	N 36 57' 18.528"	W 075 58' 22.246"	36.95515	-75.97285	LNM 16/17, 5th Dist	558	12221_1	4/27/2017
12221	Relocate	Chesapeake Channel Lighted Bell Buoy 12	R "12" Q R BELL	N 37 01' 05.077"	W 076 02' 41.593"	37.01808	-76.04488	LNM 16/17, 5th Dist	558	12221_1	4/27/2017
12221	Relocate	Chesapeake Channel Lighted Buoy 30	R "30" Fl R 2.5s	N 37 11' 30.118"	W 076 09' 04.740"	37.1917	-76.15131	LNM 16/17, 5th Dist	558	12221_1	4/27/2017
12221	Relocate	Chesapeake Channel Lighted Buoy 36	R "36" Fl R 4s	N 37 15' 49.396"	W 076 07' 23.208"	37.26372	-76.12312	LNM 16/17, 5th Dist	558	12221_1	4/27/2017
12221	Change	Goodwin Thorofare Channel Warning Daybeacon D	W "D"	N 37 13' 19.151"	W 076 25' 05.604"	37.22198	-76.41822	LNM 12/17, 5th Dist	558	12221_1	3/23/2017
12221	Relocate	Goodwin Thorofare Warning Daybeacon D	W "D"	N 37 13' 19.151"	W 076 25' 05.604"	37.22198	-76.41822	LNM 10/17, 5th Dist	558	12221_1	3/16/2017
12221	Delete	Winter Harbor Channel Warning Daybeacon C	W "C"	N 37 22' 11.958"	W 076 15' 09.131"	37.36999	-76.25253	LNM 10/17, 5th Dist	558	12221_1	3/16/2017
12221	Delete	Winter Harbor Channel Warning Daybeacon B	W "B"	N 37 22' 03.416"	W 076 14' 56.462"	37.36761	-76.24902	LNM 10/17, 5th Dist	558	12221_1	3/16/2017
12221	Delete	Winter Harbor Channel Warning Daybeacon A	W "A"	N 37 21' 54.445"	W 076 14' 44.415"	37.36512	-76.24567	LNM 10/17, 5th Dist	558	12221_1	3/16/2017
12221	Change	Goodwin Thorofare Channel Warning Daybeacon A	W "A"	N 37 12' 50.756"	W 076 24' 28.341"	37.2141	-76.40788	LNM 09/17, 5th Dist	558	12221_1	3/9/2017
12221	Change	Goodwin Thorofare Channel Warning Daybeacon B	W "B"	N 37 12' 56.211"	W 076 24' 48.393"	37.21561	-76.41344	LNM 09/17, 5th Dist	558	12221_1	3/9/2017
12221	Delete	Goodwin Thorofare Channel Buoy 15	G C "15"	N 37 13' 13.364"	W 076 25' 05.341"	37.22038	-76.41815	LNM 09/17, 5th Dist	558	12221_1	3/9/2017
12221	Change	Goodwin Thorofare Channel Warning Daybeacon C	W "C"	N 37 13' 05.918"	W 076 25' 00.087"	37.21831	-76.41669	LNM 09/17, 5th Dist	558	12221_1	3/9/2017
12221	Change	Goodwin Thorofare Warning Daybeacon D	W "D"	N 37 13' 19.190"	W 076 25' 05.709"	37.222	-76.41825	LNM 09/17, 5th Dist	558	12221_1	3/9/2017
12221	Add	Shoaling Label	Shl to 6 ft 2017	N 37 06' 33.000"	W 076 16' 40.800"	37.10917	-76.278	LNM 07/17, 5th Dist	558	12221_1	2/23/2017
12221	Relocate	Chesapeake Channel Lighted Buoy 16	R "16" Q R	N 37 03' 53.581"	W 076 05' 25.148"	37.06488	-76.09032	LNM 07/17, 5th Dist	558	12221_1	2/23/2017
12221	Relocate	Back Creek - Mobjack Bay Daybeacon 3	G "3"	N 37 12' 31.713"	W 076 24' 49.746"	37.20881	-76.41382	LNM 06/17, 5th Dist	558	12221_1	2/16/2017
12221	Relocate	Back Creek - Mobjack Bay Daybeacon 4	R "4"	N 37 12' 32.760"	W 076 24' 54.750"	37.2091	-76.41521	LNM 06/17, 5th Dist	558	12221_1	2/16/2017
12221	Delete	Virginia Inside Passage Daybeacon 213	G "213"	N 37 23' 36.222"	W 075 50' 54.546"	37.39339	-75.84849	LNM 06/17, 5th Dist	558	12221_1	2/16/2017
12221	Change	Oyster Creek Channel Light 6	Fl R 4s 15ft 4M "6"	N 37 17' 19.902"	W 075 54' 37.242"	37.28886	-75.91035	LNM 04/17, 5th Dist	558	12221_1	2/2/2017
12221	Change	Oyster Creek Channel Light 10	Fl R 4s 15ft 4M "10"	N 37 17' 21.084"	W 075 55' 06.828"	37.28919	-75.91856	LNM 04/17, 5th Dist	558	12221_1	2/2/2017
12283	Change	Horn Point Light HP	Fl 6s 15ft 4M "HP"	N 38 58' 24.611"	W 076 28' 09.127"	38.9735	-76.4692	LNM 51/16, 5th Dist	642	12283_1	12/22/2016
12283	Change	Spa Creek Buoy 3	G C "3"	N 38 58' 22.007"	W 076 29' 23.629"	38.97278	-76.4899	LNM 51/16, 5th Dist	642	12283_1	12/22/2016
12283	Change	Severn River - Mill Creek Light 2M	Fl R 2.5s 15ft 4M "2M"	N 38 59' 34.080"	W 076 26' 49.380"	38.9928	-76.44705	LNM 49/16, 5th Dist	642	12283_1	12/15/2016
12283	Change	NOAA Lighted Data Buoy AN	Y "AN" Fl Y 4s	N 38 57' 49.010"	W 076 26' 48.370"	38.96362	-76.44677	LNM 32/16, 5th Dist	642	12283_1	8/18/2016
12283	Change	Naval Anchorage Light A	Fl Y 2.5s 15ft 4M "A"	N 38 58' 00.507"	W 076 27' 09.003"	38.96681	-76.4525	LNM 13/16, 5th Dist	642	12283_1	4/7/2016
12283	Change	Annapolis Harbor Entrance Light 4	Fl R 6s 15ft 4M "4"	N 38 58' 06.185"	W 076 27' 27.737"	38.96838	-76.4577	LNM 13/16, 5th Dist	642	12283_1	4/7/2016
12283	Relocate	Annapolis Harbor Entrance Light 4	Fl R 6s 15ft 4M "4"	N 38 58' 06.185"	W 076 27' 27.737"	38.96838	-76.4577	LNM 13/16, 5th Dist	642	12283_1	4/7/2016
12283	Relocate	Naval Station Ramp Obstruction Daybeacon	W Bn	N 38 58' 52.797"	W 076 27' 55.008"	38.98133	-76.46528	LNM 33/14, 5th Dist	642	12283_1	8/21/2014
12245	Change	Newport News Creek Light 2	Fl R 2.5s 15ft 4M "2"	N 36 57' 34.810"	W 076 24' 33.758"	36.95967	-76.40938	LNM 27/17, 5th Dist	584	12245_1	7/13/2017
12245	Change	Depth Legend - Craney Island Rehandling Basin - North Access Channel to:	15 FT 2017	N 36 53' 57.280"	W 076 20' 28.360"	36.89925	-76.34121	LNM 26/17, 5th Dist	584	12245_1	6/22/2017
12245	Change	Depth Legend - Norfolk International Terminals to:	50 FT JUL 2016	N 36 55' 39.450"	W 076 19' 54.810"	36.92762	-76.33189	LNM 25/17, 5th Dist	584	12245_1	6/15/2017
12245	Add	Sounding in Feet	14	N 36 59' 27.600"	W 076 17' 38.300"	36.991	-76.29398	LNM 23/17, 5th Dist	584	12245_1	6/8/2017
12245	Add	Sounding in Feet	30	N 36 59' 49.700"	W 076 18' 56.500"	36.99714	-76.3157	LNM 23/17, 5th Dist	584	12245_1	6/8/2017
12245	Delete	Sounding in Feet	24	N 36 59' 26.800"	W 076 17' 40.400"	36.99078	-76.29456	LNM 23/17, 5th Dist	584	12245_1	6/8/2017
12245	Delete	Sounding in Feet	48	N 36 59' 49.700"	W 076 18' 57.600"	36.99714	-76.316	LNM 23/17, 5th Dist	584	12245_1	6/8/2017
12245	Change	Tabulation - NORFOLK HARBOR AND NEWPORT NEWS CHANNEL DEPTHS	Tabulation - NORFOLK HARBOR AND NEWPORT NEWS CHANNEL DEPTHS	N 36 56' 22.000"	W 076 15' 08.500"	36.93945	-76.25236	LNM 18/17, 5th Dist	584	12245_1	4/27/2017
12245	Change	Tabulation - Norfolk Harbor and Newport News	Tabulation - Norfolk Harbor and Newport News	N 36 56' 22.000"	W 076 15' 08.500"	36.93945	-76.25236	LNM 15/17, 5th Dist	584	12245_1	3/30/2017
12245	Change	Lafayette River Channel Light 20	Fl R 4s 15ft 4M "20"	N 36 54' 00.588"	W 076 17' 26.934"	36.90016	-76.29082	LNM 12/17, 5th Dist	584	12245_1	3/23/2017
12245	Change	Craney Island Creek Light 6	Q R 15ft 4M "6"	N 36 52' 52.623"	W 076 20' 47.129"	36.88128	-76.34643	LNM 07/17, 5th Dist	584	12245_1	2/23/2017
12245	Change	Naval Boat Channel Light 8	Fl R 2.5s 15ft 4M "8"	N 36 57' 40.964"	W 076 18' 46.992"	36.96138	-76.31306	LNM 07/17, 5th Dist	584	12245_1	2/23/2017
12245	Change	Hampton River Channel Light 11	Q G 15ft 4M "11"	N 37 00' 26.017"	W 076 20' 19.164"	37.00723	-76.33865	LNM 07/17, 5th Dist	584	12245_1	2/23/2017
12245	Change	Hampton Flats Bar Channel Light 2	Fl R 2.5s 15ft 4M "2"	N 36 59' 00.552"	W 076 21' 22.936"	36.98349	-76.35637	LNM 07/17, 5th Dist	584	12245_1	2/23/2017
12245	Relocate	Craney Island Creek Light 6	Q R 15ft 4M "6"	N 36 52' 52.623"	W 076 20' 47.129"	36.88128	-76.34643	LNM 07/17, 5th Dist	584	12245_1	2/23/2017
12284	Change	Back Creek Light 2	Fl R 4s 15ft 4M "2"	N 38 19' 18.635"	W 076 27' 18.385"	38.32184	-76.45511	LNM 49/16, 5th Dist	643	12284_1	12/15/2016
12284	Change	Solomons Island Harbor Junction Light SH	Fl (2+1) R 6s 15ft 4M "SH"	N 38 19' 19.803"	W 076 27' 14.184"	38.32217	-76.45394	LNM 49/16, 5th Dist	643	12284_1	12/15/2016
12284	Change	Back Creek Light 5	Fl G 4s 15ft 4M "5"	N 38 19' 35.687"	W 076 27' 26.889"	38.32658	-76.45747	LNM 49/16, 5th Dist	643	12284_1	12/15/2016
12284	Change	Town Creek Light 2	Fl R 4s 15ft 4M "2"	N 38 18' 54.988"	W 076 28' 44.625"	38.31527	-76.47906	LNM 49/16, 5th Dist	643	12284_1	12/15/2016
12284	Add	Cable Area PT 1 OF 2	Chart No. 1: L30.2	N 38 19' 25.470"	W 076 29' 01.090"	38.32374	-76.48363	LNM 02/16, 5th Dist	643	12284_1	1/7/2016
12284	Add	Cable Area PT 2 OF 2	Chart No. 1: L30.2	N 38 19' 54.410"	W 076 28' 44.210"	38.33178	-76.47895	LNM 02/16, 5th Dist	643	12284_1	1/7/2016
12284	Add	Cable Area PT 1 OF 2	Chart No. 1: L30.2	N 38 19' 35.140"	W 076 29' 00.000"	38.32643	-76.48333	LNM 02/16, 5th Dist	643	12284_1	1/7/2016
12284	Add	Cable Area PT 2 OF 2	Chart No. 1: L30.2	N 38 19' 52.970"	W 076 28' 49.600"	38.33138	-76.48045	LNM 02/16, 5th Dist	643	12284_1	1/7/2016
12284	Delete	Cable Area PT 1 OF 2.	Chart No. 1: L30.2	N 38 19' 25.470"	W 076 29' 01.090"	38.32374	-76.48363	LNM 02/16, 5th Dist	643	12284_1	1/7/2016
12284	Delete	Cable Area PT 2 OF 2	Chart No. 1: L30.2	N 38 19' 35.140"	W 076 29' 00.000"	38.32643	-76.48333	LNM 02/16, 5th Dist	643	12284_1	1/7/2016
12284	Change	Back Creek Light 	Fl G 4s 15ft 3M "5"	N 38 19' 35.687"	W 076 27' 26.889"	38.32658	-76.45747	LNM 45/15, 5th Dist	643	12284_1	11/19/2015
12284	Add	Dotted Oyster Reef Label	Obstn Oyster Reef (auth min 2 1/2 ft)	N 38 20' 20.480"	W 076 29' 51.910"	38.33902	-76.49775	LNM 44/14, 5th Dist	643	12284_1	10/30/2014
12284	Delete	Sounding in Feet	10	N 38 19' 46.620"	W 076 29' 34.170"	38.32962	-76.49283	LNM 44/14, 5th Dist	643	12284_1	10/30/2014
12284	Delete	Sounding in Feet	10	N 38 19' 43.710"	W 076 29' 37.740"	38.32881	-76.49382	LNM 44/14, 5th Dist	643	12284_1	10/30/2014
12284	Add	Dotted Oyster Reef Label	Obstn Oyster Reef (auth min 2 ft)	N 38 19' 44.500"	W 076 29' 35.330"	38.32903	-76.49315	LNM 44/14, 5th Dist	643	12284_1	10/30/2014
12284	Add	Dotted Oyster Reef PT 1 OF 4	Chart No. 1: K46.2	N 38 19' 43.000"	W 076 29' 39.000"	38.32861	-76.49416	LNM 44/14, 5th Dist	643	12284_1	10/30/2014
12284	Add	Dotted Oyster Reef PT 2 OF 4	Chart No. 1: K46.2	N 38 19' 47.900"	W 076 29' 33.400"	38.32997	-76.49261	LNM 44/14, 5th Dist	643	12284_1	10/30/2014
12284	Add	Dotted Oyster Reef PT 3 OF 4	Chart No. 1: K46.2	N 38 19' 46.400"	W 076 29' 31.400"	38.32956	-76.49206	LNM 44/14, 5th Dist	643	12284_1	10/30/2014
12284	Add	Dotted Oyster Reef PT 4 OF 4	Chart No. 1: K46.2	N 38 19' 41.600"	W 076 29' 36.900"	38.32822	-76.49358	LNM 44/14, 5th Dist	643	12284_1	10/30/2014
12284	Add	Dotted Oyster Reef PT 1 OF 4	Chart No. 1: K46.2	N 38 20' 23.900"	W 076 29' 54.800"	38.33997	-76.49856	LNM 44/14, 5th Dist	643	12284_1	10/30/2014
12284	Add	Dotted Oyster Reef PT 2 OF 4	Chart No. 1: K46.2	N 38 20' 18.800"	W 076 29' 47.800"	38.33855	-76.49661	LNM 44/14, 5th Dist	643	12284_1	10/30/2014
12284	Add	Dotted Oyster Reef PT 3 OF 4	Chart No. 1: K46.2	N 38 20' 15.900"	W 076 29' 47.700"	38.33775	-76.49658	LNM 44/14, 5th Dist	643	12284_1	10/30/2014
12284	Add	Dotted Oyster Reef PT 4 OF 4	Chart No. 1: K46.2	N 38 20' 22.400"	W 076 29' 56.600"	38.33955	-76.49905	LNM 44/14, 5th Dist	643	12284_1	10/30/2014
12284	Delete	Sounding in Feet	3	N 38 20' 21.110"	W 076 29' 52.540"	38.3392	-76.49792	LNM 44/14, 5th Dist	643	12284_1	10/30/2014
12284	Change	Patuxent River Light 6A	Q R 15ft 4M "6A"	N 38 18' 44.687"	W 076 27' 16.657"	38.31241	-76.45463	LNM 42/14, 5th Dist	643	12284_1	10/23/2014
12284	Change	Lusby Point Junction Daybeacon LP	GR "LP"	N 38 20' 04.325"	W 076 26' 50.494"	38.33453	-76.44736	LNM 42/14, 5th Dist	643	12284_1	10/23/2014
12284	Relocate	Patuxent River Light 11	Q G 15ft 4M "11"	N 38 20' 27.699"	W 076 29' 21.063"	38.34103	-76.48918	LNM 39/14, 5th Dist	643	12284_1	10/9/2014
12281	Relocate	Baltimore Inner Harbor Buoy 5	G C "5" Priv	N 39 16' 45.240"	W 076 36' 10.980"	39.27923	-76.60305	LNM 23/17, 5th Dist	640	12281_1	6/8/2017
12281	Relocate	Curtis Bay Channel Lighted Buoy 4	R "4" Fl R 6s	N 39 13' 21.598"	W 076 32' 51.755"	39.22267	-76.54771	LNM 20/17, 5th Dist	640	12281_1	5/25/2017
12281	Relocate	Fort McHenry Channel Lighted Buoy 9	G "9" Fl G 4s	N 39 13' 48.006"	W 076 32' 37.894"	39.23	-76.54386	LNM 13/17, 5th Dist	640	12281_1	4/6/2017
12281	Change	Sparrows Point Channel Range Front Light	F G 70ft Priv	N 39 12' 42.268"	W 076 29' 03.119"	39.21174	-76.4842	LNM 13/17, 5th Dist	640	12281_1	4/6/2017
12281	Change	Sparrows Point Channel Range Rear Light	F R 96ft Priv	N 39 12' 46.435"	W 076 29' 03.653"	39.2129	-76.48434	LNM 13/17, 5th Dist	640	12281_1	4/6/2017
12281	Change	Sparrows Point Channel Lighted Junction Buoy SP	RG "SP" Fl (2+1) R 6s	N 39 11' 40.190"	W 076 28' 58.292"	39.1945	-76.48286	LNM 13/17, 5th Dist	640	12281_1	4/6/2017
12281	Relocate	Sparrows Point Channel Buoy 2	R N "2"	N 39 11' 40.791"	W 076 28' 51.860"	39.19466	-76.48107	LNM 13/17, 5th Dist	640	12281_1	4/6/2017
12281	Relocate	Sparrows Point Channel Buoy 3	G C "3"	N 39 11' 51.390"	W 076 28' 59.961"	39.19761	-76.48332	LNM 13/17, 5th Dist	640	12281_1	4/6/2017
12281	Relocate	Sparrows Point Channel Buoy 4	R N "4"	N 39 11' 52.491"	W 076 28' 44.160"	39.19791	-76.47894	LNM 13/17, 5th Dist	640	12281_1	4/6/2017
12281	Relocate	Sparrows Point Channel Buoy 6	R N "6"	N 39 12' 06.390"	W 076 28' 45.960"	39.20177	-76.47943	LNM 13/17, 5th Dist	640	12281_1	4/6/2017
12281	Relocate	Sparrows Point Channel Buoy 7	G C "7"	N 39 12' 22.370"	W 076 29' 03.041"	39.20621	-76.48418	LNM 13/17, 5th Dist	640	12281_1	4/6/2017
12281	Change	Sparrows Point Channel Lighted Buoy 8	R "8" Fl R 2.5s	N 39 12' 22.040"	W 076 28' 59.061"	39.20612	-76.48307	LNM 13/17, 5th Dist	640	12281_1	4/6/2017
12281	Relocate	Sparrows Point Channel Buoy 10	R N "10"	N 39 12' 34.310"	W 076 28' 54.761"	39.20953	-76.48188	LNM 13/17, 5th Dist	640	12281_1	4/6/2017
12281	Relocate	Sparrows Point Channel Range Front Light	F G 70ft Priv	N 39 12' 42.268"	W 076 29' 03.119"	39.21174	-76.4842	LNM 13/17, 5th Dist	640	12281_1	4/6/2017
12281	Relocate	Sparrows Point Channel Range Rear Light	F R 96ft Priv	N 39 12' 46.435"	W 076 29' 03.653"	39.2129	-76.48434	LNM 13/17, 5th Dist	640	12281_1	4/6/2017
12281	Delete	Fairfield Channel Buoy 2	R N "2" Priv	N 39 15' 15.000"	W 076 34' 25.000"	39.25417	-76.57361	LNM 10/17, 5th Dist	640	12281_1	3/16/2017
12281	Delete	Fairfield Channel Buoy 4	R N "4" Priv	N 39 15' 07.386"	W 076 34' 33.000"	39.25205	-76.57584	LNM 10/17, 5th Dist	640	12281_1	3/16/2017
12281	Delete	Fairfield Channel Buoy 6	R N "6" Priv	N 39 14' 58.386"	W 076 34' 40.000"	39.24955	-76.57777	LNM 10/17, 5th Dist	640	12281_1	3/16/2017
12281	Relocate	Curtis Bay Channel Lighted Buoy 5	G "5" Fl G 4s	N 39 13' 15.684"	W 076 33' 08.671"	39.22102	-76.55241	LNM 10/17, 5th Dist	640	12281_1	3/16/2017
12281	Change	Ruins PT 1 OF 4	Ruins (Chart No. 1: F33.2)	N 39 14' 54.880"	W 076 34' 43.000"	39.24858	-76.57861	LNM 10/17, 5th Dist	640	12281_1	3/2/2017
12281	Change	Ruins PT 2 OF 4	Ruins (Chart No. 1: F33.2)	N 39 14' 59.050"	W 076 34' 39.720"	39.24974	-76.5777	LNM 10/17, 5th Dist	640	12281_1	3/2/2017
12281	Change	Ruins PT 3 OF 4	Ruins (Chart No. 1: F33.2)	N 39 14' 59.270"	W 076 34' 40.280"	39.2498	-76.57786	LNM 10/17, 5th Dist	640	12281_1	3/2/2017
12281	Change	Ruins PT 4 OF 4	Ruins (Chart No. 1: F33.2)	N 39 14' 55.170"	W 076 34' 43.610"	39.24866	-76.57878	LNM 10/17, 5th Dist	640	12281_1	3/2/2017
12281	Relocate	Curtis Bay Channel Lighted Buoy 7	G "7" Fl G 2.5s	N 39 13' 14.248"	W 076 34' 00.929"	39.22062	-76.56693	LNM 07/17, 5th Dist	640	12281_1	2/23/2017
12281	Change	Tabulation - CURTIS CREEK CHANNEL DEPTHS	Tabulation - CURTIS CREEK CHANNEL DEPTHS	N 39 13' 08.000"	W 076 36' 11.000"	39.21889	-76.60306	LNM 06/17, 5th Dist	640	12281_1	2/2/2017
12281	Change	Depth Legend - Seagirt Marine Terminal West Channel to: 41 FT MAR 2016	41 FT MAR 2016	N 39 15' 17.000"	W 076 32' 58.400"	39.25472	-76.54955	LNM 06/17, 5th Dist	640	12281_1	2/2/2017
12281	Change	Depth Legend - Seagirt Marine Terminal West Channel to: 41 FT MAR 2016	41 FT MAR 2016	N 39 15' 14.600"	W 076 33' 34.800"	39.25406	-76.55967	LNM 06/17, 5th Dist	640	12281_1	2/2/2017
12281	Change	Depth Legend - FORT MCHENRY TURNING BASIN to: 44 FT APR 2016	44 FT APR 2016	N 39 15' 15.930"	W 076 33' 54.190"	39.25443	-76.56506	LNM 06/17, 5th Dist	640	12281_1	2/2/2017
12281	Change	Tabulation - BALTIMORE HARBOR CHANNEL DEPTHS	Tabulation - BALTIMORE HARBOR CHANNEL DEPTHS	N 39 13' 46.000"	W 076 37' 24.000"	39.22944	-76.62334	LNM 06/17, 5th Dist	640	12281_1	2/2/2017
12281	Change	Sparrows Point Steel Works Channel Lighted Buoy 8	R "8" Fl R 2.5s	N 39 12' 22.040"	W 076 28' 59.061"	39.20612	-76.48307	LNM 02/17, 5th Dist	640	12281_1	1/12/2017
12281	Relocate	Brewerton Channel Range Front Light	Oc G 4s 25ft	N 39 12' 19.042"	W 076 31' 26.152"	39.20529	-76.52393	LNM 02/17, 5th Dist	640	12281_1	1/12/2017
12281	Change	Brewerton Channel Range Front Light	Oc G 4s 25ft	N 39 12' 19.042"	W 076 31' 26.152"	39.20529	-76.52393	LNM 02/17, 5th Dist	640	12281_1	1/12/2017
12281	Relocate	Fort McHenry Channel Lighted Buoy 3	G "3" Fl G 4s	N 39 12' 42.030"	W 076 31' 28.532"	39.21167	-76.52459	LNM 02/17, 5th Dist	640	12281_1	1/12/2017
12281	Relocate	Sparrows Point Steel Works Channel Lighted Buoy 8	R "8" Fl R 2.5s	N 39 12' 22.040"	W 076 28' 59.061"	39.20612	-76.48307	LNM 02/17, 5th Dist	640	12281_1	1/12/2017
12281	Change	Ferry Bar Channel Light 13	Q G 15ft 4M "13"	N 39 15' 18.780"	W 076 36' 40.128"	39.25522	-76.61115	LNM 51/16, 5th Dist	640	12281_1	12/22/2016
12281	Relocate	Dundalk Terminal East Channel Buoy 9	G C "9"	N 39 14' 21.886"	W 076 32' 09.604"	39.23941	-76.536	LNM 40/16, 5th Dist	640	12281_1	10/13/2016
12281	Relocate	Dundalk Terminal West Channel Buoy 2DW	R N "2DW"	N 39 14' 30.812"	W 076 32' 18.031"	39.24189	-76.53835	LNM 40/16, 5th Dist	640	12281_1	10/13/2016
12281	Change	Seagirt Marine Terminal East Channel Lighted Buoy 4	R "4" Fl R 2.5s	N 39 14' 31.097"	W 076 32' 24.889"	39.24197	-76.54025	LNM 40/16, 5th Dist	640	12281_1	10/13/2016
12281	Relocate	Seagirt Marine Terminal East Channel Lighted Buoy 4	R "4" Fl R 2.5s	N 39 14' 31.097"	W 076 32' 24.889"	39.24197	-76.54025	LNM 40/16, 5th Dist	640	12281_1	10/13/2016
12281	Add	Baltimore Inner Harbor Buoy 6	R N "6" Priv	N 39 16' 50.129"	W 076 36' 09.383"	39.28059	-76.60261	LNM 39/16, 5th Dist	640	12281_1	10/6/2016
12281	Add	Baltimore Inner Harbor Buoy 5	G C "5" Priv	N 39 16' 36.899"	W 076 35' 59.917"	39.27692	-76.59998	LNM 39/16, 5th Dist	640	12281_1	10/6/2016
12281	Add	Baltimore Inner Harbor Buoy 4	R N "4" Priv	N 39 16' 40.701"	W 076 35' 57.620"	39.27797	-76.59934	LNM 39/16, 5th Dist	640	12281_1	10/6/2016
12281	Add	Baltimore Inner Harbor Buoy 2	R N "2" Priv	N 39 16' 40.657"	W 076 35' 44.797"	39.27796	-76.59578	LNM 39/16, 5th Dist	640	12281_1	10/6/2016
12281	Relocate	Northwest Harbor Channel Lighted Buoy 2NH	R "2NH" Q R	N 39 15' 31.678"	W 076 34' 14.260"	39.2588	-76.57063	LNM 27/16, 5th Dist	640	12281_1	7/7/2016
12281	Relocate	Northwest Harbor Channel Lighted Buoy 3	G "3" Q G	N 39 15' 37.102"	W 076 34' 32.273"	39.26031	-76.57563	LNM 27/16, 5th Dist	640	12281_1	7/7/2016
12281	Relocate	Northwest Harbor Channel Lighted Buoy 5	G "5" Fl G 4s	N 39 15' 56.731"	W 076 34' 33.408"	39.26576	-76.57594	LNM 27/16, 5th Dist	640	12281_1	7/7/2016
12248	Change	Newport News Creek Light 2	Fl R 2.5s 15ft 4M "2"	N 36 57' 34.810"	W 076 24' 33.758"	36.95967	-76.40938	LNM 27/17, 5th Dist	585	12248_1	7/13/2017
12248	Change	James River Channel Light 5	Fl G 2.5s 15ft 5M "5"	N 37 02' 21.173"	W 076 32' 46.712"	37.03922	-76.54631	LNM 23/17, 5th Dist	585	12248_1	6/8/2017
12248	Change	James River Channel Light 10	Fl R 4s 15ft 5M "10"	N 37 03' 12.194"	W 076 34' 36.641"	37.05339	-76.57684	LNM 23/17, 5th Dist	585	12248_1	6/8/2017
12248	Change	James River Channel Light 15	Fl G 4s 15ft 5M "15"	N 37 04' 18.332"	W 076 36' 18.205"	37.07176	-76.60506	LNM 23/17, 5th Dist	585	12248_1	6/8/2017
12248	Change	Deep Creek Channel Junction Light DC	Fl (2+1) R 6s 15ft 5M "DC"	N 37 02' 39.065"	W 076 31' 58.585"	37.04419	-76.53294	LNM 23/17, 5th Dist	585	12248_1	6/8/2017
12248	Change	Tabulation - JAMES RIVER CHANNEL DEPTHS	Tabulation - JAMES RIVER CHANNEL DEPTHS	N 37 02' 10.000"	W 076 42' 00.000"	37.03611	-76.7	LNM 24/17, 5th Dist	585	12248_1	6/8/2017
12248	Change	Nansemond River Channel Light 12	Fl R 4s 15ft 4M "12"	N 36 52' 30.648"	W 076 30' 18.137"	36.87518	-76.50504	LNM 10/17, 5th Dist	586	12248_4	3/16/2017
12248	Change	Nansemond River Channel Light 28	Fl R 4s 15ft 4M "28"	N 36 49' 41.494"	W 076 33' 41.381"	36.82819	-76.56149	LNM 10/17, 5th Dist	586	12248_4	3/16/2017
12248	Relocate	Nansemond River Channel Light 12	Fl R 4s 15ft 4M "12"	N 36 52' 30.648"	W 076 30' 18.137"	36.87518	-76.50504	LNM 10/17, 5th Dist	586	12248_4	3/16/2017
12248	Change	James River Channel Light 2	Fl R 4s 15ft 5M "2"	N 37 01' 18.555"	W 076 30' 21.538"	37.02182	-76.50598	LNM 07/17, 5th Dist	585	12248_1	2/23/2017
12248	Change	James River Channel Light 3	Fl G 4s 15ft 5M "3"	N 37 01' 42.747"	W 076 31' 49.264"	37.02854	-76.53035	LNM 07/17, 5th Dist	585	12248_1	2/23/2017
12248	Relocate	Newport News Creek Lighted Buoy 4	R "4" Fl R 4s	N 36 57' 42.931"	W 076 24' 37.607"	36.96193	-76.41045	LNM 05/17, 5th Dist	585	12248_1	2/9/2017
12248	Change	James River Channel Light 16	Fl R 4s 15ft 5M "16"	N 37 04' 22.014"	W 076 36' 12.276"	37.07278	-76.60341	LNM 03/17, 5th Dist	585	12248_1	1/26/2017
12248	Change	Nansemond River Channel Light 16	Fl R 4s 15ft 4M "16"	N 36 51' 25.015"	W 076 31' 34.619"	36.85695	-76.52628	LNM 46/16, 5th Dist	586	12248_4	11/24/2016
12248	Change	Pagan River Channel Light 8	Fl R 4s 15ft 4M "8"	N 37 00' 42.888"	W 076 33' 53.232"	37.01191	-76.56479	LNM 46/16, 5th Dist	585	12248_1	11/24/2016
12248	Change	Pagan River Channel Light 12	Fl R 2.5s 15ft 4M "12"	N 37 00' 20.918"	W 076 34' 28.652"	37.00581	-76.57462	LNM 46/16, 5th Dist	585	12248_1	11/24/2016
12248	Change	Pagan River Channel Light 19	Fl G 2.5s 15ft 4M "19"	N 36 59' 33.119"	W 076 37' 24.809"	36.99253	-76.62356	LNM 46/16, 5th Dist	585	12248_1	11/24/2016
12248	Change	Deep Creek Channel Junction Light DC	Fl (2+1) R 6s 15ft 4M "DC"	N 37 02' 39.065"	W 076 31' 58.585"	37.04419	-76.53294	LNM 46/16, 5th Dist	585	12248_1	11/24/2016
12248	Change	Mulberry Island Entrance Light 1MI	Fl G 2.5s 15ft 4M "1MI"	N 37 08' 07.411"	W 076 38' 01.669"	37.13539	-76.6338	LNM 46/16, 5th Dist	585	12248_1	11/24/2016
12248	Change	Mulberry Island Light 13	Fl G 2.5s 15ft 4M "13"	N 37 08' 13.065"	W 076 37' 32.872"	37.13696	-76.6258	LNM 46/16, 5th Dist	585	12248_1	11/24/2016
12248	Change	Skiffes Creek Channel Light 6	Fl R 4s 15ft 4M "6"	N 37 09' 55.011"	W 076 36' 48.809"	37.16528	-76.61356	LNM 46/16, 5th Dist	585	12248_1	11/24/2016
12248	Change	Depth Legend - Bennett Creek to:	2 FT BY 60 FT JUL 2016	N 36 52' 57.000"	W 076 28' 54.000"	36.8825	-76.48167	LNM 47/16, 5th Dist	585	12248_1	11/24/2016
12248	Change	Tabulation - JAMES RIVER CHANNEL DEPTHS	Tabulation - JAMES RIVER CHANNEL DEPTHS	N 37 02' 10.000"	W 076 42' 00.000"	37.03611	-76.7	LNM 47/16, 5th Dist	585	12248_1	11/24/2016
12248	Change	Depth Legend - Tylers Beach to:	5 1/2 FT JAN 2016	N 37 04' 52.200"	W 076 39' 38.700"	37.08117	-76.66075	LNM 47/16, 5th Dist	585	12248_1	11/24/2016
12248	Change	Depth Note - DEEP CREEK to:	From the channel entrance to the harbor the controlling depth was 3 feet for a width of 100 feet narrowing to 60 feet at the mouth of the harbor, and 3 feet in the harbor. Dec 2013	N 37 04' 23.350"	W 076 30' 46.780"	37.07315	-76.51299	LNM 47/16, 5th Dist	585	12248_1	11/24/2016
12248	Delete	Jamestown Island Daybeacon 2	R "2"	N 37 12' 33.720"	W 076 42' 39.810"	37.20937	-76.71106	LNM 40/16, 5th Dist	585	12248_1	10/13/2016
12248	Delete	Warwick River Daybeacon 2	R "2"	N 37 04' 57.077"	W 076 32' 34.916"	37.08252	-76.54303	LNM 40/16, 5th Dist	585	12248_1	10/13/2016
12248	Change	Deep Water Shoals Light	Fl 6s 34ft 6M (delete BELL (Sep 15 to Jun 1) )	N 37 08' 55.968"	W 076 38' 12.476"	37.14888	-76.6368	LNM 14/16, 5th Dist	585	12248_1	4/14/2016
12248	Change	Tabulation - JAMES RIVER CHANNEL DEPTHS	Tabulation - JAMES RIVER CHANNEL DEPTHS	N 37 02' 10.000"	W 076 42' 00.000"	37.03611	-76.7	LNM 14/16, 5th Dist	585	12248_1	3/31/2016
12248	Change	Depth Legend - TYLERS BEACH CHANNEL to:	1/2 FT NOV 2015	N 37 04' 52.200"	W 076 39' 38.700"	37.08117	-76.66075	LNM 12/16, 5th Dist	585	12248_1	3/17/2016
12248	Relocate	James River Channel Lighted Buoy 46	R "46" Q R	N 37 11' 57.030"	W 076 43' 04.346"	37.19918	-76.71787	LNM 09/16, 5th Dist	585	12248_1	3/10/2016
12248	Add	Leeward Marina Channel Daybeacon 3	G "3" Priv	N 37 00' 42.500"	W 076 27' 20.300"	37.01181	-76.45564	LNM 45/15, 5th Dist	585	12248_1	11/19/2015
12248	Change	Tylers Beach Channel Daybeacon 1TB	G "1TB"	N 37 04' 46.425"	W 076 39' 17.773"	37.07956	-76.65494	LNM 43/15, 5th Dist	585	12248_1	10/29/2015
12248	Change	CSX Pier 15 Lights (2)	2 Fl Y 4s 23ft Priv	N 36 57' 39.140"	W 076 25' 04.810"	36.96087	-76.418	LNM 42/15, 5th Dist	585	12248_1	10/29/2015
12248	Change	CSX Pier 14 Lights (2)	2 Fl Y 4s 23ft Priv	N 36 57' 38.920"	W 076 25' 11.660"	36.96081	-76.41991	LNM 42/15, 5th Dist	585	12248_1	10/29/2015
12248	Change	Jones Creek Daybeacon 4	R "4"	N 36 59' 55.433"	W 076 34' 11.058"	36.99873	-76.56974	LNM 40/15, 5th Dist	585	12248_1	10/22/2015
12248	Relocate	James River Channel Buoy 10A	R N "10A"	N 37 03' 15.968"	W 076 35' 18.423"	37.05444	-76.58845	LNM 40/15, 5th Dist	585	12248_1	10/22/2015
12248	Relocate	CSX Pier 14 Lights (2)	2 Fl Y 2.5s 23ft Priv	N 36 57' 38.920"	W 076 25' 11.660"	36.96081	-76.41991	LNM 39/15, 5th Dist	585	12248_1	10/8/2015
12248	Relocate	CSX Pier 15 Lights (2)	2 Fl Y 2.5s 23ft Priv	N 36 57' 39.140"	W 076 25' 04.810"	36.96087	-76.418	LNM 39/15, 5th Dist	585	12248_1	10/8/2015
12248	Change	Tabulation - JAMES RIVER CHANNEL DEPTHS	Tabulation - JAMES RIVER CHANNEL DEPTHS	N 37 02' 10.000"	W 076 42' 00.000"	37.03611	-76.7	LNM 40/15, 5th Dist	585	12248_1	10/1/2015
12248	Add	James River Channel Lighted Buoy 27A	G "27A" Q G	N 37 10' 24.290"	W 076 37' 53.930"	37.17341	-76.63165	LNM 36/15, 5th Dist	585	12248_1	9/17/2015
12248	Add	James River Channel Lighted Buoy 29A	G "29A" Q G	N 37 11' 06.390"	W 076 38' 00.750"	37.18511	-76.63354	LNM 36/15, 5th Dist	585	12248_1	9/17/2015
12248	Relocate	James River Oyster Sanctuary Daybeacon AWS	W "AWS" Priv	N 37 03' 36.357"	W 076 35' 06.623"	37.0601	-76.58517	LNM 28/15, 5th Dist	585	12248_1	7/23/2015
12248	Relocate	Virginia Power West Tower Fender Lights (3)	3 Fl Y 4s 9ft Priv	N 37 00' 10.049"	W 076 28' 15.083"	37.00279	-76.47086	LNM 22/15, 5th Dist	585	12248_1	6/11/2015
12248	Change	Virginia Power West Tower Fender Lights (3)	3 Fl Y 4s 9ft Priv	N 37 00' 10.049"	W 076 28' 15.083"	37.00279	-76.47086	LNM 22/15, 5th Dist	585	12248_1	6/11/2015
12248	Relocate	Virginia Power East Tower Fender Lights (3)	3 Fl Y 4s 9ft Priv	N 37 00' 15.740"	W 076 28' 07.925"	37.00437	-76.46886	LNM 22/15, 5th Dist	585	12248_1	6/11/2015
12248	Change	Virginia Power East Tower Fender Lights (3)	3 Fl Y 4s 9ft Priv	N 37 00' 15.740"	W 076 28' 07.925"	37.00437	-76.46886	LNM 22/15, 5th Dist	585	12248_1	6/11/2015
12248	Change	James River Channel Light 24	Q R 19ft 5M "24"	N 37 07' 03.529"	W 076 38' 08.811"	37.11765	-76.63578	LNM 15/15, 5th Dist	585	12248_1	4/23/2015
12248	Change	James River Channel Light 36	Fl R 4s 15ft 5M "36"	N 37 12' 13.227"	W 076 38' 51.638"	37.20367	-76.64767	LNM 15/15, 5th Dist	585	12248_1	4/23/2015
12248	Change	James River Channel Light 40	Fl R 4s 15ft 5M "40"	N 37 12' 47.889"	W 076 39' 37.679"	37.2133	-76.66047	LNM 15/15, 5th Dist	585	12248_1	4/23/2015
12248	Relocate	James River Channel Buoy 21	G C "21"	N 37 06' 21.113"	W 076 37' 45.062"	37.10587	-76.62918	LNM 07/15, 5th Dist	585	12248_1	2/26/2015
12248	Change	Chuckatuck Creek Entrance Light 8	Fl R 4s 15ft 4M "8"	N 36 55' 20.153"	W 076 29' 41.414"	36.92226	-76.49483	LNM 06/15, 5th Dist	585	12248_1	2/19/2015
12248	Change	Depth Legend - Bennett Creek to:	5 1/2 FT BY 60 FT SEP 2013	N 36 52' 57.000"	W 076 28' 54.000"	36.8825	-76.48167	LNM 51/14, 5th Dist	585	12248_1	12/18/2014
12248	Change	Hog Island Cutoff Wreck Light WR7	Q G 15ft 4M "WR7"	N 37 12' 21.497"	W 076 41' 26.369"	37.20597	-76.69066	LNM 49/14, 5th Dist	585	12248_1	12/18/2014
12248	Delete	Virginia Power Instrument Tower Light A	Fl Y 4s 15ft "A" Priv Tower	N 37 09' 25.528"	W 076 37' 28.836"	37.15709	-76.62468	LNM 47/14, 5th Dist	585	12248_1	11/27/2014
12248	Delete	Virginia Power Instrument Tower Light C	Fl Y 4s 15ft "C" Priv Tower	N 37 12' 00.529"	W 076 41' 08.843"	37.20015	-76.68579	LNM 47/14, 5th Dist	585	12248_1	11/27/2014
12248	Delete	Virginia Power Instrument Tower Light D	Fl Y 4s 15ft "D" Priv Tower	N 37 12' 20.530"	W 076 43' 13.847"	37.2057	-76.72051	LNM 47/14, 5th Dist	585	12248_1	11/27/2014
12248	Delete	Virginia Power Instrument Tower Light F	Fl Y 4s 15ft "F" Priv Tower	N 37 10' 45.530"	W 076 42' 26.845"	37.17931	-76.70746	LNM 47/14, 5th Dist	585	12248_1	11/27/2014
12248	Change	Tabulation - James River Channel Depths	Tabulation - James River Channel Depths	N 37 02' 10.000"	W 076 42' 00.000"	37.03611	-76.7	LNM 44/14, 5th Dist	585	12248_1	10/30/2014
12248	Relocate	James River Channel Lighted Buoy 45	G "45" Fl G 4s	N 37 11' 51.830"	W 076 43' 00.146"	37.19773	-76.71671	LNM 33/14, 5th Dist	585	12248_1	8/21/2014
12248	Relocate	Hog Island Cutoff Daybeacon 7	G "7"	N 37 12' 21.497"	W 076 41' 26.369"	37.20597	-76.69066	LNM 29/14, 5th Dist	585	12248_1	7/31/2014
12248	Change	Bennett Creek Buoy 5	G C "5"	N 36 52' 41.550"	W 076 28' 56.400"	36.87821	-76.48233	LNM 21/14, 5th Dist	585	12248_1	6/5/2014
12300	Change	BLOCK ISLAND BKW LIGHT 3	Q G 27ft 6M "3" HORN (MRASS)	N 41 10' 38.492"	W 071 33' 14.538"	41.17736	-71.55404	LNM 24/17, 1st Dist	666	12300_1	6/22/2017
12300	Delete	SAKONNET RIVER ENTRANCE LTD BUOY SR	RW "SR" Mo (A) WHIS	N 41 25' 45.374"	W 071 13' 23.166"	41.42927	-71.2231	LNM 20/17, 1st Dist	666	12300_1	5/25/2017
12300	Add	CARIBBEAN WIND LTD RESEARCH BUOY BW1	Y "BW1" Fl Y 4s Priv	N 40 55' 03.270"	W 070 55' 55.150"	40.91758	-70.93198	LNM 15/17, 1st Dist	666	12300_1	4/20/2017
12300	Add	CARIBBEAN WIND LTD RESEARCH BUOY BW2	Y "BW2" Fl Y 4s Priv	N 41 07' 05.170"	W 070 39' 34.500"	41.1181	-70.65958	LNM 15/17, 1st Dist	666	12300_1	4/20/2017
12300	Add	CARIBBEAN WIND LTD RESEARCH BUOY BW3	Y "BW3" Fl Y 10s Priv	N 41 07' 05.170"	W 070 34' 24.500"	41.1181	-70.57347	LNM 15/17, 1st Dist	666	12300_1	4/20/2017
12300	Add	Obstruction	Unexploded ordnance (reported 2017)	N 39 45' 01.200"	W 073 23' 29.400"	39.75033	-73.3915	LNM 13/17, 1st Dist	666	12300_1	3/30/2017
12300	Add	Submarine Cable  PT 1 OF 10	Chart No. 1: L30.1	N 41 06' 24.650"	W 071 32' 15.390"	41.10685	-71.53761	LNM 05/17, 1st Dist	666	12300_1	1/26/2017
12300	Add	Submarine Cable  PT 2 OF 10	Chart No. 1: L30.1	N 41 06' 36.540"	W 071 31' 45.140"	41.11015	-71.52921	LNM 05/17, 1st Dist	666	12300_1	1/26/2017
12300	Add	Submarine Cable  PT 3 OF 10	Chart No. 1: L30.1	N 41 06' 53.080"	W 071 31' 16.690"	41.11475	-71.5213	LNM 05/17, 1st Dist	666	12300_1	1/26/2017
12300	Add	Submarine Cable  PT 4 OF 10	Chart No. 1: L30.1	N 41 07' 13.870"	W 071 30' 50.510"	41.12052	-71.51403	LNM 05/17, 1st Dist	666	12300_1	1/26/2017
12300	Add	Submarine Cable  PT 5 OF 10	Chart No. 1: L30.1	N 41 07' 32.890"	W 071 30' 28.140"	41.1258	-71.50782	LNM 05/17, 1st Dist	666	12300_1	1/26/2017
12300	Add	Submarine Cable  PT 6 OF 10	Chart No. 1: L30.1	N 41 07' 55.160"	W 071 30' 08.250"	41.13199	-71.50229	LNM 05/17, 1st Dist	666	12300_1	1/26/2017
12300	Add	Submarine Cable  PT 7 OF 10	Chart No. 1: L30.1	N 41 10' 02.120"	W 071 30' 58.090"	41.16726	-71.51614	LNM 05/17, 1st Dist	666	12300_1	1/26/2017
12300	Add	Submarine Cable  PT 8 OF 10	Chart No. 1: L30.1	N 41 10' 33.920"	W 071 31' 34.700"	41.17609	-71.52631	LNM 05/17, 1st Dist	666	12300_1	1/26/2017
12300	Add	Submarine Cable  PT 9 OF 10	Chart No. 1: L30.1	N 41 11' 13.150"	W 071 33' 05.460"	41.18699	-71.55151	LNM 05/17, 1st Dist	666	12300_1	1/26/2017
12300	Add	Submarine Cable  PT 10 OF 10	Chart No. 1: L30.1	N 41 11' 01.230"	W 071 33' 55.050"	41.18367	-71.56529	LNM 05/17, 1st Dist	666	12300_1	1/26/2017
12300	Add	Rock in Fathoms (Within Corresponding Depth Area)	4 3/4 Rk     	N 41 19' 30.700"	W 070 43' 54.400"	41.3252	-70.73178	LNM 02/17, 1st Dist	666	12300_1	1/5/2017
12300	Delete	WHOI LTD BUOY V	Y "V" Fl Y 4s Priv	N 41 15' 36.000"	W 071 02' 17.000"	41.26	-71.03806	LNM 49/16, 1st Dist	666	12300_1	12/15/2016
12300	Delete	WHOI LTD BUOY W	Y "W" Fl Y 4s Priv	N 41 15' 39.000"	W 071 01' 43.000"	41.26083	-71.02861	LNM 49/16, 1st Dist	666	12300_1	12/15/2016
12300	Delete	WHOI LTD BUOY X	Y "X" Fl Y 4s Priv	N 41 15' 56.000"	W 071 01' 54.000"	41.26556	-71.03167	LNM 49/16, 1st Dist	666	12300_1	12/15/2016
12300	Delete	WHOI LTD BUOY Z	Y "Z" Fl Y 4s Priv	N 41 15' 57.000"	W 071 01' 54.000"	41.26583	-71.03167	LNM 49/16, 1st Dist	666	12300_1	12/15/2016
12300	Delete	SHREWSBURY ROCKS LTD BUOY 1	G "1" Fl G 2s	N 40 20' 27.896"	W 073 55' 34.489"	40.34108	-73.92625	LNM 46/16, 1st Dist	666	12300_1	11/24/2016
12300	Relocate	Absecon Inlet Lighted Buoy 1	G "1" Fl G 4s	N 39 20' 47.393"	W 074 24' 01.337"	39.3465	-74.40037	LNM 20/16, 5th Dist	666	12300_1	5/26/2016
12300	Delete	USGS RESEARCH LTD BUOY W	Y "W" Fl Y 4s Priv	N 40 35' 04.210"	W 073 06' 24.220"	40.5845	-73.10673	LNM 08/16, 1st Dist	666	12300_1	3/3/2016
12300	Delete	Superbuoy DART 44402	Y "44402" Fl (4) Y 20s (DART) PA	N 39 23' 54.000"	W 070 56' 30.000"	39.39833	-70.94167	WNM 05/16, NGA	666	12300_1	1/28/2016
12300	Add	Superbuoy DART 44402	Y "44402" Fl (4) Y 20s (DART) PA	N 39 17' 54.000"	W 070 39' 36.000"	39.29833	-70.66	WNM 05/16, NGA	666	12300_1	1/28/2016
12300	Change	BLOCK ISLAND WIND FARM WTG-1	Q Y "WTG-1" Priv	N 41 07' 32.740"	W 071 30' 27.040"	41.12576	-71.50751	LNM 49/15, 1st Dist	666	12300_1	12/17/2015
12300	Relocate	BLOCK ISLAND WIND FARM WTG-1	Q Y "WTG-1" Priv	N 41 07' 32.740"	W 071 30' 27.040"	41.12576	-71.50751	LNM 49/15, 1st Dist	666	12300_1	12/17/2015
12300	Change	BLOCK ISLAND WIND FARM WTG-2	Q Y "WTG-2" Priv	N 41 07' 11.570"	W 071 30' 50.220"	41.11988	-71.51395	LNM 49/15, 1st Dist	666	12300_1	12/17/2015
12300	Relocate	BLOCK ISLAND WIND FARM WTG-2	Q Y "WTG-2" Priv	N 41 07' 11.570"	W 071 30' 50.220"	41.11988	-71.51395	LNM 49/15, 1st Dist	666	12300_1	12/17/2015
12300	Change	BLOCK ISLAND WIND FARM WTG-3	Q Y "WTG-3" HORN (MRASS) Priv	N 41 06' 52.960"	W 071 31' 16.180"	41.11471	-71.52116	LNM 49/15, 1st Dist	666	12300_1	12/17/2015
12300	Relocate	BLOCK ISLAND WIND FARM WTG-3	Q Y "WTG-3" HORN (MRASS) Priv	N 41 06' 52.960"	W 071 31' 16.180"	41.11471	-71.52116	LNM 49/15, 1st Dist	666	12300_1	12/17/2015
12300	Change	BLOCK ISLAND WIND FARM WTG-4	Q Y "WTG-4" Priv	N 41 06' 36.540"	W 071 31' 44.620"	41.11015	-71.52906	LNM 49/15, 1st Dist	666	12300_1	12/17/2015
12300	Relocate	BLOCK ISLAND WIND FARM WTG-4	Q Y "WTG-4" Priv	N 41 06' 36.540"	W 071 31' 44.620"	41.11015	-71.52906	LNM 49/15, 1st Dist	666	12300_1	12/17/2015
12300	Change	BLOCK ISLAND WIND FARM WTG-5	Q Y "WTG-5" Priv	N 41 06' 22.790"	W 071 32' 15.500"	41.10633	-71.53764	LNM 49/15, 1st Dist	666	12300_1	12/17/2015
12300	Relocate	BLOCK ISLAND WIND FARM WTG-5	Q Y "WTG-5" Priv	N 41 06' 22.790"	W 071 32' 15.500"	41.10633	-71.53764	LNM 49/15, 1st Dist	666	12300_1	12/17/2015
12300	Relocate	NOAA Lighted Data Buoy 44066 (ODAS)	Y ODAS "44066" Fl (4) Y 20s PA	N 39 34' 05.000"	W 072 35' 06.000"	39.56805	-72.585	LNM 47/15, 5th Dist	666	12300_1	12/3/2015
12300	Relocate	GAY HEAD LIGHT	Al WR 15s 175ft 20M	N 41 20' 54.420"	W 070 50' 03.676"	41.34845	-70.83436	LNM 46/15, 1st Dist	666	12300_1	11/26/2015
12300	Delete	Garden State Offshore Energy Lighted Data Buoy GS	Y "GS" Fl Y 2s RACON G (--.) Priv	N 39 04' 36.000"	W 074 18' 36.000"	39.07667	-74.31	LNM 43/15, 5th Dist	666	12300_1	10/29/2015
12300	Relocate	MORICHES INLET APPROACH LTD WHISTLE BUOY M	RW "M" Mo (A) WHIS AIS	N 40 44' 07.858"	W 072 45' 11.860"	40.73552	-72.7533	LNM 41/15, 1st Dist	666	12300_1	10/22/2015
12300	Change	MORICHES INLET APPROACH LTD WHISTLE BUOY M	RW "M" Mo (A) WHIS AIS	N 40 44' 07.858"	W 072 45' 11.860"	40.73552	-72.7533	LNM 41/15, 1st Dist	666	12300_1	10/22/2015
12300	Change	NARRAGANSETT BAY ENT LTD WHISTLE BUOY NB	RW "NB" Mo (A) WHIS RACON (-...) AIS	N 41 23' 00.000"	W 071 23' 21.470"	41.38334	-71.3893	LNM 41/15, 1st Dist	666	12300_1	10/22/2015
12300	Change	SHINNECOCK INLET APPROACH LTD WHISTLE BUOY SH	RW "SH" Mo (A) WHIS  AIS	N 40 49' 00.161"	W 072 28' 34.519"	40.81671	-72.47626	LNM 41/15, 1st Dist	666	12300_1	10/22/2015
12300	Add	wind turbine	None	N 41 06' 36.720"	W 071 31' 44.820"	41.1102	-71.52911	LNM 41/15, 1st Dist	666	12300_1	10/8/2015
12300	Add	wind turbine	None	N 41 06' 53.160"	W 071 31' 16.080"	41.11477	-71.52113	LNM 41/15, 1st Dist	666	12300_1	10/8/2015
12300	Add	wind turbine	None	N 41 07' 11.760"	W 071 30' 50.220"	41.11993	-71.51395	LNM 41/15, 1st Dist	666	12300_1	10/8/2015
12300	Add	wind turbine	None	N 41 07' 32.640"	W 071 30' 27.240"	41.12573	-71.50757	LNM 41/15, 1st Dist	666	12300_1	10/8/2015
12300	Add	wind turbine	None	N 41 06' 22.980"	W 071 32' 15.540"	41.10638	-71.53765	LNM 41/15, 1st Dist	666	12300_1	10/8/2015
12300	Add	Sounding in Fathoms 	6	N 41 13' 02.300"	W 070 51' 27.400"	41.2173	-70.85761	LNM 40/15, 1st Dist	666	12300_1	10/1/2015
12300	Add	Sounding in Fathoms 	6	N 41 19' 23.100"	W 070 42' 28.200"	41.32308	-70.70783	LNM 40/15, 1st Dist	666	12300_1	10/1/2015
12300	Add	Sounding in Fathoms 	7	N 41 15' 32.600"	W 070 51' 44.400"	41.25906	-70.86234	LNM 40/15, 1st Dist	666	12300_1	10/1/2015
12300	Delete	Sounding in Fathoms 	8	N 41 12' 54.400"	W 070 51' 46.400"	41.21511	-70.86289	LNM 40/15, 1st Dist	666	12300_1	10/1/2015
12300	Delete	Sounding in Fathoms and Fractions	8 1/4	N 41 19' 41.000"	W 070 42' 25.000"	41.32806	-70.70695	LNM 40/15, 1st Dist	666	12300_1	10/1/2015
12300	Change	GAY HEAD LIGHT	Al WR 15s 175ft 20M	N 41 20' 53.993"	W 070 50' 04.240"	41.34833	-70.83451	LNM 37/15, 1st Dist	666	12300_1	9/24/2015
12300	Delete	Natural shoreline PT 1 OF 4	None	N 40 43' 08.690"	W 072 54' 18.490"	40.71908	-72.90514	LNM 38/15, 1st Dist	666	12300_1	9/17/2015
12300	Delete	Natural shoreline PT 2 OF 4	None	N 40 43' 24.630"	W 072 53' 24.890"	40.72351	-72.89024	LNM 38/15, 1st Dist	666	12300_1	9/17/2015
12300	Delete	Natural shoreline PT 3 OF 4	None	N 40 43' 30.580"	W 072 53' 56.160"	40.72516	-72.89893	LNM 38/15, 1st Dist	666	12300_1	9/17/2015
12300	Delete	Natural shoreline PT 4 OF 4	None	N 40 43' 35.890"	W 072 53' 46.390"	40.72663	-72.89622	LNM 38/15, 1st Dist	666	12300_1	9/17/2015
12300	Add	Natural shoreline PT 1 OF 4	None	N 40 43' 08.690"	W 072 54' 18.490"	40.71908	-72.90514	LNM 38/15, 1st Dist	666	12300_1	9/17/2015
12300	Add	Natural shoreline PT 2 OF 4	None	N 40 43' 30.580"	W 072 53' 56.160"	40.72516	-72.89893	LNM 38/15, 1st Dist	666	12300_1	9/17/2015
12300	Add	Natural shoreline PT 3 OF 4	None	N 40 43' 24.630"	W 072 53' 24.890"	40.72351	-72.89024	LNM 38/15, 1st Dist	666	12300_1	9/17/2015
12300	Add	Natural shoreline PT 4 OF 4	None	N 40 43' 35.890"	W 072 53' 46.390"	40.72663	-72.89622	LNM 38/15, 1st Dist	666	12300_1	9/17/2015
12300	Relocate	GAY HEAD LIGHT	Al WR 15s 170ft 20M	N 41 20' 53.993"	W 070 50' 04.240"	41.34833	-70.83451	LNM 32/15, 1st Dist	666	12300_1	8/27/2015
12300	Relocate	WHOI LTD RESEARCH BUOY ISSP	Y "ISSP" Fl Y 4s Priv	N 40 21' 51.720"	W 070 53' 17.280"	40.36437	-70.88813	LNM 31/15, 1st Dist	666	12300_1	8/13/2015
12300	Add	WHOI LTD RESEARCH BUOY CNSP	Y "CNSP" Fl Y 4s Priv	N 40 08' 02.700"	W 070 46' 12.480"	40.13408	-70.77013	LNM 31/15, 1st Dist	666	12300_1	8/13/2015
12300	Add	USGS Research Lighted Buoy W	Y "W" FI Y 4s Priv	N 40 35' 04.210"	W 073 06' 24.220"	40.5845	-73.10673	LNM 29/15, 1st Dist	666	12300_1	8/6/2015
12300	Relocate	Little Egg Inlet Outer Lighted Whistle Buoy LE	RW "LE" Mo (A) WHIS	N 39 28' 12.390"	W 074 16' 08.941"	39.47011	-74.26915	LNM 30/15, 5th Dist	666	12300_1	8/6/2015
12300	Delete	NEW YORK BIGHT DUMPING GROUND LTD BUOY 3	G "3" Fl G 4s	N 40 22' 56.783"	W 073 49' 49.396"	40.38244	-73.83039	LNM 23/15, 1st Dist	666	12300_1	6/25/2015
12300	Change	FISHING GROUNDS OBSTRUCTION LB 5	G "5" Fl G 4s	N 40 25' 41.494"	W 073 50' 53.151"	40.42819	-73.8481	LNM 23/15, 1st Dist	666	12300_1	6/25/2015
12300	Change	SOUTHWEST LEDGE LTD WHISTLE BUOY 2	R "2" Fl R 2.5s WHIS	N 41 06' 22.649"	W 071 40' 14.042"	41.10629	-71.67057	LNM 22/15, 1st Dist	666	12300_1	6/18/2015
12300	Relocate	WHOI LTD RESEARCH BUOY ISSP	Y "ISSP" Fl Y 4s Priv	N 40 21' 52.560"	W 070 53' 19.380"	40.3646	-70.88872	LNM 21/15, 1st Dist	666	12300_1	6/4/2015
12300	Relocate	WHOI LTD RESEARCH BUOY OSSM	Y "OSSM" Fl Y 4s Priv	N 39 56' 26.280"	W 070 52' 42.780"	39.94063	-70.87855	LNM 21/15, 1st Dist	666	12300_1	6/4/2015
12300	Relocate	WHOI LTD RESEARCH BUOY ISSM	Y "ISSM" Fl Y 4s Priv	N 40 21' 33.780"	W 070 53' 07.080"	40.35938	-70.8853	LNM 21/15, 1st Dist	666	12300_1	6/4/2015
12300	Add	WHOI LTD RESEARCH BUOY CNSM	Y "CNSM" Fl Y 4s Priv	N 40 08' 24.780"	W 070 46' 16.620"	40.14022	-70.77129	LNM 21/15, 1st Dist	666	12300_1	6/4/2015
12300	Add	WHOI LTD RESEARCH BUOY OSPM	Y "OSPM" Fl Y 4s Priv	N 39 56' 34.920"	W 070 53' 07.320"	39.94304	-70.88537	LNM 21/15, 1st Dist	666	12300_1	6/4/2015
12300	Add	WHOI LTD RESEARCH BUOY PMCI	Y "PMCI" Fl Y 4s Priv	N 40 13' 36.120"	W 070 53' 19.740"	40.2267	-70.88882	LNM 21/15, 1st Dist	666	12300_1	6/4/2015
12300	Add	WHOI LTD RESEARCH BUOY PMCO	Y "PMCO" Fl Y 4s Priv	N 40 05' 48.060"	W 070 52' 45.840"	40.09668	-70.8794	LNM 21/15, 1st Dist	666	12300_1	6/4/2015
12300	Add	WHOI LTD RESEARCH BUOY PMUI	Y "PMUI" Fl Y 4s Priv	N 40 21' 55.500"	W 070 46' 59.460"	40.36542	-70.78318	LNM 21/15, 1st Dist	666	12300_1	6/4/2015
12300	Add	WHOI LTD RESEARCH BUOY PMUO	Y "PMUO" Fl Y 4s Priv	N 39 56' 29.820"	W 070 46' 51.060"	39.94162	-70.78085	LNM 21/15, 1st Dist	666	12300_1	6/4/2015
12300	Change	Manasquan Inlet Light 3	Fl G 6s 35ft 8M "3" HORN (MRASS)	N 40 06' 01.374"	W 074 01' 54.240"	40.10038	-74.03173	LNM 17/15, 5th Dist	666	12300_1	5/7/2015
12300	Relocate	Manasquan Inlet Light 3	Fl G 6s 35ft 8M "3" HORN (MRASS)	N 40 06' 01.374"	W 074 01' 54.240"	40.10038	-74.03173	LNM 17/15, 5th Dist	666	12300_1	5/7/2015
12300	Add	Precautionary Area PT 1 OF 2	None	N 41 29' 09.150"	W 071 23' 09.670"	41.48587	-71.38602	LNM 18/15, 1st Dist	666	12300_1	4/30/2015
12300	Add	Precautionary Area PT 2 OF 2	None	N 41 29' 07.750"	W 071 22' 44.640"	41.48549	-71.37907	LNM 18/15, 1st Dist	666	12300_1	4/30/2015
12300	Add	Precautionary Area PT 1 OF 3	None	N 41 28' 53.010"	W 071 21' 30.190"	41.48139	-71.35838	LNM 18/15, 1st Dist	666	12300_1	4/30/2015
12300	Add	Precautionary Area PT 2 OF 3	None	N 41 28' 44.110"	W 071 21' 05.050"	41.47892	-71.3514	LNM 18/15, 1st Dist	666	12300_1	4/30/2015
12300	Add	Precautionary Area PT 3 OF 3	None	N 41 28' 32.570"	W 071 20' 39.050"	41.47572	-71.34418	LNM 18/15, 1st Dist	666	12300_1	4/30/2015
12300	Add	Precautionary Area PT 1 OF 3	None	N 41 24' 10.460"	W 071 27' 37.450"	41.4029	-71.4604	LNM 18/15, 1st Dist	666	12300_1	4/30/2015
12300	Add	Precautionary Area PT 2 OF 3	None	N 41 23' 19.670"	W 071 26' 56.630"	41.3888	-71.44907	LNM 18/15, 1st Dist	666	12300_1	4/30/2015
12300	Add	Precautionary Area PT 3 OF 3	None	N 41 22' 42.300"	W 071 26' 02.470"	41.37842	-71.43402	LNM 18/15, 1st Dist	666	12300_1	4/30/2015
12300	Add	Precautionary Area PT 1 OF 3	None	N 41 28' 53.530"	W 071 25' 04.760"	41.48154	-71.41799	LNM 18/15, 1st Dist	666	12300_1	4/30/2015
12300	Add	Precautionary Area PT 2 OF 3	None	N 41 29' 01.890"	W 071 24' 30.740"	41.48386	-71.40854	LNM 18/15, 1st Dist	666	12300_1	4/30/2015
12300	Add	Precautionary Area PT 3 OF 3	None	N 41 29' 07.680"	W 071 23' 51.930"	41.48547	-71.39776	LNM 18/15, 1st Dist	666	12300_1	4/30/2015
12300	Delete	Obstruction in Fathoms with Basket	10 Obstn       Chart No. 1: K42	N 38 49' 10.020"	W 074 31' 15.850"	38.81945	-74.52107	LNM 17/15, 5th Dist	666	12300_1	4/30/2015
12300	Add	WHOI RESEARCH LTD BUOY DMON	Y "DMON" Fl Y 4s Priv	N 41 08' 49.000"	W 070 56' 41.000"	41.14695	-70.94473	LNM 13/15, 1st Dist	666	12300_1	4/9/2015
12300	Add	BLOCK ISLAND BKW LIGHT 3	F G 27ft 11M "3" HORN (MRASS)	N 41 10' 38.492"	W 071 33' 14.538"	41.17736	-71.55404	LNM 10/15, 1st Dist	666	12300_1	4/2/2015
12300	Change	CASTLE HILL LIGHT	Iso R 6s 40ft 12M HORN (MRASS)	N 41 27' 43.800"	W 071 21' 46.500"	41.46217	-71.36292	LNM 10/15, 1st Dist	666	12300_1	4/2/2015
12300	Add	MRASS NOTE	 CELL RASS01	N 41 24' 30.000"	W 071 39' 35.000"	41.40833	-71.65972	LNM 08/15, 1st Dist	666	12300_1	3/5/2015
12300	Change	BUZZARDS BAY ENTRANCE LIGHT	Fl 2.5s 67ft 14M HORN RACON (-...) (MRASS)	N 41 23' 49.118"	W 071 02' 04.866"	41.39698	-71.03468	LNM 05/15, 1st Dist	666	12300_1	2/12/2015
12300	Change	AMBROSE CHANNEL LTD WHISTLE BUOY A	RW "A" Mo (A) WHIS RACON (-.) AIS	N 40 27' 27.991"	W 073 50' 12.228"	40.45778	-73.83673	LNM 50/14, 1st Dist	666	12300_1	1/8/2015
12300	Add	WHOI LTD RESEARCH BUOY ISSP	Y "ISSP" Fl Y 4s Priv	N 40 21' 53.160"	W 070 53' 17.880"	40.36477	-70.8883	LNM 50/14, 1st Dist	666	12300_1	1/8/2015
12300	Add	WHOI LTD RESEARCH BUOY OSSM	Y "OSSM" Fl Y 4s Priv	N 39 56' 09.480"	W 070 52' 43.320"	39.93597	-70.8787	LNM 50/14, 1st Dist	666	12300_1	1/8/2015
12300	Add	WHOI LTD RESEARCH BUOY ISSM	Y "ISSM" Fl Y 4s Priv	N 40 21' 42.840"	W 070 52' 40.920"	40.3619	-70.87804	LNM 50/14, 1st Dist	666	12300_1	1/8/2015
12300	Relocate	GAY HEAD LTD GONG BUOY 31	G "31" Fl G 4s GONG	N 41 21' 49.397"	W 070 51' 47.615"	41.36372	-70.86323	LNM 41/14, 1st Dist	666	12300_1	10/23/2014
12300	Relocate	Five Fathom Bank Northeast Lighted Bell Buoy 2FB	R "2FB" Fl R 4s BELL	N 38 58' 12.411"	W 074 31' 34.554"	38.97012	-74.52627	LNM 40/14, 5th Dist	666	12300_1	10/9/2014
12300	Add	Jones Inlet Light	Fl 2.5s 33ft 4M	N 40 34' 23.568"	W 073 34' 32.364"	40.57321	-73.57565	LNM 36/14, 1st Dist	666	12300_1	9/18/2014
12300	Delete	Obstruction with Sounding in Fathoms 	12 Obstn	N 39 13' 13.920"	W 074 17' 16.230"	39.22053	-74.28784	LNM 37/14, 5th Dist	666	12300_1	9/11/2014
12300	Add	Wreck with Sounding in Fathoms 	12 Wk	N 39 13' 13.920"	W 074 17' 16.230"	39.22053	-74.28784	LNM 37/14, 5th Dist	666	12300_1	9/11/2014
12300	Delete	Jones Inlet Light	Fl 2.5s 33ft 4M	N 40 34' 23.568"	W 073 34' 32.364"	40.57321	-73.57565	LNM 35/14, 1st Dist	666	12300_1	9/11/2014
12300	Change	Buzzards Bay Entrance Light	Fl 2.5s 67ft 14M HORN RACON (-...)	N 41 23' 49.118"	W 071 02' 04.866"	41.39698	-71.03468	LNM 32/14, 1st Dist	666	12300_1	9/4/2014
12300	Change	JONES INLET LIGHT	Fl 2.5s 33ft 4M	N 40 34' 23.568"	W 073 34' 32.364"	40.57321	-73.57565	LNM 31/14, 1st Dist	666	12300_1	8/28/2014
12300	Delete	Narragansett-Buzzards Bay Approach Lighted Whistle Buoy A Racon	RACON (- .)	N 41 06' 00.383"	W 071 23' 22.171"	41.10011	-71.38949	LNM 14/14, 1st Dist	666	12300_1	4/17/2014
12300	Delete	Narragansett-Buzzards Bay Approach Lighted Whistle Buoy A	RW "A" Mo (A) WHIS	N 41 06' 00.383"	W 071 23' 22.171"	41.10011	-71.38949	LNM 14/14, 1st Dist	666	12300_1	4/17/2014
12300	Delete	Non Dangerous Wreck	PA   (Chart No. 1: K29)	N 40 24' 16.000"	W 070 27' 12.000"	40.40445	-70.45333	LNM 08/14, 1st Dist	666	12300_1	3/6/2014
12300	Add	Non Dangerous Wreck	PA   (Chart No. 1: K29)	N 40 24' 16.000"	W 070 27' 12.000"	40.40445	-70.45333	LNM 07/14, 1st Dist	666	12300_1	2/27/2014
12300	Add	Obstruction in Fathoms	9 Obstn       Chart No. 1: K41	N 40 22' 04.429"	W 073 54' 45.230"	40.3679	-73.91257	LNM 07/14, 1st Dist	666	12300_1	2/13/2014
12300	Add	Obstruction in Fathoms	9 Obstn       Chart No. 1: K41	N 40 21' 40.075"	W 073 55' 17.990"	40.36113	-73.92166	LNM 07/14, 1st Dist	666	12300_1	2/13/2014
12300	Delete	Block Island Breakwater Light 3	F G 27ft 11M "3" HORN	N 41 10' 38.492"	W 071 33' 14.538"	41.17736	-71.55404	LNM 05/14, 1st Dist	666	12300_1	2/13/2014
12300	Add	Sounding in Fathoms and Fractions	8 3/4	N 40 23' 36.500"	W 073 53' 26.000"	40.39347	-73.89056	LNM 04/14, 1st Dist	666	12300_1	1/30/2014
12300	Add	Sounding in Fathoms and Fractions	8 3/4	N 40 22' 57.200"	W 073 53' 24.700"	40.38256	-73.8902	LNM 04/14, 1st Dist	666	12300_1	1/30/2014
12300	Add	Sounding in Fathoms and Fractions	9 3/4	N 40 24' 31.400"	W 073 53' 19.000"	40.40872	-73.88861	LNM 04/14, 1st Dist	666	12300_1	1/30/2014
12300	Delete	Obstruction in Fathoms	11 Obstn       Chart No. 1: K41	N 40 23' 38.500"	W 073 53' 37.700"	40.39403	-73.89381	LNM 04/14, 1st Dist	666	12300_1	1/30/2014
12300	Delete	Sounding in Fathoms 	11	N 40 24' 11.300"	W 073 52' 41.900"	40.40314	-73.8783	LNM 04/14, 1st Dist	666	12300_1	1/30/2014
12300	Add	Sounding in Fathoms and Fractions	10 1/2	N 40 22' 42.100"	W 073 52' 44.000"	40.37836	-73.87889	LNM 04/14, 1st Dist	666	12300_1	1/30/2014
12300	Delete	Sounding in Fathoms	13	N 40 22' 40.100"	W 073 52' 51.800"	40.3778	-73.88106	LNM 04/14, 1st Dist	666	12300_1	1/30/2014
12300	Change	Avalon Shoal Lighted Buoy 2	R "2" Fl R 6s	N 39 05' 23.412"	W 074 33' 56.559"	39.08984	-74.56571	LNM 51/13, 5th Dist	666	12300_1	12/23/2013
12300	Relocate	Fishermans Energy Research Lighted Data Buoy B	Y "B" Fl Y 2.5s Priv	N 39 10' 08.160"	W 074 23' 57.780"	39.16893	-74.39938	LNM 23/13, 5th Dist	666	12300_1	6/10/2013
12300	Add	Submarine Cable  PT 1 OF 6	Chart No. 1: L30.1	N 39 30' 44.210"	W 074 06' 03.480"	39.51228	-74.10097	LNM 24/13, 5th Dist	666	12300_1	6/7/2013
12300	Add	Submarine Cable  PT 2 OF 6	Chart No. 1: L30.1	N 39 27' 07.080"	W 073 53' 10.660"	39.45197	-73.88629	LNM 24/13, 5th Dist	666	12300_1	6/7/2013
12300	Add	Submarine Cable  PT 3 OF 6	Chart No. 1: L30.1	N 39 18' 41.820"	W 073 46' 55.560"	39.31161	-73.7821	LNM 24/13, 5th Dist	666	12300_1	6/7/2013
12300	Add	Submarine Cable  PT 4 OF 6	Chart No. 1: L30.1	N 39 16' 26.960"	W 073 46' 15.650"	39.27415	-73.77101	LNM 24/13, 5th Dist	666	12300_1	6/7/2013
12300	Add	Submarine Cable  PT 5 OF 6	Chart No. 1: L30.1	N 38 57' 04.740"	W 073 35' 55.460"	38.95132	-73.59874	LNM 24/13, 5th Dist	666	12300_1	6/7/2013
12300	Add	Submarine Cable  PT 6 OF 6	Chart No. 1: L30.1	N 38 46' 05.240"	W 073 26' 59.650"	38.76812	-73.44991	LNM 24/13, 5th Dist	666	12300_1	6/7/2013
12300	Add	Fishermans Energy Research Lighted Data Buoy B	Y "B" Fl Y 2.5s Priv	N 39 10' 07.730"	W 074 23' 58.610"	39.16882	-74.39961	LNM 22/13, 5th Dist	666	12300_1	5/30/2013
12300	Add	Submarine Cable  PT 1 OF 6	Chart No. 1: L30.1	N 39 30' 44.210"	W 074 06' 03.480"	39.51228	-74.10097	LNM 21/13, 1st Dist	666	12300_1	5/15/2013
12300	Add	Submarine Cable  PT 2 OF 6	Chart No. 1: L30.1	N 39 27' 07.080"	W 073 53' 10.660"	39.45197	-73.88629	LNM 21/13, 1st Dist	666	12300_1	5/15/2013
12300	Add	Submarine Cable  PT 3 OF 6	Chart No. 1: L30.1	N 39 18' 41.820"	W 073 46' 55.560"	39.31161	-73.7821	LNM 21/13, 1st Dist	666	12300_1	5/15/2013
12300	Add	Submarine Cable  PT 4 OF 6	Chart No. 1: L30.1	N 39 16' 26.960"	W 073 46' 15.650"	39.27415	-73.77101	LNM 21/13, 1st Dist	666	12300_1	5/15/2013
12300	Add	Submarine Cable  PT 5 OF 6	Chart No. 1: L30.1	N 38 57' 04.740"	W 073 35' 55.460"	38.95132	-73.59874	LNM 21/13, 1st Dist	666	12300_1	5/15/2013
12300	Add	Submarine Cable  PT 6 OF 6	Chart No. 1: L30.1	N 38 46' 05.240"	W 073 26' 59.650"	38.76812	-73.44991	LNM 21/13, 1st Dist	666	12300_1	5/15/2013
12300	Relocate	Gay Head Light	Al WR 15s 170ft 20M	N 41 20' 54.402"	W 070 50' 05.838"	41.34845	-70.83495	LNM 16/13, 1st Dist	666	12300_1	4/23/2013
12300	Change	Garden State Offshore Energy Lighted Data Buoy GS	Y "GS" Fl Y 2s RACON G (--.) Priv	N 39 04' 36.000"	W 074 18' 36.000"	39.07667	-74.31	LNM 16/13, 5th Dist	666	12300_1	4/22/2013
12300	Delete	Submarine Cable  PT 1 OF 2	Chart No. 1: L30.1	N 39 33' 15.300"	W 074 03' 52.800"	39.55425	-74.06467	LNM 14/13, 5th Dist	666	12300_1	4/2/2013
12300	Delete	Submarine Cable  PT 2 OF 2	Chart No. 1: L30.1	N 38 46' 05.700"	W 073 46' 39.300"	38.76825	-73.77758	LNM 14/13, 5th Dist	666	12300_1	4/2/2013
12300	Add	Obstruction in Fathoms	10 Obstn       Chart No. 1: K41	N 41 15' 24.448"	W 071 58' 09.613"	41.25679	-71.96934	LNM 13/13, 1st Dist	666	12300_1	3/22/2013
12300	Relocate	Nantucket (Great Point) Light	Fl 5s 71ft 12M	N 41 23' 24.600"	W 070 02' 53.800"	41.39017	-70.04828	LNM 09/13, 1st Dist	666	12300_1	3/20/2013
12300	Delete	Barnegat Traffic Lane Lighted Whistle Buoy BA	Y "BA" Fl Y 6s WHIS	N 40 20' 02.293"	W 073 47' 37.254"	40.33397	-73.79368	LNM 09/13, 1st Dist	666	12300_1	3/20/2013
12300	Relocate	Endeavor Shoals Lighted Gong Buoy 1	G "1" Fl G 4s GONG	N 41 06' 03.438"	W 071 46' 14.704"	41.10096	-71.77075	LNM 09/13, 1st Dist	666	12300_1	3/20/2013
12300	Relocate	Shrewsbury Rocks Lighted Buoy 1	G "1" Fl G 2.5s	N 40 20' 27.896"	W 073 55' 34.489"	40.34108	-73.92625	LNM 09/13, 1st Dist	666	12300_1	3/20/2013
12300	Change	Shrewsbury Rocks Lighted Buoy 1	G "1" Fl G 2.5s (delete BELL)	N 40 20' 27.896"	W 073 55' 34.489"	40.34108	-73.92625	LNM 09/13, 1st Dist	666	12300_1	3/20/2013
12300	Delete	Fishermens Energy Research Lighted Data Buoy B	Y "B" Fl Y 2.5s Priv	N 39 10' 07.730"	W 074 23' 58.610"	39.16882	-74.39961	LNM 11/13, 5th Dist	666	12300_1	3/18/2013
12300	Add	Wreck in Fathoms	10 1/2 Wk    Chart No. 1: K26	N 41 19' 51.100"	W 071 31' 56.400"	41.33086	-71.53233	LNM 12/13, 1st Dist	666	12300_1	3/18/2013
12300	Delete	Wreck in Fathoms	12 Wk    Chart No. 1: K26	N 41 19' 46.000"	W 071 32' 51.000"	41.32944	-71.5475	LNM 12/13, 1st Dist	666	12300_1	3/18/2013
12300	Delete	Wreck in Fathoms	10 1/2 Wk    Chart No. 1: K26	N 41 19' 56.000"	W 071 31' 58.000"	41.33222	-71.53278	LNM 12/13, 1st Dist	666	12300_1	3/18/2013
12300	Change	Ocean Power Lighted Data Buoy A	Y "A" Fl Y 4s Priv	N 40 01' 59.971"	W 073 40' 00.019"	40.03333	-73.66667	LNM 10/13, 5th Dist	666	12300_1	3/7/2013
12300	Relocate	NOAA Lighted Data Buoy 44066 (ODAS)	Y ODAS "44066" Fl (4) Y 20s	N 39 35' 00.705"	W 072 35' 57.636"	39.58353	-72.59934	LNM 10/13, 5th Dist	666	12300_1	3/7/2013
12300	Change	Ocean Power Lighted Data Buoy A	Y "A" Fl Y 6s Priv	N 40 01' 59.971"	W 073 40' 00.019"	40.03333	-73.66667	LNM 09/13, 5th Dist	666	12300_1	3/5/2013
12300	Delete	Nomans Land Lighted Whistle Buoy 2	R "2" Fl R 4s WHIS	N 41 12' 12.213"	W 070 49' 58.104"	41.20339	-70.83281	LNM 04/13, 1st Dist	666	12300_1	2/6/2013
12300	Add	Fishermans Energy Research Lighted Data Buoy B	Y "B" Fl Y 2.5s Priv	N 39 10' 07.730"	W 074 23' 58.610"	39.16882	-74.39961	LNM 05/13, 5th Dist	666	12300_1	1/31/2013
12300	Relocate	Manasquan Inlet Lighted Bell Buoy 2M	R "2M" Fl R 4s BELL	N 40 05' 32.217"	W 074 00' 48.188"	40.09228	-74.01338	LNM 05/13, 5th Dist	666	12300_1	1/31/2013
12300	Delete	Nantucket Traffic Lane Lighted Whistle Buoy NA Racon	RACON (- .)	N 40 25' 42.372"	W 073 11' 28.419"	40.42844	-73.19123	LNM 03/13, 1st Dist	666	12300_1	1/31/2013
12300	Delete	Nantucket Traffic Lane Lighted Whistle Buoy NA	Y "NA" Fl Y 6s WHIS	N 40 25' 42.372"	W 073 11' 28.419"	40.42844	-73.19123	LNM 03/13, 1st Dist	666	12300_1	1/31/2013
12300	Relocate	NOAA Data Lighted Buoy 44017	Y ODAS "44017" Fl (4) Y 20s PA	N 40 41' 34.815"	W 072 02' 52.200"	40.693	-72.04784	LNM 03/13, 1st Dist	666	12300_1	1/31/2013
12300	Delete	Montauk Point Lighted Whistle Buoy MP	RW "MP" Mo (A) WHIS	N 41 01' 48.161"	W 071 45' 40.258"	41.03004	-71.76118	LNM 52/12, 1st Dist	666	12300_1	1/15/2013
12300	Delete	Montauk Point Lighted Whistle Buoy MP Racon	RACON (- -)    (Chart No. 1: S3.6)	N 41 01' 48.161"	W 071 45' 40.258"	41.03004	-71.76118	LNM 52/12, 1st Dist	666	12300_1	1/15/2013
12300	Add	Sounding in Fathoms and Feet	2_1/4	N 41 15' 29.400"	W 070 27' 08.400"	41.25817	-70.45233	LNM 40/12, 1st Dist	666	12300_1	10/1/2012
12300	Change	Highlands Light	Iso 10s Priv	N 40 23' 47.640"	W 073 59' 09.000"	40.39657	-73.98583	LNM 38/12, 1st Dist	666	12300_1	9/26/2012
12300	Add	Obstruction	Unexploded ordnance (reported 2010) PA     (Chart No. 1: K40)	N 40 07' 24.000"	W 072 38' 48.000"	40.12333	-72.64667	LNM 38/12, 1st Dist	666	12300_1	9/14/2012
12300	Add	General Anchorage Area PT 1 OF 4	(Chart No. 1: N12.1)	N 41 22' 37.100"	W 071 14' 40.300"	41.37697	-71.24453	LNM 38/12, 1st Dist	666	12300_1	9/12/2012
12300	Add	General Anchorage Area PT 2 OF 4	(Chart No. 1: N12.1)	N 41 20' 42.800"	W 071 14' 40.300"	41.34522	-71.24453	LNM 38/12, 1st Dist	666	12300_1	9/12/2012
12300	Add	General Anchorage Area PT 3 OF 4	(Chart No. 1: N12.1)	N 41 18' 24.100"	W 071 20' 32.500"	41.30669	-71.34236	LNM 38/12, 1st Dist	666	12300_1	9/12/2012
12300	Add	General Anchorage Area PT 4 OF 4	(Chart No. 1: N12.1)	N 41 20' 22.600"	W 071 20' 32.500"	41.33961	-71.34236	LNM 38/12, 1st Dist	666	12300_1	9/12/2012
12300	Add	General Anchorage Area label:	ANCH AREA 110.149 (see note A)	N 41 20' 33.000"	W 071 17' 33.000"	41.3425	-71.2925	LNM 38/12, 1st Dist	666	12300_1	9/12/2012
12300	Delete	NOAA Data Lighted Buoy 44070	Y ODAS "44070" Fl (4) Y 20s PA	N 41 23' 33.000"	W 071 00' 13.000"	41.3925	-71.00361	LNM 31/12, 1st Dist	666	12300_1	8/6/2012
12300	Delete	Restricted Area PT 1 OF 4	RESTRICTED AREA 334.78 (see note A) (Chart No. 1: N2.1)	N 41 20' 30.000"	W 071 19' 53.000"	41.34167	-71.33139	LNM 30/12, 1st Dist	666	12300_1	8/6/2012
12300	Delete	Restricted Area PT 2 OF 4	RESTRICTED AREA 334.78 (see note A) (Chart No. 1: N2.1)	N 41 20' 30.000"	W 071 18' 34.000"	41.34167	-71.30945	LNM 30/12, 1st Dist	666	12300_1	8/6/2012
12300	Delete	Restricted Area PT 3 OF 4	RESTRICTED AREA 334.78 (see note A) (Chart No. 1: N2.1)	N 41 18' 57.000"	W 071 18' 34.000"	41.31583	-71.30945	LNM 30/12, 1st Dist	666	12300_1	8/6/2012
12300	Delete	Restricted Area PT 4 OF 4	RESTRICTED AREA 334.78 (see note A) (Chart No. 1: N2.1)	N 41 18' 57.000"	W 071 19' 53.000"	41.31583	-71.33139	LNM 30/12, 1st Dist	666	12300_1	8/6/2012
12300	Delete	Hudson Canyon Traffic Lane Lighted Whistle Buoy HA, RACON	RACON (-.-.)	N 40 07' 36.397"	W 073 21' 22.427"	40.12678	-73.35623	LNM 28/12, 1st Dist	666	12300_1	7/16/2012
12300	Delete	Hudson Canyon Traffic Lane Lighted Whistle Buoy HA	Y "HA" Fl Y 4s WHIS	N 40 07' 36.397"	W 073 21' 22.427"	40.12678	-73.35623	LNM 28/12, 1st Dist	666	12300_1	7/16/2012
12300	Relocate	Highlands Light	Oc 10s 246ft Priv	N 40 23' 47.640"	W 073 59' 09.000"	40.39657	-73.98583	LNM 28/12, 1st Dist	666	12300_1	7/16/2012
12300	Relocate	Highlands Light	Oc 10s 246ft Priv	N 40 23' 47.500"	W 073 59' 09.000"	40.39653	-73.98583	LNM 27/12, 1st Dist	666	12300_1	7/12/2012
12235	Relocate	Milford Haven East Warning Daybeacon A	W "A"	N 37 27' 22.555"	W 076 12' 44.259"	37.45626	-76.2123	LNM 27/17, 5th Dist	571	12235_1	7/13/2017
12235	Relocate	Milford Haven East Warning Daybeacon C	W "C"	N 37 27' 49.987"	W 076 15' 12.277"	37.46389	-76.25341	LNM 27/17, 5th Dist	571	12235_1	7/13/2017
12235	Delete	Milford Haven East Buoy 7	G C "7"	N 37 27' 46.690"	W 076 15' 13.799"	37.46297	-76.25383	LNM 27/17, 5th Dist	571	12235_1	7/13/2017
12235	Delete	Milford Haven East Buoy 8	R N "8"	N 37 27' 55.121"	W 076 15' 30.540"	37.46531	-76.25848	LNM 27/17, 5th Dist	571	12235_1	7/13/2017
12235	Delete	Milford Haven East Buoy 9	G C "9"	N 37 28' 02.458"	W 076 15' 45.682"	37.46735	-76.26269	LNM 27/17, 5th Dist	571	12235_1	7/13/2017
12235	Change	Milford Haven East Warning Daybeacon F	W "F"	N 37 28' 04.308"	W 076 15' 53.786"	37.46786	-76.26494	LNM 27/17, 5th Dist	571	12235_1	7/13/2017
12235	Relocate	Milford Haven East Warning Daybeacon F	W "F"	N 37 28' 04.308"	W 076 15' 53.786"	37.46786	-76.26494	LNM 27/17, 5th Dist	571	12235_1	7/13/2017
12235	Delete	Milford Haven East Buoy 13	G C "13"	N 37 28' 05.054"	W 076 15' 58.135"	37.46807	-76.26615	LNM 27/17, 5th Dist	571	12235_1	7/13/2017
12235	Relocate	Milford Haven East Warning Daybeacon H	W "H"	N 37 28' 05.324"	W 076 16' 00.255"	37.46815	-76.26674	LNM 27/17, 5th Dist	571	12235_1	7/13/2017
12235	Relocate	Milford Haven East Warning Daybeacon J	W "J"	N 37 27' 58.194"	W 076 16' 08.445"	37.46616	-76.26901	LNM 27/17, 5th Dist	571	12235_1	7/13/2017
12235	Delete	Milford Haven East Buoy 18	R N "18"	N 37 27' 58.628"	W 076 16' 13.565"	37.46629	-76.27043	LNM 27/17, 5th Dist	571	12235_1	7/13/2017
12235	Change	Milford Haven East Warning Daybeacon B	W "B"	N 37 27' 37.508"	W 076 14' 01.106"	37.46042	-76.23364	LNM 27/17, 5th Dist	571	12235_1	7/13/2017
12235	Change	Milford Haven East Warning Daybeacon D	W "D"	N 37 27' 55.904"	W 076 15' 13.814"	37.46553	-76.25384	LNM 27/17, 5th Dist	571	12235_1	7/13/2017
12235	Change	Milford Haven East Warning Daybeacon E	W "E"	N 37 28' 05.636"	W 076 15' 41.102"	37.46823	-76.26141	LNM 27/17, 5th Dist	571	12235_1	7/13/2017
12235	Change	Milford Haven East Warning Daybeacon C	W "C"	N 37 27' 49.987"	W 076 15' 12.277"	37.46389	-76.25341	LNM 27/17, 5th Dist	571	12235_1	7/13/2017
12235	Change	Milford Haven East Warning Daybeacon A	W "A"	N 37 27' 22.555"	W 076 12' 44.259"	37.45626	-76.2123	LNM 27/17, 5th Dist	571	12235_1	7/13/2017
12235	Change	Milford Haven East Warning Daybeacon J	W "J"	N 37 27' 58.194"	W 076 16' 08.445"	37.46616	-76.26901	LNM 27/17, 5th Dist	571	12235_1	7/13/2017
12235	Change	Milford Haven East Warning Daybeacon H	W "H"	N 37 28' 05.324"	W 076 16' 00.255"	37.46815	-76.26674	LNM 27/17, 5th Dist	571	12235_1	7/13/2017
12235	Change	Milford Haven East Warning Daybeacon G	W "G"	N 37 28' 03.686"	W 076 15' 59.528"	37.46769	-76.26653	LNM 27/17, 5th Dist	571	12235_1	7/13/2017
12235	Relocate	Queens Creek Channel Daybeacon 11	G "11"	N 37 29' 11.956"	W 076 19' 58.063"	37.48666	-76.33279	LNM 25/17, 5th Dist	571	12235_1	6/29/2017
12235	Add	Cockrell Creek Buoy 1A	G C "1A"	N 37 49' 10.244"	W 076 17' 03.043"	37.81951	-76.28418	LNM 25/17, 5th Dist	571	12235_1	6/29/2017
12235	Add	Great Wicomico River Buoy 9A	G C "9A"	N 37 49' 28.011"	W 076 18' 12.557"	37.82445	-76.30349	LNM 25/17, 5th Dist	571	12235_1	6/29/2017
12235	Change	Piankatank River Light 13	Fl G 2.5s 15ft 4M "13"	N 37 31' 57.838"	W 076 22' 27.186"	37.53273	-76.37422	LNM 25/17, 5th Dist	571	12235_1	6/29/2017
12235	Relocate	Broad Creek Channel Daybeacon 10	R "10"	N 37 33' 33.837"	W 076 18' 50.604"	37.5594	-76.31406	LNM 21/17, 5th Dist	571	12235_1	6/1/2017
12235	Delete	Cranes Creek Channel Daybeacon 2	R "2"	N 37 48' 55.348"	W 076 18' 20.229"	37.81538	-76.30562	LNM 20/17, 5th Dist	571	12235_1	5/25/2017
12235	Delete	Cranes Creek Channel Daybeacon 6	R "6"	N 37 48' 57.703"	W 076 18' 37.474"	37.81603	-76.31041	LNM 20/17, 5th Dist	571	12235_1	5/25/2017
12235	Delete	Cranes Creek Channel Daybeacon 4	R "4"	N 37 48' 59.555"	W 076 18' 31.522"	37.81654	-76.30875	LNM 20/17, 5th Dist	571	12235_1	5/25/2017
12235	Add	Cranes Creek Buoy 2	R N "2"	N 37 48' 55.319"	W 076 18' 20.205"	37.81536	-76.30561	LNM 20/17, 5th Dist	571	12235_1	5/25/2017
12235	Add	Cranes Creek Buoy 3	G C "3"	N 37 48' 57.851"	W 076 18' 31.167"	37.81607	-76.30865	LNM 20/17, 5th Dist	571	12235_1	5/25/2017
12235	Add	Cranes Creek Buoy 5	G C "5"	N 37 48' 56.933"	W 076 18' 36.001"	37.81581	-76.31	LNM 20/17, 5th Dist	571	12235_1	5/25/2017
12235	Relocate	Carter Creek Daybeacon 3	G "3"	N 37 39' 00.354"	W 076 26' 34.275"	37.6501	-76.44286	LNM 17/17, 5th Dist	571	12235_1	5/4/2017
12235	Relocate	Carter Creek Daybeacon 4	R "4"	N 37 39' 08.806"	W 076 26' 26.946"	37.65245	-76.44082	LNM 17/17, 5th Dist	571	12235_1	5/4/2017
12235	Relocate	Carter Creek Light 7	Fl G 2.5s 15ft 4M "7"	N 37 39' 12.945"	W 076 26' 27.716"	37.65359	-76.44103	LNM 17/17, 5th Dist	571	12235_1	5/4/2017
12235	Relocate	Carter Creek Eastern Branch Light 1	Fl G 4s 15ft 4M "1"	N 37 39' 12.749"	W 076 25' 51.806"	37.65354	-76.43106	LNM 17/17, 5th Dist	571	12235_1	5/4/2017
12235	Change	Piankatank River Light 5	Q G 15ft 4M "5"	N 37 31' 41.927"	W 076 18' 22.614"	37.52831	-76.30628	LNM 16/17, 5th Dist	571	12235_1	4/27/2017
12235	Relocate	Jackson Creek Channel Buoy 6	R N "6"	N 37 32' 50.158"	W 076 19' 19.673"	37.54727	-76.32213	LNM 16/17, 5th Dist	571	12235_1	4/27/2017
12235	Relocate	Piankatank River Warning Daybeacon	W Bn	N 37 31' 55.240"	W 076 22' 21.546"	37.53201	-76.37265	LNM 16/17, 5th Dist	571	12235_1	4/27/2017
12235	Change	Piankatank River Warning Daybeacon	W Bn	N 37 31' 55.240"	W 076 22' 21.546"	37.53201	-76.37265	LNM 16/17, 5th Dist	571	12235_1	4/27/2017
12235	Add	Piankatank River Light 13	Fl G 2.5s 4M "13"	N 37 31' 57.838"	W 076 22' 27.186"	37.53273	-76.37422	LNM 16/17, 5th Dist	571	12235_1	4/27/2017
12235	Relocate	Jackson Creek Channel Buoy 3	G C "3"	N 37 32' 46.311"	W 076 19' 17.971"	37.5462	-76.32166	LNM 16/17, 5th Dist	571	12235_1	4/27/2017
12235	Relocate	Jackson Creek Channel Buoy 4	R N "4"	N 37 32' 46.852"	W 076 19' 17.008"	37.54635	-76.32139	LNM 16/17, 5th Dist	571	12235_1	4/27/2017
12235	Relocate	Jackson Creek Channel Buoy 5	G C "5"	N 37 32' 49.018"	W 076 19' 19.858"	37.54695	-76.32218	LNM 16/17, 5th Dist	571	12235_1	4/27/2017
12235	Delete	Piankatank River Light 8	Fl R 2.5s 15ft 4M "8"	N 37 30' 51.524"	W 076 18' 54.890"	37.51431	-76.31525	LNM 15/17, 5th Dist	571	12235_1	4/20/2017
12235	Add	Piankatank River Lighted Buoy 8	R "8" Q R	N 37 30' 47.562"	W 076 18' 54.020"	37.51321	-76.315	LNM 15/17, 5th Dist	571	12235_1	4/20/2017
12235	Delete	Piankatank River Buoy 8A	R N "8A"	N 37 30' 47.483"	W 076 19' 00.793"	37.51319	-76.31689	LNM 15/17, 5th Dist	571	12235_1	4/20/2017
12235	Delete	Piankatank River Daybeacon 10A	R "10A"	N 37 31' 24.960"	W 076 20' 09.473"	37.5236	-76.33597	LNM 15/17, 5th Dist	571	12235_1	4/20/2017
12235	Relocate	Piankatank River Light 7	Fl G 2.5s 16ft 4M "7"	N 37 31' 15.220"	W 076 18' 41.421"	37.52089	-76.31151	LNM 15/17, 5th Dist	571	12235_1	4/20/2017
12235	Relocate	Piankatank River Light 10	Fl R 4s 15ft 4M "10"	N 37 31' 29.423"	W 076 20' 19.471"	37.52484	-76.33875	LNM 15/17, 5th Dist	571	12235_1	4/20/2017
12235	Delete	Jackson Creek Channel Daybeacon 7	G "7"	N 37 32' 48.692"	W 076 19' 21.995"	37.54686	-76.32278	LNM 15/17, 5th Dist	571	12235_1	4/20/2017
12235	Relocate	Jackson Creek Channel Daybeacon 8	R "8"	N 37 32' 46.647"	W 076 19' 39.269"	37.54629	-76.32758	LNM 15/17, 5th Dist	571	12235_1	4/20/2017
12235	Change	Jackson Creek Channel Daybeacon 8	R "8"	N 37 32' 46.647"	W 076 19' 39.269"	37.54629	-76.32758	LNM 15/17, 5th Dist	571	12235_1	4/20/2017
12235	Relocate	Jackson Creek Channel Daybeacon 7	G "7"	N 37 32' 47.690"	W 076 19' 30.098"	37.54658	-76.32503	LNM 15/17, 5th Dist	571	12235_1	4/20/2017
12235	Change	Jackson Creek Channel Daybeacon 7	G "7"	N 37 32' 47.690"	W 076 19' 30.098"	37.54658	-76.32503	LNM 15/17, 5th Dist	571	12235_1	4/20/2017
12235	Relocate	Jackson Creek Channel Buoy 3	G C "3"	N 37 32' 46.311"	W 076 19' 17.971"	37.5462	-76.32166	LNM 11/17, 5th Dist	571	12235_1	3/23/2017
12235	Relocate	Jackson Creek Channel Buoy 4	R N "4"	N 37 32' 46.852"	W 076 19' 17.008"	37.54635	-76.32139	LNM 11/17, 5th Dist	571	12235_1	3/23/2017
12235	Add	Jackson Creek Channel Buoy 6	R N "6"	N 37 32' 50.158"	W 076 19' 19.673"	37.54727	-76.32213	LNM 11/17, 5th Dist	571	12235_1	3/23/2017
12235	Relocate	Piankatank River Light 6	Q R 15ft 4M "6"	N 37 31' 55.003"	W 076 19' 06.090"	37.53194	-76.31836	LNM 10/17, 5th Dist	571	12235_1	3/16/2017
12235	Relocate	Jackson Creek Channel Buoy 3	G C "3"	N 37 32' 47.302"	W 076 19' 18.112"	37.54647	-76.3217	LNM 07/17, 5th Dist	571	12235_1	2/23/2017
12235	Relocate	Jackson Creek Channel Buoy 5	G C "5"	N 37 32' 49.018"	W 076 19' 19.858"	37.54695	-76.32218	LNM 07/17, 5th Dist	571	12235_1	2/23/2017
12235	Relocate	Jackson Creek Channel Daybeacon 7	G "7"	N 37 32' 48.692"	W 076 19' 21.995"	37.54686	-76.32278	LNM 07/17, 5th Dist	571	12235_1	2/23/2017
12235	Relocate	Jackson Creek Channel Daybeacon 9	G "9"	N 37 32' 47.390"	W 076 19' 30.175"	37.5465	-76.32505	LNM 07/17, 5th Dist	571	12235_1	2/23/2017
12235	Change	Jackson Creek Channel Daybeacon 7	G "7"	N 37 32' 48.692"	W 076 19' 21.995"	37.54686	-76.32278	LNM 07/17, 5th Dist	571	12235_1	2/23/2017
12235	Change	Jackson Creek Channel Daybeacon 9	G "9"	N 37 32' 47.390"	W 076 19' 30.175"	37.5465	-76.32505	LNM 07/17, 5th Dist	571	12235_1	2/23/2017
12235	Relocate	Jackson Creek Channel Daybeacon 10	R "10"	N 37 32' 46.742"	W 076 19' 38.811"	37.54632	-76.32745	LNM 07/17, 5th Dist	571	12235_1	2/23/2017
12235	Relocate	Jackson Creek Channel Buoy 4	R N "4"	N 37 32' 47.695"	W 076 19' 17.429"	37.54658	-76.32151	LNM 07/17, 5th Dist	571	12235_1	2/23/2017
12274	Change	Gunpowder River Wreck Light WR9	Q G 15ft 4M "WR9"	N 39 19' 50.927"	W 076 19' 11.027"	39.33081	-76.31973	LNM 22/17, 5th Dist	626	12274_1	6/8/2017
12274	Relocate	Gunpowder River Wreck Light WR9	Q G 15ft 4M "WR9"	N 39 19' 50.927"	W 076 19' 11.027"	39.33081	-76.31973	LNM 22/17, 5th Dist	626	12274_1	6/8/2017
12274	Change	Northeast River Light 14	Fl R 2.5s 15ft 4M "14"	N 39 34' 30.203"	W 075 57' 45.058"	39.57506	-75.96252	LNM 07/17, 5th Dist	626	12274_1	2/23/2017
12288	Relocate	Upper Potomac River Channel Buoy 19	G C "19"	N 38 21' 07.452"	W 077 12' 16.923"	38.35207	-77.2047	LNM 25/17, 5th Dist	663	12288_1	6/29/2017
12288	Relocate	Upper Potomac River Channel Buoy 46	R N "46"	N 38 33' 35.430"	W 077 14' 04.431"	38.55984	-77.23457	LNM 25/17, 5th Dist	663	12288_1	6/29/2017
12288	Change	Aquia Creek Light 12	Fl R 2.5s 15ft 4M "12"	N 38 24' 01.463"	W 077 19' 46.209"	38.40041	-77.32951	LNM 15/17, 5th Dist	663	12288_1	4/20/2017
12288	Change	Port Tobacco River Daybeacon 8	R "8"	N 38 29' 36.200"	W 077 01' 27.577"	38.49339	-77.02433	LNM 49/16, 5th Dist	663	12288_1	12/15/2016
12288	Delete	Port Tobacco River Daybeacon 12	R "12"	N 38 29' 40.997"	W 077 01' 30.688"	38.49472	-77.02519	LNM 49/16, 5th Dist	663	12288_1	12/15/2016
12288	Change	Port Tobacco River Daybeacon 10	R "10"	N 38 29' 43.496"	W 077 01' 32.114"	38.49541	-77.02559	LNM 49/16, 5th Dist	663	12288_1	12/15/2016
12288	Change	Port Tobacco River Daybeacon 11	G "11"	N 38 29' 43.688"	W 077 01' 32.961"	38.49547	-77.02583	LNM 49/16, 5th Dist	663	12288_1	12/15/2016
12288	Relocate	Port Tobacco River Daybeacon 10	R "10"	N 38 29' 43.496"	W 077 01' 32.114"	38.49541	-77.02559	LNM 49/16, 5th Dist	663	12288_1	12/15/2016
12288	Relocate	Port Tobacco River Daybeacon 11	G "11"	N 38 29' 43.688"	W 077 01' 32.961"	38.49547	-77.02583	LNM 49/16, 5th Dist	663	12288_1	12/15/2016
12288	Change	Mattawoman Creek Light 5	Fl G 4s 15ft 4M "5"	N 38 33' 55.814"	W 077 11' 39.850"	38.5655	-77.1944	LNM 47/16, 5th Dist	663	12288_1	12/1/2016
12288	Change	Mattawoman Creek Light 3	Fl G 2.5s 15ft 4M "3"	N 38 33' 40.994"	W 077 12' 02.182"	38.56139	-77.20061	LNM 47/16, 5th Dist	663	12288_1	12/1/2016
12288	Change	Port Tobacco River Light 1	Fl G 2.5s 15ft 4M "1"	N 38 26' 37.782"	W 077 01' 54.716"	38.44383	-77.03187	LNM 40/16, 5th Dist	663	12288_1	10/13/2016
12288	Relocate	Potomac Creek Light 2PC	Fl R 4s 15ft 4M "2PC"	N 38 20' 38.187"	W 077 16' 40.154"	38.34394	-77.27782	LNM 47/15, 5th Dist	663	12288_1	12/3/2015
12288	Delete	Marlboro Point Lighted Wreck Buoy WR1	G "WR1" Q G	N 38 22' 24.331"	W 077 17' 52.873"	38.37342	-77.29802	LNM 44/15, 5th Dist	663	12288_1	11/12/2015
12288	Add	Marlboro Point Warning Daybeacon	W Bn	N 38 22' 24.311"	W 077 17' 52.951"	38.37342	-77.29804	LNM 44/15, 5th Dist	663	12288_1	11/12/2015
12288	Relocate	Potomac Creek Daybeacon 7	G "7"	N 38 20' 37.877"	W 077 19' 03.012"	38.34385	-77.3175	LNM 43/15, 5th Dist	663	12288_1	10/29/2015
12288	Change	Upper Potomac River Channel Light 5	Fl G 6s 44ft 4M "5"	N 38 24' 18.775"	W 077 02' 33.965"	38.40522	-77.04277	LNM 41/15, 5th Dist	663	12288_1	10/22/2015
12288	Relocate	Mathias Point Warning Daybeacon	W Bn	N 38 23' 34.494"	W 077 01' 22.866"	38.39291	-77.02302	LNM 41/15, 5th Dist	663	12288_1	10/22/2015
12288	Relocate	Upper Potomac River Channel Light 5	Fl G 6s 44ft 4M "5"	N 38 24' 18.775"	W 077 02' 33.965"	38.40522	-77.04277	LNM 41/15, 5th Dist	663	12288_1	10/22/2015
12288	Change	Upper Potomac River Channel Light 8	Fl R 6s 15ft 4M "8"	N 38 24' 09.311"	W 077 04' 57.239"	38.40259	-77.08257	LNM 39/15, 5th Dist	663	12288_1	10/8/2015
12288	Relocate	Upper Potomac River Channel Light 8	Fl R 6s 15ft 4M "8"	N 38 24' 09.311"	W 077 04' 57.239"	38.40259	-77.08257	LNM 39/15, 5th Dist	663	12288_1	10/8/2015
12288	Delete	Marlboro Point Warning Daybeacon	W Bn	N 38 22' 24.485"	W 077 17' 53.296"	38.37347	-77.29814	LNM 21/15, 5th Dist	663	12288_1	6/4/2015
12288	Add	Marlboro Point Lighted Wreck Buoy WR1	G "WR1" Q G	N 38 22' 24.331"	W 077 17' 52.873"	38.37342	-77.29802	LNM 21/15, 5th Dist	663	12288_1	6/4/2015
12288	Delete	Cockpit Point Barge Dock Mooring Light A	F Y 15ft "A" Priv	N 38 33' 34.000"	W 077 15' 16.000"	38.55944	-77.25445	LNM 16/15, 5th Dist	663	12288_1	4/30/2015
12288	Change	Tabulation - POTOMAC RIVER CHANNEL DEPTHS	Tabulation - POTOMAC RIVER CHANNEL DEPTHS	N 38 30' 34.200"	W 077 11' 56.200"	38.5095	-77.19894	LNM 10/15, 5th Dist	663	12288_1	3/12/2015
12288	Delete	Potomac Creek Daybeacon 3	G "3"	N 38 20' 48.403"	W 077 17' 22.974"	38.34678	-77.28972	LNM 42/14, 5th Dist	663	12288_1	10/23/2014
12288	Add	Potomac Creek Buoy 3	G C "3"	N 38 20' 48.364"	W 077 17' 23.013"	38.34677	-77.28973	LNM 42/14, 5th Dist	663	12288_1	10/23/2014
12288	Change	Aquia Creek Light 6	Fl R 2.5s 15ft 3M "6"	N 38 23' 38.978"	W 077 18' 46.094"	38.39416	-77.31281	LNM 41/14, 5th Dist	663	12288_1	10/23/2014
12288	Relocate	Line of Fire Buoy R	Y N "R" Navy	N 38 20' 10.465"	W 076 59' 03.068"	38.33624	-76.98418	LNM 32/14, 5th Dist	663	12288_1	8/21/2014
12288	Delete	Port Tobacco River Daybeacon 8	R "8"	N 38 29' 22.127"	W 077 01' 27.429"	38.48948	-77.02428	LNM 25/14, 5th Dist	663	12288_1	7/3/2014
12288	Delete	Cockpit Point Barge Dock Mooring Light D	F Y 15ft "D" Priv	N 38 33' 33.000"	W 077 15' 18.000"	38.55917	-77.255	LNM 04/14, 5th Dist	663	12288_1	2/6/2014
12272	Change	Rock Hall Harbor Warning Daybeacon A	W "A"	N 39 07' 49.873"	W 076 14' 53.990"	39.13052	-76.24833	LNM 24/17, 5th Dist	624	12272_3	6/22/2017
12272	Add	Rock Hall Harbor Buoy 3	G C "3"	N 39 07' 47.650"	W 076 14' 53.550"	39.1299	-76.24821	LNM 24/17, 5th Dist	624	12272_3	6/22/2017
12272	Relocate	Swan Creek Entrance Buoy 1	G C "1"	N 39 05' 34.223"	W 076 15' 15.021"	39.09284	-76.25417	LNM 22/17, 5th Dist	622	12272_1	6/8/2017
12272	Delete	Overhead Power Cable  PT 1 OF 2	Chart No. 1: D26  	N 39 00' 20.720"	W 076 09' 10.200"	39.00576	-76.15283	LNM 23/17, 5th Dist	622	12272_1	6/1/2017
12272	Delete	Overhead Power Cable  PT 2 OF 2	Chart No. 1: D26  	N 39 00' 16.560"	W 076 09' 04.420"	39.0046	-76.15123	LNM 23/17, 5th Dist	622	12272_1	6/1/2017
12272	Add	Cable Area  PT 1 OF 2	Chart No. 1: L30.2	N 39 00' 20.090"	W 076 09' 11.420"	39.00558	-76.15318	LNM 23/17, 5th Dist	622	12272_1	6/1/2017
12272	Add	Cable Area  PT 2 OF 2	Chart No. 1: L30.2	N 39 00' 15.070"	W 076 09' 04.460"	39.00418	-76.15124	LNM 23/17, 5th Dist	622	12272_1	6/1/2017
12272	Delete	Overhead Power Cable Label	OVHD PWR CAB AUTH CL 66 FT	N 39 00' 14.400"	W 076 08' 54.230"	39.004	-76.1484	LNM 23/17, 5th Dist	622	12272_1	6/1/2017
12272	Relocate	Gordon Point Shoal Buoy 2	R N "2"	N 39 03' 40.633"	W 076 09' 38.241"	39.06129	-76.16062	LNM 15/17, 5th Dist	622	12272_1	4/20/2017
12272	Relocate	Kent Island Narrows North Approach Lighted Buoy 3	G "3" Fl G 4s	N 38 59' 02.516"	W 076 14' 34.648"	38.98403	-76.24296	LNM 14/17, 5th Dist	623	12272_2	4/13/2017
12272	Relocate	Kent Island Narrows North Approach Lighted Buoy 3	G "3" Fl G 4s	N 38 59' 02.516"	W 076 14' 34.648"	38.98403	-76.24296	LNM 14/17, 5th Dist	622	12272_1	4/13/2017
12272	Relocate	Kent Island Narrows North Approach Buoy 6A	R N "6A"	N 38 58' 47.054"	W 076 14' 29.137"	38.97974	-76.24142	LNM 14/17, 5th Dist	623	12272_2	4/13/2017
12272	Delete	Kent Island Narrows North Approach Buoy 6A	R N "6A"	N 38 59' 47.080"	W 076 14' 29.560"	38.99641	-76.24155	LNM 13/17, 5th Dist	622	12272_1	3/23/2017
12264	Add	Dotted Oyster Reef PT 1 OF 6	Chart No. 1: K46.1	N 38 22' 45.900"	W 076 32' 06.000"	38.37942	-76.535	LNM 27/17, 5th Dist	604	12264_1	6/29/2017
12264	Add	Dotted Oyster Reef PT 2 OF 6	Chart No. 1: K46.1	N 38 22' 49.000"	W 076 32' 03.500"	38.38028	-76.5343	LNM 27/17, 5th Dist	604	12264_1	6/29/2017
12264	Add	Dotted Oyster Reef PT 3 OF 6	Chart No. 1: K46.1	N 38 22' 48.100"	W 076 32' 02.900"	38.38003	-76.53414	LNM 27/17, 5th Dist	604	12264_1	6/29/2017
12264	Add	Dotted Oyster Reef PT 4 OF 6	Chart No. 1: K46.1	N 38 22' 48.000"	W 076 31' 59.900"	38.38	-76.5333	LNM 27/17, 5th Dist	604	12264_1	6/29/2017
12264	Add	Dotted Oyster Reef PT 5 OF 6	Chart No. 1: K46.1	N 38 22' 49.600"	W 076 31' 59.700"	38.38044	-76.53325	LNM 27/17, 5th Dist	604	12264_1	6/29/2017
12264	Add	Dotted Oyster Reef PT 6 OF 6	Chart No. 1: K46.1	N 38 22' 47.200"	W 076 31' 57.500"	38.37978	-76.53264	LNM 27/17, 5th Dist	604	12264_1	6/29/2017
12264	Add	Dotted Oyster Reef Label	Oyster Reef	N 38 22' 47.380"	W 076 32' 01.580"	38.37983	-76.53378	LNM 27/17, 5th Dist	604	12264_1	6/29/2017
12264	Relocate	Tar Bay Warning Buoy A	W Or C "A"	N 38 21' 06.891"	W 076 16' 20.094"	38.35191	-76.27225	LNM 14/17, 5th Dist	604	12264_1	4/13/2017
12264	Change	Back Creek Light 2	Fl R 4s 15ft 4M "2"	N 38 19' 18.635"	W 076 27' 18.385"	38.32184	-76.45511	LNM 49/16, 5th Dist	604	12264_1	12/15/2016
12264	Change	Patuxent River Light 24	Fl R 4s 15ft 4M "24"	N 38 30' 31.738"	W 076 40' 18.998"	38.50882	-76.67194	LNM 49/16, 5th Dist	604	12264_1	12/15/2016
12264	Change	Solomons Island Harbor Junction Light SH	Fl (2+1) R 6s 15ft 4M "SH"	N 38 19' 19.803"	W 076 27' 14.184"	38.32217	-76.45394	LNM 49/16, 5th Dist	604	12264_1	12/15/2016
12264	Change	Back Creek Light 5	Fl G 4s 15ft 4M "5"	N 38 19' 35.687"	W 076 27' 26.889"	38.32658	-76.45747	LNM 49/16, 5th Dist	604	12264_1	12/15/2016
12264	Change	Town Creek Light 2	Fl R 4s 15ft 4M "2"	N 38 18' 54.988"	W 076 28' 44.625"	38.31527	-76.47906	LNM 49/16, 5th Dist	604	12264_1	12/15/2016
12264	Relocate	Fishing Creek Daybeacon 2	R "2"	N 38 32' 33.598"	W 076 12' 58.117"	38.54267	-76.21614	LNM 47/16, 5th Dist	604	12264_1	12/1/2016
12264	Relocate	Fishing Creek Daybeacon 2	R "2"	N 38 32' 33.977"	W 076 12' 57.872"	38.54277	-76.21607	LNM 45/16, 5th Dist	604	12264_1	11/17/2016
12264	Relocate	Chalk Point Power Light 30	Fl R 2.5s 12ft "30" Priv	N 38 32' 46.624"	W 076 40' 21.627"	38.54628	-76.67268	LNM 37/16, 5th Dist	604	12264_1	9/15/2016
12264	Relocate	Chalk Point Power Light 30	Fl R 2.5s 12ft "30" Priv	N 38 32' 46.624"	W 076 40' 21.627"	38.54628	-76.67268	LNM 37/16, 5th Dist	605	12264_2	9/15/2016
12264	Change	Patuxent River Light 12	Fl R 4s 15ft 4M "12"	N 38 21' 14.492"	W 076 29' 13.592"	38.35403	-76.48711	LNM 35/16, 5th Dist	604	12264_1	9/8/2016
12264	Change	Slaughter Creek Warning Daybeacon A	W "A"	N 38 29' 42.939"	W 076 16' 43.506"	38.49526	-76.27876	LNM 29/16, 5th Dist	604	12264_1	8/4/2016
12264	Add	Slaughter Creek Buoy 6A	R N "6A"	N 38 29' 55.928"	W 076 16' 22.851"	38.49887	-76.27302	LNM 29/16, 5th Dist	604	12264_1	8/4/2016
12264	Change	Slaughter Creek Daybeacon 6B	R "6B"	N 38 29' 52.393"	W 076 16' 27.058"	38.49789	-76.27419	LNM 29/16, 5th Dist	604	12264_1	8/4/2016
12264	Relocate	Slaughter Creek Warning Daybeacon A	W "A"	N 38 29' 42.939"	W 076 16' 43.506"	38.49526	-76.27876	LNM 29/16, 5th Dist	604	12264_1	8/4/2016
12264	Change	Little Choptank River Light 13	Fl G 2.5s 15ft 3M "13"	N 38 33' 00.512"	W 076 13' 06.220"	38.55014	-76.21839	LNM 27/16, 5th Dist	604	12264_1	7/7/2016
12264	Relocate	Little Choptank River Light 13	Fl G 2.5s 15ft 3M "13"	N 38 33' 00.512"	W 076 13' 06.220"	38.55014	-76.21839	LNM 27/16, 5th Dist	604	12264_1	7/7/2016
12264	Change	Hooper Island Light	Fl 6s 63ft 9M (delete HORN (Sep 15 to Jun 1))	N 38 15' 22.500"	W 076 14' 59.300"	38.25625	-76.24981	LNM 23/16, 5th Dist	604	12264_1	6/16/2016
12264	Relocate	Hooper Island Light	Fl 6s 63ft 9M	N 38 15' 22.500"	W 076 14' 59.300"	38.25625	-76.24981	LNM 23/16, 5th Dist	604	12264_1	6/16/2016
12225	Relocate	Milford Haven East Warning Daybeacon A	W "A"	N 37 27' 22.555"	W 076 12' 44.259"	37.45626	-76.2123	LNM 27/17, 5th Dist	563	12225_1	7/13/2017
12225	Relocate	Milford Haven East Warning Daybeacon C	W "C"	N 37 27' 49.987"	W 076 15' 12.277"	37.46389	-76.25341	LNM 27/17, 5th Dist	563	12225_1	7/13/2017
12225	Delete	Milford Haven East Buoy 7	G C "7"	N 37 27' 46.690"	W 076 15' 13.799"	37.46297	-76.25383	LNM 27/17, 5th Dist	563	12225_1	7/13/2017
12225	Delete	Milford Haven East Buoy 8	R N "8"	N 37 27' 55.121"	W 076 15' 30.540"	37.46531	-76.25848	LNM 27/17, 5th Dist	563	12225_1	7/13/2017
12225	Delete	Milford Haven East Buoy 9	G C "9"	N 37 28' 02.458"	W 076 15' 45.682"	37.46735	-76.26269	LNM 27/17, 5th Dist	563	12225_1	7/13/2017
12225	Change	Milford Haven East Warning Daybeacon F	W "F"	N 37 28' 04.308"	W 076 15' 53.786"	37.46786	-76.26494	LNM 27/17, 5th Dist	563	12225_1	7/13/2017
12225	Relocate	Milford Haven East Warning Daybeacon F	W "F"	N 37 28' 04.308"	W 076 15' 53.786"	37.46786	-76.26494	LNM 27/17, 5th Dist	563	12225_1	7/13/2017
12225	Relocate	Milford Haven East Warning Daybeacon H	W "H"	N 37 28' 05.324"	W 076 16' 00.255"	37.46815	-76.26674	LNM 27/17, 5th Dist	563	12225_1	7/13/2017
12225	Relocate	Milford Haven East Warning Daybeacon J	W "J"	N 37 27' 58.194"	W 076 16' 08.445"	37.46616	-76.26901	LNM 27/17, 5th Dist	563	12225_1	7/13/2017
12225	Delete	Milford Haven East Buoy 18	R N "18"	N 37 27' 58.628"	W 076 16' 13.565"	37.46629	-76.27043	LNM 27/17, 5th Dist	563	12225_1	7/13/2017
12225	Change	Milford Haven East Warning Daybeacon B	W "B"	N 37 27' 37.508"	W 076 14' 01.106"	37.46042	-76.23364	LNM 27/17, 5th Dist	563	12225_1	7/13/2017
12225	Change	Milford Haven East Warning Daybeacon D	W "D"	N 37 27' 55.904"	W 076 15' 13.814"	37.46553	-76.25384	LNM 27/17, 5th Dist	563	12225_1	7/13/2017
12225	Change	Milford Haven East Warning Daybeacon E	W "E"	N 37 28' 05.636"	W 076 15' 41.102"	37.46823	-76.26141	LNM 27/17, 5th Dist	563	12225_1	7/13/2017
12225	Change	Milford Haven East Warning Daybeacon C	W "C"	N 37 27' 49.987"	W 076 15' 12.277"	37.46389	-76.25341	LNM 27/17, 5th Dist	563	12225_1	7/13/2017
12225	Change	Milford Haven East Warning Daybeacon A	W "A"	N 37 27' 22.555"	W 076 12' 44.259"	37.45626	-76.2123	LNM 27/17, 5th Dist	563	12225_1	7/13/2017
12225	Change	Milford Haven East Warning Daybeacon J	W "J"	N 37 27' 58.194"	W 076 16' 08.445"	37.46616	-76.26901	LNM 27/17, 5th Dist	563	12225_1	7/13/2017
12225	Change	Milford Haven East Warning Daybeacon H	W "H"	N 37 28' 05.324"	W 076 16' 00.255"	37.46815	-76.26674	LNM 27/17, 5th Dist	563	12225_1	7/13/2017
12225	Change	Milford Haven East Warning Daybeacon G	W "G"	N 37 28' 03.686"	W 076 15' 59.528"	37.46769	-76.26653	LNM 27/17, 5th Dist	563	12225_1	7/13/2017
12225	Change	Piankatank River Light 13	Fl G 2.5s 15ft 4M "13"	N 37 31' 57.838"	W 076 22' 27.186"	37.53273	-76.37422	LNM 25/17, 5th Dist	563	12225_1	6/29/2017
12225	Delete	Cranes Creek Channel Daybeacon 2	R "2"	N 37 48' 55.348"	W 076 18' 20.229"	37.81538	-76.30562	LNM 20/17, 5th Dist	563	12225_1	5/25/2017
12225	Delete	Cranes Creek Channel Daybeacon 4	R "4"	N 37 48' 59.555"	W 076 18' 31.522"	37.81654	-76.30875	LNM 20/17, 5th Dist	563	12225_1	5/25/2017
12225	Add	Cranes Creek Buoy 2	R N "2"	N 37 48' 55.319"	W 076 18' 20.205"	37.81536	-76.30561	LNM 20/17, 5th Dist	563	12225_1	5/25/2017
12225	Add	Cranes Creek Buoy 3	G C "3"	N 37 48' 57.851"	W 076 18' 31.167"	37.81607	-76.30865	LNM 20/17, 5th Dist	563	12225_1	5/25/2017
12225	Relocate	Carter Creek Daybeacon 3	G "3"	N 37 39' 00.354"	W 076 26' 34.275"	37.6501	-76.44286	LNM 17/17, 5th Dist	563	12225_1	5/4/2017
12225	Relocate	Carter Creek Daybeacon 4	R "4"	N 37 39' 08.806"	W 076 26' 26.946"	37.65245	-76.44082	LNM 17/17, 5th Dist	563	12225_1	5/4/2017
12225	Relocate	Carter Creek Light 7	Fl G 2.5s 15ft 4M "7"	N 37 39' 12.945"	W 076 26' 27.716"	37.65359	-76.44103	LNM 17/17, 5th Dist	563	12225_1	5/4/2017
12225	Relocate	Carter Creek Eastern Branch Light 1	Fl G 4s 15ft 4M "1"	N 37 39' 12.749"	W 076 25' 51.806"	37.65354	-76.43106	LNM 17/17, 5th Dist	563	12225_1	5/4/2017
12225	Change	Piankatank River Light 5	Q G 15ft 4M "5"	N 37 31' 41.927"	W 076 18' 22.614"	37.52831	-76.30628	LNM 16/17, 5th Dist	563	12225_1	4/27/2017
12225	Relocate	Piankatank River Warning Daybeacon	W Bn	N 37 31' 55.240"	W 076 22' 21.546"	37.53201	-76.37265	LNM 16/17, 5th Dist	563	12225_1	4/27/2017
12225	Change	Piankatank River Warning Daybeacon	W Bn	N 37 31' 55.240"	W 076 22' 21.546"	37.53201	-76.37265	LNM 16/17, 5th Dist	563	12225_1	4/27/2017
12225	Add	Piankatank River Light 13	Fl G 2.5s 4M "13"	N 37 31' 57.838"	W 076 22' 27.186"	37.53273	-76.37422	LNM 16/17, 5th Dist	563	12225_1	4/27/2017
12225	Delete	Piankatank River Light 8	Fl R 2.5s 15ft 4M "8"	N 37 30' 51.524"	W 076 18' 54.890"	37.51431	-76.31525	LNM 15/17, 5th Dist	563	12225_1	4/20/2017
12225	Add	Piankatank River Lighted Buoy 8	R "8" Q R	N 37 30' 47.562"	W 076 18' 54.020"	37.51321	-76.315	LNM 15/17, 5th Dist	563	12225_1	4/20/2017
12225	Delete	Piankatank River Buoy 8A	R N "8A"	N 37 30' 47.483"	W 076 19' 00.793"	37.51319	-76.31689	LNM 15/17, 5th Dist	563	12225_1	4/20/2017
12225	Delete	Piankatank River Daybeacon 10A	R "10A"	N 37 31' 24.960"	W 076 20' 09.473"	37.5236	-76.33597	LNM 15/17, 5th Dist	563	12225_1	4/20/2017
12225	Relocate	Piankatank River Light 7	Fl G 2.5s 16ft 4M "7"	N 37 31' 15.220"	W 076 18' 41.421"	37.52089	-76.31151	LNM 15/17, 5th Dist	563	12225_1	4/20/2017
12225	Relocate	Piankatank River Light 10	Fl R 4s 15ft 4M "10"	N 37 31' 29.423"	W 076 20' 19.471"	37.52484	-76.33875	LNM 15/17, 5th Dist	563	12225_1	4/20/2017
12225	Delete	Little Wicomico River Buoy 14	R N "14"	N 37 53' 14.185"	W 076 16' 17.124"	37.88727	-76.27142	LNM 12/17, 5th Dist	563	12225_1	3/23/2017
12225	Relocate	Piankatank River Light 6	Q R 15ft 4M "6"	N 37 31' 55.003"	W 076 19' 06.090"	37.53194	-76.31836	LNM 10/17, 5th Dist	563	12225_1	3/16/2017
12225	Change	Watts Island Rocks Warning Light	Fl 2.5s 15ft 5M	N 37 46' 46.275"	W 075 53' 43.266"	37.77952	-75.89536	LNM 06/17, 5th Dist	563	12225_1	2/16/2017
12216	Relocate	Indian River Inlet Lighted Buoy 2	R "2" Fl R 4s	N 38 36' 32.653"	W 075 03' 22.148"	38.60907	-75.05615	LNM 16/17, 5th Dist	555	12216_1	4/27/2017
12216	Add	Harbor of Refuge Lighted Mooring Buoy CG	W Bu "CG" Fl 4s	N 38 47' 47.720"	W 075 07' 54.300"	38.79659	-75.13175	LNM 09/17, 5th Dist	555	12216_1	3/9/2017
12216	Delete	Harbor of Refuge Lighted Mooring Buoy CG	"CG" Fl 4s	N 38 48' 58.052"	W 075 10' 00.921"	38.81612	-75.16692	LNM 09/17, 5th Dist	555	12216_1	3/9/2017
12216	Change	Rehoboth Bay Channel Light 2	Fl R 4s 15ft 4M "2"	N 38 41' 14.570"	W 075 05' 53.280"	38.68738	-75.09814	LNM 02/17, 5th Dist	555	12216_1	1/12/2017
12216	Add	Harbor Of Refuge North End Lighted Buoy 1	G "1" Fl G 4s	N 38 50' 01.062"	W 075 06' 25.296"	38.83363	-75.10703	LNM 52/16, 5th Dist	555	12216_1	1/5/2017
12216	Delete	Channel Limits PT 1 OF 2	Chart No. 1: I20	N 38 36' 30.830"	W 075 03' 49.950"	38.60856	-75.06387	LNM 25/16, 5th Dist	555	12216_1	6/23/2016
12216	Delete	Channel Limits PT 2 OF 2	Chart No. 1: I20	N 38 36' 34.510"	W 075 03' 00.570"	38.60958	-75.05016	LNM 25/16, 5th Dist	555	12216_1	6/23/2016
12216	Delete	Channel Limits PT 1 OF 2	Chart No. 1: I20	N 38 36' 28.890"	W 075 03' 49.730"	38.60802	-75.06381	LNM 25/16, 5th Dist	555	12216_1	6/23/2016
12216	Delete	Channel Limits PT 2 OF 2	Chart No. 1: I20	N 38 36' 32.570"	W 075 03' 00.220"	38.60905	-75.05006	LNM 25/16, 5th Dist	555	12216_1	6/23/2016
12216	Add	Channel Limits PT 1 OF 2	Chart No. 1: I20	N 38 36' 30.250"	W 075 03' 47.220"	38.6084	-75.06312	LNM 25/16, 5th Dist	555	12216_1	6/23/2016
12216	Add	Channel Limits PT 2 OF 2	Chart No. 1: I20	N 38 36' 31.950"	W 075 03' 25.310"	38.60888	-75.05703	LNM 25/16, 5th Dist	555	12216_1	6/23/2016
12216	Add	Channel Limits PT 1 OF 2	Chart No. 1: I20	N 38 36' 28.290"	W 075 03' 46.940"	38.60786	-75.06304	LNM 25/16, 5th Dist	555	12216_1	6/23/2016
12216	Add	Channel Limits PT 2 OF 2	Chart No. 1: I20	N 38 36' 29.980"	W 075 03' 25.060"	38.60833	-75.05696	LNM 25/16, 5th Dist	555	12216_1	6/23/2016
12216	Change	Depth Note - INDIAN RIVER to:	The controlling depth was 16 feet for a width of 200 feet in Indian River Inlet to the fixed bridge. Position of aids 4 to 28 mark a shifting channel from the fixed bridge to Buoy 30. Buoys 4 to 17 are not charted due to the continually changing depths. The controlling depth was 1 foot from Buoy 19 to Millsboro. Sep 1995 - Jul 2014	N 38 37' 42.000"	W 075 08' 52.000"	38.62833	-75.14778	LNM 25/16, 5th Dist	555	12216_1	6/23/2016
12216	Delete	Rehoboth Bay Channel Daybeacon 17B	G "17B"	N 38 37' 21.308"	W 075 05' 41.551"	38.62259	-75.09487	LNM 09/16, 5th Dist	555	12216_1	3/10/2016
12216	Add	Rehoboth Bay Channel Buoy 17B	G C "17B"	N 38 37' 21.308"	W 075 05' 41.551"	38.62259	-75.09487	LNM 09/16, 5th Dist	555	12216_1	3/10/2016
12216	Delete	Obstruction in Feet	55 Obstn     (Chart No. 1: K41)	N 38 49' 49.900"	W 075 05' 18.200"	38.83053	-75.08839	LNM 28/15, 5th Dist	555	12216_1	7/16/2015
12216	Delete	Burton Prong Daybeacon 2	R "2" Priv	N 38 39' 39.000"	W 075 10' 21.250"	38.66083	-75.17257	LNM 25/15, 5th Dist	555	12216_1	6/25/2015
12216	Delete	Burton Prong Buoy 4	R N "4" Priv	N 38 39' 39.560"	W 075 10' 21.870"	38.66099	-75.17274	LNM 25/15, 5th Dist	555	12216_1	6/25/2015
12216	Relocate	Rehoboth Bay Channel Lighted Buoy 9	G "9" Fl G 4s	N 38 38' 41.028"	W 075 06' 25.223"	38.64473	-75.10701	LNM 19/15, 5th Dist	555	12216_1	5/21/2015
12216	Relocate	Rehoboth Bay Channel Buoy 11	G C "11"	N 38 38' 31.507"	W 075 06' 16.170"	38.64209	-75.10449	LNM 19/15, 5th Dist	555	12216_1	5/21/2015
12216	Relocate	Rehoboth Bay Channel Buoy 19	G C "19"	N 38 37' 11.568"	W 075 05' 35.687"	38.61988	-75.09325	LNM 19/15, 5th Dist	555	12216_1	5/21/2015
12216	Relocate	Rehoboth Bay Channel Buoy 20	R N "20"	N 38 37' 06.415"	W 075 05' 34.697"	38.61845	-75.09297	LNM 19/15, 5th Dist	555	12216_1	5/21/2015
12216	Change	Delaware Bay Approach Lighted Whistle Buoy CH	RW "CH" Mo (A) WHIS RACON (-.-) AIS  (Chart No. 1: S17.2)	N 38 46' 13.977"	W 075 01' 19.524"	38.77055	-75.02209	LNM 07/15, 5th Dist	555	12216_1	2/26/2015
12216	Change	Middle Island West Channel Junction Lighted Buoy MI	RG "MI" Fl (2+1) R 6s	N 38 36' 22.365"	W 075 06' 22.202"	38.60621	-75.10617	LNM 52/14, 5th Dist	555	12216_1	1/8/2015
12216	Add	Harbor of Refuge Lighted Mooring Buoy CG	"CG" Fl 4s   (Chart No. 1: Q41)	N 38 48' 58.052"	W 075 10' 00.921"	38.81612	-75.16692	LNM 43/14, 5th Dist	555	12216_1	11/6/2014
12216	Change	Tabulation - Roosevelt Inlet, Lewes and Rehoboth Canal and Broadkill River Channel Depths	Tabulation - Roosevelt Inlet, Lewes and Rehoboth Canal and Broadkill River Channel Depths	N 38 44' 03.000"	W 075 08' 45.000"	38.73417	-75.14584	LNM 20/14, 5th Dist	555	12216_1	5/22/2014
12216	Delete	Label:	(see note F)	N 38 47' 31.590"	W 075 09' 30.270"	38.79211	-75.15841	LNM 20/14, 5th Dist	555	12216_1	5/22/2014
12216	Delete	NOTE F:	Roosevelt Inlet Channel is subject to frequent changes.	N 38 46' 32.570"	W 075 10' 16.430"	38.77571	-75.17123	LNM 20/14, 5th Dist	555	12216_1	5/22/2014
12216	Delete	Label:	(see tabulation)	N 38 42' 17.370"	W 075 05' 32.700"	38.70483	-75.09241	LNM 20/14, 5th Dist	555	12216_1	5/22/2014
12216	Add	Note - LEWES AND REHOBOTH CANAL:	The Corps of Engineers has confirmed (April 2013) that the channel past the Turning Basin to Rehoboth Bay remains an authorized navigation project and has not been actively maintained since 1984. There are no plans to survey this project in the foreseeable future.  The controlling depth after the Turning Basin to Rehoboth Bay was 4 feet for the centerline of the channel.  Aug 1984	N 38 43' 07.530"	W 075 08' 50.650"	38.71876	-75.1474	LNM 20/14, 5th Dist	555	12216_1	5/22/2014
12216	Delete	Label:	(see tabulation)	N 38 45' 26.340"	W 075 06' 45.680"	38.75732	-75.11269	LNM 20/14, 5th Dist	555	12216_1	5/22/2014
12216	Add	Label:	(see note)	N 38 45' 26.340"	W 075 06' 45.680"	38.75732	-75.11269	LNM 20/14, 5th Dist	555	12216_1	5/22/2014
12216	Add	Label:	(see note)	N 38 42' 18.000"	W 075 05' 32.000"	38.705	-75.09222	LNM 20/14, 5th Dist	555	12216_1	5/22/2014
12216	Change	Indian River Inlet South Jetty Light 3	Fl G 4s 30ft 6M "3"	N 38 36' 28.203"	W 075 03' 33.049"	38.60783	-75.05918	LNM 15/14, 5th Dist	555	12216_1	4/24/2014
12216	Add	Fixed Bridge	Chart No. 1: D22	N 38 36' 29.800"	W 075 03' 47.800"	38.60828	-75.06328	LNM 14/14, 5th Dist	555	12216_1	4/10/2014
12216	Delete	Bridge Construction	Chart No. 1: D.d, with magenta screen extending 500 feet from bridge	N 38 36' 30.000"	W 075 03' 46.000"	38.60833	-75.06277	LNM 14/14, 5th Dist	555	12216_1	4/10/2014
12216	Delete	Bridge Construction Note	Caution: Fixed and floating obstructions, some submerged, may exist within the magenta tinted bridge construction area. Mariners are advised to proceed with caution.	N 38 32' 45.000"	W 075 16' 02.000"	38.54583	-75.26722	LNM 14/14, 5th Dist	555	12216_1	4/10/2014
12216	Add	Fixed Bridge Label	FIXED BRIDGE HOR CL 200 FT VERT CL 45 FT	N 38 36' 17.000"	W 075 03' 47.000"	38.60472	-75.06306	LNM 14/14, 5th Dist	555	12216_1	4/10/2014
12216	Delete	Fixed Bridge Label	FIXED BRIDGE HOR CL 100 FT (CENTER OF SPAN) VERT CL 35 FT (VERT CL 32 200 FT WIDTH)	N 38 36' 15.000"	W 075 03' 48.000"	38.60417	-75.06333	LNM 14/14, 5th Dist	555	12216_1	4/10/2014
12216	Change	Indian River Inlet Lighted Buoy 1	G "1" Fl G 2.5s	N 38 36' 32.902"	W 075 02' 46.447"	38.60914	-75.04623	LNM 51/13, 5th Dist	555	12216_1	12/23/2013
12216	Add	Bakers Channel Lighted Buoy 10	R "10" Fl R 4s Priv	N 38 37' 42.628"	W 075 05' 19.123"	38.62851	-75.08865	LNM 44/13, 5th Dist	555	12216_1	11/4/2013
12216	Add	Bakers Channel Lighted Buoy 11	G "11" Fl G 4s Priv	N 38 37' 38.763"	W 075 05' 10.657"	38.62743	-75.0863	LNM 44/13, 5th Dist	555	12216_1	11/4/2013
12216	Add	Bakers Channel Lighted Buoy 12	R "12" Fl R 4s Priv	N 38 37' 38.467"	W 075 05' 13.053"	38.62735	-75.08696	LNM 44/13, 5th Dist	555	12216_1	11/4/2013
12216	Add	Bakers Channel Lighted Buoy 13	G "13" Fl G 4s Priv	N 38 37' 30.009"	W 075 05' 13.572"	38.625	-75.0871	LNM 44/13, 5th Dist	555	12216_1	11/4/2013
12216	Add	Bakers Channel Lighted Buoy 14	R "14" Fl R 4s Priv	N 38 37' 30.643"	W 075 05' 15.263"	38.62518	-75.08757	LNM 44/13, 5th Dist	555	12216_1	11/4/2013
12216	Add	Bakers Channel Lighted Buoy 15	G "15" Fl G 4s Priv	N 38 37' 19.987"	W 075 05' 15.799"	38.62222	-75.08772	LNM 44/13, 5th Dist	555	12216_1	11/4/2013
12216	Add	Bakers Channel Lighted Buoy 16	R "16" Fl R 4s Priv	N 38 37' 20.768"	W 075 05' 17.621"	38.62244	-75.08823	LNM 44/13, 5th Dist	555	12216_1	11/4/2013
12216	Add	Bakers Channel Lighted Buoy 18B	R "18B" Fl R 4s Priv	N 38 37' 11.047"	W 075 05' 20.174"	38.61974	-75.08894	LNM 44/13, 5th Dist	555	12216_1	11/4/2013
12216	Add	Bakers Channel Lighted Buoy 1A	G "1A" Fl G 4s Priv	N 38 38' 03.273"	W 075 05' 52.700"	38.63424	-75.09797	LNM 44/13, 5th Dist	555	12216_1	11/4/2013
12216	Add	Bakers Channel Lighted Buoy 1B	G "1B" Fl G 4s Priv	N 38 37' 59.913"	W 075 05' 51.777"	38.63331	-75.09772	LNM 44/13, 5th Dist	555	12216_1	11/4/2013
12216	Add	Bakers Channel Lighted Buoy 2	R "2" Fl R 4s Priv	N 38 38' 01.931"	W 075 05' 54.646"	38.63387	-75.09851	LNM 44/13, 5th Dist	555	12216_1	11/4/2013
12216	Add	Bakers Channel Lighted Buoy 3	G "3" Fl G 4s Priv	N 38 37' 58.384"	W 075 05' 48.062"	38.63288	-75.09669	LNM 44/13, 5th Dist	555	12216_1	11/4/2013
12216	Add	Bakers Channel Lighted Buoy 4	R "4" Fl R 4s Priv	N 38 37' 57.069"	W 075 05' 48.983"	38.63252	-75.09694	LNM 44/13, 5th Dist	555	12216_1	11/4/2013
12216	Add	Bakers Channel Lighted Buoy 5	G "5" Fl G 4s Priv	N 38 37' 53.904"	W 075 05' 38.350"	38.63164	-75.09399	LNM 44/13, 5th Dist	555	12216_1	11/4/2013
12216	Add	Bakers Channel Lighted Buoy 6	R "6" Fl R 4s Priv	N 38 37' 52.622"	W 075 05' 39.364"	38.63128	-75.09427	LNM 44/13, 5th Dist	555	12216_1	11/4/2013
12216	Add	Bakers Channel Lighted Buoy 7	G "7" Fl G 4s Priv	N 38 37' 49.534"	W 075 05' 28.449"	38.63042	-75.09123	LNM 44/13, 5th Dist	555	12216_1	11/4/2013
12216	Add	Bakers Channel Lighted Buoy 8	R "8" Fl R 4s Priv	N 38 37' 48.362"	W 075 05' 29.246"	38.6301	-75.09145	LNM 44/13, 5th Dist	555	12216_1	11/4/2013
12216	Add	Bakers Channel Lighted Buoy 9	G "9" Fl G 4s Priv	N 38 37' 43.492"	W 075 05' 17.241"	38.62875	-75.08812	LNM 44/13, 5th Dist	555	12216_1	11/4/2013
12216	Delete	Bakers Channel (Massey Ditch Bypass) Daybeacon 17	G "17"	N 38 36' 58.596"	W 075 05' 26.003"	38.61628	-75.09055	LNM 44/13, 5th Dist	555	12216_1	11/4/2013
12216	Delete	Bakers Channel (Massey Ditch Bypass) Daybeacon 10	R "10"	N 38 37' 41.392"	W 075 05' 20.736"	38.62817	-75.0891	LNM 42/13, 5th Dist	555	12216_1	10/21/2013
12216	Delete	Bakers Channel (Massey Ditch Bypass) Daybeacon 11	G "11"	N 38 37' 40.317"	W 075 05' 10.404"	38.62786	-75.08622	LNM 42/13, 5th Dist	555	12216_1	10/21/2013
12216	Delete	Bakers Channel (Massey Ditch Bypass) Daybeacon 12	R "12"	N 38 37' 38.581"	W 075 05' 14.658"	38.62738	-75.0874	LNM 42/13, 5th Dist	555	12216_1	10/21/2013
12216	Delete	Bakers Channel (Massey Ditch Bypass) Daybeacon 13	G "13"	N 38 37' 32.395"	W 075 05' 11.698"	38.62566	-75.08659	LNM 42/13, 5th Dist	555	12216_1	10/21/2013
12216	Delete	Bakers Channel (Massey Ditch Bypass) Daybeacon 14	R "14"	N 38 37' 30.995"	W 075 05' 16.404"	38.62527	-75.08789	LNM 42/13, 5th Dist	555	12216_1	10/21/2013
12216	Delete	Bakers Channel (Massey Ditch Bypass) Daybeacon 15	G "15"	N 38 37' 17.056"	W 075 05' 07.572"	38.6214	-75.08543	LNM 42/13, 5th Dist	555	12216_1	10/21/2013
12216	Delete	Bakers Channel (Massey Ditch Bypass) Daybeacon 16	R "16"	N 38 37' 20.946"	W 075 05' 19.937"	38.62249	-75.08887	LNM 42/13, 5th Dist	555	12216_1	10/21/2013
12216	Delete	Bakers Channel (Massey Ditch Bypass) Daybeacon 18B	R "18B"	N 38 37' 02.960"	W 075 05' 35.350"	38.61749	-75.09315	LNM 42/13, 5th Dist	555	12216_1	10/21/2013
12216	Delete	Bakers Channel (Massey Ditch Bypass) Daybeacon 2	R "2"	N 38 38' 03.965"	W 075 05' 53.483"	38.63443	-75.09819	LNM 42/13, 5th Dist	555	12216_1	10/21/2013
12216	Delete	Bakers Channel (Massey Ditch Bypass) Daybeacon 3	G "3"	N 38 37' 58.916"	W 075 05' 47.902"	38.63303	-75.09664	LNM 42/13, 5th Dist	555	12216_1	10/21/2013
12216	Delete	Bakers Channel (Massey Ditch Bypass) Daybeacon 4	R "4"	N 38 37' 56.919"	W 075 05' 49.561"	38.63248	-75.0971	LNM 42/13, 5th Dist	555	12216_1	10/21/2013
12216	Delete	Bakers Channel (Massey Ditch Bypass) Daybeacon 5	G "5"	N 38 37' 54.866"	W 075 05' 37.391"	38.63191	-75.09372	LNM 42/13, 5th Dist	555	12216_1	10/21/2013
12216	Delete	Bakers Channel (Massey Ditch Bypass) Daybeacon 6	R "6"	N 38 37' 52.516"	W 075 05' 39.778"	38.63126	-75.09438	LNM 42/13, 5th Dist	555	12216_1	10/21/2013
12216	Delete	Bakers Channel (Massey Ditch Bypass) Daybeacon 7	G "7"	N 38 37' 51.169"	W 075 05' 28.671"	38.63088	-75.0913	LNM 42/13, 5th Dist	555	12216_1	10/21/2013
12216	Delete	Bakers Channel (Massey Ditch Bypass) Daybeacon 8	R "8"	N 38 37' 48.168"	W 075 05' 29.798"	38.63005	-75.09161	LNM 42/13, 5th Dist	555	12216_1	10/21/2013
12216	Delete	Bakers Channel (Massey Ditch Bypass) Daybeacon 9	G "9"	N 38 37' 44.410"	W 075 05' 16.092"	38.629	-75.08781	LNM 42/13, 5th Dist	555	12216_1	10/21/2013
12216	Delete	Bakers Channel (Massey Ditch Bypass) Daybeacon 1B	G "1B"	N 38 38' 03.913"	W 075 05' 51.469"	38.63442	-75.09763	LNM 42/13, 5th Dist	555	12216_1	10/21/2013
12216	Delete	Middle Island West Buoy 5	G C "5"	N 38 37' 06.810"	W 075 05' 50.950"	38.61856	-75.09749	LNM 27/13, 5th Dist	555	12216_1	7/10/2013
12216	Delete	Middle Island West Daybecon 3	G "3"	N 38 36' 57.040"	W 075 05' 59.001"	38.61584	-75.09972	LNM 27/13, 5th Dist	555	12216_1	7/10/2013
12216	Relocate	Indian River Inlet Buoy 19	G C "19"	N 38 36' 13.323"	W 075 05' 56.036"	38.6037	-75.0989	LNM 27/13, 5th Dist	555	12216_1	7/10/2013
12216	Relocate	Indian River Junction Lighted Buoy IR	RG "IR" Fl (2+1) R 6s	N 38 36' 28.145"	W 075 05' 36.208"	38.60782	-75.09339	LNM 27/13, 5th Dist	555	12216_1	7/10/2013
12216	Add	Middle Island West Channel Buoy 3	G C "3"	N 38 36' 38.561"	W 075 06' 03.052"	38.61071	-75.10085	LNM 27/13, 5th Dist	555	12216_1	7/10/2013
12216	Add	Middle Island West Channel Buoy 7	G C "7"	N 38 37' 06.810"	W 075 05' 50.950"	38.61856	-75.09749	LNM 27/13, 5th Dist	555	12216_1	7/10/2013
12216	Add	Middle Island West Channel Daybeacon 5	G "5"	N 38 36' 57.040"	W 075 05' 59.001"	38.61584	-75.09972	LNM 27/13, 5th Dist	555	12216_1	7/10/2013
12216	Add	Middle Island West Channel Junction Lighted Buoy MI	R "MI" Fl (2+1) R 6s	N 38 36' 22.365"	W 075 06' 22.202"	38.60621	-75.10617	LNM 27/13, 5th Dist	555	12216_1	7/10/2013
12216	Add	Rehoboth Bay Channel Buoy 24	R N "24"	N 38 36' 40.293"	W 075 05' 37.172"	38.61119	-75.09366	LNM 27/13, 5th Dist	555	12216_1	7/10/2013
12216	Add	Middle Island West Buoy 1	G C "1"	N 38 36' 30.633"	W 075 06' 17.900"	38.60851	-75.10497	LNM 27/13, 5th Dist	555	12216_1	7/10/2013
12216	Delete	Middle Island West Buoy 1	G C "1"	N 38 36' 49.633"	W 075 06' 01.230"	38.61379	-75.10034	LNM 27/13, 5th Dist	555	12216_1	7/10/2013
12216	Delete	Rehoboth Bay Channel Warning Daybeacon	W Or Bn	N 38 36' 57.023"	W 075 05' 59.070"	38.61584	-75.09974	LNM 20/13, 5th Dist	555	12216_1	5/20/2013
12216	Add	Middle Island West Buoy 1	G C "1"	N 38 36' 49.633"	W 075 06' 01.230"	38.61379	-75.10034	LNM 20/13, 5th Dist	555	12216_1	5/20/2013
12216	Add	Middle Island West Buoy 5	G C "5"	N 38 37' 06.810"	W 075 05' 50.950"	38.61856	-75.09749	LNM 20/13, 5th Dist	555	12216_1	5/20/2013
12216	Add	Middle Island West Daybeacon 3	G "3"	N 38 36' 57.040"	W 075 05' 59.001"	38.61584	-75.09972	LNM 20/13, 5th Dist	555	12216_1	5/20/2013
12216	Delete	Indian River Channel Buoy 18	R N "18"	N 38 36' 37.000"	W 075 06' 03.000"	38.61028	-75.10083	LNM 19/13, 5th Dist	555	12216_1	5/10/2013
12216	Add	Rehoboth Bay Channel Buoy 16B	R N "16B"	N 38 37' 21.538"	W 075 05' 44.391"	38.62265	-75.09566	LNM 18/13, 5th Dist	555	12216_1	5/2/2013
12216	Delete	Rehoboth Bay Channel Buoy 21A	G C "21A"	N 38 37' 07.181"	W 075 05' 50.723"	38.61866	-75.09742	LNM 17/13, 5th Dist	555	12216_1	4/30/2013
12216	Delete	Rehoboth Bay Channel Buoy 28	R N "28"	N 38 36' 42.927"	W 075 06' 03.875"	38.61192	-75.10107	LNM 17/13, 5th Dist	555	12216_1	4/30/2013
12216	Delete	Rehoboth Bay Channel Daybeacon 27	G "27"	N 38 36' 49.775"	W 075 06' 01.445"	38.61383	-75.1004	LNM 17/13, 5th Dist	555	12216_1	4/30/2013
12216	Relocate	Indian River Junction Lighted Buoy IR	RG "IR" Fl (2+1) R 6s	N 38 36' 34.401"	W 075 05' 30.950"	38.60955	-75.09193	LNM 17/13, 5th Dist	555	12216_1	4/30/2013
12216	Relocate	Rehoboth Bay Channel Buoy 19	G C "19"	N 38 37' 13.459"	W 075 05' 36.249"	38.62041	-75.0934	LNM 17/13, 5th Dist	555	12216_1	4/30/2013
12216	Relocate	Rehoboth Bay Channel Buoy 20	R N "20"	N 38 37' 10.025"	W 075 05' 33.522"	38.61945	-75.09264	LNM 17/13, 5th Dist	555	12216_1	4/30/2013
12216	Relocate	Rehoboth Bay Channel Buoy 21	G C "21"	N 38 37' 00.617"	W 075 05' 27.401"	38.61684	-75.09094	LNM 17/13, 5th Dist	555	12216_1	4/30/2013
12216	Relocate	Rehoboth Bay Channel Buoy 22	R N "22"	N 38 36' 54.897"	W 075 05' 36.182"	38.61525	-75.09338	LNM 17/13, 5th Dist	555	12216_1	4/30/2013
12216	Relocate	Rehoboth Bay Channel Buoy 23	G C "23"	N 38 36' 43.875"	W 075 05' 32.120"	38.61219	-75.09225	LNM 17/13, 5th Dist	555	12216_1	4/30/2013
12216	Change	Rehoboth Bay Channel Buoy 23	G C "23"	N 38 37' 00.316"	W 075 06' 00.071"	38.61675	-75.10002	LNM 17/13, 5th Dist	555	12216_1	4/30/2013
12216	Change	Rehoboth Bay Channel Warning Daybeacon	W Or Bn	N 38 36' 57.023"	W 075 05' 59.070"	38.61584	-75.09974	LNM 17/13, 5th Dist	555	12216_1	4/30/2013
12216	Add	HURRICANES AND TROPICAL STORMS NOTE	HURRICANES AND TROPICAL STORMS Note: Hurricanes, tropical storms and other major storms may cause considerable damage to marine structures, aids to navigation and moored vessels, resulting in submerged debris in unknown locations. Charted soundings, channel depths and shoreline may not reflect actual conditions following these storms. Fixed aids to navigation may have been damaged or destroyed. Buoys may have been moved from their charted positions, damaged, sunk, extinguished or otherwise made inoperative. Mariners should not rely upon the position or operation of an aid to navigation. Wrecks and submerged obstructions may have been displaced from charted locations. Pipelines may have become uncovered or moved. Mariners are urged to exercise extreme caution and are requested to report aids to navigation discrepancies and hazards to navigation to the nearest United States Coast Guard uni	N 38 48' 10.000"	W 075 16' 29.000"	38.80278	-75.27472	LNM 50/12, 5th Dist	555	12216_1	12/6/2012
12216	Change	Harbor Of Refuge North End Light 1	Fl G 4s 40ft 7M "1"	N 38 49' 57.343"	W 075 06' 20.723"	38.8326	-75.10576	LNM 28/12, 5th Dist	555	12216_1	7/13/2012
12243	Delete	Queen Creek Entrance Daybeacon 4	R "4"	N 37 18' 07.561"	W 076 36' 49.980"	37.3021	-76.61388	LNM 21/17, 5th Dist	582	12243_1	6/1/2017
12243	Add	Queen Creek Buoy 4	R N "4"	N 37 18' 07.561"	W 076 36' 49.915"	37.3021	-76.61387	LNM 21/17, 5th Dist	582	12243_1	6/1/2017
12243	Delete	Queen Creek Daybeacon 7	G "7"	N 37 18' 05.215"	W 076 36' 54.060"	37.30145	-76.61501	LNM 21/17, 5th Dist	582	12243_1	6/1/2017
12243	Add	Queen Creek Buoy 7	G C "7"	N 37 18' 05.165"	W 076 36' 54.071"	37.30143	-76.61502	LNM 21/17, 5th Dist	582	12243_1	6/1/2017
12243	Delete	Queen Creek Daybeacon 11	G "11"	N 37 17' 56.053"	W 076 37' 33.156"	37.2989	-76.62588	LNM 21/17, 5th Dist	582	12243_1	6/1/2017
12243	Add	Queen Creek Buoy 11	G C "11"	N 37 17' 56.046"	W 076 37' 33.102"	37.2989	-76.62586	LNM 21/17, 5th Dist	582	12243_1	6/1/2017
12243	Delete	Queen Creek Daybeacon 13	G "13"	N 37 17' 46.909"	W 076 37' 51.792"	37.29636	-76.63105	LNM 21/17, 5th Dist	582	12243_1	6/1/2017
12243	Add	Queen Creek Buoy 13	G C "13"	N 37 17' 46.942"	W 076 37' 51.782"	37.29637	-76.63105	LNM 21/17, 5th Dist	582	12243_1	6/1/2017
12243	Change	Queen Creek Daybeacon 3	G "3"	N 37 18' 02.509"	W 076 36' 37.680"	37.3007	-76.61047	LNM 21/17, 5th Dist	582	12243_1	6/1/2017
12243	Relocate	Queen Creek Daybeacon 3	G "3"	N 37 18' 02.509"	W 076 36' 37.680"	37.3007	-76.61047	LNM 21/17, 5th Dist	582	12243_1	6/1/2017
12243	Delete	Timberneck Creek Warning Daybeacon A	W "A"	N 37 17' 18.730"	W 076 32' 29.920"	37.28854	-76.54164	LNM 18/17, 5th Dist	582	12243_1	5/11/2017
12243	Delete	Timberneck Creek Warning Daybeacon B	W "B"	N 37 17' 27.302"	W 076 32' 06.084"	37.29092	-76.53503	LNM 18/17, 5th Dist	582	12243_1	5/11/2017
12243	Delete	Cedarbush Creek Warning Daybeacon A	W "A"	N 37 18' 38.625"	W 076 33' 49.109"	37.31073	-76.56364	LNM 18/17, 5th Dist	582	12243_1	5/11/2017
12243	Relocate	Cedarbush Creek Warning Daybeacon A	W "A"	N 37 18' 38.625"	W 076 33' 49.109"	37.31073	-76.56364	LNM 11/17, 5th Dist	582	12243_1	3/23/2017
12243	Relocate	Timberneck Creek Warning Daybeacon A	W "A"	N 37 17' 18.730"	W 076 32' 29.920"	37.28854	-76.54164	LNM 11/17, 5th Dist	582	12243_1	3/23/2017
12243	Relocate	Timberneck Creek Warning Daybeacon B	W "B"	N 37 17' 27.302"	W 076 32' 06.084"	37.29092	-76.53503	LNM 11/17, 5th Dist	582	12243_1	3/23/2017
12243	Change	Cedarbush Creek Warning Daybeacon A	W "A"	N 37 18' 38.533"	W 076 33' 49.296"	37.3107	-76.56369	LNM 10/17, 5th Dist	582	12243_1	3/16/2017
12243	Change	Timberneck Creek Warning Daybeacon A	W "A"	N 37 17' 18.721"	W 076 32' 29.082"	37.28853	-76.54141	LNM 09/17, 5th Dist	582	12243_1	3/9/2017
12243	Change	Timberneck Creek Warning Daybeacon B	W "B"	N 37 17' 27.487"	W 076 32' 06.168"	37.29097	-76.53505	LNM 09/17, 5th Dist	582	12243_1	3/9/2017
12243	Change	Cedarbush Channel Warning Daybeacon A	W "A"	N 37 18' 38.533"	W 076 33' 49.296"	37.3107	-76.56369	LNM 09/17, 5th Dist	582	12243_1	3/9/2017
12243	Relocate	Timberneck Creek Warning Daybeacon A	W "A"	N 37 17' 18.721"	W 076 32' 29.082"	37.28853	-76.54141	LNM 09/17, 5th Dist	582	12243_1	3/9/2017
12243	Relocate	Timberneck Creek Warning Daybeacon B	W "B"	N 37 17' 27.487"	W 076 32' 06.168"	37.29097	-76.53505	LNM 09/17, 5th Dist	582	12243_1	3/9/2017
12243	Relocate	Cedarbush Channel Warning Daybeacon A	W "A"	N 37 18' 38.533"	W 076 33' 49.296"	37.3107	-76.56369	LNM 09/17, 5th Dist	582	12243_1	3/9/2017
12243	Relocate	Upper York River Channel Light 3	Fl G 4s 15ft 5M "3"	N 37 16' 12.426"	W 076 32' 49.518"	37.27012	-76.54709	LNM 08/17, 5th Dist	582	12243_1	3/2/2017
12243	Relocate	Upper York River Channel Light 10	Fl R 2.5s 15ft 4M "10"	N 37 20' 05.102"	W 076 36' 01.377"	37.33475	-76.60038	LNM 08/17, 5th Dist	582	12243_1	3/2/2017
12243	Relocate	Upper York River Channel Light 2	Fl R 2.5s 16ft 4M "2"	N 37 15' 48.507"	W 076 31' 13.216"	37.26347	-76.52034	LNM 45/16, 5th Dist	582	12243_1	11/17/2016
12243	Relocate	Upper York River Channel Light 18	Fl R 4s 16ft 4M "18"	N 37 25' 09.445"	W 076 41' 23.034"	37.41929	-76.68974	LNM 45/16, 5th Dist	582	12243_1	11/17/2016
12243	Relocate	Upper York River Channel Light 23	Fl G 4s 16ft 4M "23"	N 37 26' 52.879"	W 076 43' 47.640"	37.44802	-76.7299	LNM 45/16, 5th Dist	582	12243_1	11/17/2016
12243	Relocate	Upper York River Channel Light 29	Fl G 4s 15ft 4M "29"	N 37 29' 44.885"	W 076 46' 54.190"	37.4958	-76.78172	LNM 45/16, 5th Dist	582	12243_1	11/17/2016
12243	Relocate	Upper York River Channel Light 30	Q R 16ft 4M "30"	N 37 29' 56.591"	W 076 46' 58.783"	37.49905	-76.783	LNM 45/16, 5th Dist	582	12243_1	11/17/2016
12243	Relocate	Upper York River Channel Light 6	Fl R 2.5s 16ft 4M "6"	N 37 17' 23.625"	W 076 33' 56.676"	37.28989	-76.56574	LNM 44/16, 5th Dist	582	12243_1	11/10/2016
12243	Relocate	Upper York River Channel Light 12	Fl R 4s 16ft 4M "12"	N 37 20' 59.479"	W 076 36' 55.344"	37.34985	-76.61537	LNM 44/16, 5th Dist	582	12243_1	11/10/2016
12243	Relocate	Upper York River Channel Light 14	Fl R 2.5s 16ft 4M "14"	N 37 22' 37.153"	W 076 38' 35.892"	37.37699	-76.6433	LNM 44/16, 5th Dist	582	12243_1	11/10/2016
12243	Relocate	Upper York River Channel Light 31	Q G 16ft 4M "31"	N 37 30' 00.355"	W 076 47' 07.068"	37.5001	-76.78529	LNM 44/16, 5th Dist	582	12243_1	11/10/2016
12243	Delete	Aberdeen Creek Warning Daybeacon	W Bn	N 37 20' 12.517"	W 076 35' 34.832"	37.33681	-76.59301	LNM 39/16, 5th Dist	582	12243_1	10/6/2016
12243	Delete	Aberdeen Creek Warning Daybeacon	W Bn	N 37 20' 17.491"	W 076 35' 28.620"	37.33819	-76.59129	LNM 39/16, 5th Dist	582	12243_1	10/6/2016
12243	Delete	Aberdeen Creek Warning Daybeacon A	W Bn	N 37 20' 24.325"	W 076 35' 34.602"	37.34009	-76.59294	LNM 39/16, 5th Dist	582	12243_1	10/6/2016
12243	Delete	Aberdeen Creek Warning Daybeacon	W Bn	N 37 20' 31.957"	W 076 35' 35.280"	37.34221	-76.59313	LNM 39/16, 5th Dist	582	12243_1	10/6/2016
12243	Delete	Aberdeen Creek Warning Daybeacon B	W Bn	N 37 20' 36.517"	W 076 35' 34.832"	37.34348	-76.59301	LNM 39/16, 5th Dist	582	12243_1	10/6/2016
12243	Delete	Upper York River Channel Light 11	Fl G 2.5s 16ft 4M "11"	N 37 20' 06.481"	W 076 36' 22.974"	37.33513	-76.60638	LNM 37/15, 5th Dist	582	12243_1	9/24/2015
12243	Delete	Upper York River Channel Light 17	Fl G 4s 16ft 4M "17"	N 37 23' 23.617"	W 076 39' 47.634"	37.38989	-76.66323	LNM 37/15, 5th Dist	582	12243_1	9/24/2015
12243	Change	Upper York River Light 10	Fl R 2.5s 15ft 4M "10"	N 37 20' 04.977"	W 076 36' 01.351"	37.33472	-76.60037	LNM 37/15, 5th Dist	582	12243_1	9/24/2015
12243	Delete	Pages Rock Warning Daybeacon A	PAGES ROCK W "A"	N 37 18' 39.247"	W 076 35' 12.138"	37.3109	-76.58671	LNM 21/15, 5th Dist	582	12243_1	6/4/2015
12243	Add	VIMS Clay Bank Light CB	Fl Y 4s "CB" Priv	N 37 20' 35.150"	W 076 37' 32.510"	37.3431	-76.62569	LNM 16/15, 5th Dist	582	12243_1	4/30/2015
12243	Change	Upper York River Channel Light 3	Fl G 4s 15ft 5M "3"	N 37 16' 12.542"	W 076 32' 49.641"	37.27015	-76.54712	LNM 12/15, 5th Dist	582	12243_1	4/2/2015
12243	Delete	VIMS Clay Bank Lighted Data Platform CB	Fl Y 4s 12ft "CB" Priv	N 37 20' 30.360"	W 076 37' 28.500"	37.34177	-76.62458	LNM 12/15, 5th Dist	582	12243_1	4/2/2015
12273	Change	Gunpowder River Wreck Light WR9	Q G 15ft 4M "WR9"	N 39 19' 50.927"	W 076 19' 11.027"	39.33081	-76.31973	LNM 22/17, 5th Dist	625	12273_1	6/8/2017
12273	Relocate	Swan Creek Entrance Buoy 1	G C "1"	N 39 05' 34.223"	W 076 15' 15.021"	39.09284	-76.25417	LNM 22/17, 5th Dist	625	12273_1	6/8/2017
12273	Relocate	Gunpowder River Wreck Light WR9	Q G 15ft 4M "WR9"	N 39 19' 50.927"	W 076 19' 11.027"	39.33081	-76.31973	LNM 22/17, 5th Dist	625	12273_1	6/8/2017
12273	Relocate	Brewerton Channel Lighted Buoy 3	G "3" Q G	N 39 10' 48.736"	W 076 26' 42.018"	39.18021	-76.44501	LNM 19/17, 5th Dist	625	12273_1	5/18/2017
12273	Change	Northeast River Light 14	Fl R 2.5s 15ft 4M "14"	N 39 34' 30.203"	W 075 57' 45.058"	39.57506	-75.96252	LNM 07/17, 5th Dist	625	12273_1	2/23/2017
12273	Change	Bush River Wreck Light WR7	Q G 15ft 4M "WR7"	N 39 23' 47.665"	W 076 15' 37.926"	39.39657	-76.26054	LNM 06/17, 5th Dist	625	12273_1	2/16/2017
12273	Change	Overhead Power Cable Label	OVHD PWR CABS AUTH CL 20 FT	N 39 26' 07.000"	W 076 14' 32.000"	39.43528	-76.24223	LNM 05/17, 5th Dist	625	12273_1	2/9/2017
12273	Change	Tabulation - CHESAPEAKE AND DELAWARE CANAL CHANNEL DEPTHS	Tabulation - CHESAPEAKE AND DELAWARE CANAL CHANNEL DEPTHS	N 39 34' 38.000"	W 076 17' 38.000"	39.57722	-76.29389	LNM 06/17, 5th Dist	625	12273_1	2/2/2017
12273	Change	Tabulation - BALTIMORE HARBOR CHANNEL DEPTHS	Tabulation - BALTIMORE HARBOR CHANNEL DEPTHS	N 39 35' 08.000"	W 076 24' 26.000"	39.58556	-76.40722	LNM 06/17, 5th Dist	625	12273_1	2/2/2017
12273	Relocate	Brewerton Channel Range Front Light	Oc G 4s 25ft	N 39 12' 19.042"	W 076 31' 26.152"	39.20529	-76.52393	LNM 02/17, 5th Dist	625	12273_1	1/12/2017
12273	Change	Brewerton Channel Range Front Light	Oc G 4s 25ft	N 39 12' 19.042"	W 076 31' 26.152"	39.20529	-76.52393	LNM 02/17, 5th Dist	625	12273_1	1/12/2017
12273	Change	Harts Island Channel Light 9	Fl G 2.5s 15ft 4M "9"	N 39 14' 13.380"	W 076 23' 43.140"	39.23705	-76.39532	LNM 51/16, 5th Dist	625	12273_1	12/22/2016
12273	Change	Harts Island Channel Light 1	Fl G 2.5s 15ft 4M "1"	N 39 13' 33.545"	W 076 23' 46.022"	39.22599	-76.39612	LNM 51/16, 5th Dist	625	12273_1	12/22/2016
12273	Relocate	Susquehanna River Channel Lighted Buoy 14	R "14" Fl R 4s	N 39 31' 06.408"	W 076 05' 02.720"	39.51845	-76.08409	LNM 45/16, 5th Dist	625	12273_1	11/17/2016
12273	Delete	Swantown Creek Buoy 1	G C "1" Priv	N 39 21' 54.402"	W 075 51' 34.777"	39.36511	-75.85966	LNM 40/16, 5th Dist	625	12273_1	10/13/2016
12273	Delete	Swantown Creek Buoy 3	G C "3" Priv	N 39 21' 54.402"	W 075 51' 34.777"	39.36511	-75.85966	LNM 40/16, 5th Dist	625	12273_1	10/13/2016
12273	Delete	Swantown Creek Buoy 4	R N "4" Priv	N 39 21' 48.402"	W 075 51' 34.777"	39.36345	-75.85966	LNM 40/16, 5th Dist	625	12273_1	10/13/2016
12273	Delete	Fairlee Creek Light 2F	Fl (2) R 5s 15ft 3M "2F"	N 39 16' 15.064"	W 076 12' 31.130"	39.27085	-76.20865	LNM 36/16, 5th Dist	625	12273_1	9/15/2016
12273	Relocate	Northeast River Buoy 5	G C "5"	N 39 31' 18.223"	W 075 59' 14.411"	39.52173	-75.98734	LNM 34/16, 5th Dist	625	12273_1	9/1/2016
12273	Relocate	Craighill Channel Upper Range Front Light	F R 15ft	N 39 11' 49.408"	W 076 26' 53.776"	39.19706	-76.44827	LNM 32/16, 5th Dist	625	12273_1	8/18/2016
12273	Relocate	Craighill Channel Upper Range Rear Light	F R 74ft	N 39 12' 58.209"	W 076 27' 45.872"	39.21617	-76.46275	LNM 32/16, 5th Dist	625	12273_1	8/18/2016
12273	Relocate	Elk River Channel Lighted Buoy 10	R "10" Fl R 4s	N 39 26' 58.732"	W 075 59' 17.856"	39.44965	-75.9883	LNM 18/16, 5th Dist	625	12273_1	5/12/2016
12273	Change	Stillpond Creek Light 6	Fl R 4s 15ft 4M "6"	N 39 19' 58.680"	W 076 07' 56.160"	39.33297	-76.13226	LNM 13/16, 5th Dist	625	12273_1	4/7/2016
12273	Change	Arnold Point Light	Fl 4s 15ft 6M	N 39 27' 46.063"	W 075 58' 00.649"	39.4628	-75.96685	LNM 13/16, 5th Dist	625	12273_1	4/7/2016
12273	Change	Magothy River Entrance Light 2	Fl R 4s 15ft 4M "2"	N 39 03' 21.879"	W 076 25' 46.824"	39.05608	-76.42967	LNM 13/16, 5th Dist	625	12273_1	4/7/2016
12273	Change	Pooles Island South Range Rear Light	Oc 4s 72ft	N 39 18' 07.023"	W 076 14' 11.662"	39.30195	-76.23657	LNM 13/16, 5th Dist	625	12273_1	4/7/2016
12273	Relocate	Stillpond Creek Light 6	Fl R 4s 15ft 4M "6"	N 39 19' 58.680"	W 076 07' 56.160"	39.33297	-76.13226	LNM 13/16, 5th Dist	625	12273_1	4/7/2016
12273	Relocate	Arnold Point Light	Fl 4s 15ft 6M	N 39 27' 46.063"	W 075 58' 00.649"	39.4628	-75.96685	LNM 13/16, 5th Dist	625	12273_1	4/7/2016
12273	Delete	Commercial Mooring Buoy	PA  (Chart No. 1: Q40)	N 39 26' 32.000"	W 075 59' 32.000"	39.44222	-75.99223	LNM 12/16, 5th Dist	625	12273_1	3/31/2016
12273	Delete	Commercial Mooring Buoy	PA  (Chart No. 1: Q40)	N 39 26' 27.000"	W 075 59' 14.000"	39.44083	-75.98722	LNM 12/16, 5th Dist	625	12273_1	3/31/2016
12273	Delete	Commercial Mooring Buoy	PA  (Chart No. 1: Q40)	N 39 26' 23.000"	W 075 58' 59.000"	39.43972	-75.98306	LNM 12/16, 5th Dist	625	12273_1	3/31/2016
12273	Change	Aberdeen Proving Ground Lighted Warning Buoy A	W Or "A" Fl 2.5s Army	N 39 23' 04.020"	W 076 16' 08.720"	39.38445	-76.26909	LNM 11/16, 5th Dist	625	12273_1	3/24/2016
12273	Change	Upper Chesapeake Channel Range Rear Light	Oc 4s 61ft (Day), Oc 4s 64ft (Night)	N 39 19' 37.184"	W 076 12' 49.665"	39.327	-76.2138	LNM 05/16, 5th Dist	625	12273_1	2/11/2016
12273	Change	Shad Battery Shoal Range Rear Light	Oc 4s 61ft (Day), Oc 4s 58ft (Night)	N 39 19' 37.184"	W 076 12' 49.665"	39.327	-76.2138	LNM 05/16, 5th Dist	625	12273_1	2/11/2016
12273	Change	Wilson Point Junction Light WP	Fl (2+1) R 6s 15ft 4M "WP"	N 39 18' 19.745"	W 076 24' 32.699"	39.30548	-76.40908	LNM 03/16, 5th Dist	625	12273_1	1/28/2016
12273	Change	Tabulation - BALTIMORE HARBOR CHANNEL DEPTHS	Tabulation - BALTIMORE HARBOR CHANNEL DEPTHS	N 39 35' 08.000"	W 076 24' 26.000"	39.58556	-76.40722	LNM 03/16, 5th Dist	625	12273_1	1/21/2016
12273	Change	Tabulation - BALTIMORE HARBOR CHANNEL DEPTHS	Tabulation - BALTIMORE HARBOR CHANNEL DEPTHS	N 39 35' 08.000"	W 076 24' 26.000"	39.58556	-76.40722	LNM 50/15, 5th Dist	625	12273_1	12/10/2015
12273	Change	Northeast River Light 10	Fl R 4s 15ft 4M "10"	N 39 33' 40.842"	W 075 58' 18.977"	39.56134	-75.97194	LNM 37/15, 5th Dist	625	12273_1	9/24/2015
12273	Change	Bohemia River Light 2	Fl R 4s 15ft 3M "2"	N 39 28' 31.997"	W 075 53' 11.104"	39.47556	-75.88642	LNM 35/15, 5th Dist	625	12273_1	9/10/2015
12273	Change	Tabulation - BALTIMORE HARBOR CHANNEL DEPTHS	Tabulation - BALTIMORE HARBOR CHANNEL DEPTHS	N 39 35' 08.000"	W 076 24' 26.000"	39.58556	-76.40722	LNM 34/15, 5th Dist	625	12273_1	8/27/2015
12273	Add	Submerged Obstruction	Obstn rep PA  (Chart No. 1: K40)	N 39 13' 24.400"	W 076 16' 52.000"	39.22345	-76.28111	LNM 31/15, 5th Dist	625	12273_1	8/13/2015
12273	Add	Obstruction in Feet and Label	5 Obstn (Rep 2015)    (Chart No. 1: K41)	N 39 22' 36.400"	W 075 59' 38.900"	39.37678	-75.99414	LNM 28/15, 5th Dist	625	12273_1	7/16/2015
12273	Delete	Submerged Pile	Subm piling PA    (Chart No. 1: K43.1)	N 39 22' 47.120"	W 075 59' 48.530"	39.37976	-75.99681	LNM 28/15, 5th Dist	625	12273_1	7/16/2015
12273	Add	Sounding in Feet and Label	2 Rep (2015)	N 39 22' 55.400"	W 076 02' 54.600"	39.38206	-76.0485	LNM 28/15, 5th Dist	625	12273_1	7/16/2015
12273	Delete	Dangerous Wreck	PA      (Chart No. 1: K28)	N 39 23' 54.400"	W 076 02' 39.800"	39.39845	-76.04439	LNM 28/15, 5th Dist	625	12273_1	7/16/2015
12273	Delete	Dangerous Wreck	PA      (Chart No. 1: K28)	N 39 23' 20.200"	W 076 02' 57.600"	39.38894	-76.04933	LNM 28/15, 5th Dist	625	12273_1	7/16/2015
12273	Delete	Obstruction	Obstn rep PA    (Chart No. 1: K40)	N 39 22' 35.740"	W 075 59' 41.100"	39.37659	-75.99475	LNM 28/15, 5th Dist	625	12273_1	7/16/2015
12273	Relocate	Bush River Light 5	Fl G 4s 15ft 4M "5"	N 39 22' 12.822"	W 076 16' 02.433"	39.37023	-76.26734	LNM 20/15, 5th Dist	625	12273_1	5/28/2015
12273	Change	Brewerton Channel Eastern Extension Lighted Buoy 5	G "5" Fl G 6s (delete BELL)	N 39 09' 30.276"	W 076 22' 21.185"	39.15841	-76.37255	LNM 11/15, 5th Dist	625	12273_1	3/26/2015
12273	Change	Upper Chesapeake Channel Lighted Buoy 45	G "45" Fl G 2.5s AIS  (Chart No. 1: S17.2)	N 39 22' 10.839"	W 076 07' 45.462"	39.36968	-76.1293	LNM 07/15, 5th Dist	625	12273_1	2/26/2015
12273	Change	Upper Chesapeake Channel Lighted Buoy 46	R "46" Fl R 2.5s AIS  (Chart No. 1: S17.2)	N 39 22' 05.831"	W 076 07' 41.366"	39.36829	-76.12816	LNM 07/15, 5th Dist	625	12273_1	2/26/2015
12273	Change	Upper Chesapeake Channel Lighted Buoy 47	G "47" Fl G 4s AIS  (Chart No. 1: S17.2)	N 39 22' 50.744"	W 076 06' 10.205"	39.38076	-76.10284	LNM 07/15, 5th Dist	625	12273_1	2/26/2015
12273	Change	Upper Chesapeake Channel Lighted Buoy 48	R "48" Fl R 4s AIS  (Chart No. 1: S17.2)	N 39 22' 45.337"	W 076 06' 07.068"	39.37926	-76.10197	LNM 07/15, 5th Dist	625	12273_1	2/26/2015
12273	Change	Elk River Channel Lighted Buoy 1ER	G "1ER" Fl G 2.5s AIS  (Chart No. 1: S17.2)	N 39 23' 51.238"	W 076 03' 16.828"	39.39757	-76.05467	LNM 07/15, 5th Dist	625	12273_1	2/26/2015
12273	Change	Tabulation - BALTIMORE HARBOR CHANNEL DEPTHS	Tabulation - BALTIMORE HARBOR CHANNEL DEPTHS	N 39 35' 08.000"	W 076 24' 26.000"	39.58556	-76.40722	LNM 50/14, 5th Dist	625	12273_1	12/18/2014
12273	Delete	Stillpond Creek Daybeacon 4	R "4"	N 39 20' 02.371"	W 076 08' 03.289"	39.33399	-76.13425	LNM 43/14, 5th Dist	625	12273_1	11/6/2014
12273	Delete	Stillpond Creek Light 5	Fl G 2.5s 15ft 3M "5"	N 39 19' 59.371"	W 076 07' 57.314"	39.33316	-76.13258	LNM 43/14, 5th Dist	625	12273_1	11/6/2014
12273	Delete	Stillpond Creek Daybeacon 7	G "7"	N 39 20' 00.484"	W 076 07' 52.585"	39.33347	-76.13127	LNM 43/14, 5th Dist	625	12273_1	11/6/2014
12273	Delete	Stillpond Creek Daybeacon 9	G "9"	N 39 20' 02.201"	W 076 07' 50.198"	39.33395	-76.13061	LNM 43/14, 5th Dist	625	12273_1	11/6/2014
12273	Relocate	Love Point Light	Fl 6s 31ft 7M	N 39 03' 25.376"	W 076 17' 01.168"	39.05705	-76.28366	LNM 41/14, 5th Dist	625	12273_1	10/23/2014
12273	Change	Love Point Light	Fl 6s 31ft 7M	N 39 03' 25.376"	W 076 17' 01.168"	39.05705	-76.28366	LNM 41/14, 5th Dist	625	12273_1	10/23/2014
12273	Change	Tabulation - CHESAPEAKE AND DELAWARE CANAL CHANNEL DEPTHS	Tabulation - CHESAPEAKE AND DELAWARE CANAL CHANNEL DEPTHS	N 39 34' 38.000"	W 076 17' 38.000"	39.57722	-76.29389	LNM 40/14, 5th Dist	625	12273_1	10/9/2014
12273	Delete	Tolchester Sector Light A	F WRG 45ft 6M "A"	N 39 14' 36.391"	W 076 13' 34.832"	39.24344	-76.22634	LNM 38/14, 5th Dist	625	12273_1	10/2/2014
12273	Delete	Pooles Island East Range Front Light	Q 19ft	N 39 16' 41.317"	W 076 16' 04.703"	39.27814	-76.26797	LNM 38/14, 5th Dist	625	12273_1	10/2/2014
12273	Delete	Pooles Island East Range Rear Light	Iso 6s 45ft	N 39 16' 40.573"	W 076 16' 13.200"	39.27794	-76.27033	LNM 38/14, 5th Dist	625	12273_1	10/2/2014
12273	Delete	Label:	(see note E)	N 39 14' 22.000"	W 076 13' 15.000"	39.23944	-76.22083	LNM 38/14, 5th Dist	625	12273_1	10/2/2014
12273	Delete	NOTE E:	Tolchester Sector Light A is equipped with a fixed light divided into sectors as follows: Light A, red sector - from 001.5 to 046; white sector - from 046 to 047.5; red sector - from 047.5 to 087.5; white sector - from 087.5 to 090.5; green sector - from 090.5 to 187; obscured - from 187 to 001.5.	N 39 14' 13.000"	W 076 07' 16.000"	39.23695	-76.12111	LNM 38/14, 5th Dist	625	12273_1	10/2/2014
12273	Delete	Tolchester Directional Light	F 21ft 5M	N 39 12' 24.393"	W 076 14' 46.835"	39.20678	-76.24635	LNM 37/14, 5th Dist	625	12273_1	9/25/2014
12273	Delete	Label:	Tower (see note E)	N 39 11' 54.000"	W 076 14' 36.000"	39.19833	-76.24333	LNM 37/14, 5th Dist	625	12273_1	9/25/2014
12273	Change	NOTE E to:	Tolchester Sector Light A is equipped with a fixed light divided into sectors as follows: Light A, red sector - from 001.5 to 046; white sector - from 046 to 047.5; red sector - from 047.5 to 087.5; white sector - from 087.5 to 090.5; green sector - from 090.5 to 187; obscured - from 187 to 001.5.	N 39 14' 13.000"	W 076 07' 16.000"	39.23695	-76.12111	LNM 37/14, 5th Dist	625	12273_1	9/25/2014
12273	Change	Tabulation - BALTIMORE HARBOR CHANNEL DEPTHS	Tabulation - BALTIMORE HARBOR CHANNEL DEPTHS	N 39 35' 08.000"	W 076 24' 26.000"	39.58556	-76.40722	LNM 32/14, 5th Dist	625	12273_1	8/7/2014
12273	Relocate	Gunpowder River Light 9	Fl G 4s 15ft 4M "9"	N 39 19' 50.927"	W 076 19' 11.027"	39.33081	-76.31973	LNM 27/14, 5th Dist	625	12273_1	7/10/2014
12273	Change	Tabulation - CHESAPEAKE AND DELAWARE CANAL CHANNEL DEPTHS	Tabulation - CHESAPEAKE AND DELAWARE CANAL CHANNEL DEPTHS	N 39 34' 38.000"	W 076 17' 38.000"	39.57722	-76.29389	LNM 26/14, 5th Dist	625	12273_1	7/3/2014
12273	Change	Swan Point Channel North Range Rear Passing Lights (2)	2 F 26ft 4M	N 39 07' 40.966"	W 076 16' 07.968"	39.12805	-76.26888	LNM 21/14, 5th Dist	625	12273_1	6/5/2014
12251	Add	Virginia Power South Tower Obstruction Lights (2)	2 F Y 15ft Priv	N 37 18' 36.494"	W 077 08' 46.773"	37.31014	-77.14632	LNM 16/17, 5th Dist	589	12251_1	4/27/2017
12251	Change	James River Channel Light 77A	Fl G 4s 15ft 5M "77A"	N 37 16' 12.867"	W 077 04' 34.420"	37.27024	-77.07623	LNM 08/17, 5th Dist	589	12251_1	3/2/2017
12251	Change	James River Channel Light 77B	Fl G 4s 15ft 5M "77B"	N 37 16' 35.300"	W 077 05' 02.580"	37.27647	-77.08405	LNM 08/17, 5th Dist	589	12251_1	3/2/2017
12251	Change	James River Channel Light 98	Fl R 4s 15ft 5M "98"	N 37 18' 30.877"	W 077 10' 46.636"	37.30858	-77.17962	LNM 08/17, 5th Dist	589	12251_1	3/2/2017
12251	Change	Tabulation - JAMES RIVER CHANNEL DEPTHS	Tabulation - JAMES RIVER CHANNEL DEPTHS	N 37 23' 00.000"	W 077 07' 30.000"	37.38334	-77.125	LNM 07/17, 5th Dist	589	12251_1	2/16/2017
12251	Change	Tabulation - JAMES RIVER CHANNEL DEPTHS	Tabulation - JAMES RIVER CHANNEL DEPTHS	N 37 23' 00.000"	W 077 07' 30.000"	37.38334	-77.125	LNM 06/17, 5th Dist	589	12251_1	2/2/2017
12251	Change	James River Channel Light 79	Fl G 2.5s 15ft 5M "79"	N 37 17' 36.581"	W 077 05' 02.419"	37.2935	-77.08401	LNM 34/16, 5th Dist	589	12251_1	9/1/2016
12251	Change	James River Channel Light 107	Fl G 6s 15ft 5M "107"	N 37 18' 44.239"	W 077 13' 56.387"	37.31229	-77.23233	LNM 34/16, 5th Dist	589	12251_1	9/1/2016
12251	Change	Tabulation - James River Channel Depths	Tabulation - James River Channel Depths	N 37 23' 00.000"	W 077 07' 30.000"	37.38334	-77.125	LNM 12/16, 5th Dist	589	12251_1	3/17/2016
12251	Relocate	James River Channel Light 74B	Fl R 4s 15ft 5M "74B"	N 37 18' 27.480"	W 077 00' 33.010"	37.30763	-77.00917	LNM 09/16, 5th Dist	589	12251_1	3/10/2016
12251	Change	James River Channel Light 74B	Fl R 4s 15ft 5M "74B"	N 37 18' 27.480"	W 077 00' 33.010"	37.30763	-77.00917	LNM 09/16, 5th Dist	589	12251_1	3/10/2016
12251	Relocate	James River Channel Lighted Buoy 83	G "83" Fl G 4s	N 37 18' 35.733"	W 077 05' 15.193"	37.30993	-77.08755	LNM 07/16, 5th Dist	589	12251_1	2/25/2016
12251	Relocate	James River Channel Buoy 77	G C "77"	N 37 16' 10.634"	W 077 03' 32.790"	37.26962	-77.0591	LNM 07/16, 5th Dist	589	12251_1	2/25/2016
12251	Relocate	James River Channel Buoy 75	G C "75"	N 37 16' 31.234"	W 077 02' 57.088"	37.27534	-77.04919	LNM 07/16, 5th Dist	589	12251_1	2/25/2016
12251	Change	Tabulation - JAMES RIVER CHANNEL DEPTHS	Tabulation - JAMES RIVER CHANNEL DEPTHS	N 37 23' 00.000"	W 077 07' 30.000"	37.38334	-77.125	LNM 51/15, 5th Dist	589	12251_1	12/17/2015
12251	Change	Tabulation - JAMES RIVER CHANNEL DEPTHS	Tabulation - JAMES RIVER CHANNEL DEPTHS	N 37 23' 00.000"	W 077 07' 30.000"	37.38334	-77.125	LNM 40/15, 5th Dist	589	12251_1	10/1/2015
12251	Change	Tabulation - James River Channel Depths	Tabulation - James River Channel Depths	N 37 23' 00.000"	W 077 07' 30.000"	37.38334	-77.125	LNM 23/15, 5th Dist	589	12251_1	6/4/2015
12251	Relocate	James River Channel Lighted Buoy 106	R "106" Fl R 4s	N 37 19' 08.033"	W 077 13' 08.210"	37.3189	-77.21895	LNM 06/15, 5th Dist	589	12251_1	2/5/2015
12251	Relocate	Chickahominy River Channel Buoy 18	R N "18"	N 37 18' 42.530"	W 076 52' 34.866"	37.31181	-76.87635	LNM 03/15, 5th Dist	589	12251_1	1/29/2015
12251	Relocate	James River Channel Lighted Buoy 90	R "90" Fl R 2.5s	N 37 18' 08.394"	W 077 07' 17.960"	37.30233	-77.12166	LNM 44/14, 5th Dist	589	12251_1	11/13/2014
12251	Relocate	James River Channel Lighted Buoy 82	R "82" Fl R 4s	N 37 18' 17.442"	W 077 04' 49.853"	37.30484	-77.08051	LNM 44/14, 5th Dist	589	12251_1	11/13/2014
12251	Change	Tabulation - JAMES RIVER CHANNEL DEPTHS	Tabulation - JAMES RIVER CHANNEL DEPTHS	N 37 23' 00.000"	W 077 07' 30.000"	37.38334	-77.125	LNM 42/14, 5th Dist	589	12251_1	10/16/2014
12251	Relocate	James River Channel Lighted Buoy 75A	G "75A" Fl G 4s	N 37 16' 18.934"	W 077 03' 12.889"	37.27193	-77.05358	LNM 37/14, 5th Dist	589	12251_1	9/25/2014
12251	Add	Cable Area  PT 1 OF 2	Chart No. 1: L30.2	N 37 25' 09.400"	W 076 58' 38.020"	37.41928	-76.97723	LNM 28/14, 5th Dist	589	12251_1	7/17/2014
12251	Add	Cable Area  PT 2 OF 2	Chart No. 1: L30.2	N 37 24' 51.780"	W 076 58' 40.250"	37.41438	-76.97784	LNM 28/14, 5th Dist	589	12251_1	7/17/2014
12251	Add	Cable Area  PT 1 OF 2	Chart No. 1: L30.2	N 37 25' 11.620"	W 076 58' 25.080"	37.4199	-76.97363	LNM 28/14, 5th Dist	589	12251_1	7/17/2014
12251	Add	Cable Area  PT 2 OF 2	Chart No. 1: L30.2	N 37 25' 00.680"	W 076 58' 26.400"	37.41685	-76.974	LNM 28/14, 5th Dist	589	12251_1	7/17/2014
12251	Delete	Overhead Power Cable PT 1 OF 2	OVHD PWR CAB   (Chart No. 1: D26) 	N 37 25' 17.180"	W 076 58' 32.870"	37.42144	-76.9758	LNM 28/14, 5th Dist	589	12251_1	7/17/2014
12251	Delete	Overhead Power Cable PT 2 OF 2	OVHD PWR CAB   (Chart No. 1: D26)  	N 37 24' 50.880"	W 076 58' 34.020"	37.41413	-76.97612	LNM 28/14, 5th Dist	589	12251_1	7/17/2014
12251	Add	James River Lighted Data Buoy VCU	Y "VCU" Fl Y 4s Priv	N 37 18' 49.080"	W 077 11' 27.600"	37.31363	-77.191	LNM 39/13, 5th Dist	589	12251_1	9/30/2013
12251	Add	Channel Limits PT 1 OF 4	Chart No. 1: I20	N 37 13' 43.800"	W 076 56' 09.800"	37.22883	-76.93606	LNM 35/13, 5th Dist	589	12251_1	8/22/2013
12251	Add	Channel Limits PT 2 OF 4	Chart No. 1: I20	N 37 13' 33.600"	W 076 55' 48.400"	37.226	-76.93011	LNM 35/13, 5th Dist	589	12251_1	8/22/2013
12251	Add	Channel Limits PT 3 OF 4	Chart No. 1: I20	N 37 13' 41.200"	W 076 56' 11.700"	37.22811	-76.93658	LNM 35/13, 5th Dist	589	12251_1	8/22/2013
12251	Add	Channel Limits PT 4 OF 4	Chart No. 1: I20	N 37 13' 30.500"	W 076 55' 49.200"	37.22514	-76.93034	LNM 35/13, 5th Dist	589	12251_1	8/22/2013
12251	Substitute	Sounding in Feet	26	N 37 13' 35.600"	W 076 56' 04.400"	37.22655	-76.93456	LNM 35/13, 5th Dist	589	12251_1	8/22/2013
12222	Change	Newport News Creek Light 2	Fl R 2.5s 15ft 4M "2"	N 36 57' 34.810"	W 076 24' 33.758"	36.95967	-76.40938	LNM 27/17, 5th Dist	559	12222_1	7/13/2017
12222	Change	Little Creek Harbor Jetty Light 6	Fl R 2.5s 15ft 4M "6"	N 36 55' 44.799"	W 076 10' 41.793"	36.92911	-76.17828	LNM 25/17, 5th Dist	559	12222_1	6/29/2017
12222	Change	Depth Legend - Craney Island Rehandling Basin - North Access Channel to:	15 FT 2017	N 36 53' 57.280"	W 076 20' 28.360"	36.89925	-76.34121	LNM 26/17, 5th Dist	559	12222_1	6/22/2017
12222	Change	Depth Legend - Norfolk International Terminals to:	50 FT JUL 2016	N 36 55' 39.450"	W 076 19' 54.810"	36.92762	-76.33189	LNM 25/17, 5th Dist	559	12222_1	6/15/2017
12222	Add	Sounding in Feet	14	N 36 59' 27.600"	W 076 17' 38.300"	36.991	-76.29398	LNM 23/17, 5th Dist	559	12222_1	6/8/2017
12222	Add	Sounding in Feet	30	N 36 59' 49.700"	W 076 18' 56.500"	36.99714	-76.3157	LNM 23/17, 5th Dist	559	12222_1	6/8/2017
12222	Add	Obstruction in Feet	14 Obstn   (Chart No. 1: K41)	N 37 07' 28.000"	W 076 13' 04.300"	37.12444	-76.21786	LNM 23/17, 5th Dist	559	12222_1	6/8/2017
12222	Delete	Sounding in Feet	22	N 36 59' 29.800"	W 076 17' 30.500"	36.99161	-76.29181	LNM 23/17, 5th Dist	559	12222_1	6/8/2017
12222	Relocate	Thimble Shoal Channel Lighted Buoy 14	R "14" Fl R 2.5s	N 36 59' 42.340"	W 076 11' 05.570"	36.99509	-76.18488	LNM 19/17, 5th Dist	559	12222_1	5/18/2017
12222	Add	Back River Channel Buoy 6A	R N "6A"	N 37 06' 32.792"	W 076 16' 41.918"	37.10911	-76.27831	LNM 19/17, 5th Dist	559	12222_1	5/11/2017
12222	Relocate	Back River Channel Daybeacon 12	R "12"	N 37 06' 20.091"	W 076 18' 21.026"	37.10558	-76.30584	LNM 18/17, 5th Dist	559	12222_1	5/11/2017
12222	Relocate	Back River Channel Light 22	Fl R 4s 15ft 4M "22"	N 37 05' 24.199"	W 076 20' 03.960"	37.09005	-76.33443	LNM 18/17, 5th Dist	559	12222_1	5/11/2017
12222	Relocate	Poquoson Flats Channel Daybeacon 2PF	R "2PF"	N 37 06' 27.136"	W 076 14' 46.082"	37.10754	-76.24613	LNM 18/17, 5th Dist	559	12222_1	5/11/2017
12222	Change	Tabulation - NORFOLK HARBOR AND APPROACHES	Tabulation - NORFOLK HARBOR AND APPROACHES	N 36 53' 20.000"	W 076 10' 00.000"	36.88889	-76.16666	LNM 18/17, 5th Dist	559	12222_1	4/27/2017
12222	Relocate	Chesapeake Channel Lighted Bell Buoy 2C	R "2C" Fl R 2.5s BELL	N 36 57' 18.528"	W 075 58' 22.246"	36.95515	-75.97285	LNM 16/17, 5th Dist	559	12222_1	4/27/2017
12222	Relocate	Chesapeake Channel Lighted Bell Buoy 12	R "12" Q R BELL	N 37 01' 05.077"	W 076 02' 41.593"	37.01808	-76.04488	LNM 16/17, 5th Dist	559	12222_1	4/27/2017
12222	Change	Depth Legend - Little River (Creek) to: 22 FT FOR A WIDTH OF 400 FT OCT 2016	22 FT FOR A WIDTH OF 400 FT OCT 2016	N 36 55' 44.210"	W 076 10' 38.260"	36.92895	-76.17729	LNM 15/17, 5th Dist	559	12222_1	4/13/2017
12222	Change	Depth Legend - Little River (Creek) to: 22 FT FOR A WIDTH OF 400 FT OCT 2016	22 FT FOR A WIDTH OF 400 FT OCT 2016	N 36 57' 21.070"	W 076 10' 23.340"	36.95585	-76.17315	LNM 15/17, 5th Dist	559	12222_1	4/13/2017
12222	Change	Depth Legend - Little River (Creek) Basin to: 22 FT OCT 2016	22 FT OCT 2016	N 36 54' 56.040"	W 076 10' 42.050"	36.91557	-76.17834	LNM 15/17, 5th Dist	559	12222_1	4/13/2017
12222	Change	Tabulation - Norfolk Harbor and Approaches	Tabulation - Norfolk Harbor and Approaches	N 36 53' 20.000"	W 076 10' 00.000"	36.88889	-76.16666	LNM 15/17, 5th Dist	559	12222_1	3/30/2017
12222	Change	Lafayette River Channel Light 20	Fl R 4s 15ft 4M "20"	N 36 54' 00.588"	W 076 17' 26.934"	36.90016	-76.29082	LNM 12/17, 5th Dist	559	12222_1	3/23/2017
12222	Change	Linkhorn Bay Light 23	Q G 15ft 4M "23"	N 36 52' 17.850"	W 076 00' 31.872"	36.87162	-76.00885	LNM 11/17, 5th Dist	559	12222_1	3/23/2017
12222	Change	Broad Bay Channel Light 14	Fl R 4s 15ft 4M "14"	N 36 54' 06.016"	W 076 03' 11.336"	36.90167	-76.05315	LNM 11/17, 5th Dist	559	12222_1	3/23/2017
12222	Change	Craney Island Creek Light 6	Q R 15ft 4M "6"	N 36 52' 52.623"	W 076 20' 47.129"	36.88128	-76.34643	LNM 07/17, 5th Dist	559	12222_1	2/23/2017
12222	Change	Long Creek Channel Light 4	Q R 15ft 4M "4"	N 36 54' 15.702"	W 076 05' 21.876"	36.90436	-76.08941	LNM 07/17, 5th Dist	559	12222_1	2/23/2017
12222	Change	Little Creek Harbor Light 5	Fl G 2.5s 15ft 4M "5"	N 36 55' 41.796"	W 076 10' 34.369"	36.92828	-76.17622	LNM 07/17, 5th Dist	559	12222_1	2/23/2017
12222	Change	Naval Boat Channel Light 8	Fl R 2.5s 15ft 4M "8"	N 36 57' 40.964"	W 076 18' 46.992"	36.96138	-76.31306	LNM 07/17, 5th Dist	559	12222_1	2/23/2017
12222	Change	Hampton River Channel Light 11	Q G 15ft 4M "11"	N 37 00' 26.017"	W 076 20' 19.164"	37.00723	-76.33865	LNM 07/17, 5th Dist	559	12222_1	2/23/2017
12222	Change	Hampton Flats Bar Channel Light 2	Fl R 2.5s 15ft 4M "2"	N 36 59' 00.552"	W 076 21' 22.936"	36.98349	-76.35637	LNM 07/17, 5th Dist	559	12222_1	2/23/2017
12222	Add	Shoaling Label	Shl to 6 ft 2017	N 37 06' 33.000"	W 076 16' 40.800"	37.10917	-76.278	LNM 07/17, 5th Dist	559	12222_1	2/23/2017
12222	Relocate	Chesapeake Channel Lighted Buoy 16	R "16" Q R	N 37 03' 53.581"	W 076 05' 25.148"	37.06488	-76.09032	LNM 07/17, 5th Dist	559	12222_1	2/23/2017
12222	Relocate	Craney Island Creek Light 6	Q R 15ft 4M "6"	N 36 52' 52.623"	W 076 20' 47.129"	36.88128	-76.34643	LNM 07/17, 5th Dist	559	12222_1	2/23/2017
12222	Relocate	Dandy Haven Marina Entrance Daybeacon 8	R "8" Priv	N 37 05' 51.100"	W 076 18' 02.800"	37.09753	-76.30078	LNM 05/17, 5th Dist	559	12222_1	2/9/2017
12222	Relocate	Newport News Creek Lighted Buoy 4	R "4" Fl R 4s	N 36 57' 42.931"	W 076 24' 37.607"	36.96193	-76.41045	LNM 05/17, 5th Dist	559	12222_1	2/9/2017
12222	Change	Depth Legend - CHESAPEAKE BAY TO MAGOTHY BAY to: 3 1/2 FT JAN 2015	3 1/2 FT JAN 2015	N 37 06' 52.640"	W 075 58' 35.750"	37.11462	-75.9766	LNM 05/17, 5th Dist	559	12222_1	1/26/2017
12222	Change	Depth Legend - CHESAPEAKE BAY TO MAGOTHY BAY to: 3 FT FOR A WIDTH OF 60 FT JAN 2015	3 FT FOR A WIDTH OF 60 FT JAN 2015	N 37 07' 34.920"	W 075 57' 05.020"	37.12637	-75.95139	LNM 05/17, 5th Dist	559	12222_1	1/26/2017
12222	Change	Depth Legend - South Access Channel to: 8 1/2 FT 2016	8 1/2 FT 2016	N 36 53' 43.350"	W 076 20' 24.450"	36.89537	-76.34013	LNM 02/17, 5th Dist	559	12222_1	1/5/2017
12222	Delete	Channel Limits PT 1 OF 7	Chart No. 1: I20	N 36 54' 28.440"	W 076 18' 41.700"	36.9079	-76.31158	LNM 02/17, 5th Dist	559	12222_1	1/5/2017
12222	Delete	Channel Limits PT 2 OF 7	Chart No. 1: I20	N 36 54' 27.950"	W 076 18' 52.480"	36.90776	-76.31458	LNM 02/17, 5th Dist	559	12222_1	1/5/2017
12222	Delete	Channel Limits PT 3 OF 7	Chart No. 1: I20	N 36 53' 36.080"	W 076 19' 26.600"	36.89336	-76.32406	LNM 02/17, 5th Dist	559	12222_1	1/5/2017
12222	Delete	Channel Limits PT 4 OF 7	Chart No. 1: I20	N 36 54' 29.420"	W 076 18' 41.990"	36.90817	-76.31166	LNM 02/17, 5th Dist	559	12222_1	1/5/2017
12222	Delete	Channel Limits PT 5 OF 7	Chart No. 1: I20	N 36 54' 28.990"	W 076 18' 53.230"	36.90805	-76.31479	LNM 02/17, 5th Dist	559	12222_1	1/5/2017
12222	Delete	Channel Limits PT 6 OF 7	Chart No. 1: I20	N 36 53' 39.530"	W 076 19' 25.720"	36.89431	-76.32381	LNM 02/17, 5th Dist	559	12222_1	1/5/2017
12222	Delete	Channel Limits PT 7 OF 7	Chart No. 1: I20	N 36 53' 37.130"	W 076 19' 29.490"	36.89365	-76.32486	LNM 02/17, 5th Dist	559	12222_1	1/5/2017
12222	Add	Channel Limits PT 1 OF 6	Chart No. 1: I20	N 36 54' 28.280"	W 076 18' 42.000"	36.90786	-76.31167	LNM 02/17, 5th Dist	559	12222_1	1/5/2017
12222	Add	Channel Limits PT 2 OF 6	Chart No. 1: I20	N 36 54' 27.960"	W 076 18' 52.480"	36.90777	-76.31458	LNM 02/17, 5th Dist	559	12222_1	1/5/2017
12222	Add	Channel Limits PT 3 OF 6	Chart No. 1: I20	N 36 53' 36.090"	W 076 19' 26.590"	36.89336	-76.32405	LNM 02/17, 5th Dist	559	12222_1	1/5/2017
12222	Add	Channel Limits PT 4 OF 6	Chart No. 1: I20	N 36 54' 29.270"	W 076 18' 42.050"	36.90813	-76.31168	LNM 02/17, 5th Dist	559	12222_1	1/5/2017
12222	Add	Channel Limits PT 5 OF 6	Chart No. 1: I20	N 36 54' 28.920"	W 076 18' 53.230"	36.90803	-76.31479	LNM 02/17, 5th Dist	559	12222_1	1/5/2017
12222	Add	Channel Limits PT 6 OF 6	Chart No. 1: I20	N 36 53' 36.550"	W 076 19' 27.680"	36.89349	-76.32436	LNM 02/17, 5th Dist	559	12222_1	1/5/2017
12222	Change	Tabulation - NORFOLK HARBOR AND APPROACHES	Tabulation - NORFOLK HARBOR AND APPROACHES	N 36 53' 20.000"	W 076 10' 00.000"	36.88889	-76.16666	LNM 02/17, 5th Dist	559	12222_1	1/5/2017
12222	Change	Depth Legend - East Haven Creek, Lafayette River to: 2 1/2 FT JUL 2016	2 1/2 FT JUL 2016	N 36 53' 11.300"	W 076 16' 58.700"	36.88647	-76.28297	LNM 02/17, 5th Dist	559	12222_1	1/5/2017
12222	Change	Tabulation - HAMPTON, PHOEBUS AND WILLOUGHBY CHANNEL DEPTHS	Tabulation - HAMPTON, PHOEBUS AND WILLOUGHBY CHANNEL DEPTHS	N 37 01' 15.000"	W 076 23' 09.000"	37.02083	-76.38583	LNM 02/17, 5th Dist	559	12222_1	1/5/2017
12222	Change	Craney Island Creek Light 2CI	Q R 19ft 4M "2CI"	N 36 52' 50.821"	W 076 20' 27.700"	36.88078	-76.34103	LNM 49/16, 5th Dist	559	12222_1	12/15/2016
12222	Relocate	Dandy Haven Marina Entrance Daybeacon 11	G "11" Priv	N 37 05' 48.400"	W 076 17' 59.800"	37.09678	-76.29994	LNM 46/16, 5th Dist	559	12222_1	11/24/2016
12222	Change	Back River Northwest Branch Light 1	Fl G 2.5s 15ft 4M "1"	N 37 05' 54.973"	W 076 20' 10.716"	37.0986	-76.33631	LNM 46/16, 5th Dist	559	12222_1	11/24/2016
12222	Change	Back River Northwest Branch Light 3	Fl G 4s 15ft 4M "3"	N 37 05' 42.004"	W 076 20' 31.951"	37.095	-76.34221	LNM 46/16, 5th Dist	559	12222_1	11/24/2016
12222	Relocate	Dandy Haven Marina Entrance Daybeacon 1	G "1" Priv	N 37 05' 59.700"	W 076 18' 04.000"	37.09992	-76.30111	LNM 46/16, 5th Dist	559	12222_1	11/24/2016
12222	Relocate	Dandy Haven Marina Entrance Daybeacon 3	G "3" Priv	N 37 05' 57.500"	W 076 18' 03.600"	37.0993	-76.301	LNM 46/16, 5th Dist	559	12222_1	11/24/2016
12222	Relocate	Dandy Haven Marina Entrance Daybeacon 5	G "5" Priv	N 37 05' 56.700"	W 076 18' 03.000"	37.09908	-76.30083	LNM 46/16, 5th Dist	559	12222_1	11/24/2016
12222	Relocate	Dandy Haven Marina Entrance Daybeacon 7	G "7" Priv	N 37 05' 51.200"	W 076 18' 02.400"	37.09756	-76.30067	LNM 46/16, 5th Dist	559	12222_1	11/24/2016
12222	Relocate	Dandy Haven Marina Entrance Daybeacon 9	G "9" Priv	N 37 05' 49.900"	W 076 18' 01.200"	37.09719	-76.30033	LNM 46/16, 5th Dist	559	12222_1	11/24/2016
12222	Relocate	Dandy Haven Marina Entrance Daybeacon 13	G "13" Priv	N 37 05' 45.700"	W 076 17' 57.400"	37.09603	-76.29928	LNM 46/16, 5th Dist	559	12222_1	11/24/2016
12222	Relocate	Dandy Haven Marina Entrance Daybeacon 2	R "2" Priv	N 37 05' 59.700"	W 076 18' 04.500"	37.09992	-76.30125	LNM 46/16, 5th Dist	559	12222_1	11/24/2016
12222	Relocate	Dandy Haven Marina Entrance Daybeacon 4	R "4" Priv	N 37 05' 57.400"	W 076 18' 04.100"	37.09928	-76.30114	LNM 46/16, 5th Dist	559	12222_1	11/24/2016
12222	Relocate	Dandy Haven Marina Entrance Daybeacon 6	R "6" Priv	N 37 05' 54.900"	W 076 18' 03.600"	37.09858	-76.301	LNM 46/16, 5th Dist	559	12222_1	11/24/2016
12222	Relocate	Dandy Haven Marina Entrance Daybeacon 8	R "8" Priv	N 37 05' 48.900"	W 076 18' 02.800"	37.09692	-76.30078	LNM 46/16, 5th Dist	559	12222_1	11/24/2016
12222	Relocate	Dandy Haven Marina Entrance Daybeacon 10	R "10" Priv	N 37 05' 49.600"	W 076 18' 01.600"	37.09711	-76.30045	LNM 46/16, 5th Dist	559	12222_1	11/24/2016
12222	Relocate	Dandy Haven Marina Entrance Daybeacon 12	R "12" Priv	N 37 05' 48.100"	W 076 18' 00.300"	37.09669	-76.30009	LNM 46/16, 5th Dist	559	12222_1	11/24/2016
12222	Add	Dandy Haven Marina Entrance Daybeacon 14	R "14" Priv	N 37 05' 45.600"	W 076 17' 58.100"	37.096	-76.29947	LNM 46/16, 5th Dist	559	12222_1	11/24/2016
12222	Change	Willoughby Bay Channel Light 2	Fl R 2.5s 15ft 4M "2"	N 36 58' 58.157"	W 076 18' 38.477"	36.98282	-76.31069	LNM 46/16, 5th Dist	559	12222_1	11/24/2016
12222	Change	Hampton River Channel Light 6	Q R 15ft 4M "6"	N 37 00' 14.003"	W 076 19' 26.636"	37.00389	-76.32407	LNM 46/16, 5th Dist	559	12222_1	11/24/2016
12222	Change	Phoebus Channel Entrance Light 1	Fl G 2.5s 15ft 4M "1"	N 36 59' 57.280"	W 076 18' 54.700"	36.99924	-76.31519	LNM 46/16, 5th Dist	559	12222_1	11/24/2016
12222	Change	Back River Channel Light 18	Q R 15ft 4M "18"	N 37 06' 13.967"	W 076 19' 43.322"	37.10388	-76.3287	LNM 46/16, 5th Dist	559	12222_1	11/24/2016
12222	Change	Back River Channel Light 22	Fl R 4s 15ft 4M "22"	N 37 05' 24.305"	W 076 20' 03.881"	37.09008	-76.33441	LNM 46/16, 5th Dist	559	12222_1	11/24/2016
12222	Change	Lafayette River Channel Light 11	Fl G 4s 15ft 4M "11"	N 36 54' 30.102"	W 076 18' 53.022"	36.90836	-76.31473	LNM 46/16, 5th Dist	559	12222_1	11/24/2016
12222	Change	Bridge Construction PT 1 OF 2	Chart No. 1: D.d, with magenta screen extending 500 feet from bridge	N 36 54' 27.530"	W 076 05' 37.350"	36.90765	-76.09371	LNM 47/16, 5th Dist	559	12222_1	11/17/2016
12222	Change	Bridge Construction PT 2 OF 2	Chart No. 1: D.d, with magenta screen extending 500 feet from bridge	N 36 54' 26.790"	W 076 05' 25.850"	36.90744	-76.09052	LNM 47/16, 5th Dist	559	12222_1	11/17/2016
12222	Change	Bridge Construction Label	Bridge under construction	N 36 54' 24.080"	W 076 06' 00.260"	36.90669	-76.10007	LNM 47/16, 5th Dist	559	12222_1	11/17/2016
12222	Add	Bridge Construction Note	CAUTION Fixed and floating obstructions, some submerged, may exist within the magenta tinted bridge construction area.  Mariners are advised to proceed with caution.	N 36 55' 33.660"	W 076 01' 59.030"	36.92602	-76.03307	LNM 47/16, 5th Dist	559	12222_1	11/17/2016
12222	Relocate	NOAA Lighted Data Buoy FL	Y "FL" Fl Y 4s	N 36 59' 53.100"	W 076 05' 14.280"	36.99809	-76.0873	LNM 45/16, 5th Dist	559	12222_1	11/17/2016
12222	Add	Obstruction in Feet	11 Obstn       Chart No. 1: K41	N 37 08' 25.700"	W 076 14' 03.700"	37.14047	-76.23436	LNM 46/16, 5th Dist	559	12222_1	11/17/2016
12222	Change	Craney Island Creek Wreck Light WR12	Q R 15ft 4M "WR12"	N 36 53' 05.154"	W 076 21' 01.974"	36.88477	-76.35055	LNM 44/16, 5th Dist	559	12222_1	11/10/2016
12222	Delete	NOAA Lighted Data Buoy FL	Y "FL" Fl Y 4s	N 36 58' 46.740"	W 076 02' 36.240"	36.97965	-76.0434	LNM 44/16, 5th Dist	559	12222_1	11/10/2016
12222	Add	NOAA Lighted Data Buoy FL	Y "FL" Fl Y 4s	N 36 59' 53.376"	W 076 05' 13.848"	36.99816	-76.08718	LNM 44/16, 5th Dist	559	12222_1	11/10/2016
12222	Change	Virginia Inside Passage Daybeacon 266	R "266"	N 37 07' 15.628"	W 075 57' 32.904"	37.12101	-75.95914	LNM 43/16, 5th Dist	559	12222_1	11/3/2016
12222	Change	Cape Henry Wreck Lighted Buoy 2CH	R "WR2CH" Q R	N 36 57' 33.327"	W 076 00' 46.052"	36.95926	-76.01279	LNM 43/16, 5th Dist	559	12222_1	11/3/2016
12222	Change	Virginia Inside Passage Daybeacon 267	G "267"	N 37 06' 53.063"	W 075 58' 13.699"	37.11474	-75.97047	LNM 43/16, 5th Dist	559	12222_1	11/3/2016
12222	Change	Back River Channel Light 8	Fl R 4s 15ft 4M "8"	N 37 06' 42.022"	W 076 17' 24.270"	37.11167	-76.29008	LNM 39/16, 5th Dist	559	12222_1	10/6/2016
12222	Add	Sounding in Feet	2	N 37 06' 14.260"	W 076 15' 12.604"	37.10396	-76.2535	LNM 39/16, 5th Dist	559	12222_1	9/22/2016
12222	Add	Obstruction in Feet	8 Obstn       Chart No. 1: K41	N 37 08' 05.028"	W 076 13' 50.189"	37.13473	-76.23061	LNM 36/16, 5th Dist	559	12222_1	9/1/2016
12222	Delete	Sounding in Feet	3	N 36 58' 53.380"	W 076 18' 34.690"	36.98149	-76.30964	LNM 36/16, 5th Dist	559	12222_1	9/1/2016
12222	Add	Sounding in Feet	2	N 36 58' 52.833"	W 076 18' 36.085"	36.98134	-76.31002	LNM 36/16, 5th Dist	559	12222_1	9/1/2016
12222	Add	Sounding in Feet	5	N 36 59' 44.325"	W 076 15' 18.310"	36.99565	-76.25509	LNM 36/16, 5th Dist	559	12222_1	9/1/2016
12222	Add	Sounding in Feet	6	N 36 59' 45.491"	W 076 15' 10.230"	36.99597	-76.25284	LNM 36/16, 5th Dist	559	12222_1	9/1/2016
12222	Add	Sounding in Feet	2	N 36 54' 50.530"	W 076 05' 20.212"	36.91404	-76.08895	LNM 35/16, 5th Dist	559	12222_1	8/25/2016
12222	Add	Sounding in Feet	2	N 36 55' 29.649"	W 076 02' 59.689"	36.9249	-76.04991	LNM 35/16, 5th Dist	559	12222_1	8/25/2016
12222	Add	Sounding in Feet	5	N 36 55' 36.311"	W 076 02' 53.768"	36.92675	-76.04827	LNM 35/16, 5th Dist	559	12222_1	8/25/2016
12222	Delete	Sounding in Feet	8	N 36 54' 46.502"	W 076 05' 20.482"	36.91292	-76.08902	LNM 35/16, 5th Dist	559	12222_1	8/25/2016
12222	Add	Sounding in Feet	4	N 36 55' 56.001"	W 076 02' 21.820"	36.93222	-76.0394	LNM 35/16, 5th Dist	559	12222_1	8/25/2016
12222	Add	Sounding in Feet	3	N 36 55' 41.724"	W 076 02' 47.819"	36.92826	-76.04662	LNM 35/16, 5th Dist	559	12222_1	8/25/2016
12222	Add	Sounding in Feet	5	N 36 55' 50.767"	W 076 02' 36.773"	36.93077	-76.04355	LNM 35/16, 5th Dist	559	12222_1	8/25/2016
12222	Add	Salt Ponds Daybeacon 7	G "7" Priv	N 37 03' 47.800"	W 076 16' 54.600"	37.06328	-76.28183	LNM 18/16, 5th Dist	559	12222_1	5/12/2016
12222	Change	Tabulation - Norfolk Harbor and Approaches	Tabulation - Norfolk Harbor and Approaches	N 36 53' 20.000"	W 076 10' 00.000"	36.88889	-76.16666	LNM 17/16, 5th Dist	559	12222_1	4/21/2016
12222	Change	Little Creek Harbor Jetty Light 3	Q G 25ft 5M "3"	N 36 55' 58.710"	W 076 10' 35.059"	36.93298	-76.17641	LNM 15/16, 5th Dist	559	12222_1	4/21/2016
12222	Relocate	Chesapeake Channel Lighted Buoy 7	G "7" Q G	N 36 59' 24.962"	W 076 00' 48.898"	36.99027	-76.01358	LNM 13/16, 5th Dist	559	12222_1	4/7/2016
12222	Relocate	Chesapeake Channel Lighted Buoy 11	G "11" Q G	N 37 00' 57.414"	W 076 02' 52.119"	37.01595	-76.04781	LNM 13/16, 5th Dist	559	12222_1	4/7/2016
12222	Relocate	Little Creek Harbor Light 5	Fl G 2.5s 15ft 3M "5"	N 36 55' 41.796"	W 076 10' 34.369"	36.92828	-76.17622	LNM 11/16, 5th Dist	559	12222_1	3/24/2016
12222	Add	Midtown Tunnel East Warning Light B	Fl 4s 12ft "B" Priv	N 36 51' 31.440"	W 076 18' 37.430"	36.85873	-76.31039	LNM 11/16, 5th Dist	559	12222_1	3/24/2016
12222	Relocate	Willoughby Bay Channel Warning Daybeacon A	W "A"	N 36 58' 55.523"	W 076 18' 34.744"	36.98209	-76.30965	LNM 11/16, 5th Dist	559	12222_1	3/24/2016
12222	Change	Willoughby Bay Channel Warning Daybeacon A	W "A"	N 36 58' 55.523"	W 076 18' 34.744"	36.98209	-76.30965	LNM 11/16, 5th Dist	559	12222_1	3/24/2016
12222	Change	York River Entrance Channel Lighted Buoy 2	R "2" Fl R 2.5s (delete GONG)	N 37 07' 44.618"	W 076 09' 44.852"	37.12906	-76.16246	LNM 11/16, 5th Dist	559	12222_1	3/24/2016
12222	Add	Willoughby Bay Channel Daybeacon 4	R "4"	N 36 58' 44.002"	W 076 18' 40.418"	36.97889	-76.31123	LNM 11/16, 5th Dist	559	12222_1	3/24/2016
12222	Relocate	York River Entrance Channel Lighted Buoy 2	R "2" Fl R 2.5s	N 37 07' 44.618"	W 076 09' 44.852"	37.12906	-76.16246	LNM 11/16, 5th Dist	559	12222_1	3/24/2016
12222	Relocate	York River Entrance Channel Lighted Buoy 1YR	G "1YR" Fl G 2.5s	N 37 07' 37.679"	W 076 09' 51.527"	37.12713	-76.16431	LNM 09/16, 5th Dist	559	12222_1	3/10/2016
12222	Change	Tabulation - NORFOLK HARBOR AND APPROACHES	Tabulation - NORFOLK HARBOR AND APPROACHES	N 36 53' 20.000"	W 076 10' 00.000"	36.88889	-76.16666	LNM 09/16, 5th Dist	559	12222_1	2/25/2016
12222	Change	Willoughby Bay Channel Daybeacon 11	G "11"	N 36 57' 45.603"	W 076 17' 47.453"	36.96267	-76.29652	LNM 07/16, 5th Dist	559	12222_1	2/25/2016
12222	Relocate	Back River Channel Daybeacon 9A	G "9A"	N 37 06' 35.508"	W 076 17' 34.215"	37.10986	-76.29284	LNM 05/16, 5th Dist	559	12222_1	2/11/2016
12222	Relocate	Back River Channel Daybeacon 9B	G "9B"	N 37 06' 32.836"	W 076 17' 41.253"	37.10912	-76.29479	LNM 05/16, 5th Dist	559	12222_1	2/11/2016
12222	Change	Long Creek East Channel Daybeacon 13	G "13"	N 36 54' 12.971"	W 076 01' 55.883"	36.9036	-76.03219	LNM 03/16, 5th Dist	559	12222_1	1/28/2016
12222	Change	Broad Bay Channel Daybeacon 17	G "17"	N 36 53' 49.536"	W 076 02' 03.132"	36.89709	-76.0342	LNM 03/16, 5th Dist	559	12222_1	1/28/2016
12222	Change	Broad Bay Channel Daybeacon 20	R "20"	N 36 53' 28.692"	W 076 01' 10.644"	36.8913	-76.01962	LNM 03/16, 5th Dist	559	12222_1	1/28/2016
12222	Change	Depth Legend - Craney Island Rehandling Basin - North Access Channel to:	16 FT 2015	N 36 53' 57.280"	W 076 20' 28.360"	36.89925	-76.34121	LNM 04/16, 5th Dist	559	12222_1	1/21/2016
12222	Change	Depth Legend - Craney Island Rehandling Basin - South Access Channel to:	9 FT 2015	N 36 53' 43.350"	W 076 20' 24.450"	36.89537	-76.34013	LNM 04/16, 5th Dist	559	12222_1	1/21/2016
12222	Change	Newport News Middle Ground Light	Fl R 10s 52ft 7M	N 36 56' 42.633"	W 076 23' 29.351"	36.94518	-76.39149	LNM 51/15, 5th Dist	559	12222_1	1/7/2016
12222	Change	Depth Note - LYNNHAVEN INLET TO BROAD BAY to:	Lynnhaven Inlet is subject to continual change. The controlling depth in the improved channel from 3654'15.2"N 7605'16.2"W to Broad Bay is 5 feet for a mid-width of 72 feet. Apr 2013 - Sep 2015	N 36 55' 00.000"	W 076 00' 58.000"	36.91667	-76.01611	LNM 50/15, 5th Dist	559	12222_1	12/10/2015
12222	Change	Depth Legend - LYNNHAVEN INLET to:	7 1/2 FT WIDTH 150 FT SEP 2015	N 36 54' 54.570"	W 076 05' 26.340"	36.91516	-76.09065	LNM 50/15, 5th Dist	559	12222_1	12/10/2015
12222	Change	Tabulation - Norfolk Harbor and Approaches	Tabulation - Norfolk Harbor and Approaches	N 36 53' 20.000"	W 076 10' 00.000"	36.88889	-76.16666	LNM 48/15, 5th Dist	559	12222_1	11/26/2015
12222	Relocate	Cape Henry Wreck Lighted Buoy 2CH	R "2CH" Q R	N 36 57' 33.327"	W 076 00' 46.052"	36.95926	-76.01279	LNM 42/15, 5th Dist	559	12222_1	10/29/2015
12222	Relocate	Elizabeth River Channel Lighted Buoy 18	R "18" Fl R 2.5s	N 36 54' 15.973"	W 076 20' 22.008"	36.90444	-76.33945	LNM 41/15, 5th Dist	559	12222_1	10/22/2015
12222	Delete	Fort Wool Light	Fl 4s 25ft 5M	N 36 59' 12.529"	W 076 18' 10.791"	36.98681	-76.30299	LNM 38/15, 5th Dist	559	12222_1	10/1/2015
12222	Change	Craney Island Creek Light 5	Q G 15ft 4M "5"	N 36 52' 47.604"	W 076 20' 40.134"	36.87989	-76.34448	LNM 35/15, 5th Dist	559	12222_1	9/10/2015
12222	Relocate	Back River Channel Daybeacon 9A	G "9A"	N 37 06' 36.087"	W 076 17' 29.527"	37.11002	-76.29153	LNM 35/15, 5th Dist	559	12222_1	9/10/2015
12222	Delete	Willoughby Bay Channel Buoy 1A	G C "1A"	N 36 58' 54.336"	W 076 18' 37.515"	36.98176	-76.31042	LNM 34/15, 5th Dist	559	12222_1	9/3/2015
12222	Add	Willoughby Bay Channel Buoy 3	G C "3"	N 36 58' 52.147"	W 076 18' 38.368"	36.98115	-76.31066	LNM 34/15, 5th Dist	559	12222_1	9/3/2015
12222	Relocate	Willoughby Bay Channel Light 2	Fl R 2.5s 15ft 3M "2"	N 36 58' 58.157"	W 076 18' 38.477"	36.98282	-76.31069	LNM 34/15, 5th Dist	559	12222_1	9/3/2015
12222	Change	Willoughby Bay Channel Daybeacon 3A	G "3A"	N 36 58' 42.177"	W 076 18' 36.801"	36.97838	-76.31022	LNM 34/15, 5th Dist	559	12222_1	9/3/2015
12222	Relocate	Willoughby Bay Channel Daybeacon 3A	G "3A"	N 36 58' 42.177"	W 076 18' 36.801"	36.97838	-76.31022	LNM 34/15, 5th Dist	559	12222_1	9/3/2015
12222	Change	Back River South Channel Daybeacon 1	G "1" Priv	N 37 06' 30.600"	W 076 17' 45.660"	37.1085	-76.29601	LNM 34/15, 5th Dist	559	12222_1	9/3/2015
12222	Relocate	Thimble Shoal Channel Lighted Buoy 3	G "3" Fl G 4s	N 36 57' 25.827"	W 076 03' 04.897"	36.95717	-76.05136	LNM 31/15, 5th Dist	559	12222_1	8/13/2015
12222	Change	Naval Boat Channel Light 4	Fl R 6s 15ft 4M "4"	N 36 57' 48.736"	W 076 19' 14.089"	36.96354	-76.32058	LNM 27/15, 5th Dist	559	12222_1	7/16/2015
12222	Delete	Craney Island Lighted Warning Buoy B	W Or "B" Fl 2s Priv	N 36 54' 12.700"	W 076 20' 38.788"	36.90353	-76.34411	LNM 25/15, 5th Dist	559	12222_1	6/25/2015
12222	Delete	Craney Island Lighted Warning Buoy C	W Or "C" Fl 2s Priv	N 36 54' 31.610"	W 076 20' 42.019"	36.90878	-76.34501	LNM 25/15, 5th Dist	559	12222_1	6/25/2015
12222	Delete	Craney Island Lighted Warning Buoy D	W Or "D" Fl 2s Priv	N 36 54' 43.367"	W 076 20' 44.025"	36.91204	-76.34557	LNM 25/15, 5th Dist	559	12222_1	6/25/2015
12222	Delete	Craney Island Lighted Warning Buoy E	W Or "E" Fl 2s Priv	N 36 54' 41.882"	W 076 20' 57.443"	36.91163	-76.34929	LNM 25/15, 5th Dist	559	12222_1	6/25/2015
12222	Change	Virginia Inside Passage Light 270	Fl R 2.5s 15ft 4M "270"	N 37 07' 01.513"	W 075 58' 48.986"	37.11709	-75.98027	LNM 23/15, 5th Dist	559	12222_1	6/18/2015
12222	Relocate	Virginia Inside Passage Light 270	Fl R 2.5s 15ft 4M "270"	N 37 07' 01.513"	W 075 58' 48.986"	37.11709	-75.98027	LNM 23/15, 5th Dist	559	12222_1	6/18/2015
12222	Change	Lafayette River Channel Daybeacon 24	R "24"	N 36 53' 26.790"	W 076 17' 26.448"	36.89077	-76.29068	LNM 19/15, 5th Dist	559	12222_1	5/21/2015
12222	Change	Little Creek Harbor Jetty Light 4	Q R 25ft 5M "4"	N 36 55' 54.925"	W 076 10' 44.205"	36.93192	-76.17895	LNM 19/15, 5th Dist	559	12222_1	5/21/2015
12222	Change	Willoughby Bay Channel Daybeacon 9	G "9"	N 36 57' 53.038"	W 076 18' 06.770"	36.96473	-76.30188	LNM 18/15, 5th Dist	559	12222_1	5/14/2015
12222	Change	Chesapeake Channel Lighted Buoy 13	G "13" Fl G 4s AIS  (Chart No. 1: S17.2)	N 37 02' 26.000"	W 076 04' 17.000"	37.04055	-76.07139	LNM 07/15, 5th Dist	559	12222_1	2/26/2015
12222	Change	Chesapeake Channel Lighted Buoy 14	R "14" Fl R 4s AIS  (Chart No. 1: S17.2)	N 37 02' 31.001"	W 076 04' 02.876"	37.04195	-76.06747	LNM 07/15, 5th Dist	559	12222_1	2/26/2015
12222	Change	Chesapeake Bay Entrance Lighted Whistle Buoy CH	RW "CH" Mo (A) WHIS RACON (-.-.) AIS  (Chart No. 1: S17.2)	N 36 56' 08.329"	W 075 57' 26.543"	36.93565	-75.95737	LNM 07/15, 5th Dist	559	12222_1	2/26/2015
12280	Delete	Kedges Straits Buoy 2	R N "2"	N 38 03' 12.445"	W 076 03' 20.771"	38.05346	-76.05577	LNM 24/17, 5th Dist	2975	12280_2	6/22/2017
12280	Add	Obstruction in Feet	14 Obstn   (Chart No. 1: K41)	N 37 07' 28.000"	W 076 13' 04.300"	37.12444	-76.21786	LNM 23/17, 5th Dist	2975	12280_2	6/8/2017
12280	Delete	Swan Creek Entrance Buoy 1	G C "1"	N 39 05' 34.398"	W 076 15' 15.836"	39.09289	-76.2544	LNM 22/17, 5th Dist	2974	12280_1	6/8/2017
12280	Relocate	Thimble Shoal Channel Lighted Buoy 14	R "14" Fl R 2.5s	N 36 59' 42.340"	W 076 11' 05.570"	36.99509	-76.18488	LNM 19/17, 5th Dist	2975	12280_2	5/18/2017
12280	Relocate	Brewerton Channel Lighted Buoy 3	G "3" Q G	N 39 10' 48.736"	W 076 26' 42.018"	39.18021	-76.44501	LNM 19/17, 5th Dist	2974	12280_1	5/18/2017
12280	Relocate	Poquoson Flats Channel Daybeacon 2PF	R "2PF"	N 37 06' 27.136"	W 076 14' 46.082"	37.10754	-76.24613	LNM 18/17, 5th Dist	2975	12280_2	5/11/2017
12280	Relocate	Chesapeake Channel Lighted Bell Buoy 2C	R "2C" Fl R 2.5s BELL	N 36 57' 18.528"	W 075 58' 22.246"	36.95515	-75.97285	LNM 16/17, 5th Dist	2975	12280_2	4/27/2017
12280	Relocate	Chesapeake Channel Lighted Bell Buoy 12	R "12" Q R BELL	N 37 01' 05.077"	W 076 02' 41.593"	37.01808	-76.04488	LNM 16/17, 5th Dist	2975	12280_2	4/27/2017
12280	Relocate	Chesapeake Channel Lighted Buoy 30	R "30" Fl R 2.5s	N 37 11' 30.118"	W 076 09' 04.740"	37.1917	-76.15131	LNM 16/17, 5th Dist	2975	12280_2	4/27/2017
12280	Relocate	Chesapeake Channel Lighted Buoy 36	R "36" Fl R 4s	N 37 15' 49.396"	W 076 07' 23.208"	37.26372	-76.12312	LNM 16/17, 5th Dist	2975	12280_2	4/27/2017
12280	Delete	Tar Bay Warning Buoy A	W Or C "A"	N 38 21' 06.999"	W 076 16' 19.831"	38.35194	-76.27218	LNM 14/17, 5th Dist	2974	12280_1	4/13/2017
12280	Add	Obstruction	Obstns         Chart No. 1: K40	N 38 10' 22.220"	W 076 05' 41.750"	38.17284	-76.09493	LNM 15/17, 5th Dist	2974	12280_1	4/13/2017
12280	Add	Obstruction	Obstns         Chart No. 1: K40	N 38 10' 22.220"	W 076 05' 41.750"	38.17284	-76.09493	LNM 15/17, 5th Dist	2975	12280_2	4/13/2017
12280	Add	Obstruction	Obstns         Chart No. 1: K40	N 38 11' 25.120"	W 076 05' 24.070"	38.19031	-76.09002	LNM 15/17, 5th Dist	2974	12280_1	4/13/2017
12280	Add	Obstruction	Obstns         Chart No. 1: K40	N 38 11' 25.120"	W 076 05' 24.070"	38.19031	-76.09002	LNM 15/17, 5th Dist	2975	12280_2	4/13/2017
12280	Add	Obstruction	Obstns         Chart No. 1: K40	N 38 10' 18.520"	W 076 05' 37.180"	38.17181	-76.09366	LNM 15/17, 5th Dist	2974	12280_1	4/13/2017
12280	Add	Obstruction	Obstns         Chart No. 1: K40	N 38 10' 18.520"	W 076 05' 37.180"	38.17181	-76.09366	LNM 15/17, 5th Dist	2975	12280_2	4/13/2017
12280	Add	Obstruction	Obstns         Chart No. 1: K40	N 38 11' 25.690"	W 076 05' 24.040"	38.19047	-76.09001	LNM 15/17, 5th Dist	2974	12280_1	4/13/2017
12280	Add	Obstruction	Obstns         Chart No. 1: K40	N 38 11' 25.690"	W 076 05' 24.040"	38.19047	-76.09001	LNM 15/17, 5th Dist	2975	12280_2	4/13/2017
12280	Add	Obstruction	Obstns         Chart No. 1: K40	N 38 11' 25.010"	W 076 05' 23.750"	38.19028	-76.08993	LNM 15/17, 5th Dist	2974	12280_1	4/13/2017
12280	Add	Obstruction	Obstns         Chart No. 1: K40	N 38 11' 25.010"	W 076 05' 23.750"	38.19028	-76.08993	LNM 15/17, 5th Dist	2975	12280_2	4/13/2017
12280	Add	Obstruction	Obstns         Chart No. 1: K40	N 38 10' 25.900"	W 076 05' 46.320"	38.17386	-76.0962	LNM 15/17, 5th Dist	2974	12280_1	4/13/2017
12280	Add	Obstruction	Obstns         Chart No. 1: K40	N 38 10' 25.900"	W 076 05' 46.320"	38.17386	-76.0962	LNM 15/17, 5th Dist	2975	12280_2	4/13/2017
12280	Relocate	Chesapeake Channel Lighted Buoy 16	R "16" Q R	N 37 03' 53.581"	W 076 05' 25.148"	37.06488	-76.09032	LNM 07/17, 5th Dist	2975	12280_2	2/23/2017
12280	Delete	USN Aerial Gunnery Area Warning Daybeacon A	W "A"	N 37 47' 41.873"	W 075 59' 26.442"	37.79496	-75.99068	LNM 04/17, 5th Dist	2975	12280_2	2/2/2017
12280	Add	USN Aerial Gunnery Area Lighted Warning Buoy A	W Or "A" Fl 2.5s	N 37 47' 41.634"	W 075 59' 26.458"	37.7949	-75.99068	LNM 04/17, 5th Dist	2975	12280_2	2/2/2017
12280	Change	Rose Haven Channel Light 1	Q G 15ft 4M "1"	N 38 44' 01.746"	W 076 32' 18.954"	38.73382	-76.5386	LNM 03/17, 5th Dist	2974	12280_1	1/26/2017
12280	Relocate	Rose Haven Channel Light 1	Q G 15ft 4M "1"	N 38 44' 01.746"	W 076 32' 18.954"	38.73382	-76.5386	LNM 03/17, 5th Dist	2974	12280_1	1/26/2017
12280	Change	Holland Island Bar Light	Fl 2.5s 37ft 6M	N 38 04' 07.345"	W 076 05' 44.906"	38.06871	-76.09581	LNM 51/16, 5th Dist	2975	12280_2	12/22/2016
12280	Delete	Winter Harbor Channel Light 1WH	Fl G 2.5s 15ft 4M "1WH"	N 37 21' 54.445"	W 076 14' 44.415"	37.36512	-76.24567	LNM 49/16, 5th Dist	2975	12280_2	12/15/2016
12280	Relocate	Chesapeake Bay Southern Approach Lighted Buoy 14	R "14" Fl R 4s	N 36 54' 11.853"	W 075 54' 09.931"	36.90329	-75.90276	LNM 45/16, 5th Dist	2975	12280_2	11/17/2016
12280	Relocate	Chesapeake Channel Mid-Channel Lighted Whistle Buoy CB	RW "CB" Mo (A) WHIS	N 37 30' 01.308"	W 076 02' 36.457"	37.50036	-76.04346	LNM 45/16, 5th Dist	2975	12280_2	11/17/2016
12280	Relocate	NOAA Lighted Data Buoy FL	Y "FL" Fl Y 4s	N 36 59' 53.100"	W 076 05' 14.280"	36.99809	-76.0873	LNM 45/16, 5th Dist	2975	12280_2	11/17/2016
12280	Add	Obstruction in Feet	11 Obstn       Chart No. 1: K41	N 37 08' 25.700"	W 076 14' 03.700"	37.14047	-76.23436	LNM 46/16, 5th Dist	2975	12280_2	11/17/2016
12280	Delete	NOAA Lighted Data Buoy FL	Y "FL" Fl Y 4s	N 36 58' 46.740"	W 076 02' 36.240"	36.97965	-76.0434	LNM 44/16, 5th Dist	2975	12280_2	11/10/2016
12280	Add	NOAA Lighted Data Buoy FL	Y "FL" Fl Y 4s	N 36 59' 53.376"	W 076 05' 13.848"	36.99816	-76.08718	LNM 44/16, 5th Dist	2975	12280_2	11/10/2016
12280	Change	Cape Henry Wreck Lighted Buoy 2CH	R "WR2CH" Q R	N 36 57' 33.327"	W 076 00' 46.052"	36.95926	-76.01279	LNM 43/16, 5th Dist	2975	12280_2	11/3/2016
12280	Delete	Milford Haven East Light 3	Fl G 2.5s 4M "3"	N 37 27' 22.364"	W 076 12' 44.108"	37.45621	-76.21225	LNM 42/16, 5th Dist	2975	12280_2	10/20/2016
12280	Delete	Milford Haven East Light 5	Fl G 4s 4M "5"	N 37 27' 37.508"	W 076 14' 01.106"	37.46042	-76.23364	LNM 42/16, 5th Dist	2975	12280_2	10/20/2016
12280	Change	Chesapeake Lights (2)	2 Fl 4s 84ft 5M Priv (delete HORN and RACON ( - . )	N 36 54' 16.696"	W 075 42' 45.818"	36.90464	-75.71273	LNM 40/16, 5th Dist	2975	12280_2	10/13/2016
12280	Change	Winter Harbor Channel Light 1WH	Fl G 2.5s 15ft 4M "1WH"	N 37 21' 54.445"	W 076 14' 44.415"	37.36512	-76.24567	LNM 39/16, 5th Dist	2975	12280_2	10/6/2016
12280	Change	St. Jerome Creek Light 1SJ	Fl G 2.5s 15ft 3M "1SJ"	N 38 06' 54.494"	W 076 20' 08.598"	38.11514	-76.33572	LNM 38/16, 5th Dist	2974	12280_1	9/22/2016
12280	Change	St. Jerome Creek Light 1SJ	Fl G 2.5s 15ft 3M "1SJ"	N 38 06' 54.494"	W 076 20' 08.598"	38.11514	-76.33572	LNM 38/16, 5th Dist	2975	12280_2	9/22/2016
12280	Delete	Sounding in Feet	12	N 37 06' 15.340"	W 076 14' 58.260"	37.10426	-76.24952	LNM 39/16, 5th Dist	2975	12280_2	9/22/2016
12280	Add	Sounding in Feet	2	N 37 06' 14.260"	W 076 15' 12.604"	37.10396	-76.2535	LNM 39/16, 5th Dist	2975	12280_2	9/22/2016
12280	Delete	Fairlee Creek Light 2F	Fl (2) R 5s 15ft 3M "2F"	N 39 16' 15.064"	W 076 12' 31.130"	39.27085	-76.20865	LNM 36/16, 5th Dist	2974	12280_1	9/15/2016
12280	Relocate	Chesapeake Channel Lighted Buoy 93	G "93" Fl G 4s	N 39 00' 03.080"	W 076 22' 52.720"	39.00085	-76.38131	LNM 35/16, 5th Dist	2974	12280_1	9/8/2016
12280	Relocate	Smith Point Fairway Lighted Bell Buoy SP	Y "SP" Fl Y 2.5s BELL	N 37 52' 48.457"	W 076 09' 06.784"	37.88013	-76.15189	LNM 35/16, 5th Dist	2975	12280_2	9/8/2016
12280	Add	Obstruction in Feet	8 Obstn       Chart No. 1: K41	N 37 08' 05.028"	W 076 13' 50.189"	37.13473	-76.23061	LNM 36/16, 5th Dist	2975	12280_2	9/1/2016
12280	Add	Sounding in Feet	5	N 36 59' 44.325"	W 076 15' 18.310"	36.99565	-76.25509	LNM 36/16, 5th Dist	2975	12280_2	9/1/2016
12280	Relocate	Chesapeake Channel Lighted Buoy 64	R "64" Fl R 4s	N 37 55' 30.454"	W 076 09' 04.783"	37.92513	-76.15133	LNM 32/16, 5th Dist	2975	12280_2	8/18/2016
12280	Relocate	Craighill Channel Upper Range Front Light	F R 15ft	N 39 11' 49.408"	W 076 26' 53.776"	39.19706	-76.44827	LNM 32/16, 5th Dist	2974	12280_1	8/18/2016
12280	Relocate	Craighill Channel Upper Range Rear Light	F R 74ft	N 39 12' 58.209"	W 076 27' 45.872"	39.21617	-76.46275	LNM 32/16, 5th Dist	2974	12280_1	8/18/2016
12280	Change	NOAA Lighted Data Buoy AN	Y "AN" Fl Y 4s	N 38 57' 49.010"	W 076 26' 48.370"	38.96362	-76.44677	LNM 32/16, 5th Dist	2974	12280_1	8/18/2016
12280	Add	Rock in Feet	17 Rk      Chart No. 1: K14.2	N 38 08' 50.300"	W 076 18' 07.180"	38.1473	-76.30199	LNM 33/16, 5th Dist	2974	12280_1	8/11/2016
12280	Add	Rock in Feet	17 Rk      Chart No. 1: K14.2	N 38 08' 50.300"	W 076 18' 07.180"	38.1473	-76.30199	LNM 33/16, 5th Dist	2975	12280_2	8/11/2016
12280	Add	NOAA Lighted Data Buoy YS	Y "YS" Fl Y 4s	N 37 12' 30.000"	W 076 16' 06.000"	37.20833	-76.26833	LNM 30/16, 5th Dist	2975	12280_2	8/11/2016
12280	Change	Hooper Island Light	Fl 6s 63ft 9M (delete HORN (Sep 15 to Jun 1))	N 38 15' 22.500"	W 076 14' 59.300"	38.25625	-76.24981	LNM 23/16, 5th Dist	2974	12280_1	6/16/2016
12280	Relocate	Hooper Island Light	Fl 6s 63ft 9M	N 38 15' 22.500"	W 076 14' 59.300"	38.25625	-76.24981	LNM 23/16, 5th Dist	2974	12280_1	6/16/2016
12280	Relocate	South River Junction Buoy SR	GR C "SR"	N 38 53' 39.428"	W 076 25' 52.216"	38.89429	-76.43117	LNM 21/16, 5th Dist	2974	12280_1	5/26/2016
12280	Relocate	Honga River Light 1H	Fl G 4s 16ft 4M "1H"	N 38 13' 59.539"	W 076 06' 31.972"	38.2332	-76.10888	LNM 17/16, 5th Dist	2974	12280_1	5/5/2016
12280	Change	Chesapeake Channel Lighted Buoy 80	R "80" Fl R 2.5s (delete BELL)	N 38 36' 32.433"	W 076 24' 46.822"	38.60901	-76.41301	LNM 17/16, 5th Dist	2974	12280_1	5/5/2016
12280	Change	Little Creek Harbor Jetty Light 3	Q G 25ft 5M "3"	N 36 55' 58.710"	W 076 10' 35.059"	36.93298	-76.17641	LNM 15/16, 5th Dist	2975	12280_2	4/21/2016
12280	Change	Magothy River Entrance Light 2	Fl R 4s 15ft 4M "2"	N 39 03' 21.879"	W 076 25' 46.824"	39.05608	-76.42967	LNM 13/16, 5th Dist	2974	12280_1	4/7/2016
12280	Relocate	Chesapeake Channel Lighted Buoy 7	G "7" Q G	N 36 59' 24.962"	W 076 00' 48.898"	36.99027	-76.01358	LNM 13/16, 5th Dist	2975	12280_2	4/7/2016
12280	Change	Pooles Island South Range Rear Light	Oc 4s 72ft	N 39 18' 07.023"	W 076 14' 11.662"	39.30195	-76.23657	LNM 13/16, 5th Dist	2974	12280_1	4/7/2016
12280	Relocate	Chesapeake Channel Lighted Buoy 11	G "11" Q G	N 37 00' 57.414"	W 076 02' 52.119"	37.01595	-76.04781	LNM 13/16, 5th Dist	2975	12280_2	4/7/2016
12280	Delete	Commercial Mooring Buoy	PA  (Chart No. 1: Q40)	N 39 26' 32.000"	W 075 59' 32.000"	39.44222	-75.99223	LNM 12/16, 5th Dist	2974	12280_1	3/31/2016
12280	Delete	Commercial Mooring Buoy	PA  (Chart No. 1: Q40)	N 39 26' 23.000"	W 075 58' 59.000"	39.43972	-75.98306	LNM 12/16, 5th Dist	2974	12280_1	3/31/2016
12280	Relocate	Chesapeake Bay Southern Approach Lighted Buoy 7	G "7" Fl G 2.5s	N 36 51' 31.315"	W 075 50' 55.159"	36.8587	-75.84866	LNM 12/16, 5th Dist	2975	12280_2	3/31/2016
12280	Change	York River Entrance Channel Lighted Buoy 2	R "2" Fl R 2.5s (delete GONG)	N 37 07' 44.618"	W 076 09' 44.852"	37.12906	-76.16246	LNM 11/16, 5th Dist	2975	12280_2	3/24/2016
12280	Relocate	York River Entrance Channel Lighted Buoy 2	R "2" Fl R 2.5s	N 37 07' 44.618"	W 076 09' 44.852"	37.12906	-76.16246	LNM 11/16, 5th Dist	2975	12280_2	3/24/2016
12280	Relocate	York River Entrance Channel Lighted Buoy 1YR	G "1YR" Fl G 2.5s	N 37 07' 37.679"	W 076 09' 51.527"	37.12713	-76.16431	LNM 09/16, 5th Dist	2975	12280_2	3/10/2016
12280	Relocate	York River Entrance Channel Lighted Buoy 7	G "7" Fl G 6s	N 37 10' 31.396"	W 076 14' 13.779"	37.17539	-76.23716	LNM 09/16, 5th Dist	2975	12280_2	3/10/2016
12280	Change	Pocomoke Sound Light 2	Fl R 4s 15ft 4M "2"	N 37 43' 37.059"	W 075 54' 36.829"	37.72696	-75.91023	LNM 07/16, 5th Dist	2975	12280_2	2/25/2016
12280	Change	Holland Island Bar Light	Fl 2.5s 37ft 7M (delete HORN (Sep 15 to Jun 1) )	N 38 04' 07.345"	W 076 05' 44.906"	38.06871	-76.09581	LNM 05/16, 5th Dist	2975	12280_2	2/11/2016
12280	Change	Upper Chesapeake Channel Range Rear Light	Oc 4s 61ft (Day), Oc 4s 64ft (Night)	N 39 19' 37.184"	W 076 12' 49.665"	39.327	-76.2138	LNM 05/16, 5th Dist	2974	12280_1	2/11/2016
12280	Change	Shad Battery Shoal Range Rear Light	Oc 4s 61ft (Day), Oc 4s 58ft (Night)	N 39 19' 37.184"	W 076 12' 49.665"	39.327	-76.2138	LNM 05/16, 5th Dist	2974	12280_1	2/11/2016
12280	Add	Obstruction in Feet	42 Obstn       Chart No. 1: K41	N 38 09' 45.790"	W 076 15' 02.670"	38.16272	-76.25074	LNM 04/16, 5th Dist	2974	12280_1	1/21/2016
12280	Add	Obstruction in Feet	42 Obstn       Chart No. 1: K41	N 38 09' 45.790"	W 076 15' 02.670"	38.16272	-76.25074	LNM 04/16, 5th Dist	2975	12280_2	1/21/2016
12280	Add	Obstruction in Feet	40 Obstn       Chart No. 1: K41	N 38 08' 48.420"	W 076 15' 45.710"	38.14678	-76.2627	LNM 04/16, 5th Dist	2974	12280_1	1/21/2016
12280	Add	Obstruction in Feet	40 Obstn       Chart No. 1: K41	N 38 08' 48.420"	W 076 15' 45.710"	38.14678	-76.2627	LNM 04/16, 5th Dist	2975	12280_2	1/21/2016
12280	Add	Obstruction in Feet	48 Obstn       Chart No. 1: K41	N 38 07' 43.460"	W 076 14' 09.360"	38.12874	-76.23593	LNM 04/16, 5th Dist	2974	12280_1	1/21/2016
12280	Add	Obstruction in Feet	48 Obstn       Chart No. 1: K41	N 38 07' 43.460"	W 076 14' 09.360"	38.12874	-76.23593	LNM 04/16, 5th Dist	2975	12280_2	1/21/2016
12280	Add	Accurate Landmark	ABAND LT HO  (Chart No. 1: E1)	N 37 23' 25.800"	W 076 11' 22.400"	37.3905	-76.18955	LNM 51/15, 5th Dist	2975	12280_2	1/7/2016
12280	Relocate	Middle Island Bridge West Channel Daybeacon 1W	G "1W"	N 38 17' 42.662"	W 076 12' 46.083"	38.29519	-76.2128	LNM 51/15, 5th Dist	2974	12280_1	1/7/2016
12280	Delete	Holland Island Wreck Daybeacon WR2	R "WR2"	N 38 07' 44.818"	W 076 06' 30.407"	38.12912	-76.10844	LNM 51/15, 5th Dist	2974	12280_1	1/7/2016
12280	Delete	Holland Island Wreck Daybeacon WR2	R "WR2"	N 38 07' 44.818"	W 076 06' 30.407"	38.12912	-76.10844	LNM 51/15, 5th Dist	2975	12280_2	1/7/2016
12280	Delete	Wolf Trap Light	Fl 15s 52ft 14M	N 37 23' 25.800"	W 076 11' 22.400"	37.3905	-76.18955	LNM 48/15, 5th Dist	2975	12280_2	12/10/2015
12280	Relocate	Bluff Point Light B	Fl 2.5s 19ft 5M "B"	N 37 40' 33.074"	W 076 16' 29.981"	37.67585	-76.27499	LNM 48/15, 5th Dist	2975	12280_2	12/10/2015
12280	Relocate	York River Entrance Channel Lighted Buoy 8	R "8" Fl R 6s	N 37 10' 38.359"	W 076 14' 06.586"	37.17732	-76.23516	LNM 48/15, 5th Dist	2975	12280_2	12/10/2015
12280	Change	Tangier Island Wreck Light WR1	Q G 15ft 4M "WR1"	N 37 48' 29.216"	W 076 01' 32.511"	37.80812	-76.0257	LNM 47/15, 5th Dist	2975	12280_2	12/3/2015
12280	Relocate	New Point Comfort Spit Light 4	Fl R 4s 15ft 4M "4"	N 37 17' 40.490"	W 076 17' 07.360"	37.29458	-76.28538	LNM 45/15, 5th Dist	2975	12280_2	11/19/2015
12280	Delete	Flag Harbor Light 1	Fl G 4s "1" Priv	N 38 27' 50.442"	W 076 28' 16.826"	38.46401	-76.47134	LNM 44/15, 5th Dist	2974	12280_1	11/12/2015
12280	Delete	Horn Harbor Light 2	Fl R 4s 3M "2"	N 37 20' 15.518"	W 076 15' 33.476"	37.33764	-76.2593	LNM 44/15, 5th Dist	2975	12280_2	11/12/2015
12280	Change	Chesapeake Channel Lighted Buoy 66	R "66" Fl R 6s (delete BELL)	N 37 58' 16.452"	W 076 10' 33.785"	37.97124	-76.17605	LNM 43/15, 5th Dist	2975	12280_2	10/29/2015
12280	Change	Chesapeake Channel Lighted Buoy 83	G "83" Fl G 4s (delete GONG)	N 38 45' 07.524"	W 076 26' 39.330"	38.75209	-76.44426	LNM 43/15, 5th Dist	2974	12280_1	10/29/2015
12280	Relocate	Chesapeake Channel Lighted Buoy 66	R "66" Fl R 6s	N 37 58' 16.452"	W 076 10' 33.785"	37.97124	-76.17605	LNM 43/15, 5th Dist	2975	12280_2	10/29/2015
12280	Relocate	Cape Henry Wreck Lighted Buoy 2CH	R "2CH" Q R	N 36 57' 33.327"	W 076 00' 46.052"	36.95926	-76.01279	LNM 42/15, 5th Dist	2975	12280_2	10/29/2015
12280	Add	Sounding in Feet	31	N 37 11' 54.500"	W 075 39' 59.300"	37.19847	-75.66647	LNM 43/15, 5th Dist	2975	12280_2	10/22/2015
12280	Relocate	Chesapeake Bay Southern Approach Lighted Buoy 8	R "8" Fl R 2.5s	N 36 51' 42.253"	W 075 50' 46.702"	36.86174	-75.84631	LNM 39/15, 5th Dist	2975	12280_2	10/8/2015
12280	Delete	Fort Wool Light	Fl 4s 25ft 5M	N 36 59' 12.529"	W 076 18' 10.791"	36.98681	-76.30299	LNM 38/15, 5th Dist	2975	12280_2	10/1/2015
12280	Change	Hooper Strait Approach Lighted Buoy 1	G "1" Fl G 4s (delete BELL)	N 38 12' 17.144"	W 076 09' 20.285"	38.20476	-76.15563	LNM 38/15, 5th Dist	2974	12280_1	10/1/2015
12280	Change	North Point Light 1N	Fl G 4s 15ft 4M "1N"	N 37 39' 14.707"	W 076 17' 59.100"	37.65409	-76.29975	LNM 37/15, 5th Dist	2975	12280_2	9/24/2015
12280	Delete	Great Wicomico River Light	GREAT WICOMICO RIVER Fl 6s 42ft 7M (delete RED SECTORS)	N 37 48' 12.469"	W 076 15' 58.796"	37.80346	-76.26633	LNM 36/15, 5th Dist	2975	12280_2	9/17/2015
12280	Delete	Rip Rap	(Chart No. 1: Pa)	N 37 48' 12.469"	W 076 15' 58.796"	37.80346	-76.26633	LNM 36/15, 5th Dist	2975	12280_2	9/17/2015
12280	Delete	Cedar Point Fishing Reef Buoy A	W Or S "A" Priv	N 38 18' 54.446"	W 076 23' 06.017"	38.31512	-76.385	LNM 35/15, 5th Dist	2974	12280_1	9/10/2015
12280	Delete	Cedar Point Fishing Reef Buoy B	W Or S "B" Priv	N 38 18' 36.446"	W 076 22' 18.016"	38.31012	-76.37167	LNM 35/15, 5th Dist	2974	12280_1	9/10/2015
12280	Relocate	Chesapeake Channel Buoy 83A	G C "83A"	N 38 46' 08.069"	W 076 29' 41.638"	38.76891	-76.4949	LNM 33/15, 5th Dist	2974	12280_1	8/27/2015
12280	Change	Honga River Light 1H	Fl G 4s 16ft 4M "1H"	N 38 13' 55.790"	W 076 06' 37.655"	38.23216	-76.11046	LNM 32/15, 5th Dist	2974	12280_1	8/13/2015
12280	Relocate	Chesapeake Channel Lighted Buoy 30	R "30" Fl R 2.5s	N 37 11' 29.998"	W 076 09' 03.760"	37.19167	-76.15105	LNM 32/15, 5th Dist	2975	12280_2	8/13/2015
12280	Relocate	Thimble Shoal Channel Lighted Buoy 3	G "3" Fl G 4s	N 36 57' 25.827"	W 076 03' 04.897"	36.95717	-76.05136	LNM 31/15, 5th Dist	2975	12280_2	8/13/2015
12280	Change	Big Thorofare West Light 1W	Fl G 4s 15ft 4M "1W"	N 38 00' 00.297"	W 076 03' 22.173"	38.00008	-76.05616	LNM 29/15, 5th Dist	2975	12280_2	7/30/2015
12280	Delete	Dangerous Wreck	PA      (Chart No. 1: K28)	N 39 23' 54.400"	W 076 02' 39.800"	39.39845	-76.04439	LNM 28/15, 5th Dist	2974	12280_1	7/16/2015
12280	Delete	Dangerous Wreck	PA      (Chart No. 1: K28)	N 39 23' 20.200"	W 076 02' 57.600"	39.38894	-76.04933	LNM 28/15, 5th Dist	2974	12280_1	7/16/2015
12280	Change	Virginia Inside Passage Light 270	Fl R 2.5s 15ft 4M "270"	N 37 07' 01.513"	W 075 58' 48.986"	37.11709	-75.98027	LNM 23/15, 5th Dist	2975	12280_2	6/18/2015
12280	Relocate	Virginia Inside Passage Light 270	Fl R 2.5s 15ft 4M "270"	N 37 07' 01.513"	W 075 58' 48.986"	37.11709	-75.98027	LNM 23/15, 5th Dist	2975	12280_2	6/18/2015
12280	Change	Big Thorofare West Light 1	Fl G 4s 15ft 4M "1" (delete HORN (Sep 15 to Jun 1))	N 38 00' 00.297"	W 076 03' 22.173"	38.00008	-76.05616	LNM 22/15, 5th Dist	2975	12280_2	6/11/2015
12280	Change	Pungoteague Creek Warning Light A	Fl 2.5s 15ft 4M "A"	N 37 39' 48.217"	W 075 53' 52.982"	37.66339	-75.89805	LNM 20/15, 5th Dist	2975	12280_2	5/28/2015
12280	Relocate	Saunders Point Shoal Junction Light	Fl (2+1) R 6s 15ft 4M	N 38 53' 01.796"	W 076 28' 37.321"	38.88383	-76.47704	LNM 20/15, 5th Dist	2974	12280_1	5/28/2015
12280	Relocate	Ferry Cove Light	Fl 4s 15ft 5M	N 38 46' 05.539"	W 076 20' 38.121"	38.7682	-76.34393	LNM 20/15, 5th Dist	2974	12280_1	5/28/2015
12280	Change	Little Creek Harbor Jetty Light 4	Q R 25ft 5M "4"	N 36 55' 54.925"	W 076 10' 44.205"	36.93192	-76.17895	LNM 19/15, 5th Dist	2975	12280_2	5/21/2015
12280	Change	Fog Point Light	Fl 2.5s 15ft 3M	N 38 02' 11.622"	W 076 02' 37.032"	38.03656	-76.04362	LNM 19/15, 5th Dist	2975	12280_2	5/21/2015
12280	Change	Chesapeake Beach Light 1	Q G 15ft 5M "1"	N 38 41' 30.551"	W 076 31' 16.423"	38.69182	-76.52122	LNM 15/15, 5th Dist	2974	12280_1	4/23/2015
12280	Change	Middle Island Bridge West Channel Daybeacon 1W	G "1W"	N 38 17' 42.483"	W 076 12' 46.130"	38.29514	-76.21281	LNM 12/15, 5th Dist	2974	12280_1	4/2/2015
12280	Change	Brewerton Channel Eastern Extension Lighted Buoy 5	G "5" Fl G 6s (delete BELL)	N 39 09' 30.276"	W 076 22' 21.185"	39.15841	-76.37255	LNM 11/15, 5th Dist	2974	12280_1	3/26/2015
12280	Relocate	Chesapeake Channel Lighted Buoy 47	G "47" Q G	N 37 34' 19.280"	W 076 03' 04.911"	37.57202	-76.05136	LNM 10/15, 5th Dist	2975	12280_2	3/19/2015
12280	Relocate	Chesapeake Bay Southern Approach Lighted Whistle Buoy CB	RW "CB" Mo (A) WHIS RACON (-.-) AIS  (Chart No. 1: S17.2)	N 36 48' 59.743"	W 075 45' 36.013"	36.8166	-75.76	LNM 07/15, 5th Dist	2975	12280_2	2/26/2015
12280	Change	Chesapeake Channel Lighted Buoy 13	G "13" Fl G 4s AIS  (Chart No. 1: S17.2)	N 37 02' 26.000"	W 076 04' 17.000"	37.04055	-76.07139	LNM 07/15, 5th Dist	2975	12280_2	2/26/2015
12280	Change	Chesapeake Channel Lighted Buoy 14	R "14" Fl R 4s AIS  (Chart No. 1: S17.2)	N 37 02' 31.001"	W 076 04' 02.876"	37.04195	-76.06747	LNM 07/15, 5th Dist	2975	12280_2	2/26/2015
12280	Change	Chesapeake Bay Entrance Lighted Whistle Buoy CH	RW "CH" Mo (A) WHIS RACON (-.-.) AIS  (Chart No. 1: S17.2)	N 36 56' 08.329"	W 075 57' 26.543"	36.93565	-75.95737	LNM 07/15, 5th Dist	2975	12280_2	2/26/2015
12280	Change	Chesapeake Bay Southern Approach Lighted Whistle Buoy CB	RW "CB" Mo (A) WHIS RACON (-.-) AIS  (Chart No. 1: S17.2)	N 36 48' 59.743"	W 075 45' 36.013"	36.8166	-75.76	LNM 07/15, 5th Dist	2975	12280_2	2/26/2015
12280	Change	Chesapeake Channel Lighted Buoy 40	R "40" Fl R 4s AIS  (Chart No. 1: S17.2)	N 37 21' 49.490"	W 076 04' 27.768"	37.36375	-76.07438	LNM 07/15, 5th Dist	2975	12280_2	2/26/2015
12280	Change	Chesapeake Channel Lighted Buoy 78A	R "78A" Fl R 2.5s AIS  (Chart No. 1: S17.2)	N 38 34' 42.000"	W 076 25' 53.000"	38.57833	-76.43139	LNM 07/15, 5th Dist	2974	12280_1	2/26/2015
12280	Change	Upper Chesapeake Channel Lighted Buoy 45	G "45" Fl G 2.5s AIS  (Chart No. 1: S17.2)	N 39 22' 10.839"	W 076 07' 45.462"	39.36968	-76.1293	LNM 07/15, 5th Dist	2974	12280_1	2/26/2015
12280	Change	Upper Chesapeake Channel Lighted Buoy 46	R "46" Fl R 2.5s AIS  (Chart No. 1: S17.2)	N 39 22' 05.831"	W 076 07' 41.366"	39.36829	-76.12816	LNM 07/15, 5th Dist	2974	12280_1	2/26/2015
12280	Change	Upper Chesapeake Channel Lighted Buoy 47	G "47" Fl G 4s AIS  (Chart No. 1: S17.2)	N 39 22' 50.744"	W 076 06' 10.205"	39.38076	-76.10284	LNM 07/15, 5th Dist	2974	12280_1	2/26/2015
12280	Change	Upper Chesapeake Channel Lighted Buoy 48	R "48" Fl R 4s AIS  (Chart No. 1: S17.2)	N 39 22' 45.337"	W 076 06' 07.068"	39.37926	-76.10197	LNM 07/15, 5th Dist	2974	12280_1	2/26/2015
12280	Change	Elk River Channel Lighted Buoy 1ER	G "1ER" Fl G 2.5s AIS  (Chart No. 1: S17.2)	N 39 23' 51.238"	W 076 03' 16.828"	39.39757	-76.05467	LNM 07/15, 5th Dist	2974	12280_1	2/26/2015
12280	Relocate	Point Lookout Light	Fl (2) 5s 39ft 8M	N 38 01' 30.270"	W 076 19' 24.786"	38.02507	-76.32355	LNM 05/15, 5th Dist	2975	12280_2	2/12/2015
12280	Relocate	Chesapeake Channel Lighted Buoy 32	R "32" Fl R 4s	N 37 12' 26.600"	W 076 08' 42.766"	37.20739	-76.14521	LNM 05/15, 5th Dist	2975	12280_2	2/12/2015
12280	Relocate	Thimble Shoal Channel Lighted Buoy 19	G "19" Q G	N 37 00' 22.727"	W 076 15' 30.984"	37.00631	-76.25861	LNM 04/15, 5th Dist	2975	12280_2	1/29/2015
12280	Delete	Wreck in Feet	48 Wk      Chart No. 1: K26	N 36 54' 14.000"	W 075 53' 28.660"	36.90389	-75.8913	LNM 04/15, 5th Dist	2975	12280_2	1/22/2015
12280	Add	Wreck in Feet	33 Wk      Chart No. 1: K26	N 36 56' 46.080"	W 075 55' 09.130"	36.94613	-75.9192	LNM 04/15, 5th Dist	2975	12280_2	1/22/2015
12280	Delete	Obstruction in Feet	54 Obstn       Chart No. 1: K41	N 36 51' 03.390"	W 075 49' 41.600"	36.85094	-75.82822	LNM 04/15, 5th Dist	2975	12280_2	1/22/2015
12280	Add	Wreck in Feet	48 Wk      Chart No. 1: K26	N 36 54' 14.380"	W 075 53' 28.980"	36.904	-75.89138	LNM 04/15, 5th Dist	2975	12280_2	1/22/2015
12280	Change	Chesapeake Channel Lighted Buoy 68	R "68" Fl R 2.5s RACON (-..-) (delete BELL)	N 37 59' 53.450"	W 076 11' 48.787"	37.99818	-76.19688	LNM 47/14, 5th Dist	2975	12280_2	11/27/2014
12280	Change	Choptank River Entrance Lighted Buoy 10	R "10" Fl R 2.5s (delete BELL)	N 38 38' 53.157"	W 076 18' 18.345"	38.6481	-76.3051	LNM 47/14, 5th Dist	2974	12280_1	11/27/2014
12280	Relocate	Choptank River Entrance Lighted Buoy 10	R "10" Fl R 2.5s	N 38 38' 53.157"	W 076 18' 18.345"	38.6481	-76.3051	LNM 47/14, 5th Dist	2974	12280_1	11/27/2014
12280	Change	Horn Harbor Light 2	Fl R 4s 9ft 3M "2"	N 37 20' 15.518"	W 076 15' 33.476"	37.33764	-76.2593	LNM 46/14, 5th Dist	2975	12280_2	11/27/2014
12280	Relocate	Love Point Light	Fl 6s 31ft 7M	N 39 03' 25.376"	W 076 17' 01.168"	39.05705	-76.28366	LNM 41/14, 5th Dist	2974	12280_1	10/23/2014
12280	Change	Love Point Light	Fl 6s 31ft 7M	N 39 03' 25.376"	W 076 17' 01.168"	39.05705	-76.28366	LNM 41/14, 5th Dist	2974	12280_1	10/23/2014
12280	Relocate	USN SESEF Lighted Buoy B	Y "B" Fl Y 4s	N 36 55' 01.735"	W 075 45' 28.713"	36.91715	-75.75797	LNM 39/14, 5th Dist	2975	12280_2	10/9/2014
12280	Change	Chesapeake Channel Lighted Buoy 84	R "84" Fl R 4s (delete BELL)	N 38 45' 27.424"	W 076 25' 06.828"	38.75762	-76.41856	LNM 38/14, 5th Dist	2974	12280_1	10/2/2014
12280	Relocate	York River Entrance Channel Lighted Buoy 9	G "9" Fl G 4s	N 37 11' 30.113"	W 076 15' 42.044"	37.1917	-76.26168	LNM 38/14, 5th Dist	2975	12280_2	10/2/2014
12280	Delete	Tolchester Sector Light A	F WRG 45ft 6M "A"	N 39 14' 36.391"	W 076 13' 34.832"	39.24344	-76.22634	LNM 38/14, 5th Dist	2974	12280_1	10/2/2014
12280	Delete	Pooles Island East Range Front Light	Q 19ft	N 39 16' 41.317"	W 076 16' 04.703"	39.27814	-76.26797	LNM 38/14, 5th Dist	2974	12280_1	10/2/2014
12280	Delete	Pooles Island East Range Rear Light	Iso 6s 45ft	N 39 16' 40.573"	W 076 16' 13.200"	39.27794	-76.27033	LNM 38/14, 5th Dist	2974	12280_1	10/2/2014
12280	Delete	Label:	(see note D)	N 39 13' 52.000"	W 076 12' 55.000"	39.23111	-76.21528	LNM 38/14, 5th Dist	2974	12280_1	10/2/2014
12280	Delete	NOTE D:	Tolchester Sector Light A is equipped with a fixed light divided into sectors as follows: Light A, red sector - from 001.5 to 046; white sector - from 046 to 047.5; red sector - from 047.5 to 087.5; white sector - from 087.5 to 090.5; green sector - from 090.5 to 187; obscured - from 187 to 001.5.	N 39 17' 54.000"	W 075 54' 06.000"	39.29833	-75.90166	LNM 38/14, 5th Dist	2974	12280_1	10/2/2014
12280	Add	Obstruction in Feet	14 Obstn       Chart No. 1: K41	N 38 14' 26.890"	W 076 13' 46.700"	38.2408	-76.22964	LNM 39/14, 5th Dist	2974	12280_1	10/2/2014
12280	Delete	Tolchester Directional Light	F 21ft 5M	N 39 12' 24.393"	W 076 14' 46.835"	39.20678	-76.24635	LNM 37/14, 5th Dist	2974	12280_1	9/25/2014
12280	Change	Back River Channel Light 4	Fl R 4s 15ft 4M "4"	N 37 06' 06.024"	W 076 15' 44.502"	37.10167	-76.26236	LNM 37/14, 5th Dist	2975	12280_2	9/25/2014
12280	Change	New Point Comfort Spit Channel Light 2	Fl R 2.5s 20ft 6M "2"	N 37 17' 44.150"	W 076 15' 41.052"	37.2956	-76.26141	LNM 37/14, 5th Dist	2975	12280_2	9/25/2014
12280	Delete	Label:	Tower (see note D)	N 39 11' 51.000"	W 076 13' 48.000"	39.1975	-76.23	LNM 37/14, 5th Dist	2974	12280_1	9/25/2014
12280	Change	NOTE D to:	Tolchester Sector Light A is equipped with a fixed light divided into sectors as follows: Light A, red sector - from 001.5 to 046; white sector - from 046 to 047.5; red sector - from 047.5 to 087.5; white sector - from 087.5 to 090.5; green sector - from 090.5 to 187; obscured - from 187 to 001.5.	N 39 17' 54.000"	W 075 54' 06.000"	39.29833	-75.90166	LNM 37/14, 5th Dist	2974	12280_1	9/25/2014
12280	Relocate	Back River Channel Light 4	Fl R 4s 15ft 4M "4"	N 37 06' 06.024"	W 076 15' 44.502"	37.10167	-76.26236	LNM 37/14, 5th Dist	2975	12280_2	9/25/2014
12280	Relocate	Thimble Shoal Channel Lighted Buoy 15	G "15" Fl G 4s	N 36 59' 56.225"	W 076 12' 47.578"	36.99895	-76.21322	LNM 34/14, 5th Dist	2975	12280_2	9/4/2014
12280	Relocate	Thimble Shoal Channel Lighted Buoy 18	R "18" Q R	N 37 00' 39.985"	W 076 14' 56.399"	37.01111	-76.249	LNM 34/14, 5th Dist	2975	12280_2	9/4/2014
12280	Relocate	Thimble Shoal Channel Lighted Bell Buoy 9	G "9" Fl G 4s BELL	N 36 58' 40.929"	W 076 07' 55.243"	36.97803	-76.13201	LNM 34/14, 5th Dist	2975	12280_2	9/4/2014
12280	Change	Thimble Shoal Channel Lighted Buoy 13	G "13" Fl G 2.5s (delete BELL)	N 36 59' 31.149"	W 076 11' 10.115"	36.99199	-76.18614	LNM 34/14, 5th Dist	2975	12280_2	9/4/2014
12280	Relocate	Thimble Shoal Channel Lighted Buoy 11	G "11" Fl G 6s	N 36 59' 06.071"	W 076 09' 32.660"	36.98502	-76.15907	LNM 34/14, 5th Dist	2975	12280_2	9/4/2014
12280	Relocate	Thimble Shoal Channel Lighted Buoy 12	R "12" Fl R 6s	N 36 59' 15.532"	W 076 09' 28.927"	36.98765	-76.15804	LNM 34/14, 5th Dist	2975	12280_2	9/4/2014
12280	Relocate	Thimble Shoal Channel Lighted Buoy 13	G "13" Fl G 2.5s	N 36 59' 31.149"	W 076 11' 10.115"	36.99199	-76.18614	LNM 34/14, 5th Dist	2975	12280_2	9/4/2014
12280	Relocate	Thimble Shoal Channel Lighted Buoy 14	R "14" Fl R 2.5s	N 36 59' 40.639"	W 076 11' 06.345"	36.99462	-76.1851	LNM 34/14, 5th Dist	2975	12280_2	9/4/2014
12280	Relocate	Thimble Shoal Channel Lighted Buoy 16	R "16" Fl R 4s	N 37 00' 05.745"	W 076 12' 43.773"	37.00159	-76.21216	LNM 34/14, 5th Dist	2975	12280_2	9/4/2014
12280	Relocate	Kiptopeake Beach Breakwater South Light A	Fl Y 4s 14ft "A" Priv	N 37 09' 40.508"	W 075 59' 18.753"	37.16125	-75.98854	LNM 32/14, 5th Dist	2975	12280_2	8/21/2014
12280	Change	Kiptopeake Beach Breakwater Lighted Warning Buoy	W Or Fl 4s Priv	N 37 09' 55.000"	W 075 59' 40.000"	37.16528	-75.99445	LNM 32/14, 5th Dist	2975	12280_2	8/21/2014
12280	Change	Tangier Island West Channel Light 1W	Fl G 2.5s 15ft 4M "1W"	N 37 49' 51.450"	W 076 00' 11.510"	37.83096	-76.0032	LNM 31/14, 5th Dist	2975	12280_2	8/14/2014
12280	Change	Tangier Sound Light	Fl 6s 45ft 9M (RED SECTOR to 110 to 192)	N 37 47' 16.846"	W 075 58' 24.412"	37.78801	-75.97345	LNM 31/14, 5th Dist	2975	12280_2	8/7/2014
12280	Change	Cape Charles Lighted Buoy 14	R "14" Fl R 2.5s (delete BELL)	N 37 07' 23.521"	W 075 40' 58.707"	37.1232	-75.68298	LNM 29/14, 5th Dist	2975	12280_2	7/31/2014
12280	Relocate	Cape Charles Lighted Buoy 14	R "14" Fl R 2.5s	N 37 07' 23.521"	W 075 40' 58.707"	37.1232	-75.68298	LNM 29/14, 5th Dist	2975	12280_2	7/31/2014
12280	Relocate	Chesapeake Channel Lighted Buoy 20	R "20" Fl R 4s	N 37 07' 04.388"	W 076 07' 40.205"	37.11789	-76.12784	LNM 29/14, 5th Dist	2975	12280_2	7/31/2014
12280	Delete	Great Machipongo Inlet Lighted Whistle Buoy GM at	RW "GM" Mo (A) WHIS	N 37 23' 36.000"	W 075 39' 06.000"	37.39333	-75.65166	LNM 28/14, 5th Dist	2975	12280_2	7/17/2014
12280	Delete	Obstruction in Feet	57 Obstn       Chart No. 1: K41	N 37 01' 45.100"	W 076 03' 34.600"	37.02919	-76.05961	LNM 28/14, 5th Dist	2975	12280_2	7/17/2014
12280	Delete	Obstruction in Feet	55 Obstn       Chart No. 1: K41	N 37 00' 28.260"	W 076 15' 48.800"	37.00785	-76.26356	LNM 28/14, 5th Dist	2975	12280_2	7/17/2014
12280	Add	Obstruction in Feet	41 Obstn       Chart No. 1: K41	N 36 58' 30.610"	W 076 06' 30.100"	36.97517	-76.10836	LNM 28/14, 5th Dist	2975	12280_2	7/17/2014
12280	Delete	Obstruction in Feet	53 Obstn       Chart No. 1: K41	N 37 02' 29.030"	W 076 03' 54.500"	37.0414	-76.06514	LNM 28/14, 5th Dist	2975	12280_2	7/17/2014
12280	Change	Annapolis Harbor Channel Lighted Buoy 2	R "2" Fl R 2.5s (delete BELL)	N 38 56' 30.000"	W 076 25' 29.000"	38.94167	-76.42472	LNM 27/14, 5th Dist	2974	12280_1	7/10/2014
12280	Relocate	Chesapeake Bay Southern Approach Lighted Buoy 2	R "2" Fl R 2.5s	N 36 49' 42.555"	W 075 46' 46.421"	36.82849	-75.77956	LNM 27/14, 5th Dist	2975	12280_2	7/10/2014
12280	Change	Tail of The Horseshoe Shoal Lighted Buoy 2T	R "2T" Fl R 4s (delete BELL)	N 36 58' 26.476"	W 076 02' 16.955"	36.97402	-76.03804	LNM 26/14, 5th Dist	2975	12280_2	7/10/2014
12280	Change	Thimble Shoal Channel Lighted Buoy 12	R "12" Fl R 6s (delete GONG)	N 36 59' 17.362"	W 076 09' 28.160"	36.98816	-76.15782	LNM 26/14, 5th Dist	2975	12280_2	7/10/2014
12280	Relocate	Chesapeake Bay Southern Approach Lighted Buoy 10	R "10" Q R	N 36 52' 21.616"	W 075 52' 05.636"	36.87267	-75.86823	LNM 25/14, 5th Dist	2975	12280_2	7/3/2014
12280	Relocate	Little Creek Harbor Jetty Light 3	Q G 25ft 6M "3"	N 36 55' 58.710"	W 076 10' 35.059"	36.93298	-76.17641	LNM 25/14, 5th Dist	2975	12280_2	7/3/2014
12280	Change	Little Creek Harbor Jetty Light 3	Q G 25ft 6M "3"	N 36 55' 58.710"	W 076 10' 35.059"	36.93298	-76.17641	LNM 25/14, 5th Dist	2975	12280_2	7/3/2014
12280	Relocate	Little Creek Harbor Jetty Light 4	Q R 25ft 6M "4"	N 36 55' 54.925"	W 076 10' 44.205"	36.93192	-76.17895	LNM 25/14, 5th Dist	2975	12280_2	7/3/2014
12280	Change	Little Creek Harbor Jetty Light 4	Q R 25ft 6M "4"	N 36 55' 54.925"	W 076 10' 44.205"	36.93192	-76.17895	LNM 25/14, 5th Dist	2975	12280_2	7/3/2014
12280	Change	Eastern Bay Entrance Lighted Buoy 1E	G "1E" Fl G 4s	N 38 49' 07.418"	W 076 22' 07.829"	38.81873	-76.36884	LNM 25/14, 5th Dist	2974	12280_1	7/3/2014
12280	Change	Eastern Bay Entrance Lighted Buoy 1	G "1" Fl G 4s (delete BELL)	N 38 49' 07.418"	W 076 22' 07.829"	38.81873	-76.36884	LNM 24/14, 5th Dist	2974	12280_1	6/26/2014
12280	Relocate	Eastern Bay Entrance Lighted Buoy 1	G "1" Fl G 4s	N 38 49' 07.418"	W 076 22' 07.829"	38.81873	-76.36884	LNM 24/14, 5th Dist	2974	12280_1	6/26/2014
12280	Change	Swan Point Channel North Range Rear Passing Lights (2)	2 F 26ft 4M	N 39 07' 40.966"	W 076 16' 07.968"	39.12805	-76.26888	LNM 21/14, 5th Dist	2974	12280_1	6/5/2014
12280	Change	Chesapeake Channel Lighted Buoy 56	R "56" Fl R 6s	N 37 38' 24.235"	W 076 07' 06.657"	37.64006	-76.11852	LNM 17/14, 5th Dist	2975	12280_2	5/1/2014
12280	Change	Grove Point Range Rear Passing Lights (2)	2 Fl 4s 30ft 4M	N 39 24' 30.717"	W 076 01' 14.193"	39.40853	-76.02061	LNM 17/14, 5th Dist	2974	12280_1	5/1/2014
12280	Change	Grove Point Range Rear Passing Lights (2)	2 Fl 4s 15ft 4M	N 39 24' 30.717"	W 076 01' 14.193"	39.40853	-76.02061	LNM 15/14, 5th Dist	2974	12280_1	4/24/2014
12280	Change	Susquehanna River Channel Lighted Buoy 1S	G "1S" Fl G 2.5s	N 39 27' 46.811"	W 076 02' 52.314"	39.463	-76.04787	LNM 15/14, 5th Dist	2974	12280_1	4/24/2014
12280	Change	Upper Chesapeake Channel Range Rear Passing Lights (2)	2 Oc 4s 15ft 4M	N 39 19' 37.184"	W 076 12' 49.665"	39.327	-76.2138	LNM 15/14, 5th Dist	2974	12280_1	4/24/2014
12263	Add	Dotted Oyster Reef PT 1 OF 4	Chart No. 1: K46.2	N 38 46' 53.700"	W 076 16' 31.500"	38.78158	-76.27541	LNM 27/17, 5th Dist	603	12263_1	6/29/2017
12263	Add	Dotted Oyster Reef PT 3 OF 4	Chart No. 1: K46.2	N 38 47' 02.600"	W 076 16' 28.800"	38.78405	-76.27467	LNM 27/17, 5th Dist	603	12263_1	6/29/2017
12263	Add	Dotted Oyster Reef PT 2 OF 4	Chart No. 1: K46.2	N 38 46' 55.400"	W 076 16' 32.000"	38.78205	-76.27556	LNM 27/17, 5th Dist	603	12263_1	6/29/2017
12263	Add	Dotted Oyster Reef PT 4 OF 4	Chart No. 1: K46.2	N 38 47' 02.200"	W 076 16' 24.900"	38.78394	-76.27358	LNM 27/17, 5th Dist	603	12263_1	6/29/2017
12263	Add	Dotted Oyster Reef Label	Oyster Reef(auth min 2 ft)	N 38 46' 58.960"	W 076 16' 28.970"	38.78304	-76.27471	LNM 27/17, 5th Dist	603	12263_1	6/29/2017
12263	Relocate	Knapps Narrows West Channel Buoy 4	R N "4"	N 38 43' 15.840"	W 076 20' 27.014"	38.72107	-76.34084	LNM 23/17, 5th Dist	603	12263_1	6/8/2017
12263	Change	Knapps Narrows West Channel Daybeacon 3	G "3"	N 38 43' 17.022"	W 076 20' 35.730"	38.72139	-76.34326	LNM 22/17, 5th Dist	603	12263_1	6/8/2017
12263	Relocate	Knapps Narrows West Channel Buoy 4	R N "4"	N 38 43' 15.480"	W 076 20' 26.640"	38.72097	-76.34074	LNM 22/17, 5th Dist	603	12263_1	6/8/2017
12263	Change	Knapps Narrows West Channel Warning Daybeacon A	W "A"	N 38 43' 17.904"	W 076 20' 26.014"	38.72164	-76.34056	LNM 22/17, 5th Dist	603	12263_1	6/8/2017
12263	Delete	Overhead Power Cable  PT 1 OF 2	Chart No. 1: D26  	N 39 00' 20.720"	W 076 09' 10.200"	39.00576	-76.15283	LNM 23/17, 5th Dist	603	12263_1	6/1/2017
12263	Delete	Overhead Power Cable  PT 2 OF 2	Chart No. 1: D26  	N 39 00' 16.560"	W 076 09' 04.420"	39.0046	-76.15123	LNM 23/17, 5th Dist	603	12263_1	6/1/2017
12263	Add	Cable Area  PT 1 OF 2	Chart No. 1: L30.2	N 39 00' 20.090"	W 076 09' 11.420"	39.00558	-76.15318	LNM 23/17, 5th Dist	603	12263_1	6/1/2017
12263	Add	Cable Area  PT 2 OF 2	Chart No. 1: L30.2	N 39 00' 15.070"	W 076 09' 04.460"	39.00418	-76.15124	LNM 23/17, 5th Dist	603	12263_1	6/1/2017
12263	Delete	Overhead Power Cable Label	OVHD PWR CAB AUTH CL 66 FT	N 39 00' 14.400"	W 076 08' 54.230"	39.004	-76.1484	LNM 23/17, 5th Dist	603	12263_1	6/1/2017
12263	Add	Bridge Construction PT 1 OF 2	Chart No. 1: D.d	N 38 45' 26.700"	W 075 59' 53.650"	38.75742	-75.99824	LNM 15/17, 5th Dist	603	12263_1	4/13/2017
12263	Add	Bridge Construction PT 2 OF 2	Chart No. 1: D.d	N 38 45' 22.880"	W 075 59' 47.250"	38.75636	-75.99646	LNM 15/17, 5th Dist	603	12263_1	4/13/2017
12263	Add	Bridge Construction Label	Bridge under construction	N 38 45' 24.900"	W 075 59' 50.630"	38.75692	-75.9974	LNM 15/17, 5th Dist	603	12263_1	4/13/2017
12263	Delete	Kent Island Narrows North Approach Buoy 6A	R N "6A"	N 38 59' 47.080"	W 076 14' 29.560"	38.99641	-76.24155	LNM 13/17, 5th Dist	603	12263_1	3/23/2017
12263	Change	Miles River Light 4	Fl R 2.5s 15ft 4M "4"	N 38 47' 41.837"	W 076 12' 24.658"	38.79496	-76.20685	LNM 08/17, 5th Dist	603	12263_1	3/2/2017
12263	Change	Herring Bay Light 2	Fl R 4s 15ft 4M "2"	N 38 44' 25.870"	W 076 32' 38.904"	38.74052	-76.54414	LNM 07/17, 5th Dist	603	12263_1	2/23/2017
12263	Change	Rose Haven Channel Light 1	Q G 15ft 4M "1"	N 38 44' 01.746"	W 076 32' 18.954"	38.73382	-76.5386	LNM 03/17, 5th Dist	603	12263_1	1/26/2017
12263	Relocate	Rose Haven Channel Light 1	Q G 15ft 4M "1"	N 38 44' 01.746"	W 076 32' 18.954"	38.73382	-76.5386	LNM 03/17, 5th Dist	603	12263_1	1/26/2017
12263	Change	Lowes Wharf Channel Light 2	Fl R 4s 15ft 4M "2"	N 38 45' 56.436"	W 076 19' 56.448"	38.76568	-76.33234	LNM 02/17, 5th Dist	603	12263_1	1/12/2017
12270	Add	Dotted Oyster Reef PT 1 OF 4	Chart No. 1: K46.2	N 38 46' 53.700"	W 076 16' 31.500"	38.78158	-76.27541	LNM 27/17, 5th Dist	617	12270_1	6/29/2017
12270	Add	Dotted Oyster Reef PT 3 OF 4	Chart No. 1: K46.2	N 38 47' 02.600"	W 076 16' 28.800"	38.78405	-76.27467	LNM 27/17, 5th Dist	617	12270_1	6/29/2017
12270	Add	Dotted Oyster Reef PT 2 OF 4	Chart No. 1: K46.2	N 38 46' 55.400"	W 076 16' 32.000"	38.78205	-76.27556	LNM 27/17, 5th Dist	617	12270_1	6/29/2017
12270	Add	Dotted Oyster Reef PT 4 OF 4	Chart No. 1: K46.2	N 38 47' 02.200"	W 076 16' 24.900"	38.78394	-76.27358	LNM 27/17, 5th Dist	617	12270_1	6/29/2017
12270	Add	Dotted Oyster Reef Label	Oyster Reef(auth min 2 ft)	N 38 46' 58.960"	W 076 16' 28.970"	38.78304	-76.27471	LNM 27/17, 5th Dist	617	12270_1	6/29/2017
12270	Delete	Sounding in Feet	4	N 38 47' 01.950"	W 076 16' 28.720"	38.78387	-76.27464	LNM 27/17, 5th Dist	617	12270_1	6/29/2017
12270	Delete	Overhead Power Cable  PT 1 OF 2	Chart No. 1: D26  	N 39 00' 20.720"	W 076 09' 10.200"	39.00576	-76.15283	LNM 23/17, 5th Dist	617	12270_1	6/1/2017
12270	Delete	Overhead Power Cable  PT 2 OF 2	Chart No. 1: D26  	N 39 00' 16.560"	W 076 09' 04.420"	39.0046	-76.15123	LNM 23/17, 5th Dist	617	12270_1	6/1/2017
12270	Add	Cable Area  PT 1 OF 2	Chart No. 1: L30.2	N 39 00' 20.090"	W 076 09' 11.420"	39.00558	-76.15318	LNM 23/17, 5th Dist	617	12270_1	6/1/2017
12270	Add	Cable Area  PT 2 OF 2	Chart No. 1: L30.2	N 39 00' 15.070"	W 076 09' 04.460"	39.00418	-76.15124	LNM 23/17, 5th Dist	617	12270_1	6/1/2017
12270	Delete	Overhead Power Cable Label	OVHD PWR CAB AUTH CL 66 FT	N 39 00' 14.400"	W 076 08' 54.230"	39.004	-76.1484	LNM 23/17, 5th Dist	617	12270_1	6/1/2017
12270	Relocate	Kent Island Narrows North Approach Lighted Buoy 3	G "3" Fl G 4s	N 38 59' 02.516"	W 076 14' 34.648"	38.98403	-76.24296	LNM 14/17, 5th Dist	617	12270_1	4/13/2017
12270	Relocate	Rockhold Creek Channel Buoy 5	G C "5"	N 38 46' 02.913"	W 076 33' 20.709"	38.76748	-76.55576	LNM 14/17, 5th Dist	617	12270_1	4/13/2017
12270	Relocate	Rockhold Creek Channel Buoy 7	G C "7"	N 38 46' 05.774"	W 076 33' 26.003"	38.76827	-76.55722	LNM 14/17, 5th Dist	617	12270_1	4/13/2017
12270	Delete	Kent Island Narrows North Approach Buoy 6A	R N "6A"	N 38 59' 47.080"	W 076 14' 29.560"	38.99641	-76.24155	LNM 13/17, 5th Dist	617	12270_1	3/23/2017
12270	Change	Miles River Light 4	Fl R 2.5s 15ft 4M "4"	N 38 47' 41.837"	W 076 12' 24.658"	38.79496	-76.20685	LNM 08/17, 5th Dist	617	12270_1	3/2/2017
12270	Change	Herring Bay Light 2	Fl R 4s 15ft 4M "2"	N 38 44' 25.870"	W 076 32' 38.904"	38.74052	-76.54414	LNM 07/17, 5th Dist	617	12270_1	2/23/2017
12270	Add	Poplar Island Narrows Lighted Mooring Buoy B	W Bu "B" Fl 4s Priv	N 38 46' 10.000"	W 076 21' 10.000"	38.76944	-76.35278	LNM 06/17, 5th Dist	617	12270_1	2/16/2017
12270	Add	Poplar Island Narrows Lighted Mooring Buoy A	W Bu "A" Fl 4s Priv	N 38 46' 07.000"	W 076 21' 23.000"	38.76861	-76.35639	LNM 06/17, 5th Dist	617	12270_1	2/16/2017
12270	Add	Poplar Island Narrows Lighted Mooring Buoy C	W Bu "C" Fl 4s Priv	N 38 46' 18.000"	W 076 21' 22.000"	38.77167	-76.35611	LNM 06/17, 5th Dist	617	12270_1	2/16/2017
12270	Add	Poplar Island Narrows Lighted Mooring Buoy D	W Bu "D" Fl 4s Priv	N 38 46' 21.000"	W 076 21' 10.000"	38.7725	-76.35278	LNM 06/17, 5th Dist	617	12270_1	2/16/2017
12270	Change	Rose Haven Channel Light 1	Q G 15ft 4M "1"	N 38 44' 01.746"	W 076 32' 18.954"	38.73382	-76.5386	LNM 03/17, 5th Dist	617	12270_1	1/26/2017
12270	Relocate	Rose Haven Channel Light 1	Q G 15ft 4M "1"	N 38 44' 01.746"	W 076 32' 18.954"	38.73382	-76.5386	LNM 03/17, 5th Dist	617	12270_1	1/26/2017
12270	Change	Lowes Wharf Channel Light 2	Fl R 4s 15ft 4M "2"	N 38 45' 56.436"	W 076 19' 56.448"	38.76568	-76.33234	LNM 02/17, 5th Dist	617	12270_1	1/12/2017
12270	Change	Rockhold Creek Channel Light 13	Q G 15ft 4M "13"	N 38 46' 14.955"	W 076 33' 41.033"	38.77082	-76.5614	LNM 51/16, 5th Dist	617	12270_1	12/22/2016
12270	Change	Fishing Creek Light 3	Q G 15ft 4M "3"	N 38 54' 36.639"	W 076 27' 37.759"	38.91018	-76.46049	LNM 51/16, 5th Dist	617	12270_1	12/22/2016
12270	Change	Horn Point Light HP	Fl 6s 15ft 4M "HP"	N 38 58' 24.611"	W 076 28' 09.127"	38.9735	-76.4692	LNM 51/16, 5th Dist	617	12270_1	12/22/2016
12270	Change	Spa Creek Buoy 3	G C "3"	N 38 58' 22.007"	W 076 29' 23.629"	38.97278	-76.4899	LNM 51/16, 5th Dist	617	12270_1	12/22/2016
12270	Change	South River Light 10	Fl R 2.5s 15ft 4M "10"	N 38 55' 51.326"	W 076 31' 01.176"	38.93092	-76.51699	LNM 49/16, 5th Dist	617	12270_1	12/15/2016
12270	Change	Severn River - Mill Creek Light 2M	Fl R 2.5s 15ft 4M "2M"	N 38 59' 34.080"	W 076 26' 49.380"	38.9928	-76.44705	LNM 49/16, 5th Dist	617	12270_1	12/15/2016
12270	Relocate	Chesapeake Channel Lighted Buoy 93	G "93" Fl G 4s	N 39 00' 03.080"	W 076 22' 52.720"	39.00085	-76.38131	LNM 35/16, 5th Dist	617	12270_1	9/8/2016
12270	Relocate	Eastern Bay Buoy 8	R N "8"	N 38 50' 32.738"	W 076 13' 50.426"	38.84243	-76.23067	LNM 34/16, 5th Dist	617	12270_1	9/1/2016
12270	Change	NOAA Lighted Data Buoy AN	Y "AN" Fl Y 4s	N 38 57' 49.010"	W 076 26' 48.370"	38.96362	-76.44677	LNM 32/16, 5th Dist	617	12270_1	8/18/2016
12270	Change	Eastern Bay Lighted Buoy 2A	R "2A" Fl R 4s (delete BELL)	N 38 50' 33.347"	W 076 18' 12.964"	38.8426	-76.3036	LNM 27/16, 5th Dist	617	12270_1	7/7/2016
12270	Relocate	Eastern Bay Lighted Buoy 2A	R "2A" Fl R 4s	N 38 50' 33.347"	W 076 18' 12.964"	38.8426	-76.3036	LNM 27/16, 5th Dist	617	12270_1	7/7/2016
12270	Relocate	South River Junction Buoy SR	GR C "SR"	N 38 53' 39.428"	W 076 25' 52.216"	38.89429	-76.43117	LNM 21/16, 5th Dist	617	12270_1	5/26/2016
12270	Relocate	West River Lighted Buoy 1A	G "1A" Fl G 2.5s	N 38 52' 13.053"	W 076 28' 53.210"	38.87029	-76.48145	LNM 17/16, 5th Dist	617	12270_1	5/5/2016
12270	Add	Kent Island Narrows North Approach Lighted Buoy 3	G "3" Fl G 4s	N 38 59' 03.465"	W 076 14' 33.437"	38.98429	-76.24262	LNM 15/16, 5th Dist	617	12270_1	4/21/2016
12270	Add	Kent Island Narrows North Approach Buoy 6A	R N "6A"	N 38 59' 47.080"	W 076 14' 29.560"	38.99641	-76.24155	LNM 15/16, 5th Dist	617	12270_1	4/21/2016
12270	Change	Kent Island Narrows North Warning Daybeacon	W Bn	N 38 59' 01.001"	W 076 14' 37.426"	38.98361	-76.24373	LNM 15/16, 5th Dist	617	12270_1	4/21/2016
12270	Change	Kent Island Narrows North Approach Light 4	Fl R 4s 15ft 4M "4"	N 38 59' 01.673"	W 076 14' 36.148"	38.9838	-76.24338	LNM 15/16, 5th Dist	617	12270_1	4/21/2016
12270	Change	Rockhold Creek Jetty Light 2	Fl R 4s 15ft 4M "2"	N 38 46' 01.659"	W 076 33' 16.223"	38.76713	-76.5545	LNM 13/16, 5th Dist	617	12270_1	4/7/2016
12270	Change	Naval Anchorage Light A	Fl Y 2.5s 15ft 4M "A"	N 38 58' 00.507"	W 076 27' 09.003"	38.96681	-76.4525	LNM 13/16, 5th Dist	617	12270_1	4/7/2016
12270	Change	Annapolis Harbor Entrance Light 4	Fl R 6s 15ft 4M "4"	N 38 58' 06.185"	W 076 27' 27.737"	38.96838	-76.4577	LNM 13/16, 5th Dist	617	12270_1	4/7/2016
12270	Relocate	Annapolis Harbor Entrance Light 4	Fl R 6s 15ft 4M "4"	N 38 58' 06.185"	W 076 27' 27.737"	38.96838	-76.4577	LNM 13/16, 5th Dist	617	12270_1	4/7/2016
12270	Delete	Eastern Bay Buoy 12	R N "12"	N 38 48' 38.789"	W 076 12' 32.300"	38.81078	-76.20897	LNM 12/16, 5th Dist	617	12270_1	3/31/2016
12270	Add	Eastern Bay Daybeacon 12	R "12"	N 38 48' 38.058"	W 076 12' 33.555"	38.81057	-76.20932	LNM 12/16, 5th Dist	617	12270_1	3/31/2016
12270	Add	William P. Lane Jr. Bridge V-AIS SE	V-AIS "SE" (Chart No. 1: S18.2)	N 38 59' 33.479"	W 076 22' 47.059"	38.99263	-76.37974	LNM 06/16, 5th Dist	617	12270_1	2/11/2016
12270	Add	William P. Lane Jr. Bridge V-AIS SW	V-AIS "SW" (Chart No. 1: S18.2)	N 38 59' 37.823"	W 076 23' 04.969"	38.99384	-76.38471	LNM 06/16, 5th Dist	617	12270_1	2/11/2016
12270	Add	William P. Lane Jr. Bridge V-AIS NE	V-AIS "NE" (Chart No. 1: S18.2)	N 38 59' 37.768"	W 076 22' 45.337"	38.99382	-76.37926	LNM 06/16, 5th Dist	617	12270_1	2/11/2016
12270	Add	William P. Lane Jr. Bridge V-AIS NW	V-AIS "NW" (Chart No. 1: S18.2)	N 38 59' 41.734"	W 076 23' 03.355"	38.99493	-76.38426	LNM 06/16, 5th Dist	617	12270_1	2/11/2016
12278	Relocate	Swan Creek Entrance Buoy 1	G C "1"	N 39 05' 34.223"	W 076 15' 15.021"	39.09284	-76.25417	LNM 22/17, 5th Dist	633	12278_1	6/8/2017
12278	Relocate	Curtis Bay Channel Lighted Buoy 4	R "4" Fl R 6s	N 39 13' 21.598"	W 076 32' 51.755"	39.22267	-76.54771	LNM 20/17, 5th Dist	633	12278_1	5/25/2017
12278	Relocate	Brewerton Channel Lighted Buoy 3	G "3" Q G	N 39 10' 48.736"	W 076 26' 42.018"	39.18021	-76.44501	LNM 19/17, 5th Dist	633	12278_1	5/18/2017
12278	Relocate	Gordon Point Shoal Buoy 2	R N "2"	N 39 03' 40.633"	W 076 09' 38.241"	39.06129	-76.16062	LNM 15/17, 5th Dist	633	12278_1	4/20/2017
12278	Change	Sparrows Point Channel Range Front Light	F G 70ft Priv	N 39 12' 42.268"	W 076 29' 03.119"	39.21174	-76.4842	LNM 13/17, 5th Dist	633	12278_1	4/6/2017
12278	Change	Sparrows Point Channel Range Rear Light	F R 96ft Priv	N 39 12' 46.435"	W 076 29' 03.653"	39.2129	-76.48434	LNM 13/17, 5th Dist	633	12278_1	4/6/2017
12278	Change	Sparrows Point Channel Lighted Junction Buoy SP	RG "SP" Fl (2+1) R 6s	N 39 11' 40.190"	W 076 28' 58.292"	39.1945	-76.48286	LNM 13/17, 5th Dist	633	12278_1	4/6/2017
12278	Relocate	Sparrows Point Channel Buoy 2	R N "2"	N 39 11' 40.791"	W 076 28' 51.860"	39.19466	-76.48107	LNM 13/17, 5th Dist	633	12278_1	4/6/2017
12278	Relocate	Sparrows Point Channel Buoy 3	G C "3"	N 39 11' 51.390"	W 076 28' 59.961"	39.19761	-76.48332	LNM 13/17, 5th Dist	633	12278_1	4/6/2017
12278	Relocate	Sparrows Point Channel Buoy 4	R N "4"	N 39 11' 52.491"	W 076 28' 44.160"	39.19791	-76.47894	LNM 13/17, 5th Dist	633	12278_1	4/6/2017
12278	Relocate	Sparrows Point Channel Buoy 6	R N "6"	N 39 12' 06.390"	W 076 28' 45.960"	39.20177	-76.47943	LNM 13/17, 5th Dist	633	12278_1	4/6/2017
12278	Relocate	Sparrows Point Channel Buoy 7	G C "7"	N 39 12' 22.370"	W 076 29' 03.041"	39.20621	-76.48418	LNM 13/17, 5th Dist	633	12278_1	4/6/2017
12278	Change	Sparrows Point Channel Lighted Buoy 8	R "8" Fl R 2.5s	N 39 12' 22.040"	W 076 28' 59.061"	39.20612	-76.48307	LNM 13/17, 5th Dist	633	12278_1	4/6/2017
12278	Relocate	Sparrows Point Channel Buoy 10	R N "10"	N 39 12' 34.310"	W 076 28' 54.761"	39.20953	-76.48188	LNM 13/17, 5th Dist	633	12278_1	4/6/2017
12278	Relocate	Sparrows Point Channel Range Front Light	F G 70ft Priv	N 39 12' 42.268"	W 076 29' 03.119"	39.21174	-76.4842	LNM 13/17, 5th Dist	633	12278_1	4/6/2017
12278	Relocate	Sparrows Point Channel Range Rear Light	F R 96ft Priv	N 39 12' 46.435"	W 076 29' 03.653"	39.2129	-76.48434	LNM 13/17, 5th Dist	633	12278_1	4/6/2017
12278	Relocate	Curtis Bay Channel Lighted Buoy 5	G "5" Fl G 4s	N 39 13' 15.684"	W 076 33' 08.671"	39.22102	-76.55241	LNM 10/17, 5th Dist	633	12278_1	3/16/2017
12278	Change	White Rocks Light	Fl 4s 19ft 5M	N 39 10' 25.768"	W 076 29' 17.010"	39.17382	-76.48806	LNM 09/17, 5th Dist	633	12278_1	3/9/2017
12278	Relocate	Curtis Bay Channel Lighted Buoy 7	G "7" Fl G 2.5s	N 39 13' 14.248"	W 076 34' 00.929"	39.22062	-76.56693	LNM 07/17, 5th Dist	633	12278_1	2/23/2017
12278	Change	Tabulation - CHESAPEAKE AND DELAWARE CANAL CHANNEL DEPTHS	Tabulation - CHESAPEAKE AND DELAWARE CANAL CHANNEL DEPTHS	N 39 12' 20.000"	W 076 12' 13.000"	39.20555	-76.20361	LNM 06/17, 5th Dist	633	12278_1	2/2/2017
12278	Change	Tabulation - CURTIS CREEK CHANNEL DEPTHS	Tabulation - CURTIS CREEK CHANNEL DEPTHS	N 39 09' 55.000"	W 076 37' 30.000"	39.16528	-76.625	LNM 06/17, 5th Dist	633	12278_1	2/2/2017
12278	Change	Tabulation - BALTIMORE HARBOR CHANNEL DEPTHS	Tabulation - BALTIMORE HARBOR CHANNEL DEPTHS	N 39 08' 20.000"	W 076 37' 29.000"	39.13889	-76.62473	LNM 06/17, 5th Dist	633	12278_1	2/2/2017
12278	Change	Rock Creek Channel Entrance Light 2	Fl R 4s 15ft 4M "2"	N 39 09' 41.944"	W 076 29' 50.564"	39.16165	-76.49738	LNM 03/17, 5th Dist	633	12278_1	1/26/2017
12278	Relocate	Rock Creek Channel Entrance Light 2	Fl R 4s 15ft 4M "2"	N 39 09' 41.944"	W 076 29' 50.564"	39.16165	-76.49738	LNM 03/17, 5th Dist	633	12278_1	1/26/2017
12278	Change	Sparrows Point Steel Works Channel Lighted Buoy 8	R "8" Fl R 2.5s	N 39 12' 22.040"	W 076 28' 59.061"	39.20612	-76.48307	LNM 02/17, 5th Dist	633	12278_1	1/12/2017
12278	Relocate	Brewerton Channel Range Front Light	Oc G 4s 25ft	N 39 12' 19.042"	W 076 31' 26.152"	39.20529	-76.52393	LNM 02/17, 5th Dist	633	12278_1	1/12/2017
12278	Change	Brewerton Channel Range Front Light	Oc G 4s 25ft	N 39 12' 19.042"	W 076 31' 26.152"	39.20529	-76.52393	LNM 02/17, 5th Dist	633	12278_1	1/12/2017
12278	Relocate	Fort McHenry Channel Lighted Buoy 3	G "3" Fl G 4s	N 39 12' 42.030"	W 076 31' 28.532"	39.21167	-76.52459	LNM 02/17, 5th Dist	633	12278_1	1/12/2017
12278	Relocate	Sparrows Point Steel Works Channel Lighted Buoy 8	R "8" Fl R 2.5s	N 39 12' 22.040"	W 076 28' 59.061"	39.20612	-76.48307	LNM 02/17, 5th Dist	633	12278_1	1/12/2017
12278	Change	Harts Island Channel Light 9	Fl G 2.5s 15ft 4M "9"	N 39 14' 13.380"	W 076 23' 43.140"	39.23705	-76.39532	LNM 51/16, 5th Dist	633	12278_1	12/22/2016
12278	Change	Sillery Bay Light 3	Fl G 4s 15ft 4M "3"	N 39 05' 25.221"	W 076 26' 39.024"	39.09034	-76.44418	LNM 51/16, 5th Dist	633	12278_1	12/22/2016
12278	Change	Harts Island Channel Light 1	Fl G 2.5s 15ft 4M "1"	N 39 13' 33.545"	W 076 23' 46.022"	39.22599	-76.39612	LNM 51/16, 5th Dist	633	12278_1	12/22/2016
12278	Delete	Fairlee Creek Light 2F	Fl (2) R 5s 15ft 3M "2F"	N 39 16' 15.064"	W 076 12' 31.130"	39.27085	-76.20865	LNM 36/16, 5th Dist	633	12278_1	9/15/2016
12278	Relocate	Cypress Creek Daybeacon 1	G "1"	N 39 04' 26.073"	W 076 31' 16.696"	39.07391	-76.5213	LNM 34/16, 5th Dist	633	12278_1	9/1/2016
12278	Relocate	Cypress Creek Daybeacon 3	G "3"	N 39 04' 25.598"	W 076 31' 20.697"	39.07378	-76.52242	LNM 34/16, 5th Dist	633	12278_1	9/1/2016
12278	Relocate	Craighill Channel Upper Range Front Light	F R 15ft	N 39 11' 49.408"	W 076 26' 53.776"	39.19706	-76.44827	LNM 32/16, 5th Dist	633	12278_1	8/18/2016
12278	Relocate	Craighill Channel Upper Range Rear Light	F R 74ft	N 39 12' 58.209"	W 076 27' 45.872"	39.21617	-76.46275	LNM 32/16, 5th Dist	633	12278_1	8/18/2016
12278	Add	Rock Hall Harbor Entrance Buoy 1	G C "1"	N 39 07' 44.937"	W 076 14' 53.902"	39.12915	-76.24831	LNM 25/16, 5th Dist	633	12278_1	6/30/2016
12278	Add	Label:	DEPOT CHANNEL	N 39 11' 40.330"	W 076 34' 32.810"	39.19453	-76.57578	LNM 18/16, 5th Dist	633	12278_1	4/28/2016
12278	Delete	Sounding in Feet	15	N 39 11' 56.390"	W 076 34' 34.870"	39.199	-76.57635	LNM 18/16, 5th Dist	633	12278_1	4/28/2016
12278	Delete	Sounding in Feet	12	N 39 11' 36.310"	W 076 34' 29.350"	39.19342	-76.57482	LNM 18/16, 5th Dist	633	12278_1	4/28/2016
12278	Delete	Sounding in Feet	17	N 39 11' 44.390"	W 076 34' 33.840"	39.19566	-76.57607	LNM 18/16, 5th Dist	633	12278_1	4/28/2016
12278	Change	Tabulation - CURTIS CREEK CHANNEL DEPTHS	Tabulation - CURTIS CREEK CHANNEL DEPTHS	N 39 09' 55.000"	W 076 37' 30.000"	39.16528	-76.625	LNM 18/16, 5th Dist	633	12278_1	4/28/2016
12278	Delete	Channel Limits PT 1 OF 2	Chart No. 1: I20	N 39 12' 00.100"	W 076 34' 34.600"	39.20003	-76.57628	LNM 18/16, 5th Dist	633	12278_1	4/28/2016
12278	Delete	Channel Limits PT 2 OF 2	Chart No. 1: I20	N 39 11' 56.900"	W 076 34' 32.600"	39.19914	-76.57572	LNM 18/16, 5th Dist	633	12278_1	4/28/2016
12278	Add	Channel Reach Separation Line PT 1 OF 2	(solid magenta line)	N 39 12' 00.100"	W 076 34' 34.600"	39.20003	-76.57628	LNM 18/16, 5th Dist	633	12278_1	4/28/2016
12278	Add	Channel Reach Separation Line PT 2 OF 2	(solid magenta line)	N 39 11' 56.900"	W 076 34' 32.600"	39.19914	-76.57572	LNM 18/16, 5th Dist	633	12278_1	4/28/2016
12278	Change	Magothy River Entrance Light 2	Fl R 4s 15ft 4M "2"	N 39 03' 21.879"	W 076 25' 46.824"	39.05608	-76.42967	LNM 13/16, 5th Dist	633	12278_1	4/7/2016
12278	Change	Rock Hall Harbor Light 4	Fl R 2.5s 15ft 4M "4"	N 39 07' 48.972"	W 076 14' 52.542"	39.13027	-76.24792	LNM 13/16, 5th Dist	633	12278_1	4/7/2016
12278	Delete	Rock Hall Harbor Entrance Buoy 1	G C "1"	N 39 07' 44.899"	W 076 14' 54.803"	39.12914	-76.24856	LNM 13/16, 5th Dist	633	12278_1	4/7/2016
12278	Change	Stony Creek Light 4	Fl R 4s 15ft 4M "4"	N 39 10' 25.067"	W 076 31' 00.989"	39.17363	-76.51694	LNM 13/16, 5th Dist	633	12278_1	4/7/2016
12278	Change	Pooles Island South Range Rear Light	Oc 4s 72ft	N 39 18' 07.023"	W 076 14' 11.662"	39.30195	-76.23657	LNM 13/16, 5th Dist	633	12278_1	4/7/2016
12278	Relocate	Penwood Channel Buoy 14	R N "14"	N 39 12' 36.639"	W 076 27' 29.212"	39.21018	-76.45811	LNM 12/16, 5th Dist	633	12278_1	3/31/2016
12278	Add	Francis Scott Key Bridge V-AIS SC	V-AIS "SC" (Chart No. 1: S18.2)	N 39 12' 57.839"	W 076 31' 46.501"	39.21607	-76.52959	LNM 06/16, 5th Dist	633	12278_1	2/11/2016
12278	Add	Francis Scott Key Bridge V-AIS NC	V-AIS "NC" (Chart No. 1: S18.2)	N 39 13' 05.099"	W 076 31' 36.949"	39.21808	-76.52693	LNM 06/16, 5th Dist	633	12278_1	2/11/2016
12278	Change	Wilson Point Junction Light WP	Fl (2+1) R 6s 15ft 4M "WP"	N 39 18' 19.745"	W 076 24' 32.699"	39.30548	-76.40908	LNM 03/16, 5th Dist	633	12278_1	1/28/2016
12278	Change	Curtis Bay Channel Range Front Light	Fl G 2.5s 20ft	N 39 13' 16.199"	W 076 34' 34.769"	39.22116	-76.57632	LNM 02/16, 5th Dist	633	12278_1	1/21/2016
12278	Change	Tabulation - BALTIMORE HARBOR CHANNEL DEPTHS	Tabulation - BALTIMORE HARBOR CHANNEL DEPTHS	N 39 08' 20.000"	W 076 37' 29.000"	39.13889	-76.62473	LNM 03/16, 5th Dist	633	12278_1	1/21/2016
12278	Change	Curtis Bay Channel Range Front Light	Fl G 2.5s 23ft	N 39 13' 16.199"	W 076 34' 34.769"	39.22116	-76.57632	LNM 49/15, 5th Dist	633	12278_1	12/17/2015
12278	Relocate	Curtis Bay Channel Range Front Light	Fl G 2.5s 23ft	N 39 13' 16.199"	W 076 34' 34.769"	39.22116	-76.57632	LNM 49/15, 5th Dist	633	12278_1	12/17/2015
12278	Relocate	Curtis Bay Channel Range Rear Light	Oc G 4s 53ft	N 39 13' 15.809"	W 076 34' 50.211"	39.22106	-76.58061	LNM 49/15, 5th Dist	633	12278_1	12/17/2015
12278	Change	Curtis Bay Channel Range Rear Light	Oc G 4s 53ft	N 39 13' 15.809"	W 076 34' 50.211"	39.22106	-76.58061	LNM 49/15, 5th Dist	633	12278_1	12/17/2015
12278	Change	Tabulation - BALTIMORE HARBOR CHANNEL DEPTHS	Tabulation - BALTIMORE HARBOR CHANNEL DEPTHS	N 39 08' 20.000"	W 076 37' 29.000"	39.13889	-76.62473	LNM 50/15, 5th Dist	633	12278_1	12/10/2015
12278	Relocate	Swan Creek Entrance Light 6	Fl R 4s 15ft 4M "6"	N 39 08' 21.704"	W 076 15' 47.659"	39.13936	-76.26324	LNM 36/15, 5th Dist	633	12278_1	9/17/2015
12278	Change	Tabulation - BALTIMORE HARBOR CHANNEL DEPTHS	Tabulation - BALTIMORE HARBOR CHANNEL DEPTHS	N 39 08' 20.000"	W 076 37' 29.000"	39.13889	-76.62473	LNM 34/15, 5th Dist	633	12278_1	8/27/2015
12278	Add	Submerged Obstruction	Obstn rep PA  (Chart No. 1: K40)	N 39 13' 24.400"	W 076 16' 52.000"	39.22345	-76.28111	LNM 31/15, 5th Dist	633	12278_1	8/13/2015
12278	Add	Grays Inn Creek Lighted Data Buoy B	Y "B" Fl Y 4s Priv	N 39 04' 12.920"	W 076 11' 43.670"	39.07026	-76.19547	LNM 16/15, 5th Dist	633	12278_1	4/30/2015
12278	Change	Brewerton Channel Eastern Extension Lighted Buoy 5	G "5" Fl G 6s (delete BELL)	N 39 09' 30.276"	W 076 22' 21.185"	39.15841	-76.37255	LNM 11/15, 5th Dist	633	12278_1	3/26/2015
12278	Change	Tabulation - CURTIS CREEK CHANNEL DEPTHS	Tabulation - CURTIS CREEK CHANNEL DEPTHS	N 39 09' 55.000"	W 076 37' 30.000"	39.16528	-76.625	LNM 10/15, 5th Dist	633	12278_1	3/12/2015
12278	Change	Tabulation - BALTIMORE HARBOR CHANNEL DEPTHS	Tabulation - BALTIMORE HARBOR CHANNEL DEPTHS	N 39 08' 20.000"	W 076 37' 29.000"	39.13889	-76.62473	LNM 10/15, 5th Dist	633	12278_1	3/12/2015
12278	Relocate	Penwood Channel Buoy 14	R N "14"	N 39 12' 37.050"	W 076 27' 29.024"	39.21029	-76.45806	LNM 07/15, 5th Dist	633	12278_1	2/26/2015
12278	Change	Depth Legend - SHALLOW CREEK to:	2 FT OCT 2014	N 39 12' 17.000"	W 076 26' 09.800"	39.20472	-76.43606	LNM 07/15, 5th Dist	633	12278_1	2/12/2015
12278	Change	Tabulation - BALTIMORE HARBOR CHANNEL DEPTHS	Tabulation - BALTIMORE HARBOR CHANNEL DEPTHS	N 39 08' 20.000"	W 076 37' 29.000"	39.13889	-76.62473	LNM 50/14, 5th Dist	633	12278_1	12/18/2014
12278	Change	Depth Legend - MARINE CHANNEL to:	33 FT 2007 - 2014	N 39 12' 44.600"	W 076 30' 41.200"	39.21239	-76.51144	LNM 45/14, 5th Dist	633	12278_1	11/6/2014
12278	Relocate	Love Point Light	Fl 6s 31ft 7M	N 39 03' 25.376"	W 076 17' 01.168"	39.05705	-76.28366	LNM 41/14, 5th Dist	633	12278_1	10/23/2014
12278	Change	Love Point Light	Fl 6s 31ft 7M	N 39 03' 25.376"	W 076 17' 01.168"	39.05705	-76.28366	LNM 41/14, 5th Dist	633	12278_1	10/23/2014
12278	Relocate	Curtis Bay Channel Lighted Buoy 8	R "8" Q R	N 39 13' 19.702"	W 076 34' 05.597"	39.22214	-76.56822	LNM 39/14, 5th Dist	633	12278_1	10/9/2014
12278	Delete	Tolchester Sector Light A	F WRG 45ft 6M "A"	N 39 14' 36.391"	W 076 13' 34.832"	39.24344	-76.22634	LNM 38/14, 5th Dist	633	12278_1	10/2/2014
12278	Delete	Pooles Island East Range Front Light	Q 19ft	N 39 16' 41.317"	W 076 16' 04.703"	39.27814	-76.26797	LNM 38/14, 5th Dist	633	12278_1	10/2/2014
12278	Delete	Pooles Island East Range Rear Light	Iso 6s 45ft	N 39 16' 40.573"	W 076 16' 13.200"	39.27794	-76.27033	LNM 38/14, 5th Dist	633	12278_1	10/2/2014
12278	Delete	Label:	(see note E)	N 39 14' 34.000"	W 076 13' 16.000"	39.24278	-76.22111	LNM 38/14, 5th Dist	633	12278_1	10/2/2014
12278	Delete	NOTE E:	Tolchester Sector Light A is equipped with a fixed light divided into sectors as follows: Light A, red sector - from 001.5 to 046; white sector - from 046 to 047.5; red sector - from 047.5 to 087.5; white sector - from 087.5 to 090.5; green sector - from 090.5 to 187; obscured - from 187 to 001.5.	N 39 09' 15.000"	W 076 13' 01.000"	39.15417	-76.21694	LNM 38/14, 5th Dist	633	12278_1	10/2/2014
12278	Delete	Tolchester Directional Light	F 21ft 5M	N 39 12' 24.393"	W 076 14' 46.835"	39.20678	-76.24635	LNM 37/14, 5th Dist	633	12278_1	9/25/2014
12278	Delete	Label:	TOWER (see note E)	N 39 12' 11.000"	W 076 14' 41.000"	39.20306	-76.24472	LNM 37/14, 5th Dist	633	12278_1	9/25/2014
12278	Change	NOTE E to:	Tolchester Sector Light A is equipped with a fixed light divided into sectors as follows: Light A, red sector - from 001.5 to 046; white sector - from 046 to 047.5; red sector - from 047.5 to 087.5; white sector - from 087.5 to 090.5; green sector - from 090.5 to 187; obscured - from 187 to 001.5.	N 39 09' 15.000"	W 076 13' 01.000"	39.15417	-76.21694	LNM 37/14, 5th Dist	633	12278_1	9/25/2014
12278	Change	Tabulation - BALTIMORE HARBOR CHANNEL DEPTHS	Tabulation - BALTIMORE HARBOR CHANNEL DEPTHS	N 39 08' 20.000"	W 076 37' 29.000"	39.13889	-76.62473	LNM 32/14, 5th Dist	633	12278_1	8/7/2014
12278	Change	Magothy River Light 14	Fl R 4s 15ft 4M "14"	N 39 04' 59.217"	W 076 31' 10.200"	39.08311	-76.5195	LNM 29/14, 5th Dist	633	12278_1	7/31/2014
12278	Change	Tabulation - CHESAPEAKE AND DELAWARE CANAL CHANNEL DEPTHS	Tabulation - CHESAPEAKE AND DELAWARE CANAL CHANNEL DEPTHS	N 39 12' 20.000"	W 076 12' 13.000"	39.20555	-76.20361	LNM 26/14, 5th Dist	633	12278_1	7/3/2014
12278	Add	Dotted Fish Haven Label	Oyster reef (auth min 8 ft)	N 39 12' 26.880"	W 076 18' 26.040"	39.20747	-76.30724	LNM 25/14, 5th Dist	633	12278_1	6/19/2014
12278	Add	Dotted Fish Haven PT 1 OF 4	Chart No. 1: K46.2	N 39 12' 28.380"	W 076 18' 23.400"	39.20788	-76.3065	LNM 25/14, 5th Dist	633	12278_1	6/19/2014
12278	Add	Dotted Fish Haven PT 2 OF 4	Chart No. 1: K46.2	N 39 12' 27.480"	W 076 18' 22.860"	39.20763	-76.30635	LNM 25/14, 5th Dist	633	12278_1	6/19/2014
12278	Add	Dotted Fish Haven PT 3 OF 4	Chart No. 1: K46.2	N 39 12' 25.380"	W 076 18' 28.680"	39.20705	-76.30797	LNM 25/14, 5th Dist	633	12278_1	6/19/2014
12278	Add	Dotted Fish Haven PT 4 OF 4	Chart No. 1: K46.2	N 39 12' 26.280"	W 076 18' 29.280"	39.2073	-76.30814	LNM 25/14, 5th Dist	633	12278_1	6/19/2014
12278	Change	Swan Point Channel North Range Rear Passing Lights (2)	2 F 26ft 4M	N 39 07' 40.966"	W 076 16' 07.968"	39.12805	-76.26888	LNM 21/14, 5th Dist	633	12278_1	6/5/2014
12210	Change	Virginia Inside Passage Daybeacon 191	G "191"	N 37 22' 56.862"	W 075 46' 21.072"	37.38246	-75.77252	LNM 23/17, 5th Dist	550	12210_1	6/8/2017
12210	Delete	Virginia Inside Passage Daybeacon 199A	G "199A"	N 37 24' 12.726"	W 075 49' 37.536"	37.40353	-75.8271	LNM 22/17, 5th Dist	550	12210_1	6/8/2017
12210	Relocate	Metompkin Buoy 13	G C "13"	N 37 40' 33.264"	W 075 36' 19.434"	37.67591	-75.6054	LNM 22/17, 5th Dist	550	12210_1	6/8/2017
12210	Add	Chincoteague Channel CBFS Data Buoy A	Y C "A" Priv	N 37 53' 06.400"	W 075 24' 53.500"	37.88511	-75.41486	LNM 22/17, 5th Dist	551	12210_2	6/8/2017
12210	Add	Chincoteague Channel CBFS Data Buoy A	Y C "A" Priv	N 37 53' 06.400"	W 075 24' 53.500"	37.88511	-75.41486	LNM 22/17, 5th Dist	550	12210_1	6/8/2017
12210	Add	Chincoteague Inlet CBFS Data Buoy A	Y C "A" Priv	N 37 50' 42.900"	W 075 25' 05.600"	37.84525	-75.41822	LNM 22/17, 5th Dist	550	12210_1	6/8/2017
12210	Delete	Virginia Inside Passage Daybeacon 82	R "82"	N 37 42' 36.840"	W 075 36' 05.304"	37.71023	-75.60147	LNM 20/17, 5th Dist	550	12210_1	5/25/2017
12210	Delete	Virginia Inside Passage Daybeacon 84	R "84"	N 37 42' 17.658"	W 075 36' 21.516"	37.70491	-75.60598	LNM 20/17, 5th Dist	550	12210_1	5/25/2017
12210	Delete	Virginia Inside Passage Buoy 87	G C "87"	N 37 41' 19.740"	W 075 36' 54.204"	37.68882	-75.61506	LNM 20/17, 5th Dist	550	12210_1	5/25/2017
12210	Delete	Virginia Inside Passage Daybeacon 105	G "105"	N 37 39' 13.164"	W 075 37' 41.898"	37.65366	-75.6283	LNM 20/17, 5th Dist	550	12210_1	5/25/2017
12210	Change	Metompkin Light 11	Q G 15ft 4M "11"	N 37 41' 02.493"	W 075 36' 16.980"	37.68402	-75.60471	LNM 20/17, 5th Dist	550	12210_1	5/25/2017
12210	Change	Metompkin Daybeacon 12	R "12"	N 37 40' 42.300"	W 075 36' 16.956"	37.67842	-75.60471	LNM 20/17, 5th Dist	550	12210_1	5/25/2017
12210	Change	Metompkin Warning Daybeacon C	W "C"	N 37 40' 24.186"	W 075 36' 53.448"	37.67339	-75.61485	LNM 20/17, 5th Dist	550	12210_1	5/25/2017
12210	Change	Metompkin Lighted Buoy 17	G "17" Fl G 4s	N 37 40' 08.010"	W 075 37' 10.470"	37.66889	-75.61958	LNM 20/17, 5th Dist	550	12210_1	5/25/2017
12210	Change	Metompkin Daybeacon 18	R "18"	N 37 39' 47.532"	W 075 37' 04.500"	37.6632	-75.61792	LNM 20/17, 5th Dist	550	12210_1	5/25/2017
12210	Change	Metompkin Warning Daybeacon D	W "D"	N 37 39' 21.696"	W 075 37' 21.474"	37.65602	-75.62263	LNM 20/17, 5th Dist	550	12210_1	5/25/2017
12210	Add	Metompkin Buoy 2M	R N "2M"	N 37 42' 36.440"	W 075 36' 05.280"	37.71012	-75.60146	LNM 20/17, 5th Dist	550	12210_1	5/25/2017
12210	Add	Metompkin Buoy 4	R N "4"	N 37 42' 17.140"	W 075 36' 21.010"	37.70476	-75.60583	LNM 20/17, 5th Dist	550	12210_1	5/25/2017
12210	Add	Metompkin Buoy 7	G C "7"	N 37 41' 20.780"	W 075 36' 55.570"	37.68911	-75.61543	LNM 20/17, 5th Dist	550	12210_1	5/25/2017
12210	Add	Metompkin Buoy 15	G C "15"	N 37 40' 24.240"	W 075 36' 56.620"	37.6734	-75.61573	LNM 20/17, 5th Dist	550	12210_1	5/25/2017
12210	Add	Metompkin Buoy 20	R N "20"	N 37 39' 19.920"	W 075 37' 21.280"	37.65553	-75.62258	LNM 20/17, 5th Dist	550	12210_1	5/25/2017
12210	Add	Metompkin Buoy 23	G C "23"	N 37 39' 13.640"	W 075 37' 40.720"	37.65379	-75.62798	LNM 20/17, 5th Dist	550	12210_1	5/25/2017
12210	Change	Metompkin Daybeacon 9	G "9"	N 37 41' 05.028"	W 075 36' 36.066"	37.68473	-75.61002	LNM 20/17, 5th Dist	550	12210_1	5/25/2017
12210	Change	Metompkin Buoy 24	R N "24"	N 37 39' 07.580"	W 075 37' 57.580"	37.65211	-75.63266	LNM 20/17, 5th Dist	550	12210_1	5/25/2017
12210	Change	Metompkin Daybeacon 19	G "19"	N 37 39' 26.598"	W 075 37' 12.810"	37.65739	-75.62022	LNM 20/17, 5th Dist	550	12210_1	5/25/2017
12210	Change	Metompkin Warning Daybeacon E	W "E"	N 37 38' 54.528"	W 075 38' 16.272"	37.64848	-75.63786	LNM 20/17, 5th Dist	550	12210_1	5/25/2017
12210	Change	Metompkin Daybeacon 5	G "5"	N 37 41' 52.518"	W 075 36' 39.402"	37.69792	-75.61095	LNM 20/17, 5th Dist	550	12210_1	5/25/2017
12210	Change	Metompkin Lighted Wreck Buoy WR22	R "WR22" Q R	N 37 39' 17.844"	W 075 37' 28.690"	37.65496	-75.62463	LNM 20/17, 5th Dist	550	12210_1	5/25/2017
12210	Add	Metompkin Buoy 13	G C "13"	N 37 40' 33.190"	W 075 36' 09.800"	37.67588	-75.60272	LNM 20/17, 5th Dist	550	12210_1	5/25/2017
12210	Relocate	Metompkin Daybeacon 12	R "12"	N 37 40' 42.300"	W 075 36' 16.956"	37.67842	-75.60471	LNM 20/17, 5th Dist	550	12210_1	5/25/2017
12210	Relocate	Metompkin Lighted Buoy 17	G "17" Fl G 4s	N 37 40' 08.010"	W 075 37' 10.470"	37.66889	-75.61958	LNM 20/17, 5th Dist	550	12210_1	5/25/2017
12210	Relocate	Metompkin Buoy 24	R N "24"	N 37 39' 07.580"	W 075 37' 57.580"	37.65211	-75.63266	LNM 20/17, 5th Dist	550	12210_1	5/25/2017
12210	Change	Metompkin Warning Daybeacon B	W "B"	N 37 40' 32.508"	W 075 36' 29.250"	37.6757	-75.60812	LNM 20/17, 5th Dist	550	12210_1	5/25/2017
12210	Relocate	Metompkin Warning Daybeacon C	W "C"	N 37 40' 24.186"	W 075 36' 53.448"	37.67339	-75.61485	LNM 20/17, 5th Dist	550	12210_1	5/25/2017
12210	Relocate	Metompkin Daybeacon 18	R "18"	N 37 39' 47.532"	W 075 37' 04.500"	37.6632	-75.61792	LNM 20/17, 5th Dist	550	12210_1	5/25/2017
12210	Relocate	Metompkin Warning Daybeacon D	W "D"	N 37 39' 21.696"	W 075 37' 21.474"	37.65602	-75.62263	LNM 20/17, 5th Dist	550	12210_1	5/25/2017
12210	Change	Depth Legend - Quinby Creek Entrance Channel to:	6 FT 2017	N 37 32' 24.000"	W 075 43' 36.100"	37.54	-75.72669	LNM 17/17, 5th Dist	550	12210_1	4/27/2017
12210	Change	Depth Legend - Quinby Creek Turning Basin to:	Shl to bare 2017	N 37 32' 56.200"	W 075 43' 55.700"	37.54894	-75.73214	LNM 17/17, 5th Dist	550	12210_1	4/27/2017
12210	Change	Depth Legend - Chincoteague Harbor of Refuge Channel to:	3 1/2 FT 2016	N 37 54' 08.830"	W 075 24' 29.090"	37.90245	-75.40808	LNM 17/17, 5th Dist	551	12210_2	4/27/2017
12210	Change	Depth Legend - Chincoteague Harbor of Refuge Basin to:	3 FT 2016	N 37 54' 09.830"	W 075 24' 22.730"	37.90273	-75.40631	LNM 17/17, 5th Dist	551	12210_2	4/27/2017
12210	Relocate	Chincoteague Channel Buoy 25	G C "25"	N 37 55' 15.490"	W 075 23' 42.610"	37.92097	-75.39517	LNM 15/17, 5th Dist	551	12210_2	4/20/2017
12210	Relocate	Chincoteague Channel Buoy 19	G C "19"	N 37 54' 21.480"	W 075 24' 34.850"	37.90597	-75.40968	LNM 15/17, 5th Dist	551	12210_2	4/20/2017
12210	Change	Virginia Inside Passage Daybeacon 173	G "173"	N 37 28' 21.888"	W 075 44' 26.268"	37.47275	-75.74063	LNM 13/17, 5th Dist	550	12210_1	4/6/2017
12210	Change	Virginia Inside Passage Warning Daybeacon	W Bn	N 37 29' 30.897"	W 075 43' 45.913"	37.49192	-75.72942	LNM 13/17, 5th Dist	550	12210_1	4/6/2017
12210	Change	Virginia Inside Passage Daybeacon 169	G "169"	N 37 28' 59.514"	W 075 44' 06.642"	37.4832	-75.73518	LNM 13/17, 5th Dist	550	12210_1	4/6/2017
12210	Relocate	Chincoteague Channel Lighted Buoy 28	R "28" Fl R 4s	N 37 55' 45.640"	W 075 23' 29.080"	37.92934	-75.39141	LNM 13/17, 5th Dist	551	12210_2	4/6/2017
12210	Relocate	Virginia Inside Passage Daybeacon 169	G "169"	N 37 28' 59.514"	W 075 44' 06.642"	37.4832	-75.73518	LNM 13/17, 5th Dist	550	12210_1	4/6/2017
12210	Delete	Virginia Inside Passage Daybeacon 43	G "43"	N 37 48' 13.854"	W 075 31' 50.940"	37.80385	-75.53082	LNM 10/17, 5th Dist	550	12210_1	3/16/2017
12210	Delete	Virginia Inside Passage Daybeacon 44	R "44"	N 37 48' 08.580"	W 075 31' 57.564"	37.80238	-75.53265	LNM 10/17, 5th Dist	550	12210_1	3/16/2017
12210	Delete	Virginia Inside Passage Daybeacon 46	R "46"	N 37 48' 01.643"	W 075 31' 53.870"	37.80046	-75.53163	LNM 10/17, 5th Dist	550	12210_1	3/16/2017
12210	Delete	Virginia Inside Passage Daybeacon 47	G "47"	N 37 47' 56.064"	W 075 31' 50.616"	37.79891	-75.53072	LNM 10/17, 5th Dist	550	12210_1	3/16/2017
12210	Delete	Virginia Inside Passage Lighted Wreck Buoy WR49	G "WR49" Q G	N 37 47' 42.240"	W 075 31' 47.060"	37.79507	-75.52974	LNM 10/17, 5th Dist	550	12210_1	3/16/2017
12210	Delete	Virginia Inside Passage Daybeacon 50	R "50"	N 37 47' 35.478"	W 075 31' 46.926"	37.79319	-75.5297	LNM 10/17, 5th Dist	550	12210_1	3/16/2017
12210	Delete	Wallops Island Warning Daybeacon	W Bn	N 37 53' 46.434"	W 075 24' 55.734"	37.89623	-75.41548	LNM 10/17, 5th Dist	551	12210_2	3/16/2017
12210	Delete	Wallops Island Warning Daybeacon	W Bn	N 37 53' 46.434"	W 075 24' 55.734"	37.89623	-75.41548	LNM 10/17, 5th Dist	550	12210_1	3/16/2017
12210	Change	Quinby Channel Warning Daybeacon A	W "A"	N 37 27' 49.734"	W 075 40' 11.604"	37.46381	-75.66989	LNM 09/17, 5th Dist	550	12210_1	3/9/2017
12210	Change	Quinby Channel Warning Daybeacon B	W "B"	N 37 27' 54.024"	W 075 40' 50.460"	37.46501	-75.68069	LNM 09/17, 5th Dist	550	12210_1	3/9/2017
12210	Relocate	Quinby Channel Lighted Buoy 15	G "15" Fl G 4s	N 37 32' 05.740"	W 075 43' 27.750"	37.53493	-75.72437	LNM 09/17, 5th Dist	550	12210_1	3/9/2017
12210	Relocate	Quinby Channel Buoy 16	R N "16"	N 37 32' 21.360"	W 075 43' 34.210"	37.53927	-75.72617	LNM 09/17, 5th Dist	550	12210_1	3/9/2017
12210	Change	Quinby Channel Daybeacon 3	G "3"	N 37 29' 31.758"	W 075 41' 16.710"	37.49215	-75.68797	LNM 09/17, 5th Dist	550	12210_1	3/9/2017
12210	Change	Quinby Channel Daybeacon 8	R "8"	N 37 30' 44.137"	W 075 43' 02.976"	37.51226	-75.71749	LNM 09/17, 5th Dist	550	12210_1	3/9/2017
12210	Change	Quinby Channel Light 9	Fl G 4s 15ft 4M "9"	N 37 31' 09.252"	W 075 43' 03.834"	37.51924	-75.71774	LNM 09/17, 5th Dist	550	12210_1	3/9/2017
12210	Change	Quinby Channel Warning Daybeacon E	W "E"	N 37 31' 15.119"	W 075 43' 06.216"	37.52087	-75.71839	LNM 09/17, 5th Dist	550	12210_1	3/9/2017
12210	Change	Quinby Channel Lighted Buoy 15	G "15" Fl G 4s	N 37 32' 05.740"	W 075 43' 27.750"	37.53493	-75.72437	LNM 09/17, 5th Dist	550	12210_1	3/9/2017
12210	Delete	Quinby Creek Light 11	Fl G 4s 15ft 4M "11"	N 37 32' 21.882"	W 075 43' 34.824"	37.53941	-75.72634	LNM 09/17, 5th Dist	550	12210_1	3/9/2017
12210	Add	Quinby Channel Lighted Buoy 17	G "17" Fl G 4s	N 37 32' 36.200"	W 075 43' 42.320"	37.54339	-75.72842	LNM 09/17, 5th Dist	550	12210_1	3/9/2017
12210	Change	North Inlet Warning Daybeacon A	W "A"	N 37 27' 02.526"	W 075 42' 39.594"	37.4507	-75.711	LNM 09/17, 5th Dist	550	12210_1	3/9/2017
12210	Change	Quinby Channel Warning Daybeacon C	W "C"	N 37 30' 09.429"	W 075 42' 18.613"	37.50262	-75.70517	LNM 09/17, 5th Dist	550	12210_1	3/9/2017
12210	Change	Quinby Channel Warning Daybeacon D	W "D"	N 37 30' 23.500"	W 075 42' 04.700"	37.50653	-75.70131	LNM 09/17, 5th Dist	550	12210_1	3/9/2017
12210	Relocate	Quinby Channel Buoy 9A	G C "9A"	N 37 31' 15.653"	W 075 43' 03.330"	37.52102	-75.71759	LNM 09/17, 5th Dist	550	12210_1	3/9/2017
12210	Change	Quinby Channel Buoy 9A	G C "9A"	N 37 31' 15.653"	W 075 43' 03.330"	37.52102	-75.71759	LNM 09/17, 5th Dist	550	12210_1	3/9/2017
12210	Change	Quinby Channel Buoy 10	R N "10"	N 37 31' 29.034"	W 075 43' 19.386"	37.52473	-75.72205	LNM 09/17, 5th Dist	550	12210_1	3/9/2017
12210	Relocate	Quinby Channel Buoy 10	R N "10"	N 37 31' 29.034"	W 075 43' 19.386"	37.52473	-75.72205	LNM 09/17, 5th Dist	550	12210_1	3/9/2017
12210	Change	Quinby Channel Buoy 12	R N "12"	N 37 31' 36.474"	W 075 43' 25.026"	37.5268	-75.72362	LNM 09/17, 5th Dist	550	12210_1	3/9/2017
12210	Relocate	Quinby Channel Buoy 12	R N "12"	N 37 31' 36.474"	W 075 43' 25.026"	37.5268	-75.72362	LNM 09/17, 5th Dist	550	12210_1	3/9/2017
12210	Change	Quinby Channel Buoy 13	G C "13"	N 37 31' 51.042"	W 075 43' 20.720"	37.53085	-75.72242	LNM 09/17, 5th Dist	550	12210_1	3/9/2017
12210	Relocate	Quinby Channel Buoy 13	G C "13"	N 37 31' 51.042"	W 075 43' 20.720"	37.53085	-75.72242	LNM 09/17, 5th Dist	550	12210_1	3/9/2017
12210	Change	Quinby Channel Buoy 16	R N "16"	N 37 32' 21.360"	W 075 43' 34.210"	37.53927	-75.72617	LNM 09/17, 5th Dist	550	12210_1	3/9/2017
12210	Change	Quinby Channel Daybeacon 10A	R "10A"	N 37 31' 33.420"	W 075 43' 23.640"	37.52595	-75.72324	LNM 09/17, 5th Dist	550	12210_1	3/9/2017
12210	Change	Quinby Channel Light 19	Fl G 2.5s 15ft 4M "19"	N 37 32' 51.978"	W 075 43' 50.532"	37.54777	-75.73071	LNM 09/17, 5th Dist	550	12210_1	3/9/2017
12210	Add	Quinby Channel Buoy 2	R N "2"	N 37 29' 08.004"	W 075 40' 41.989"	37.48556	-75.67833	LNM 09/17, 5th Dist	550	12210_1	3/9/2017
12210	Change	Quinby Channel Light 5	Fl G 2.5s 15ft 4M "5"	N 37 30' 10.878"	W 075 42' 06.102"	37.50302	-75.7017	LNM 09/17, 5th Dist	550	12210_1	3/9/2017
12210	Change	Quinby Channel Daybeacon 7	G "7"	N 37 30' 26.502"	W 075 42' 58.700"	37.50736	-75.71631	LNM 09/17, 5th Dist	550	12210_1	3/9/2017
12210	Change	Depth Legend - SLOOP CHANNEL to:	1 FT MAY 2015	N 37 28' 43.880"	W 075 44' 15.250"	37.47886	-75.73757	LNM 10/17, 5th Dist	550	12210_1	3/2/2017
12210	Change	Depth Legend - CEDAR ISLAND BAY CHANNEL to:	1 FT MAY 2015	N 37 39' 21.000"	W 075 37' 20.800"	37.65583	-75.62244	LNM 10/17, 5th Dist	550	12210_1	3/2/2017
12210	Change	Depth Legend - SWASH BAY CHANNEL to:	2 FT BY 60 FT APR 2015	N 37 33' 09.460"	W 075 40' 29.820"	37.55263	-75.67495	LNM 10/17, 5th Dist	550	12210_1	3/2/2017
12210	Delete	Legend:	Shl to bare rep 1976	N 37 30' 24.530"	W 075 41' 56.650"	37.50681	-75.69907	LNM 10/17, 5th Dist	550	12210_1	3/2/2017
12210	Add	Legend:	Shl to bare 2015	N 37 30' 30.870"	W 075 41' 55.690"	37.50858	-75.6988	LNM 10/17, 5th Dist	550	12210_1	3/2/2017
12210	Change	Depth Legend - WIRE PASSAGE AND GARGATHY INLET CHANNEL to:	4 FT 2014	N 37 46' 07.200"	W 075 32' 31.600"	37.76867	-75.54211	LNM 10/17, 5th Dist	550	12210_1	3/2/2017
12210	Add	Legend:	Shl to bare 2014	N 37 43' 07.540"	W 075 35' 44.590"	37.71876	-75.59572	LNM 10/17, 5th Dist	550	12210_1	3/2/2017
12210	Add	Legend:	Shl to 1 FT 2014	N 37 41' 21.580"	W 075 36' 55.010"	37.68933	-75.61528	LNM 10/17, 5th Dist	550	12210_1	3/2/2017
12210	Delete	Channel Limits PT 1 OF 4	Chart No. 1: I20	N 37 44' 22.820"	W 075 34' 36.050"	37.73967	-75.57668	LNM 10/17, 5th Dist	550	12210_1	3/2/2017
12210	Delete	Channel Limits PT 2 OF 4	Chart No. 1: I20	N 37 44' 29.180"	W 075 34' 20.920"	37.74144	-75.57248	LNM 10/17, 5th Dist	550	12210_1	3/2/2017
12210	Delete	Channel Limits PT 3 OF 4	Chart No. 1: I20	N 37 44' 22.860"	W 075 33' 55.010"	37.73969	-75.56528	LNM 10/17, 5th Dist	550	12210_1	3/2/2017
12210	Delete	Channel Limits PT 4 OF 4	Chart No. 1: I20	N 37 44' 24.030"	W 075 33' 43.150"	37.74001	-75.56199	LNM 10/17, 5th Dist	550	12210_1	3/2/2017
12210	Change	Depth Legend - METOMPKIN BAY CHANNEL to:	2 FT BY 60 FT MAY 2014	N 37 42' 21.040"	W 075 36' 16.860"	37.70584	-75.60468	LNM 10/17, 5th Dist	550	12210_1	3/2/2017
12210	Change	Depth Legend - METOMPKIN BAY CHANNEL to:	1/2 FT BY 60 FT MAY 2014	N 37 43' 45.640"	W 075 35' 11.430"	37.72934	-75.58651	LNM 10/17, 5th Dist	550	12210_1	3/2/2017
12210	Add	Low Water Area PT 1 OF 4	(green tint)	N 37 44' 22.820"	W 075 34' 36.050"	37.73967	-75.57668	LNM 10/17, 5th Dist	550	12210_1	3/2/2017
12210	Add	Low Water Area PT 2 OF 4	(green tint)	N 37 44' 29.180"	W 075 34' 20.920"	37.74144	-75.57248	LNM 10/17, 5th Dist	550	12210_1	3/2/2017
12210	Add	Low Water Area PT 3 OF 4	(green tint)	N 37 44' 22.860"	W 075 33' 55.010"	37.73969	-75.56528	LNM 10/17, 5th Dist	550	12210_1	3/2/2017
12210	Add	Low Water Area PT 4 OF 4	(green tint)	N 37 44' 24.030"	W 075 33' 43.150"	37.74001	-75.56199	LNM 10/17, 5th Dist	550	12210_1	3/2/2017
12210	Delete	Virginia Inside Passage Daybeacon 49	G "49"	N 37 47' 42.270"	W 075 31' 46.722"	37.79507	-75.52965	LNM 07/17, 5th Dist	550	12210_1	2/23/2017
12210	Add	Virginia Inside Passage Lighted Wreck Buoy WR49	G "WR49" Q G	N 37 47' 42.240"	W 075 31' 47.060"	37.79507	-75.52974	LNM 07/17, 5th Dist	550	12210_1	2/23/2017
12210	Change	Virginia Inside Passage Lighted Wreck Buoy WR104	R "WR104" Q R	N 37 39' 17.844"	W 075 37' 28.690"	37.65496	-75.62463	LNM 07/17, 5th Dist	550	12210_1	2/23/2017
12210	Relocate	Virginia Inside Passage Lighted Wreck Buoy WR104	R "WR104" Q R	N 37 39' 17.844"	W 075 37' 28.690"	37.65496	-75.62463	LNM 07/17, 5th Dist	550	12210_1	2/23/2017
12210	Relocate	Wachapreague Channel Lighted Wreck Buoy WR9	G "WR9" Q G	N 37 36' 12.957"	W 075 39' 33.064"	37.6036	-75.65919	LNM 06/17, 5th Dist	550	12210_1	2/16/2017
12210	Delete	Virginia Inside Passage Daybeacon 103	G "103"	N 37 39' 17.808"	W 075 37' 28.674"	37.65495	-75.62463	LNM 06/17, 5th Dist	550	12210_1	2/16/2017
12210	Add	Virginia Inside Passage Lighted Wreck Buoy WR103	G "WR103" Q G	N 37 39' 18.480"	W 075 37' 29.283"	37.65513	-75.6248	LNM 06/17, 5th Dist	550	12210_1	2/16/2017
12210	Delete	Quinby Creek Warning Daybeacon B	W "B"	N 37 31' 54.917"	W 075 43' 21.600"	37.53192	-75.72266	LNM 06/17, 5th Dist	550	12210_1	2/16/2017
12210	Delete	Wachapreague Channel Light 9	Fl G 4s 4M "9"	N 37 36' 13.236"	W 075 39' 33.348"	37.60368	-75.65926	LNM 05/17, 5th Dist	550	12210_1	2/9/2017
12210	Add	Wachapreague Channel Lighted Wreck Buoy WR9	G "WR9" Q G 	N 37 36' 12.944"	W 075 39' 33.362"	37.6036	-75.65926	LNM 05/17, 5th Dist	550	12210_1	2/9/2017
12210	Change	Virginia Inside Passage Buoy 87	G C "87"	N 37 41' 19.740"	W 075 36' 54.204"	37.68882	-75.61506	LNM 05/17, 5th Dist	550	12210_1	2/9/2017
12210	Change	Virginia Inside Passage Buoy 106	R N "106"	N 37 39' 07.764"	W 075 37' 57.408"	37.65216	-75.63261	LNM 05/17, 5th Dist	550	12210_1	2/9/2017
12210	Relocate	Chincoteague Channel Lighted Buoy 28	R "28" Fl R 4s	N 37 55' 46.426"	W 075 23' 27.071"	37.92956	-75.39085	LNM 05/17, 5th Dist	551	12210_2	2/9/2017
12230	Relocate	Kedges Straits Buoy 2	R N "2"	N 38 03' 12.846"	W 076 03' 21.264"	38.05357	-76.05591	LNM 24/17, 5th Dist	567	12230_1	6/22/2017
12230	Change	Big Thorofare West Warning Light A	Fl 2.5s 15ft 3M "A"	N 38 00' 05.286"	W 076 02' 54.192"	38.00147	-76.04839	LNM 18/17, 5th Dist	567	12230_1	5/11/2017
12230	Relocate	Wicomico River Channel Buoy 15	G C "15"	N 38 14' 24.140"	W 075 51' 30.552"	38.24004	-75.85849	LNM 18/17, 5th Dist	567	12230_1	5/11/2017
12230	Relocate	Wicomico River Channel Buoy 11	G C "11"	N 38 13' 48.640"	W 075 52' 22.553"	38.23018	-75.87293	LNM 18/17, 5th Dist	567	12230_1	5/11/2017
12230	Relocate	Tar Bay Warning Buoy A	W Or C "A"	N 38 21' 06.891"	W 076 16' 20.094"	38.35191	-76.27225	LNM 14/17, 5th Dist	567	12230_1	4/13/2017
12230	Add	Obstruction	Obstns         Chart No. 1: K40	N 38 10' 22.220"	W 076 05' 41.750"	38.17284	-76.09493	LNM 15/17, 5th Dist	567	12230_1	4/13/2017
12230	Add	Obstruction	Obstns         Chart No. 1: K40	N 38 11' 25.120"	W 076 05' 24.070"	38.19031	-76.09002	LNM 15/17, 5th Dist	567	12230_1	4/13/2017
12230	Add	Obstruction	Obstns         Chart No. 1: K40	N 38 10' 18.520"	W 076 05' 37.180"	38.17181	-76.09366	LNM 15/17, 5th Dist	567	12230_1	4/13/2017
12230	Add	Obstruction	Obstns         Chart No. 1: K40	N 38 11' 25.690"	W 076 05' 24.040"	38.19047	-76.09001	LNM 15/17, 5th Dist	567	12230_1	4/13/2017
12230	Add	Obstruction	Obstn         Chart No. 1: K40	N 38 11' 06.290"	W 076 05' 02.330"	38.18508	-76.08398	LNM 15/17, 5th Dist	567	12230_1	4/13/2017
12230	Add	Obstruction	Obstns         Chart No. 1: K40	N 38 11' 25.010"	W 076 05' 23.750"	38.19028	-76.08993	LNM 15/17, 5th Dist	567	12230_1	4/13/2017
12230	Add	Obstruction	Obstn         Chart No. 1: K40	N 38 10' 43.140"	W 076 05' 00.740"	38.17865	-76.08354	LNM 15/17, 5th Dist	567	12230_1	4/13/2017
12230	Add	Obstruction	Obstns         Chart No. 1: K40	N 38 10' 25.900"	W 076 05' 46.320"	38.17386	-76.0962	LNM 15/17, 5th Dist	567	12230_1	4/13/2017
12230	Relocate	Sharkfin Shoal Warning Buoy	W Or C	N 38 12' 09.385"	W 075 59' 12.674"	38.20261	-75.98685	LNM 13/17, 5th Dist	567	12230_1	4/6/2017
12230	Delete	Little Wicomico River Buoy 14	R N "14"	N 37 53' 14.185"	W 076 16' 17.124"	37.88727	-76.27142	LNM 12/17, 5th Dist	567	12230_1	3/23/2017
12230	Relocate	Big Thorofare Channel Light 1T	Fl G 2.5s 15ft 5M "1T"	N 37 57' 54.199"	W 075 58' 40.035"	37.96505	-75.97779	LNM 10/17, 5th Dist	567	12230_1	3/16/2017
12230	Relocate	Nanticoke River Channel Light 6	Q R 23ft 4M "6"	N 38 15' 50.370"	W 075 55' 24.475"	38.26399	-75.92346	LNM 06/17, 5th Dist	567	12230_1	2/16/2017
12230	Relocate	Nanticoke River Channel Buoy 10	R N "10"	N 38 19' 58.834"	W 075 53' 49.154"	38.33301	-75.89699	LNM 06/17, 5th Dist	567	12230_1	2/16/2017
12233	Change	Bonum Creek Warning Light A	Fl 2.5s 15ft 4M "A"	N 38 05' 54.135"	W 076 34' 47.400"	38.09837	-76.57983	LNM 22/17, 5th Dist	570	12233_1	6/8/2017
12233	Change	Bonum Creek North Jetty Warning Daybeacon B	W "B"	N 38 05' 53.546"	W 076 34' 48.690"	38.09821	-76.58019	LNM 22/17, 5th Dist	570	12233_1	6/8/2017
12233	Change	Bonum Creek Warning Daybeacon C	W "C"	N 38 05' 49.651"	W 076 34' 49.792"	38.09713	-76.5805	LNM 22/17, 5th Dist	570	12233_1	6/8/2017
12233	Delete	Little Wicomico River Daybeacon 15	G "15"	N 37 53' 16.717"	W 076 16' 42.726"	37.88798	-76.27853	LNM 21/17, 5th Dist	570	12233_1	6/1/2017
12233	Add	Little Wicomico River Buoy 15	G C "15"	N 37 53' 16.477"	W 076 16' 41.725"	37.88791	-76.27826	LNM 21/17, 5th Dist	570	12233_1	6/1/2017
12233	Add	Slough Creek Daybeacon 7	G "7" Priv	N 37 53' 04.008"	W 076 15' 11.514"	37.88445	-76.2532	LNM 21/17, 5th Dist	570	12233_1	6/1/2017
12233	Add	Slough Creek Daybeacon 8	R "8" Priv	N 37 53' 03.245"	W 076 15' 10.002"	37.88424	-76.25278	LNM 21/17, 5th Dist	570	12233_1	6/1/2017
12233	Relocate	Little Wicomico River Buoy 14	R N "14"	N 37 53' 14.185"	W 076 16' 17.124"	37.88727	-76.27142	LNM 12/17, 5th Dist	570	12233_1	3/23/2017
12233	Delete	Slough Creek Buoy 7	G C "7"	N 37 53' 04.008"	W 076 15' 11.514"	37.88445	-76.2532	LNM 49/16, 5th Dist	570	12233_1	12/15/2016
12233	Delete	Slough Creek Buoy 8	R N "8"	N 37 53' 03.245"	W 076 15' 10.002"	37.88424	-76.25278	LNM 49/16, 5th Dist	570	12233_1	12/15/2016
12233	Change	St. George Creek Light 2	Fl R 4s 15ft 4M "2"	N 38 07' 22.198"	W 076 27' 56.153"	38.12283	-76.4656	LNM 47/16, 5th Dist	570	12233_1	12/1/2016
12233	Change	Carthagena Creek Light 4	Fl R 2.5s 15ft 4M "4"	N 38 09' 08.690"	W 076 28' 15.428"	38.15241	-76.47095	LNM 47/16, 5th Dist	570	12233_1	12/1/2016
12233	Change	Lake Conoy Light 2	Fl R 2.5s 18ft 4M "2"	N 38 02' 59.623"	W 076 19' 45.789"	38.0499	-76.32938	LNM 40/16, 5th Dist	570	12233_1	10/13/2016
12233	Change	St. Jerome Creek Light 1SJ	Fl G 2.5s 15ft 3M "1SJ"	N 38 06' 54.494"	W 076 20' 08.598"	38.11514	-76.33572	LNM 38/16, 5th Dist	570	12233_1	9/22/2016
12233	Change	St. Marys River Light 1	Fl G 2.5s 15ft 4M "1"	N 38 08' 23.295"	W 076 27' 17.346"	38.1398	-76.45482	LNM 35/16, 5th Dist	570	12233_1	9/8/2016
12233	Change	Slough Creek Buoy 7	G C "7"	N 37 53' 04.008"	W 076 15' 11.514"	37.88445	-76.2532	LNM 35/16, 5th Dist	570	12233_1	9/8/2016
12233	Add	Rock in Feet	17 Rk      Chart No. 1: K14.2	N 38 08' 50.300"	W 076 18' 07.180"	38.1473	-76.30199	LNM 33/16, 5th Dist	570	12233_1	8/11/2016
12233	Change	St Jerome Creek Daybeacon 4A	R "4A"	N 38 07' 11.679"	W 076 20' 32.254"	38.11991	-76.34229	LNM 27/16, 5th Dist	570	12233_1	7/7/2016
12233	Relocate	St Jerome Creek Daybeacon 4A	R "4A"	N 38 07' 11.679"	W 076 20' 32.254"	38.11991	-76.34229	LNM 27/16, 5th Dist	570	12233_1	7/7/2016
12233	Change	Hooper Island Light	Fl 6s 63ft 9M (delete HORN (Sep 15 to Jun 1))	N 38 15' 22.500"	W 076 14' 59.300"	38.25625	-76.24981	LNM 23/16, 5th Dist	570	12233_1	6/16/2016
12233	Relocate	Hooper Island Light	Fl 6s 63ft 9M	N 38 15' 22.500"	W 076 14' 59.300"	38.25625	-76.24981	LNM 23/16, 5th Dist	570	12233_1	6/16/2016
12233	Delete	Herring Creek Warning Daybeacon	W Bn	N 38 10' 38.226"	W 076 32' 49.702"	38.17728	-76.54714	LNM 14/16, 5th Dist	570	12233_1	4/14/2016
12233	Add	Herring Creek Daybeacon 4	R "4"	N 38 10' 38.578"	W 076 32' 49.126"	38.17738	-76.54698	LNM 14/16, 5th Dist	570	12233_1	4/14/2016
12233	Delete	Herring Creek Buoy 4	R N "4"	N 38 10' 38.578"	W 076 32' 49.126"	38.17738	-76.54698	LNM 13/16, 5th Dist	570	12233_1	4/7/2016
12233	Add	Obstruction in Feet	42 Obstn       Chart No. 1: K41	N 38 09' 45.790"	W 076 15' 02.670"	38.16272	-76.25074	LNM 04/16, 5th Dist	570	12233_1	1/21/2016
12233	Add	Obstruction in Feet	40 Obstn       Chart No. 1: K41	N 38 08' 48.420"	W 076 15' 45.710"	38.14678	-76.2627	LNM 04/16, 5th Dist	570	12233_1	1/21/2016
12233	Add	Obstruction in Feet	48 Obstn       Chart No. 1: K41	N 38 07' 43.460"	W 076 14' 09.360"	38.12874	-76.23593	LNM 04/16, 5th Dist	570	12233_1	1/21/2016
12233	Change	Coan River Light 6	Fl R 2.5s 15ft 4M "6"	N 37 59' 36.684"	W 076 27' 10.266"	37.99352	-76.45285	LNM 47/15, 5th Dist	570	12233_1	12/3/2015
12233	Delete	Sounding in Feet	14	N 38 09' 18.600"	W 076 19' 12.200"	38.15517	-76.32005	LNM 41/15, 5th Dist	570	12233_1	10/8/2015
12233	Add	Sounding in Feet	7	N 38 09' 09.000"	W 076 19' 09.100"	38.1525	-76.31919	LNM 41/15, 5th Dist	570	12233_1	10/8/2015
12233	Add	Sounding in Feet	10	N 38 09' 18.800"	W 076 19' 14.400"	38.15522	-76.32066	LNM 41/15, 5th Dist	570	12233_1	10/8/2015
12233	Change	Herring Creek Warning Daybeacon	W Or Bn	N 38 10' 38.226"	W 076 32' 48.702"	38.17728	-76.54686	LNM 36/15, 5th Dist	570	12233_1	9/17/2015
12233	Add	Herring Creek Buoy 4	R N "4"	N 38 10' 38.578"	W 076 32' 49.126"	38.17738	-76.54698	LNM 36/15, 5th Dist	570	12233_1	9/17/2015
12233	Change	Smith Creek - Potomac River Approach Light 2S	Q R 15ft 4M "2S"	N 38 05' 31.108"	W 076 24' 15.039"	38.09198	-76.40417	LNM 35/15, 5th Dist	570	12233_1	9/10/2015
12233	Change	Smith Creek - Potomac River Light 4	Fl R 4s 15ft 4M "4"	N 38 06' 08.274"	W 076 24' 27.159"	38.1023	-76.40755	LNM 35/15, 5th Dist	570	12233_1	9/10/2015
12233	Add	Dotted Oyster Reef PT 1 OF 4	(Chart No. 1: K46.2)	N 38 07' 47.500"	W 076 29' 29.300"	38.12986	-76.49147	LNM 21/15, 5th Dist	570	12233_1	5/21/2015
12233	Add	Dotted Oyster Reef PT 2 OF 4	(Chart No. 1: K46.2)	N 38 07' 48.700"	W 076 29' 32.900"	38.1302	-76.49247	LNM 21/15, 5th Dist	570	12233_1	5/21/2015
12233	Add	Dotted Oyster Reef PT 3 OF 4	(Chart No. 1: K46.2)	N 38 07' 51.300"	W 076 29' 31.700"	38.13092	-76.49214	LNM 21/15, 5th Dist	570	12233_1	5/21/2015
12233	Add	Dotted Oyster Reef PT 4 OF 4	(Chart No. 1: K46.2)	N 38 07' 50.100"	W 076 29' 28.000"	38.13058	-76.49111	LNM 21/15, 5th Dist	570	12233_1	5/21/2015
12233	Add	Dotted Oyster Reef Label:	Obstn Oyster Reef (auth min 3 1/2 ft)	N 38 07' 49.400"	W 076 29' 30.500"	38.13039	-76.49181	LNM 21/15, 5th Dist	570	12233_1	5/21/2015
12233	Delete	Potomac River Gray Point Lighted Mooring Buoy A	Fl 2s "A" Priv	N 38 04' 45.120"	W 076 23' 49.980"	38.0792	-76.39722	LNM 12/15, 5th Dist	570	12233_1	4/2/2015
12233	Relocate	Point Lookout Light	Fl (2) 5s 39ft 8M	N 38 01' 30.270"	W 076 19' 24.786"	38.02507	-76.32355	LNM 05/15, 5th Dist	570	12233_1	2/12/2015
12233	Change	Yeocomico River Entrance Light 2Y	Fl R 4s 16ft 4M "2Y"	N 38 02' 25.643"	W 076 30' 01.863"	38.04045	-76.50052	LNM 47/14, 5th Dist	570	12233_1	11/27/2014
12233	Change	Chesapeake Channel Lighted Buoy 68	R "68" Fl R 2.5s RACON (-..-) (delete BELL)	N 37 59' 53.450"	W 076 11' 48.787"	37.99818	-76.19688	LNM 47/14, 5th Dist	570	12233_1	11/27/2014
12233	Relocate	Island Creek Channel Light 1	Fl G 4s 18ft 4M "1"	N 38 06' 41.697"	W 076 27' 47.083"	38.11158	-76.46308	LNM 44/14, 5th Dist	570	12233_1	11/13/2014
12233	Change	Island Creek Channel Light 3	Fl G 4s 15ft 3M "3"	N 38 06' 31.607"	W 076 28' 01.440"	38.10878	-76.46706	LNM 44/14, 5th Dist	570	12233_1	11/13/2014
12233	Delete	Green daybeacon 9	G "9"	N 38 06' 31.000"	W 076 28' 07.000"	38.10861	-76.46861	LNM 44/14, 5th Dist	570	12233_1	11/13/2014
12233	Relocate	Smith Creek - Potomac River Approach Light 2S	Q R 15ft 5M "2S"	N 38 05' 31.108"	W 076 24' 15.039"	38.09198	-76.40417	LNM 41/14, 5th Dist	570	12233_1	10/23/2014
12233	Add	Obstruction in Feet	14 Obstn       Chart No. 1: K41	N 38 14' 26.890"	W 076 13' 46.700"	38.2408	-76.22964	LNM 39/14, 5th Dist	570	12233_1	9/25/2014
12233	Relocate	Herring Creek Jetty Light 2	Fl R 4s 15ft 4M "2"	N 38 10' 34.344"	W 076 32' 57.336"	38.17621	-76.54926	LNM 33/14, 5th Dist	570	12233_1	8/21/2014
12233	Relocate	Herring Creek Daybeacon 5	G "5"	N 38 10' 40.523"	W 076 32' 45.853"	38.17792	-76.54607	LNM 33/14, 5th Dist	570	12233_1	8/21/2014
12233	Relocate	Herring Creek Jetty Light 1	Fl G 4s 15ft 4M "1"	N 38 10' 36.648"	W 076 32' 58.680"	38.17685	-76.54964	LNM 33/14, 5th Dist	570	12233_1	8/21/2014
12233	Relocate	Herring Creek Daybeacon 4	R "4"	N 38 10' 38.226"	W 076 32' 48.702"	38.17728	-76.54686	LNM 33/14, 5th Dist	570	12233_1	8/21/2014
12233	Change	Herring Creek Jetty Light 2	Fl R 4s 15ft 3M "2"	N 38 10' 30.458"	W 076 32' 52.841"	38.17513	-76.54801	LNM 32/14, 5th Dist	570	12233_1	8/21/2014
12233	Relocate	Coan River Entrance Buoy 4	R N "4"	N 38 00' 44.687"	W 076 26' 35.703"	38.01241	-76.44325	LNM 32/14, 5th Dist	570	12233_1	8/21/2014
12233	Change	Depth Legend - Little Wicomico River to:	6 FT NOV 2013 - MAR 2014	N 37 53' 18.020"	W 076 14' 37.730"	37.88834	-76.24381	LNM 28/14, 5th Dist	570	12233_1	7/17/2014
12233	Change	Calvert Bay Warning Daybeacon A	W "A" Priv	N 38 05' 59.000"	W 076 23' 42.100"	38.09972	-76.39503	LNM 22/14, 5th Dist	570	12233_1	6/12/2014
12233	Change	Calvert Bay Warning Daybeacon B	W "B" Priv	N 38 06' 03.300"	W 076 23' 48.100"	38.10092	-76.3967	LNM 22/14, 5th Dist	570	12233_1	6/12/2014
12233	Change	Depth Legend - Herring Creek to:	4 FT 2013	N 38 10' 39.520"	W 076 32' 47.650"	38.17764	-76.54657	LNM 14/14, 5th Dist	570	12233_1	4/10/2014
12233	Relocate	Carthagena Creek Daybeacon 3	G "3"	N 38 08' 54.067"	W 076 27' 51.379"	38.14835	-76.46427	LNM 12/14, 5th Dist	570	12233_1	4/3/2014
12237	Relocate	Carter Creek Daybeacon 3	G "3"	N 37 39' 00.354"	W 076 26' 34.275"	37.6501	-76.44286	LNM 17/17, 5th Dist	576	12237_1	5/4/2017
12237	Relocate	Carter Creek Daybeacon 4	R "4"	N 37 39' 08.806"	W 076 26' 26.946"	37.65245	-76.44082	LNM 17/17, 5th Dist	576	12237_1	5/4/2017
12237	Relocate	Carter Creek Light 7	Fl G 2.5s 15ft 4M "7"	N 37 39' 12.945"	W 076 26' 27.716"	37.65359	-76.44103	LNM 17/17, 5th Dist	576	12237_1	5/4/2017
12237	Relocate	Carter Creek Eastern Branch Light 1	Fl G 4s 15ft 4M "1"	N 37 39' 12.749"	W 076 25' 51.806"	37.65354	-76.43106	LNM 17/17, 5th Dist	576	12237_1	5/4/2017
12237	Delete	Greenvale Creek Channel Warning Daybeacon B	W "B"	N 37 42' 31.268"	W 076 32' 43.028"	37.70869	-76.54529	LNM 15/17, 5th Dist	576	12237_1	4/20/2017
12237	Delete	Greenvale Creek Channel Warning Daybeacon C	W "C"	N 37 42' 35.852"	W 076 32' 38.678"	37.70996	-76.54408	LNM 15/17, 5th Dist	576	12237_1	4/20/2017
12237	Delete	Greenvale Creek Channel Warning Daybeacon D	W "D"	N 37 42' 39.860"	W 076 32' 36.494"	37.71107	-76.54347	LNM 15/17, 5th Dist	576	12237_1	4/20/2017
12237	Delete	Greenvale Creek Channel Warning Daybeacon E	W "E"	N 37 42' 43.100"	W 076 32' 35.852"	37.71197	-76.54329	LNM 15/17, 5th Dist	576	12237_1	4/20/2017
12237	Delete	Greenvale Creek Channel Warning Daybeacon F	W "F"	N 37 42' 52.814"	W 076 32' 37.574"	37.71467	-76.54377	LNM 15/17, 5th Dist	576	12237_1	4/20/2017
12237	Delete	Greenvale Creek Channel Warning Daybeacon G	W "G"	N 37 42' 58.676"	W 076 32' 38.774"	37.7163	-76.54411	LNM 15/17, 5th Dist	576	12237_1	4/20/2017
12237	Relocate	Greenvale Creek Channel Warning Daybeacon A	W "A"	N 37 42' 27.912"	W 076 32' 46.173"	37.70775	-76.54616	LNM 15/17, 5th Dist	576	12237_1	4/20/2017
12237	Change	Greenvale Creek Channel Warning Daybeacon A	W "A"	N 37 42' 27.912"	W 076 32' 46.175"	37.70775	-76.54616	LNM 14/17, 5th Dist	576	12237_1	4/13/2017
12237	Change	Greenvale Creek Channel Warning Daybeacon B	W "B"	N 37 42' 31.268"	W 076 32' 43.028"	37.70869	-76.54529	LNM 14/17, 5th Dist	576	12237_1	4/13/2017
12237	Change	Greenvale Creek Channel Warning Daybeacon E	W "E"	N 37 42' 43.100"	W 076 32' 35.852"	37.71197	-76.54329	LNM 14/17, 5th Dist	576	12237_1	4/13/2017
12237	Change	Greenvale Creek Channel Warning Daybeacon F	W "F"	N 37 42' 52.814"	W 076 32' 37.574"	37.71467	-76.54377	LNM 14/17, 5th Dist	576	12237_1	4/13/2017
12237	Change	Greenvale Creek Channel Warning Daybeacon G	W "G"	N 37 42' 58.676"	W 076 32' 38.774"	37.7163	-76.54411	LNM 14/17, 5th Dist	576	12237_1	4/13/2017
12237	Change	Greenvale Creek Channel Warning Daybeacon C	W "C"	N 37 42' 35.852"	W 076 32' 38.678"	37.70996	-76.54408	LNM 14/17, 5th Dist	576	12237_1	4/13/2017
12237	Change	Greenvale Creek Channel Warning Daybeacon D	W "D"	N 37 42' 39.860"	W 076 32' 36.494"	37.71107	-76.54347	LNM 14/17, 5th Dist	576	12237_1	4/13/2017
12237	Relocate	Rappahannock River Buoy 72	R N "72"	N 38 09' 50.916"	W 077 09' 48.459"	38.16414	-77.16346	LNM 10/17, 5th Dist	577	12237_2	3/16/2017
12237	Add	Rappahannock River Buoy 48A	R N "48A"	N 38 09' 14.190"	W 077 04' 12.604"	38.15394	-77.07017	LNM 09/17, 5th Dist	579	12237_4	3/9/2017
12237	Relocate	Rappahannock River Buoy 49	G C "49"	N 38 09' 04.541"	W 077 04' 05.221"	38.15126	-77.06812	LNM 09/17, 5th Dist	579	12237_4	3/9/2017
12237	Add	Rappahannock River Buoy 49A	G C "49A"	N 38 08' 40.910"	W 077 04' 06.758"	38.1447	-77.06854	LNM 09/17, 5th Dist	579	12237_4	3/9/2017
12237	Relocate	Rappahannock River Buoy 54	R N "54"	N 38 08' 51.224"	W 077 04' 55.427"	38.14756	-77.08206	LNM 09/17, 5th Dist	579	12237_4	3/9/2017
12237	Relocate	Rappahannock River Buoy 55	G C "55"	N 38 09' 18.495"	W 077 04' 55.139"	38.15514	-77.08199	LNM 09/17, 5th Dist	579	12237_4	3/9/2017
12237	Relocate	Rappahannock River Buoy 79	G C "79"	N 38 11' 56.414"	W 077 13' 01.139"	38.19901	-77.21698	LNM 08/17, 5th Dist	577	12237_2	3/2/2017
12237	Relocate	Urbanna Creek Channel Buoy 5A	G C "5A"	N 37 38' 23.738"	W 076 34' 09.889"	37.63993	-76.56941	LNM 06/17, 5th Dist	576	12237_1	2/16/2017
12237	Change	Corrotoman River Light 8	Fl R 4s 15ft 4M "8"	N 37 42' 05.299"	W 076 28' 52.236"	37.70147	-76.48118	LNM 50/16, 5th Dist	576	12237_1	12/22/2016
12237	Relocate	Corrotoman River Light 8	Fl R 4s 15ft 4M "8"	N 37 42' 05.299"	W 076 28' 52.236"	37.70147	-76.48118	LNM 50/16, 5th Dist	576	12237_1	12/22/2016
12237	Change	Totuskey Creek Light 3	Q G 15ft 4M "3"	N 37 52' 21.476"	W 076 45' 03.010"	37.87263	-76.75084	LNM 49/16, 5th Dist	576	12237_1	12/15/2016
12237	Change	Parrotts Creek Entrance Light 1	Fl G 2.5s 15ft 4M "1"	N 37 43' 53.185"	W 076 36' 27.510"	37.73144	-76.60764	LNM 49/16, 5th Dist	576	12237_1	12/15/2016
12237	Relocate	Mulberry Creek Light 1	Fl G 4s 15ft 4M "1"	N 37 47' 01.231"	W 076 37' 34.980"	37.78368	-76.62638	LNM 45/16, 5th Dist	576	12237_1	11/17/2016
12237	Change	Carter Creek Light 1CC	Fl G 4s 15ft 4M "1CC"	N 37 38' 56.324"	W 076 26' 35.570"	37.64898	-76.44321	LNM 37/16, 5th Dist	576	12237_1	9/15/2016
12237	Change	Depth Legend - HOSKINS CREEK to:	9 1/2 FT BY 100 FT DEC 2015	N 37 55' 25.800"	W 076 50' 54.800"	37.92383	-76.84856	LNM 12/16, 5th Dist	576	12237_1	3/17/2016
12237	Change	Depth Legend - HOSKINS CREEK to:	9 FT BY 64 FT DEC 2015	N 37 55' 14.600"	W 076 51' 24.500"	37.92072	-76.8568	LNM 12/16, 5th Dist	576	12237_1	3/17/2016
12237	Change	Rappahannock River Lighted Buoy 32	R "32" Fl R 4s	N 37 56' 25.029"	W 076 51' 29.027"	37.94028	-76.85806	LNM 06/16, 5th Dist	576	12237_1	2/11/2016
12237	Add	Urbanna Creek Channel Buoy 5A	G C "5A"	N 37 38' 24.050"	W 076 34' 10.975"	37.64001	-76.56972	LNM 47/15, 5th Dist	576	12237_1	12/3/2015
12237	Relocate	Parrotts Creek Entrance Light 1	Fl G 2.5s 15ft 3M "1"	N 37 43' 53.185"	W 076 36' 27.510"	37.73144	-76.60764	LNM 44/15, 5th Dist	576	12237_1	11/12/2015
12237	Delete	Mulberry Creek Entrance Warning Daybeacon	W Bn	N 37 46' 51.895"	W 076 37' 55.446"	37.78108	-76.63206	LNM 37/15, 5th Dist	576	12237_1	9/24/2015
12237	Delete	Totuskey Creek Daybeacon 2A	R "2A"	N 37 52' 01.800"	W 076 45' 04.800"	37.86717	-76.75134	LNM 37/15, 5th Dist	576	12237_1	9/24/2015
12237	Change	Parrotts Creek Channel Daybeacon 4	R "4"	N 37 43' 51.553"	W 076 37' 07.542"	37.73099	-76.61876	LNM 37/15, 5th Dist	576	12237_1	9/24/2015
12237	Delete	Whiting Creek Channel Buoy 2W	R N "2W"	N 37 37' 03.169"	W 076 30' 39.268"	37.61755	-76.51091	LNM 16/15, 5th Dist	576	12237_1	4/30/2015
12237	Delete	Whiting Creek Channel Buoy 3	G C "3"	N 37 36' 53.443"	W 076 30' 25.330"	37.61485	-76.50703	LNM 16/15, 5th Dist	576	12237_1	4/30/2015
12237	Delete	Whiting Creek Channel Buoy 4	R N "4"	N 37 36' 39.457"	W 076 30' 21.568"	37.61096	-76.50599	LNM 16/15, 5th Dist	576	12237_1	4/30/2015
12237	Delete	Whiting Creek Channel Buoy 5	G C "5"	N 37 36' 36.020"	W 076 30' 19.579"	37.61	-76.50544	LNM 16/15, 5th Dist	576	12237_1	4/30/2015
12237	Delete	Whiting Creek Channel Buoy 6	R N "6"	N 37 36' 34.918"	W 076 30' 14.308"	37.6097	-76.50397	LNM 16/15, 5th Dist	576	12237_1	4/30/2015
12237	Relocate	Whiting Creek Channel Buoy 5	G C "5"	N 37 36' 36.020"	W 076 30' 19.579"	37.61	-76.50544	LNM 47/14, 5th Dist	576	12237_1	11/27/2014
12237	Relocate	Rappahannock River Lighted Buoy 13	G "13" Fl G 4s	N 37 47' 17.600"	W 076 40' 36.046"	37.78822	-76.67668	LNM 45/14, 5th Dist	576	12237_1	11/20/2014
12237	Change	Depth Legend - HOSKINS CREEK to:	5 FT MID 50 FT OCT 2013	N 37 55' 25.800"	W 076 50' 54.800"	37.92383	-76.84856	LNM 44/14, 5th Dist	576	12237_1	10/30/2014
12237	Change	Depth Legend - HOSKINS CREEK to:	7 FT BY 40 FT OCT 2013	N 37 55' 14.600"	W 076 51' 24.500"	37.92072	-76.8568	LNM 44/14, 5th Dist	576	12237_1	10/30/2014
12237	Change	Rappahannock River Light 8	Fl R 2.5s 15ft 5M "8"	N 37 40' 09.459"	W 076 32' 48.346"	37.66929	-76.54676	LNM 36/14, 5th Dist	576	12237_1	9/18/2014
12237	Change	Rappahannock River Light 35	Fl G 4s 15ft 5M "35"	N 37 57' 45.575"	W 076 51' 39.819"	37.96266	-76.86106	LNM 36/14, 5th Dist	576	12237_1	9/18/2014
12237	Change	Wildwood Beach Light 2	Fl R 2.5s 15ft 4M "2"	N 37 48' 43.639"	W 076 44' 34.548"	37.81212	-76.74293	LNM 36/14, 5th Dist	576	12237_1	9/18/2014
12237	Change	Carter Creek Light 7	Fl G 2.5s 15ft 4M "7"	N 37 39' 12.824"	W 076 26' 27.662"	37.65356	-76.44102	LNM 36/14, 5th Dist	576	12237_1	9/18/2014
12237	Relocate	Parrotts Creek Channel Light 4	Fl R 4s 15ft 3M "4"	N 37 43' 51.553"	W 076 37' 07.542"	37.73099	-76.61876	LNM 36/14, 5th Dist	576	12237_1	9/18/2014
12237	Relocate	Wildwood Beach Light 2	Fl R 2.5s 15ft 4M "2"	N 37 48' 43.639"	W 076 44' 34.548"	37.81212	-76.74293	LNM 36/14, 5th Dist	576	12237_1	9/18/2014
12237	Add	Greenvale Creek Channel Light 2G	Fl R 2.5s 15ft 3M "2G"	N 37 42' 27.912"	W 076 32' 46.175"	37.70775	-76.54616	LNM 27/14, 5th Dist	576	12237_1	7/10/2014
12237	Delete	Greenvale Creek Channel Light 2G	Fl R 2.5s 15ft 3M "2G"	N 37 42' 27.912"	W 076 32' 46.175"	37.70775	-76.54616	LNM 14/14, 5th Dist	576	12237_1	4/17/2014
12228	Change	Big Thorofare West Warning Light A	Fl 2.5s 15ft 3M "A"	N 38 00' 05.286"	W 076 02' 54.192"	38.00147	-76.04839	LNM 18/17, 5th Dist	566	12228_1	5/11/2017
12228	Add	Big Thorofare West Buoy 4	R N "4"	N 38 00' 05.418"	W 076 02' 56.160"	38.00151	-76.04893	LNM 18/17, 5th Dist	566	12228_1	5/11/2017
12228	Relocate	Big Thorofare Channel Light 1T	Fl G 2.5s 15ft 5M "1T"	N 37 57' 54.199"	W 075 58' 40.035"	37.96505	-75.97779	LNM 10/17, 5th Dist	566	12228_1	3/16/2017
12228	Change	Watts Island Rocks Warning Light	Fl 2.5s 15ft 5M	N 37 46' 46.275"	W 075 53' 43.266"	37.77952	-75.89536	LNM 06/17, 5th Dist	566	12228_1	2/16/2017
12228	Delete	USN Aerial Gunnery Area Warning Daybeacon A	W "A"	N 37 47' 41.873"	W 075 59' 26.442"	37.79496	-75.99068	LNM 04/17, 5th Dist	566	12228_1	2/2/2017
12228	Add	USN Aerial Gunnery Area Lighted Warning Buoy A	W Or "A" Fl 2.5s	N 37 47' 41.634"	W 075 59' 26.458"	37.7949	-75.99068	LNM 04/17, 5th Dist	566	12228_1	2/2/2017
12228	Change	Watts Island Rocks Warning Light	Fl 2.5s 15ft 4M	N 37 46' 46.275"	W 075 53' 43.266"	37.77952	-75.89536	LNM 03/17, 5th Dist	566	12228_1	1/26/2017
12228	Change	Hunting Creek Daybeacon 5	G "5"	N 37 48' 27.687"	W 075 43' 51.134"	37.80769	-75.73087	LNM 50/16, 5th Dist	566	12228_1	12/22/2016
12228	Change	Guilford Creek Light 6	Fl R 4s 15ft 4M "6"	N 37 50' 58.022"	W 075 41' 12.796"	37.84945	-75.68689	LNM 45/16, 5th Dist	566	12228_1	11/17/2016
12228	Relocate	Starling Creek Lighted Wreck Buoy WR6	R "WR6" Q R	N 37 55' 10.456"	W 075 43' 48.923"	37.91957	-75.73026	LNM 43/16, 5th Dist	566	12228_1	11/3/2016
12228	Change	Starling Creek Lighted Wreck Buoy WR6	R "WR6" Q R	N 37 55' 10.456"	W 075 43' 48.923"	37.91957	-75.73026	LNM 43/16, 5th Dist	566	12228_1	11/3/2016
12228	Change	Starling Creek Buoy 6	R N "6"	N 37 55' 10.314"	W 075 43' 48.966"	37.91953	-75.73027	LNM 39/16, 5th Dist	566	12228_1	10/6/2016
12228	Relocate	Starling Creek Buoy 6	R N "6"	N 37 55' 10.314"	W 075 43' 48.966"	37.91953	-75.73027	LNM 39/16, 5th Dist	566	12228_1	10/6/2016
12228	Relocate	Big Thorofare Channel Daybeacon 20	R "20"	N 37 58' 46.001"	W 076 00' 25.668"	37.97945	-76.00713	LNM 38/16, 5th Dist	566	12228_1	9/22/2016
12228	Change	Tangier Island West Channel Light 4	Fl R 4s 15ft 4M "4"	N 37 49' 55.275"	W 075 59' 53.206"	37.83202	-75.99812	LNM 37/16, 5th Dist	566	12228_1	9/15/2016
12228	Relocate	Big Thorofare Channel Daybeacon 21	G "21"	N 37 59' 06.240"	W 076 00' 37.493"	37.98507	-76.01041	LNM 36/16, 5th Dist	566	12228_1	9/15/2016
12228	Relocate	Big Thorofare Channel Light 3	Fl G 4s 15ft 3M "3"	N 37 58' 05.795"	W 075 59' 16.330"	37.96828	-75.98787	LNM 36/16, 5th Dist	566	12228_1	9/15/2016
12228	Relocate	Tangier Island West Channel Light 3	Fl G 4s 15ft 4M "3"	N 37 49' 57.043"	W 075 59' 54.222"	37.83251	-75.9984	LNM 36/16, 5th Dist	566	12228_1	9/15/2016
12228	Relocate	Smith Point Fairway Lighted Bell Buoy SP	Y "SP" Fl Y 2.5s BELL	N 37 52' 48.457"	W 076 09' 06.784"	37.88013	-76.15189	LNM 35/16, 5th Dist	566	12228_1	9/8/2016
12228	Add	Rhodes Point Gut Channel Buoy 4	R N "4"	N 37 58' 12.356"	W 076 02' 25.947"	37.9701	-76.04054	LNM 33/16, 5th Dist	566	12228_1	8/25/2016
12228	Relocate	Chesapeake Channel Lighted Buoy 64	R "64" Fl R 4s	N 37 55' 30.454"	W 076 09' 04.783"	37.92513	-76.15133	LNM 32/16, 5th Dist	566	12228_1	8/18/2016
12228	Relocate	Pocomoke River Channel Buoy 18	R N "18" AIS	N 37 57' 49.198"	W 075 40' 14.103"	37.96367	-75.67059	LNM 31/16, 5th Dist	566	12228_1	8/11/2016
12228	Delete	Tangier Sound Lighted Wreck Buoy WR4	R "WR4" Q R	N 37 50' 02.447"	W 075 53' 22.279"	37.83401	-75.88952	LNM 31/16, 5th Dist	566	12228_1	8/11/2016
12228	Relocate	Big Thorofare Channel Daybeacon 12	R "12"	N 37 58' 06.671"	W 075 59' 46.788"	37.96852	-75.99633	LNM 21/16, 5th Dist	566	12228_1	5/26/2016
12228	Relocate	Big Thorofare Channel Daybeacon 10	R "10"	N 37 58' 03.839"	W 075 59' 35.354"	37.96773	-75.99316	LNM 21/16, 5th Dist	566	12228_1	5/26/2016
12287	Change	Baber Point Light 5	Fl G 4s 15ft 4M "5"	N 38 18' 42.680"	W 077 01' 34.902"	38.31186	-77.02636	LNM 45/14, 5th Dist	662	12287_1	11/20/2014
12207	Change	Knotts Island Ferry Terminal Light 2	Q R 15ft 4M "2"	N 36 27' 59.297"	W 075 57' 38.997"	36.46647	-75.96083	LNM 05/17, 5th Dist	548	12207_1	2/9/2017
12207	Change	Knotts Island Ferry Terminal Light 4	Fl R 2.5s 15ft 4M "4"	N 36 28' 25.354"	W 075 56' 43.817"	36.47371	-75.9455	LNM 05/17, 5th Dist	548	12207_1	2/9/2017
12207	Change	Bridge Construction PT 1 OF 2	Chart No. 1: D.d, with magenta screen extending 500 feet from bridge	N 36 54' 27.530"	W 076 05' 37.350"	36.90765	-76.09371	LNM 47/16, 5th Dist	548	12207_1	11/17/2016
12207	Change	Bridge Construction PT 2 OF 2	Chart No. 1: D.d, with magenta screen extending 500 feet from bridge	N 36 54' 26.790"	W 076 05' 25.850"	36.90744	-76.09052	LNM 47/16, 5th Dist	548	12207_1	11/17/2016
12207	Relocate	Chesapeake Bay Southern Approach Lighted Buoy 14	R "14" Fl R 4s	N 36 54' 11.853"	W 075 54' 09.931"	36.90329	-75.90276	LNM 45/16, 5th Dist	548	12207_1	11/17/2016
12207	Change	Chesapeake Lights (2)	2 Fl 4s 84ft 5M Priv (delete HORN and RACON ( - . )	N 36 54' 16.696"	W 075 42' 45.818"	36.90464	-75.71273	LNM 40/16, 5th Dist	548	12207_1	10/13/2016
12207	Relocate	Chesapeake Bay Southern Approach Lighted Buoy 7	G "7" Fl G 2.5s	N 36 51' 31.315"	W 075 50' 55.159"	36.8587	-75.84866	LNM 12/16, 5th Dist	548	12207_1	3/31/2016
12207	Relocate	Whale Head Bay Light 2	Fl R 4s 15ft 4M "2"	N 36 22' 17.670"	W 075 50' 10.578"	36.37157	-75.83627	LNM 06/16, 5th Dist	548	12207_1	2/11/2016
12207	Change	Whale Head Bay Light 2	Fl R 4s 15ft 4M "2"	N 36 22' 18.571"	W 075 50' 10.703"	36.37183	-75.8363	LNM 05/16, 5th Dist	548	12207_1	2/11/2016
12207	Relocate	Chesapeake Bay Southern Approach Lighted Buoy 8	R "8" Fl R 2.5s	N 36 51' 42.253"	W 075 50' 46.702"	36.86174	-75.84631	LNM 39/15, 5th Dist	548	12207_1	10/8/2015
12207	Relocate	Chesapeake Bay Southern Approach Lighted Whistle Buoy CB	RW "CB" Mo (A) WHIS RACON (-.-) AIS  (Chart No. 1: S17.2)	N 36 48' 59.743"	W 075 45' 36.013"	36.8166	-75.76	LNM 07/15, 5th Dist	548	12207_1	2/26/2015
12207	Change	Chesapeake Bay Entrance Lighted Whistle Buoy CH	RW "CH" Mo (A) WHIS RACON (-.-.) AIS  (Chart No. 1: S17.2)	N 36 56' 08.329"	W 075 57' 26.543"	36.93565	-75.95737	LNM 07/15, 5th Dist	548	12207_1	2/26/2015
12207	Change	Chesapeake Bay Southern Approach Lighted Whistle Buoy CB	RW "CB" Mo (A) WHIS RACON (-.-) AIS  (Chart No. 1: S17.2)	N 36 48' 59.743"	W 075 45' 36.013"	36.8166	-75.76	LNM 07/15, 5th Dist	548	12207_1	2/26/2015
12207	Delete	Wreck in Feet	48 Wk      Chart No. 1: K26	N 36 54' 14.000"	W 075 53' 28.660"	36.90389	-75.8913	LNM 04/15, 5th Dist	548	12207_1	1/22/2015
12207	Delete	Obstruction in Feet	54 Obstn       Chart No. 1: K41	N 36 51' 03.390"	W 075 49' 41.600"	36.85094	-75.82822	LNM 04/15, 5th Dist	548	12207_1	1/22/2015
12207	Add	Wreck in Feet	48 Wk      Chart No. 1: K26	N 36 54' 14.380"	W 075 53' 28.980"	36.904	-75.89138	LNM 04/15, 5th Dist	548	12207_1	1/22/2015
12207	Relocate	Monkey Tail Shoal Light 1	Fl G 4s 15ft 4M "1"	N 36 23' 57.882"	W 075 52' 13.416"	36.39941	-75.87039	LNM 42/14, 5th Dist	548	12207_1	10/23/2014
12207	Relocate	USN SESEF Lighted Buoy B	Y "B" Fl Y 4s	N 36 55' 01.735"	W 075 45' 28.713"	36.91715	-75.75797	LNM 39/14, 5th Dist	548	12207_1	10/9/2014
12207	Relocate	Chesapeake Bay Southern Approach Lighted Buoy 2	R "2" Fl R 2.5s	N 36 49' 42.555"	W 075 46' 46.421"	36.82849	-75.77956	LNM 27/14, 5th Dist	548	12207_1	7/10/2014
12285	Relocate	Upper Potomac River Channel Buoy 19	G C "19"	N 38 21' 07.452"	W 077 12' 16.923"	38.35207	-77.2047	LNM 25/17, 5th Dist	652	12285_9	6/29/2017
12285	Relocate	Upper Potomac River Channel Buoy 46	R N "46"	N 38 33' 35.430"	W 077 14' 04.431"	38.55984	-77.23457	LNM 25/17, 5th Dist	652	12285_9	6/29/2017
12285	Relocate	Alexandria Channel Buoy 2	R N "2"	N 38 47' 59.908"	W 077 02' 06.915"	38.79998	-77.03526	LNM 25/17, 5th Dist	658	12285_14	6/29/2017
12285	Relocate	Alexandria Channel Buoy 2	R N "2"	N 38 47' 59.908"	W 077 02' 06.915"	38.79998	-77.03526	LNM 25/17, 5th Dist	659	12285_15	6/29/2017
12285	Change	Bonum Creek Warning Light A	Fl 2.5s 15ft 4M "A"	N 38 05' 54.135"	W 076 34' 47.400"	38.09837	-76.57983	LNM 22/17, 5th Dist	644	12285_1	6/8/2017
12285	Delete	Little Wicomico River Daybeacon 15	G "15"	N 37 53' 16.717"	W 076 16' 42.726"	37.88798	-76.27853	LNM 21/17, 5th Dist	645	12285_2	6/1/2017
12285	Add	Little Wicomico River Buoy 15	G C "15"	N 37 53' 16.477"	W 076 16' 41.725"	37.88791	-76.27826	LNM 21/17, 5th Dist	645	12285_2	6/1/2017
12285	Add	Slough Creek Daybeacon 7	G "7" Priv	N 37 53' 04.008"	W 076 15' 11.514"	37.88445	-76.2532	LNM 21/17, 5th Dist	645	12285_2	6/1/2017
12285	Add	Slough Creek Daybeacon 8	R "8" Priv	N 37 53' 03.245"	W 076 15' 10.002"	37.88424	-76.25278	LNM 21/17, 5th Dist	645	12285_2	6/1/2017
12285	Change	Aquia Creek Light 12	Fl R 2.5s 15ft 4M "12"	N 38 24' 01.463"	W 077 19' 46.209"	38.40041	-77.32951	LNM 15/17, 5th Dist	652	12285_9	4/20/2017
12285	Change	Little Wicomico River Buoy 14	R N "14"	N 37 53' 14.185"	W 076 16' 17.124"	37.88727	-76.27142	LNM 12/17, 5th Dist	645	12285_2	3/23/2017
12285	Relocate	Little Wicomico River Buoy 14	R N "14"	N 37 53' 14.185"	W 076 16' 17.124"	37.88727	-76.27142	LNM 12/17, 5th Dist	645	12285_2	3/23/2017
12285	Relocate	Heron Island Bar Buoy 5	G C "5"	N 38 12' 59.374"	W 076 44' 13.745"	38.21649	-76.73715	LNM 10/17, 5th Dist	651	12285_8	3/16/2017
12285	Relocate	Heron Island Bar Buoy 5	G C "5"	N 38 12' 59.374"	W 076 44' 13.745"	38.21649	-76.73715	LNM 10/17, 5th Dist	644	12285_1	3/16/2017
12285	Relocate	Heron Island Bar Buoy 5	G C "5"	N 38 12' 59.374"	W 076 44' 13.745"	38.21649	-76.73715	LNM 10/17, 5th Dist	652	12285_9	3/16/2017
12285	Relocate	Heron Island Bar Buoy 4	R N "4"	N 38 12' 58.611"	W 076 43' 55.987"	38.21628	-76.73222	LNM 10/17, 5th Dist	651	12285_8	3/16/2017
12285	Relocate	Heron Island Bar Buoy 4	R N "4"	N 38 12' 58.611"	W 076 43' 55.987"	38.21628	-76.73222	LNM 10/17, 5th Dist	644	12285_1	3/16/2017
12285	Relocate	Heron Island Bar Buoy 4	R N "4"	N 38 12' 58.611"	W 076 43' 55.987"	38.21628	-76.73222	LNM 10/17, 5th Dist	652	12285_9	3/16/2017
12285	Change	St. Catherine Sound Upper Entrance Warning Daybeacon A	W "A"	N 38 15' 21.274"	W 076 48' 35.960"	38.25591	-76.80999	LNM 51/16, 5th Dist	653	12285_10	12/22/2016
12285	Change	St. Catherine Sound Upper Entrance Warning Daybeacon A	W "A"	N 38 15' 21.274"	W 076 48' 35.960"	38.25591	-76.80999	LNM 51/16, 5th Dist	652	12285_9	12/22/2016
12285	Change	St. Catherine Sound Upper Warning Daybeacon B	W "B"	N 38 15' 07.740"	W 076 48' 26.309"	38.25215	-76.8073	LNM 51/16, 5th Dist	653	12285_10	12/22/2016
12285	Change	St. Catherine Sound Upper Entrance Warning Daybeacon C	W "C"	N 38 15' 07.715"	W 076 48' 24.586"	38.25214	-76.80683	LNM 51/16, 5th Dist	653	12285_10	12/22/2016
12285	Change	St. Catherine Sound Upper Entrance Warning Daybeacon D	W "D"	N 38 14' 50.212"	W 076 48' 10.520"	38.24728	-76.80293	LNM 51/16, 5th Dist	653	12285_10	12/22/2016
12285	Change	St. Catherine Sound Upper Entrance Warning Daybeacon D	W "D"	N 38 14' 50.212"	W 076 48' 10.520"	38.24728	-76.80293	LNM 51/16, 5th Dist	652	12285_9	12/22/2016
12285	Change	St. Catherine Sound Upper Entrance Warning Daybeacon E	W "E"	N 38 14' 54.017"	W 076 47' 44.212"	38.24834	-76.79562	LNM 51/16, 5th Dist	653	12285_10	12/22/2016
12285	Change	St. Catherine Sound Upper Entrance Warning Daybeacon E	W "E"	N 38 14' 54.017"	W 076 47' 44.212"	38.24834	-76.79562	LNM 51/16, 5th Dist	652	12285_9	12/22/2016
12285	Change	Port Tobacco River Daybeacon 8	R "8"	N 38 29' 36.200"	W 077 01' 27.577"	38.49339	-77.02433	LNM 49/16, 5th Dist	652	12285_9	12/15/2016
12285	Delete	Port Tobacco River Daybeacon 12	R "12"	N 38 29' 40.997"	W 077 01' 30.688"	38.49472	-77.02519	LNM 49/16, 5th Dist	652	12285_9	12/15/2016
12285	Delete	Slough Creek Buoy 7	G C "7"	N 37 53' 04.008"	W 076 15' 11.514"	37.88445	-76.2532	LNM 49/16, 5th Dist	645	12285_2	12/15/2016
12285	Delete	Slough Creek Buoy 8	R N "8"	N 37 53' 03.245"	W 076 15' 10.002"	37.88424	-76.25278	LNM 49/16, 5th Dist	645	12285_2	12/15/2016
12285	Change	Neabsco Creek Light 2	Fl R 2.5s 15ft 4M "2"	N 38 35' 46.409"	W 077 14' 44.506"	38.59623	-77.2457	LNM 49/16, 5th Dist	659	12285_15	12/15/2016
12285	Change	St. George Creek Light 2	Fl R 4s 15ft 4M "2"	N 38 07' 22.198"	W 076 27' 56.153"	38.12283	-76.4656	LNM 47/16, 5th Dist	646	12285_3	12/1/2016
12285	Change	St. George Creek Light 2	Fl R 4s 15ft 4M "2"	N 38 07' 22.198"	W 076 27' 56.153"	38.12283	-76.4656	LNM 47/16, 5th Dist	647	12285_4	12/1/2016
12285	Change	St. George Creek Light 2	Fl R 4s 15ft 4M "2"	N 38 07' 22.198"	W 076 27' 56.153"	38.12283	-76.4656	LNM 47/16, 5th Dist	644	12285_1	12/1/2016
12285	Change	Carthagena Creek Light 4	Fl R 2.5s 15ft 4M "4"	N 38 09' 08.690"	W 076 28' 15.428"	38.15241	-76.47095	LNM 47/16, 5th Dist	647	12285_4	12/1/2016
12285	Change	Wicomico River Light 3W	Fl G 2.5s 15ft 4M "3W"	N 38 15' 41.160"	W 076 49' 54.150"	38.26143	-76.83171	LNM 47/16, 5th Dist	653	12285_10	12/1/2016
12285	Change	Wicomico River Light 3W	Fl G 2.5s 15ft 4M "3W"	N 38 15' 41.160"	W 076 49' 54.150"	38.26143	-76.83171	LNM 47/16, 5th Dist	652	12285_9	12/1/2016
12285	Change	Monroe Creek Entrance Light 2	Fl R 4s 15ft 4M "2"	N 38 13' 55.066"	W 076 56' 57.480"	38.23196	-76.9493	LNM 47/16, 5th Dist	654	12285_11	12/1/2016
12285	Change	Monroe Creek Entrance Light 2	Fl R 4s 15ft 4M "2"	N 38 13' 55.066"	W 076 56' 57.480"	38.23196	-76.9493	LNM 47/16, 5th Dist	652	12285_9	12/1/2016
12285	Change	Mattawoman Creek Light 5	Fl G 4s 15ft 4M "5"	N 38 33' 55.814"	W 077 11' 39.850"	38.5655	-77.1944	LNM 47/16, 5th Dist	652	12285_9	12/1/2016
12285	Change	Mattawoman Creek Light 5	Fl G 4s 15ft 4M "5"	N 38 33' 55.814"	W 077 11' 39.850"	38.5655	-77.1944	LNM 47/16, 5th Dist	659	12285_15	12/1/2016
12285	Change	Monroe Creek Channel Light 8	Fl R 4s 15ft 4M "8"	N 38 14' 12.782"	W 076 57' 58.012"	38.23689	-76.96612	LNM 47/16, 5th Dist	654	12285_11	12/1/2016
12285	Change	Mattawoman Creek Light 3	Fl G 2.5s 15ft 4M "3"	N 38 33' 40.994"	W 077 12' 02.182"	38.56139	-77.20061	LNM 47/16, 5th Dist	652	12285_9	12/1/2016
12285	Change	Mattawoman Creek Light 3	Fl G 2.5s 15ft 4M "3"	N 38 33' 40.994"	W 077 12' 02.182"	38.56139	-77.20061	LNM 47/16, 5th Dist	659	12285_15	12/1/2016
12285	Relocate	Monroe Creek Channel Light 8	Fl R 4s 15ft 4M "8"	N 38 14' 12.782"	W 076 57' 58.012"	38.23689	-76.96612	LNM 47/16, 5th Dist	654	12285_11	12/1/2016
12285	Change	St. Catherine Sound Lower Entrance Daybeacon 5L	G "5L"	N 38 13' 58.404"	W 076 47' 08.727"	38.23289	-76.78576	LNM 44/16, 5th Dist	652	12285_9	11/10/2016
12285	Change	St. Catherine Sound Lower Entrance Warning Daybeacon	W Bn	N 38 14' 17.586"	W 076 47' 15.562"	38.23822	-76.78766	LNM 44/16, 5th Dist	652	12285_9	11/10/2016
12285	Add	St. Catherine Sound Lower Entrance Buoy 7L	G C "7L"	N 38 14' 23.379"	W 076 47' 12.244"	38.23983	-76.78674	LNM 44/16, 5th Dist	652	12285_9	11/10/2016
12285	Relocate	Whitestone Point Light	Iso 6s 17ft 7M	N 38 41' 04.512"	W 077 07' 23.454"	38.68459	-77.12318	LNM 43/16, 5th Dist	659	12285_15	11/3/2016
12285	Change	Whitestone Point Light	Iso 6s 17ft 7M	N 38 41' 04.938"	W 077 07' 23.345"	38.6847	-77.12315	LNM 41/16, 5th Dist	659	12285_15	10/20/2016
12285	Relocate	Line of Fire Buoy O	Y N "O" Navy	N 38 17' 11.062"	W 076 56' 05.797"	38.28641	-76.93494	LNM 41/16, 5th Dist	652	12285_9	10/20/2016
12285	Change	Lake Conoy Light 2	Fl R 2.5s 18ft 4M "2"	N 38 02' 59.623"	W 076 19' 45.789"	38.0499	-76.32938	LNM 40/16, 5th Dist	644	12285_1	10/13/2016
12285	Relocate	Wicomico River Daybeacon 13W	G "13W"	N 38 19' 49.934"	W 076 51' 19.604"	38.33054	-76.85545	LNM 40/16, 5th Dist	652	12285_9	10/13/2016
12285	Change	Port Tobacco River Light 1	Fl G 2.5s 15ft 4M "1"	N 38 26' 37.782"	W 077 01' 54.716"	38.44383	-77.03187	LNM 40/16, 5th Dist	652	12285_9	10/13/2016
12285	Change	St. Jerome Creek Light 1SJ	Fl G 2.5s 15ft 3M "1SJ"	N 38 06' 54.494"	W 076 20' 08.598"	38.11514	-76.33572	LNM 38/16, 5th Dist	644	12285_1	9/22/2016
12285	Change	St. Clements Bay Light 2	Fl R 2.5s 15ft 4M "2"	N 38 14' 28.511"	W 076 43' 26.475"	38.24125	-76.72402	LNM 37/16, 5th Dist	651	12285_8	9/15/2016
12285	Change	St. Clements Bay Light 2	Fl R 2.5s 15ft 4M "2"	N 38 14' 28.511"	W 076 43' 26.475"	38.24125	-76.72402	LNM 37/16, 5th Dist	644	12285_1	9/15/2016
12285	Change	St. Clements Bay Light 2	Fl R 2.5s 15ft 4M "2"	N 38 14' 28.511"	W 076 43' 26.475"	38.24125	-76.72402	LNM 37/16, 5th Dist	652	12285_9	9/15/2016
12285	Relocate	St. Clements Bay Light 2	Fl R 2.5s 15ft 4M "2"	N 38 14' 28.511"	W 076 43' 26.475"	38.24125	-76.72402	LNM 37/16, 5th Dist	651	12285_8	9/15/2016
12285	Relocate	St. Clements Bay Light 2	Fl R 2.5s 15ft 4M "2"	N 38 14' 28.511"	W 076 43' 26.475"	38.24125	-76.72402	LNM 37/16, 5th Dist	644	12285_1	9/15/2016
12285	Relocate	St. Clements Bay Light 2	Fl R 2.5s 15ft 4M "2"	N 38 14' 28.511"	W 076 43' 26.475"	38.24125	-76.72402	LNM 37/16, 5th Dist	652	12285_9	9/15/2016
12285	Change	St. Marys River Light 1	Fl G 2.5s 15ft 4M "1"	N 38 08' 23.295"	W 076 27' 17.346"	38.1398	-76.45482	LNM 35/16, 5th Dist	647	12285_4	9/8/2016
12285	Change	St. Marys River Light 1	Fl G 2.5s 15ft 4M "1"	N 38 08' 23.295"	W 076 27' 17.346"	38.1398	-76.45482	LNM 35/16, 5th Dist	644	12285_1	9/8/2016
12285	Change	Slough Creek Buoy 7	G C "7"	N 37 53' 04.008"	W 076 15' 11.514"	37.88445	-76.2532	LNM 35/16, 5th Dist	645	12285_2	9/8/2016
12285	Relocate	Line of Fire Buoy N	Y N "N" Navy	N 38 14' 53.466"	W 076 56' 57.397"	38.24818	-76.94928	LNM 34/16, 5th Dist	654	12285_11	9/1/2016
12285	Relocate	Line of Fire Buoy N	Y N "N" Navy	N 38 14' 53.466"	W 076 56' 57.397"	38.24818	-76.94928	LNM 34/16, 5th Dist	652	12285_9	9/1/2016
12285	Relocate	Hains Point Buoy 2	R N "2"	N 38 51' 14.605"	W 077 01' 10.914"	38.85406	-77.0197	LNM 34/16, 5th Dist	655	12285_12	9/1/2016
12285	Relocate	Hains Point Buoy 2	R N "2"	N 38 51' 14.605"	W 077 01' 10.914"	38.85406	-77.0197	LNM 34/16, 5th Dist	658	12285_14	9/1/2016
12285	Relocate	Chesapeake Channel Lighted Buoy 64	R "64" Fl R 4s	N 37 55' 30.454"	W 076 09' 04.783"	37.92513	-76.15133	LNM 32/16, 5th Dist	644	12285_1	8/18/2016
12285	Add	Line of Fire Buoy Q	Y N "Q" Navy	N 38 19' 05.987"	W 076 57' 05.919"	38.31833	-76.95164	LNM 30/16, 5th Dist	652	12285_9	8/11/2016
12285	Delete	Line of Fire Buoy Q	Y N "Q" Navy	N 38 17' 27.561"	W 076 55' 56.896"	38.29099	-76.93247	LNM 30/16, 5th Dist	652	12285_9	8/11/2016
12285	Change	St Jerome Creek Daybeacon 4A	R "4A"	N 38 07' 11.679"	W 076 20' 32.254"	38.11991	-76.34229	LNM 27/16, 5th Dist	644	12285_1	7/7/2016
12285	Relocate	St Jerome Creek Daybeacon 4A	R "4A"	N 38 07' 11.679"	W 076 20' 32.254"	38.11991	-76.34229	LNM 27/16, 5th Dist	644	12285_1	7/7/2016
12285	Change	Wicomico River Entrance Light 1W	Fl G 4s 18ft 4M "1W"	N 38 14' 29.415"	W 076 49' 28.803"	38.2415	-76.82467	LNM 26/16, 5th Dist	653	12285_10	6/30/2016
12285	Change	Wicomico River Entrance Light 1W	Fl G 4s 18ft 4M "1W"	N 38 14' 29.415"	W 076 49' 28.803"	38.2415	-76.82467	LNM 26/16, 5th Dist	652	12285_9	6/30/2016
12285	Add	Overhead Power Cable Label	OVHD PWR CAB AUTH CL 73 FT REP	N 38 41' 01.260"	W 077 15' 27.410"	38.68368	-77.25761	LNM 25/16, 5th Dist	660	12285_16	6/23/2016
12285	Add	Overhead Power Cable  PT 1 OF 2	Chart No. 1: D26  	N 38 41' 07.100"	W 077 15' 25.990"	38.68531	-77.25722	LNM 25/16, 5th Dist	660	12285_16	6/23/2016
12285	Add	Overhead Power Cable  PT 2 OF 2	Chart No. 1: D26  	N 38 40' 56.730"	W 077 15' 28.520"	38.68243	-77.25792	LNM 25/16, 5th Dist	660	12285_16	6/23/2016
12285	Delete	Herring Creek Warning Daybeacon	W Bn	N 38 10' 38.226"	W 076 32' 49.702"	38.17728	-76.54714	LNM 14/16, 5th Dist	644	12285_1	4/14/2016
12285	Change	Mattox Creek Light 4	Fl R 4s 15ft 4M "4"	N 38 12' 29.219"	W 076 57' 41.475"	38.20811	-76.96152	LNM 14/16, 5th Dist	652	12285_9	4/14/2016
12285	Change	Tabulation - ANACOSTIA AND WASHINGTON CHANNEL DEPTHS	Tabulation - ANACOSTIA AND WASHINGTON CHANNEL DEPTHS	N 38 51' 19.000"	W 077 00' 02.000"	38.85528	-77.00056	LNM 15/16, 5th Dist	655	12285_12	4/14/2016
12285	Relocate	Dukeharts Channel Buoy 9	G C "9"	N 38 13' 18.829"	W 076 45' 59.386"	38.2219	-76.76649	LNM 12/16, 5th Dist	651	12285_8	3/31/2016
12285	Relocate	Dukeharts Channel Buoy 9	G C "9"	N 38 13' 18.829"	W 076 45' 59.386"	38.2219	-76.76649	LNM 12/16, 5th Dist	652	12285_9	3/31/2016
12285	Change	Occoquan River Channel Light 14	Fl R 4s 15ft 4M "14"	N 38 39' 43.733"	W 077 14' 06.076"	38.66215	-77.23502	LNM 10/16, 5th Dist	660	12285_16	3/17/2016
12285	Change	Ragged Point Light	Fl 6s 44ft 7M	N 38 09' 16.302"	W 076 36' 04.603"	38.15453	-76.60128	LNM 06/16, 5th Dist	649	12285_6	2/11/2016
12285	Change	Ragged Point Light	Fl 6s 44ft 7M	N 38 09' 16.302"	W 076 36' 04.603"	38.15453	-76.60128	LNM 06/16, 5th Dist	644	12285_1	2/11/2016
12285	Relocate	Ragged Point Light	Fl 6s 44ft 7M	N 38 09' 16.302"	W 076 36' 04.603"	38.15453	-76.60128	LNM 06/16, 5th Dist	649	12285_6	2/11/2016
12285	Relocate	Ragged Point Light	Fl 6s 44ft 7M	N 38 09' 16.302"	W 076 36' 04.603"	38.15453	-76.60128	LNM 06/16, 5th Dist	644	12285_1	2/11/2016
12285	Delete	Washington Channel Warning Buoy A	W Or C "A"	N 38 51' 43.719"	W 077 01' 08.380"	38.86214	-77.019	LNM 51/15, 5th Dist	655	12285_12	1/7/2016
12285	Delete	Washington Channel Warning Buoy A	W Or C "A"	N 38 51' 43.719"	W 077 01' 08.380"	38.86214	-77.019	LNM 51/15, 5th Dist	658	12285_14	1/7/2016
12285	Delete	Washington Channel Warning Buoy B	W Or C "B"	N 38 51' 58.260"	W 077 01' 08.368"	38.86618	-77.01899	LNM 51/15, 5th Dist	655	12285_12	1/7/2016
12285	Delete	Washington Channel Warning Buoy B	W Or C "B"	N 38 51' 58.260"	W 077 01' 08.368"	38.86618	-77.01899	LNM 51/15, 5th Dist	658	12285_14	1/7/2016
12285	Change	Breton Bay Entrance Light 2	Fl R 4s 15ft 4M "2"	N 38 13' 36.412"	W 076 41' 40.347"	38.22678	-76.69454	LNM 47/15, 5th Dist	651	12285_8	12/3/2015
12285	Change	Breton Bay Entrance Light 2	Fl R 4s 15ft 4M "2"	N 38 13' 36.412"	W 076 41' 40.347"	38.22678	-76.69454	LNM 47/15, 5th Dist	644	12285_1	12/3/2015
12285	Change	Cuckold Creek Light 1	Fl G 2.5s 15ft 4M "1"	N 38 18' 48.720"	W 076 55' 49.353"	38.31353	-76.93037	LNM 47/15, 5th Dist	652	12285_9	12/3/2015
12285	Change	Coan River Light 6	Fl R 2.5s 15ft 4M "6"	N 37 59' 36.684"	W 076 27' 10.266"	37.99352	-76.45285	LNM 47/15, 5th Dist	644	12285_1	12/3/2015
12285	Relocate	Lower Creek Machodoc Creek Light 4	Fl R 4s 15ft 3M "4"	N 38 07' 28.733"	W 076 38' 21.721"	38.12465	-76.63937	LNM 47/15, 5th Dist	649	12285_6	12/3/2015
12285	Relocate	Nomini Creek Channel Light 1	Fl G 2.5s 18ft 4M "1"	N 38 08' 23.383"	W 076 43' 22.695"	38.13983	-76.72297	LNM 47/15, 5th Dist	644	12285_1	12/3/2015
12285	Relocate	Breton Bay Light 5	Fl G 6s 15ft 4M "5"	N 38 15' 18.442"	W 076 41' 34.605"	38.25512	-76.69295	LNM 47/15, 5th Dist	650	12285_7	12/3/2015
12285	Relocate	Breton Bay Light 5	Fl G 6s 15ft 4M "5"	N 38 15' 18.442"	W 076 41' 34.605"	38.25512	-76.69295	LNM 47/15, 5th Dist	651	12285_8	12/3/2015
12285	Relocate	Breton Bay Light 5	Fl G 6s 15ft 4M "5"	N 38 15' 18.442"	W 076 41' 34.605"	38.25512	-76.69295	LNM 47/15, 5th Dist	644	12285_1	12/3/2015
12285	Relocate	Breton Bay Light 8	Fl R 4s 15ft 4M "8"	N 38 15' 53.969"	W 076 39' 00.361"	38.26499	-76.6501	LNM 47/15, 5th Dist	650	12285_7	12/3/2015
12285	Relocate	Breton Bay Light 8	Fl R 4s 15ft 4M "8"	N 38 15' 53.969"	W 076 39' 00.361"	38.26499	-76.6501	LNM 47/15, 5th Dist	644	12285_1	12/3/2015
12285	Relocate	St Patrick Creek Channel Light 2SP	Fl R 4s 16ft 4M "2SP"	N 38 13' 53.502"	W 076 44' 16.758"	38.23153	-76.73799	LNM 47/15, 5th Dist	651	12285_8	12/3/2015
12285	Relocate	St Patrick Creek Channel Light 2SP	Fl R 4s 16ft 4M "2SP"	N 38 13' 53.502"	W 076 44' 16.758"	38.23153	-76.73799	LNM 47/15, 5th Dist	644	12285_1	12/3/2015
12285	Relocate	St Patrick Creek Channel Light 2SP	Fl R 4s 16ft 4M "2SP"	N 38 13' 53.502"	W 076 44' 16.758"	38.23153	-76.73799	LNM 47/15, 5th Dist	652	12285_9	12/3/2015
12285	Relocate	Wicomico River Light 3W	Fl G 2.5s 15ft 3M "3W"	N 38 15' 41.160"	W 076 49' 54.150"	38.26143	-76.83171	LNM 47/15, 5th Dist	653	12285_10	12/3/2015
12285	Relocate	Wicomico River Light 3W	Fl G 2.5s 15ft 3M "3W"	N 38 15' 41.160"	W 076 49' 54.150"	38.26143	-76.83171	LNM 47/15, 5th Dist	652	12285_9	12/3/2015
12285	Relocate	Wicomico River Light 5W	Fl G 4s 15ft 4M "5W"	N 38 16' 35.144"	W 076 49' 25.725"	38.27643	-76.82381	LNM 47/15, 5th Dist	653	12285_10	12/3/2015
12285	Relocate	Wicomico River Light 5W	Fl G 4s 15ft 4M "5W"	N 38 16' 35.144"	W 076 49' 25.725"	38.27643	-76.82381	LNM 47/15, 5th Dist	652	12285_9	12/3/2015
12285	Relocate	Wicomico River Light 9W	Fl G 6s 15ft 4M "9W"	N 38 19' 01.317"	W 076 50' 44.736"	38.31703	-76.84576	LNM 47/15, 5th Dist	652	12285_9	12/3/2015
12285	Relocate	Potomac Creek Light 2PC	Fl R 4s 15ft 4M "2PC"	N 38 20' 38.187"	W 077 16' 40.154"	38.34394	-77.27782	LNM 47/15, 5th Dist	652	12285_9	12/3/2015
12285	Relocate	Cuckold Creek Light 1	Fl G 2.5s 15ft 3M "1"	N 38 18' 48.720"	W 076 55' 49.353"	38.31353	-76.93037	LNM 44/15, 5th Dist	652	12285_9	11/12/2015
12285	Delete	Dukeharts Channel Daybeacon 9	G "9"	N 38 13' 18.983"	W 076 46' 00.066"	38.22194	-76.76669	LNM 44/15, 5th Dist	651	12285_8	11/12/2015
12285	Delete	Dukeharts Channel Daybeacon 9	G "9"	N 38 13' 18.983"	W 076 46' 00.066"	38.22194	-76.76669	LNM 44/15, 5th Dist	652	12285_9	11/12/2015
12285	Add	Dukeharts Channel Buoy 9	G C "9"	N 38 13' 18.922"	W 076 46' 00.119"	38.22192	-76.7667	LNM 44/15, 5th Dist	651	12285_8	11/12/2015
12285	Add	Dukeharts Channel Buoy 9	G C "9"	N 38 13' 18.922"	W 076 46' 00.119"	38.22192	-76.7667	LNM 44/15, 5th Dist	652	12285_9	11/12/2015
12285	Delete	Dukeharts Channel Daybeacon 10	R "10"	N 38 13' 12.486"	W 076 46' 23.085"	38.22013	-76.77308	LNM 44/15, 5th Dist	652	12285_9	11/12/2015
12285	Add	Dukeharts Channel Buoy 10	R N "10"	N 38 13' 12.457"	W 076 46' 23.074"	38.22013	-76.77308	LNM 44/15, 5th Dist	652	12285_9	11/12/2015
12285	Delete	Marlboro Point Lighted Wreck Buoy WR1	G "WR1" Q G	N 38 22' 24.331"	W 077 17' 52.873"	38.37342	-77.29802	LNM 44/15, 5th Dist	652	12285_9	11/12/2015
12285	Add	Marlboro Point Warning Daybeacon	W Bn	N 38 22' 24.311"	W 077 17' 52.951"	38.37342	-77.29804	LNM 44/15, 5th Dist	652	12285_9	11/12/2015
12285	Relocate	Kingcopsico Point Warning Daybeacon	W Bn	N 38 09' 44.895"	W 076 42' 05.546"	38.16247	-76.70154	LNM 44/15, 5th Dist	644	12285_1	11/12/2015
12285	Change	Occoquan River Channel Light 2	Fl R 4s 15ft 4M "2"	N 38 37' 24.168"	W 077 12' 47.749"	38.62338	-77.21326	LNM 44/15, 5th Dist	660	12285_16	11/12/2015
12285	Change	Occoquan River Channel Light 2	Fl R 4s 15ft 4M "2"	N 38 37' 24.168"	W 077 12' 47.749"	38.62338	-77.21326	LNM 44/15, 5th Dist	659	12285_15	11/12/2015
12285	Relocate	Potomac Creek Daybeacon 7	G "7"	N 38 20' 37.877"	W 077 19' 03.012"	38.34385	-77.3175	LNM 43/15, 5th Dist	652	12285_9	10/29/2015
12285	Relocate	Dukeharts Channel Daybeacon 8	R "8"	N 38 13' 07.031"	W 076 45' 08.727"	38.21862	-76.75243	LNM 43/15, 5th Dist	651	12285_8	10/29/2015
12285	Relocate	Dukeharts Channel Daybeacon 8	R "8"	N 38 13' 07.031"	W 076 45' 08.727"	38.21862	-76.75243	LNM 43/15, 5th Dist	644	12285_1	10/29/2015
12285	Relocate	Dukeharts Channel Daybeacon 8	R "8"	N 38 13' 07.031"	W 076 45' 08.727"	38.21862	-76.75243	LNM 43/15, 5th Dist	652	12285_9	10/29/2015
12285	Delete	Dukeharts Channel Daybeacon 7	G "7"	N 38 13' 07.413"	W 076 44' 46.398"	38.21873	-76.74622	LNM 43/15, 5th Dist	651	12285_8	10/29/2015
12285	Delete	Dukeharts Channel Daybeacon 7	G "7"	N 38 13' 07.413"	W 076 44' 46.398"	38.21873	-76.74622	LNM 43/15, 5th Dist	644	12285_1	10/29/2015
12285	Delete	Dukeharts Channel Daybeacon 7	G "7"	N 38 13' 07.413"	W 076 44' 46.398"	38.21873	-76.74622	LNM 43/15, 5th Dist	652	12285_9	10/29/2015
12285	Add	Dukeharts Channel Buoy 7	G C "7"	N 38 13' 07.473"	W 076 44' 46.470"	38.21874	-76.74624	LNM 43/15, 5th Dist	651	12285_8	10/29/2015
12285	Add	Dukeharts Channel Buoy 7	G C "7"	N 38 13' 07.473"	W 076 44' 46.470"	38.21874	-76.74624	LNM 43/15, 5th Dist	644	12285_1	10/29/2015
12285	Add	Dukeharts Channel Buoy 7	G C "7"	N 38 13' 07.473"	W 076 44' 46.470"	38.21874	-76.74624	LNM 43/15, 5th Dist	652	12285_9	10/29/2015
12285	Change	Upper Potomac River Channel Light 5	Fl G 6s 44ft 4M "5"	N 38 24' 18.775"	W 077 02' 33.965"	38.40522	-77.04277	LNM 41/15, 5th Dist	652	12285_9	10/22/2015
12285	Relocate	Mathias Point Warning Daybeacon	W Bn	N 38 23' 34.494"	W 077 01' 22.866"	38.39291	-77.02302	LNM 41/15, 5th Dist	652	12285_9	10/22/2015
12285	Relocate	Upper Potomac River Channel Light 5	Fl G 6s 44ft 4M "5"	N 38 24' 18.775"	W 077 02' 33.965"	38.40522	-77.04277	LNM 41/15, 5th Dist	652	12285_9	10/22/2015
12285	Change	Upper Potomac River Channel Light 56	Fl R 4s 15ft 4M "56"	N 38 36' 40.505"	W 077 08' 18.544"	38.61125	-77.13848	LNM 40/15, 5th Dist	659	12285_15	10/22/2015
12285	Change	Occoquan River Channel Light 12	Fl R 4s 15ft 4M "12"	N 38 39' 26.728"	W 077 13' 57.301"	38.65742	-77.23258	LNM 40/15, 5th Dist	660	12285_16	10/22/2015
12285	Change	Upper Potomac River Channel Light 8	Fl R 6s 15ft 4M "8"	N 38 24' 09.311"	W 077 04' 57.239"	38.40259	-77.08257	LNM 39/15, 5th Dist	652	12285_9	10/8/2015
12285	Relocate	Piscataway Creek Daybeacon 4	R "4"	N 38 42' 15.984"	W 077 02' 03.480"	38.70444	-77.0343	LNM 39/15, 5th Dist	659	12285_15	10/8/2015
12285	Relocate	Piscataway Creek Daybeacon 6	R "6"	N 38 42' 05.838"	W 077 01' 48.049"	38.70162	-77.03001	LNM 39/15, 5th Dist	659	12285_15	10/8/2015
12285	Relocate	Upper Potomac River Channel Light 8	Fl R 6s 15ft 4M "8"	N 38 24' 09.311"	W 077 04' 57.239"	38.40259	-77.08257	LNM 39/15, 5th Dist	652	12285_9	10/8/2015
12285	Change	Upper Potomac River Channel Light 88	Fl R 2.5s 20ft 4M "88"	N 38 46' 10.039"	W 077 01' 51.001"	38.76945	-77.03083	LNM 38/15, 5th Dist	658	12285_14	10/1/2015
12285	Change	Upper Potomac River Channel Light 88	Fl R 2.5s 20ft 4M "88"	N 38 46' 10.039"	W 077 01' 51.001"	38.76945	-77.03083	LNM 38/15, 5th Dist	659	12285_15	10/1/2015
12285	Change	Neale Sound Channel Light 7	Fl G 4s 15ft 3M "7"	N 38 16' 15.723"	W 076 51' 50.669"	38.27103	-76.86407	LNM 37/15, 5th Dist	653	12285_10	9/24/2015
12285	Change	Breton Bay Daybeacon 11	G "11"	N 38 16' 45.806"	W 076 37' 48.136"	38.27939	-76.63004	LNM 37/15, 5th Dist	650	12285_7	9/24/2015
12285	Change	Herring Creek Warning Daybeacon	W Or Bn	N 38 10' 38.226"	W 076 32' 48.702"	38.17728	-76.54686	LNM 36/15, 5th Dist	644	12285_1	9/17/2015
12285	Change	Smith Creek - Potomac River Approach Light 2S	Q R 15ft 4M "2S"	N 38 05' 31.108"	W 076 24' 15.039"	38.09198	-76.40417	LNM 35/15, 5th Dist	646	12285_3	9/10/2015
12285	Change	Smith Creek - Potomac River Approach Light 2S	Q R 15ft 4M "2S"	N 38 05' 31.108"	W 076 24' 15.039"	38.09198	-76.40417	LNM 35/15, 5th Dist	644	12285_1	9/10/2015
12285	Change	Smith Creek - Potomac River Light 4	Fl R 4s 15ft 4M "4"	N 38 06' 08.274"	W 076 24' 27.159"	38.1023	-76.40755	LNM 35/15, 5th Dist	646	12285_3	9/10/2015
12285	Relocate	Washington Channel Junction Buoy WC	RG N "WC"	N 38 51' 29.554"	W 077 01' 09.764"	38.85821	-77.01938	LNM 35/15, 5th Dist	655	12285_12	8/27/2015
12285	Relocate	Washington Channel Junction Buoy WC	RG N "WC"	N 38 51' 29.554"	W 077 01' 09.764"	38.85821	-77.01938	LNM 35/15, 5th Dist	658	12285_14	8/27/2015
12285	Relocate	Georgetown Channel Buoy 1	G C "1"	N 38 51' 11.205"	W 077 01' 26.875"	38.85311	-77.02413	LNM 35/15, 5th Dist	655	12285_12	8/27/2015
12285	Relocate	Georgetown Channel Buoy 1	G C "1"	N 38 51' 11.205"	W 077 01' 26.875"	38.85311	-77.02413	LNM 35/15, 5th Dist	658	12285_14	8/27/2015
12285	Relocate	Georgetown Channel Buoy 2	R N "2"	N 38 51' 16.235"	W 077 01' 24.875"	38.85451	-77.02357	LNM 35/15, 5th Dist	655	12285_12	8/27/2015
12285	Relocate	Georgetown Channel Buoy 2	R N "2"	N 38 51' 16.235"	W 077 01' 24.875"	38.85451	-77.02357	LNM 35/15, 5th Dist	658	12285_14	8/27/2015
12285	Relocate	Georgetown Channel Buoy 6	R N "6"	N 38 52' 04.604"	W 077 01' 52.215"	38.86795	-77.03117	LNM 35/15, 5th Dist	655	12285_12	8/27/2015
12285	Relocate	Georgetown Channel Buoy 6	R N "6"	N 38 52' 04.604"	W 077 01' 52.215"	38.86795	-77.03117	LNM 35/15, 5th Dist	658	12285_14	8/27/2015
12285	Relocate	Washington Channel Warning Buoy A	W Or C "A"	N 38 51' 43.719"	W 077 01' 08.380"	38.86214	-77.019	LNM 35/15, 5th Dist	655	12285_12	8/27/2015
12285	Relocate	Washington Channel Warning Buoy A	W Or C "A"	N 38 51' 43.719"	W 077 01' 08.380"	38.86214	-77.019	LNM 35/15, 5th Dist	658	12285_14	8/27/2015
12285	Relocate	Washington Channel Warning Buoy B	W Or C "B"	N 38 51' 58.260"	W 077 01' 08.368"	38.86618	-77.01899	LNM 35/15, 5th Dist	655	12285_12	8/27/2015
12285	Relocate	Washington Channel Warning Buoy B	W Or C "B"	N 38 51' 58.260"	W 077 01' 08.368"	38.86618	-77.01899	LNM 35/15, 5th Dist	658	12285_14	8/27/2015
12285	Relocate	Georgetown Channel Buoy 3	G C "3"	N 38 51' 36.184"	W 077 01' 40.015"	38.86005	-77.02778	LNM 35/15, 5th Dist	655	12285_12	8/27/2015
12285	Relocate	Georgetown Channel Buoy 3	G C "3"	N 38 51' 36.184"	W 077 01' 40.015"	38.86005	-77.02778	LNM 35/15, 5th Dist	658	12285_14	8/27/2015
12285	Relocate	Georgetown Channel Buoy 4	R N "4"	N 38 51' 38.054"	W 077 01' 36.805"	38.86057	-77.02689	LNM 35/15, 5th Dist	655	12285_12	8/27/2015
12285	Relocate	Georgetown Channel Buoy 4	R N "4"	N 38 51' 38.054"	W 077 01' 36.805"	38.86057	-77.02689	LNM 35/15, 5th Dist	658	12285_14	8/27/2015
12231	Relocate	Kedges Straits Buoy 2	R N "2"	N 38 03' 12.846"	W 076 03' 21.264"	38.05357	-76.05591	LNM 24/17, 5th Dist	569	12231_1	6/22/2017
12231	Change	Big Thorofare West Warning Light A	Fl 2.5s 15ft 3M "A"	N 38 00' 05.286"	W 076 02' 54.192"	38.00147	-76.04839	LNM 18/17, 5th Dist	569	12231_1	5/11/2017
12231	Add	Big Thorofare West Buoy 4	R N "4"	N 38 00' 05.418"	W 076 02' 56.160"	38.00151	-76.04893	LNM 18/17, 5th Dist	569	12231_1	5/11/2017
12231	Relocate	Wicomico River Channel Buoy 11	G C "11"	N 38 13' 48.640"	W 075 52' 22.553"	38.23018	-75.87293	LNM 18/17, 5th Dist	569	12231_1	5/11/2017
12231	Add	Obstruction	Obstns         Chart No. 1: K40	N 38 10' 22.220"	W 076 05' 41.750"	38.17284	-76.09493	LNM 15/17, 5th Dist	569	12231_1	4/13/2017
12231	Add	Obstruction	Obstns         Chart No. 1: K40	N 38 11' 25.120"	W 076 05' 24.070"	38.19031	-76.09002	LNM 15/17, 5th Dist	569	12231_1	4/13/2017
12231	Add	Obstruction	Obstns         Chart No. 1: K40	N 38 10' 18.520"	W 076 05' 37.180"	38.17181	-76.09366	LNM 15/17, 5th Dist	569	12231_1	4/13/2017
12231	Add	Obstruction	Obstns         Chart No. 1: K40	N 38 11' 25.690"	W 076 05' 24.040"	38.19047	-76.09001	LNM 15/17, 5th Dist	569	12231_1	4/13/2017
12231	Add	Obstruction	Obstns         Chart No. 1: K40	N 38 11' 25.010"	W 076 05' 23.750"	38.19028	-76.08993	LNM 15/17, 5th Dist	569	12231_1	4/13/2017
12231	Substitute	Obstruction	Obstn         Chart No. 1: K40	N 38 11' 06.290"	W 076 05' 02.330"	38.18508	-76.08398	LNM 15/17, 5th Dist	569	12231_1	4/13/2017
12231	Add	Obstruction	Obstn         Chart No. 1: K40	N 38 10' 43.140"	W 076 05' 00.740"	38.17865	-76.08354	LNM 15/17, 5th Dist	569	12231_1	4/13/2017
12231	Add	Obstruction	Obstns         Chart No. 1: K40	N 38 10' 25.900"	W 076 05' 46.320"	38.17386	-76.0962	LNM 15/17, 5th Dist	569	12231_1	4/13/2017
12231	Relocate	Sharkfin Shoal Warning Buoy	W Or C	N 38 12' 09.385"	W 075 59' 12.674"	38.20261	-75.98685	LNM 13/17, 5th Dist	569	12231_1	4/6/2017
12231	Relocate	Big Thorofare Channel Light 1T	Fl G 2.5s 15ft 5M "1T"	N 37 57' 54.199"	W 075 58' 40.035"	37.96505	-75.97779	LNM 10/17, 5th Dist	569	12231_1	3/16/2017
12231	Change	Kedges Straits Buoy 5	G C "5"	N 38 02' 58.744"	W 075 59' 38.363"	38.04965	-75.99399	LNM 51/16, 5th Dist	569	12231_1	12/22/2016
12231	Change	Holland Island Bar Light	Fl 2.5s 37ft 6M	N 38 04' 07.345"	W 076 05' 44.906"	38.06871	-76.09581	LNM 51/16, 5th Dist	569	12231_1	12/22/2016
12231	Change	Lower Thorofare Channel Light 6	Fl R 4s 15ft 4M "6"	N 38 07' 39.905"	W 075 56' 47.713"	38.12775	-75.94659	LNM 49/16, 5th Dist	569	12231_1	12/15/2016
12231	Relocate	Goose Creek Channel Lighted Wreck Buoy WR6	R "WR6" Q R	N 38 05' 34.194"	W 075 51' 35.545"	38.09283	-75.85987	LNM 41/16, 5th Dist	569	12231_1	10/20/2016
12231	Relocate	Lower Thorofare Channel Light 2LT	Fl R 4s 15ft 4M "2LT"	N 38 07' 21.821"	W 075 57' 18.951"	38.12273	-75.95526	LNM 40/16, 5th Dist	569	12231_1	10/13/2016
12231	Relocate	Upper Thorofare Channel Light 1UT	Fl G 2.5s 15ft 4M "1UT"	N 38 10' 12.214"	W 075 57' 20.838"	38.17006	-75.95579	LNM 40/16, 5th Dist	569	12231_1	10/13/2016
12231	Change	Goose Creek Channel Lighted Wreck Buoy WR6	R "WR6" Q R	N 38 05' 34.336"	W 075 51' 35.210"	38.09287	-75.85978	LNM 39/16, 5th Dist	569	12231_1	10/6/2016
12231	Change	Lower Thorofare Channel Light 2LT	Fl R 4s 15ft 4M "2LT"	N 38 07' 21.878"	W 075 57' 18.664"	38.12275	-75.95518	LNM 39/16, 5th Dist	569	12231_1	10/6/2016
12231	Relocate	Big Thorofare Channel Daybeacon 20	R "20"	N 37 58' 46.001"	W 076 00' 25.668"	37.97945	-76.00713	LNM 38/16, 5th Dist	569	12231_1	9/22/2016
12231	Relocate	Big Thorofare Channel Daybeacon 21	G "21"	N 37 59' 06.240"	W 076 00' 37.493"	37.98507	-76.01041	LNM 36/16, 5th Dist	569	12231_1	9/15/2016
12231	Relocate	Big Thorofare Channel Light 3	Fl G 4s 15ft 3M "3"	N 37 58' 05.795"	W 075 59' 16.330"	37.96828	-75.98787	LNM 36/16, 5th Dist	569	12231_1	9/15/2016
12231	Add	Rhodes Point Gut Channel Buoy 4	R N "4"	N 37 58' 12.356"	W 076 02' 25.947"	37.9701	-76.04054	LNM 33/16, 5th Dist	569	12231_1	8/25/2016
12231	Relocate	Big Annemessex River Daybeacon 2	R "2"	N 38 02' 41.288"	W 075 51' 26.485"	38.0448	-75.85735	LNM 31/16, 5th Dist	569	12231_1	8/11/2016
12231	Change	Dames Quarter Creek Channel Buoy 3	G C "3" Priv	N 38 12' 05.041"	W 075 52' 51.655"	38.2014	-75.88101	LNM 31/16, 5th Dist	569	12231_1	8/11/2016
12231	Relocate	Dames Quarter Creek Channel Buoy 3	G C "3" Priv	N 38 12' 05.041"	W 075 52' 51.655"	38.2014	-75.88101	LNM 31/16, 5th Dist	569	12231_1	8/11/2016
12231	Relocate	Big Annemessex River Light 1BA	Fl G 2.5s 18ft 4M "1BA"	N 38 03' 09.657"	W 075 52' 09.384"	38.05268	-75.86927	LNM 26/16, 5th Dist	569	12231_1	6/30/2016
12231	Relocate	Big Annemessex River Daybeacon 2	R "2"	N 38 02' 41.341"	W 075 51' 26.310"	38.04482	-75.85731	LNM 26/16, 5th Dist	569	12231_1	6/30/2016
12231	Relocate	Big Annemessex River Daybeacon 4	R "4"	N 38 03' 19.821"	W 075 49' 32.088"	38.05551	-75.82558	LNM 26/16, 5th Dist	569	12231_1	6/30/2016
12231	Relocate	Big Annemessex River Daybeacon 5	G "5"	N 38 03' 18.547"	W 075 48' 54.277"	38.05515	-75.81508	LNM 26/16, 5th Dist	569	12231_1	6/30/2016
12231	Relocate	Daugherty Creek Channel Daybeacon 3	G "3"	N 38 01' 50.902"	W 075 50' 35.957"	38.03081	-75.84332	LNM 26/16, 5th Dist	569	12231_1	6/30/2016
12231	Change	Big Annemessex River Light 1BA	Fl G 2.5s 18ft 4M "1BA"	N 38 03' 09.668"	W 075 52' 09.630"	38.05268	-75.86934	LNM 24/16, 5th Dist	569	12231_1	6/23/2016
12231	Change	Big Annemessex River Light 6	Fl R 4s 15ft 4M "6"	N 38 03' 22.094"	W 075 48' 16.441"	38.05614	-75.80457	LNM 24/16, 5th Dist	569	12231_1	6/23/2016
12231	Relocate	Big Annemessex River Light 1BA	Fl G 2.5s 18ft 4M "1BA"	N 38 03' 09.668"	W 075 52' 09.630"	38.05268	-75.86934	LNM 24/16, 5th Dist	569	12231_1	6/23/2016
12231	Relocate	Big Thorofare Channel Daybeacon 12	R "12"	N 37 58' 06.671"	W 075 59' 46.788"	37.96852	-75.99633	LNM 21/16, 5th Dist	569	12231_1	5/26/2016
12231	Relocate	Big Thorofare Channel Daybeacon 10	R "10"	N 37 58' 03.839"	W 075 59' 35.354"	37.96773	-75.99316	LNM 21/16, 5th Dist	569	12231_1	5/26/2016
12208	Relocate	Chesapeake Channel Lighted Bell Buoy 2C	R "2C" Fl R 2.5s BELL	N 36 57' 18.528"	W 075 58' 22.246"	36.95515	-75.97285	LNM 16/17, 5th Dist	549	12208_1	4/27/2017
12208	Relocate	Chesapeake Channel Lighted Bell Buoy 12	R "12" Q R BELL	N 37 01' 05.077"	W 076 02' 41.593"	37.01808	-76.04488	LNM 16/17, 5th Dist	549	12208_1	4/27/2017
12261	Relocate	Wicomico River Channel Buoy 15	G C "15"	N 38 14' 24.140"	W 075 51' 30.552"	38.24004	-75.85849	LNM 18/17, 5th Dist	598	12261_1	5/11/2017
12261	Relocate	Wicomico River Channel Buoy 11	G C "11"	N 38 13' 48.640"	W 075 52' 22.553"	38.23018	-75.87293	LNM 18/17, 5th Dist	598	12261_1	5/11/2017
12261	Relocate	Tar Bay Warning Buoy A	W Or C "A"	N 38 21' 06.891"	W 076 16' 20.094"	38.35191	-76.27225	LNM 14/17, 5th Dist	598	12261_1	4/13/2017
12261	Add	Obstruction	Obstns         Chart No. 1: K40	N 38 11' 25.120"	W 076 05' 24.070"	38.19031	-76.09002	LNM 15/17, 5th Dist	598	12261_1	4/13/2017
12261	Add	Obstruction	Obstns         Chart No. 1: K40	N 38 11' 25.690"	W 076 05' 24.040"	38.19047	-76.09001	LNM 15/17, 5th Dist	598	12261_1	4/13/2017
12261	Add	Obstruction	Obstns         Chart No. 1: K40	N 38 11' 25.010"	W 076 05' 23.750"	38.19028	-76.08993	LNM 15/17, 5th Dist	598	12261_1	4/13/2017
12261	Substitute	Obstruction	Obstn         Chart No. 1: K40	N 38 11' 06.290"	W 076 05' 02.330"	38.18508	-76.08398	LNM 15/17, 5th Dist	598	12261_1	4/13/2017
12261	Relocate	Sharkfin Shoal Warning Buoy	W Or C	N 38 12' 09.385"	W 075 59' 12.674"	38.20261	-75.98685	LNM 13/17, 5th Dist	598	12261_1	4/6/2017
12261	Relocate	Nanticoke River Channel Light 6	Q R 23ft 4M "6"	N 38 15' 50.370"	W 075 55' 24.475"	38.26399	-75.92346	LNM 06/17, 5th Dist	598	12261_1	2/16/2017
12261	Relocate	Nanticoke River Channel Buoy 10	R N "10"	N 38 19' 58.834"	W 075 53' 49.154"	38.33301	-75.89699	LNM 06/17, 5th Dist	598	12261_1	2/16/2017
12261	Relocate	Nanticoke River Channel Warning Daybeacon	W Bn	N 38 15' 51.156"	W 075 55' 23.789"	38.26421	-75.92327	LNM 05/17, 5th Dist	598	12261_1	2/9/2017
12241	Relocate	Sarah Creek Daybeacon 6	R "6"	N 37 15' 07.739"	W 076 28' 58.484"	37.25215	-76.48291	LNM 25/17, 5th Dist	581	12241_1	6/29/2017
12241	Delete	Timberneck Creek Warning Daybeacon A	W "A"	N 37 17' 18.730"	W 076 32' 29.920"	37.28854	-76.54164	LNM 18/17, 5th Dist	581	12241_1	5/11/2017
12241	Delete	Timberneck Creek Warning Daybeacon B	W "B"	N 37 17' 27.302"	W 076 32' 06.084"	37.29092	-76.53503	LNM 18/17, 5th Dist	581	12241_1	5/11/2017
12241	Delete	Cedarbush Creek Warning Daybeacon A	W "A"	N 37 18' 38.625"	W 076 33' 49.109"	37.31073	-76.56364	LNM 18/17, 5th Dist	581	12241_1	5/11/2017
12241	Change	York River West Range Rear Passing Lights (2)	2 Fl 4s 15ft 4M	N 37 13' 32.729"	W 076 29' 27.655"	37.22576	-76.49101	LNM 16/17, 5th Dist	581	12241_1	4/27/2017
12241	Change	Goodwin Thorofare Channel Warning Daybeacon D	W "D"	N 37 13' 19.151"	W 076 25' 05.604"	37.22198	-76.41822	LNM 12/17, 5th Dist	581	12241_1	3/23/2017
12241	Relocate	Cedarbush Creek Warning Daybeacon A	W "A"	N 37 18' 38.625"	W 076 33' 49.109"	37.31073	-76.56364	LNM 11/17, 5th Dist	581	12241_1	3/23/2017
12241	Relocate	Timberneck Creek Warning Daybeacon A	W "A"	N 37 17' 18.730"	W 076 32' 29.920"	37.28854	-76.54164	LNM 11/17, 5th Dist	581	12241_1	3/23/2017
12241	Relocate	Timberneck Creek Warning Daybeacon B	W "B"	N 37 17' 27.302"	W 076 32' 06.084"	37.29092	-76.53503	LNM 11/17, 5th Dist	581	12241_1	3/23/2017
12241	Relocate	Goodwin Thorofare Warning Daybeacon D	W "D"	N 37 13' 19.151"	W 076 25' 05.604"	37.22198	-76.41822	LNM 10/17, 5th Dist	581	12241_1	3/16/2017
12241	Change	Cedarbush Creek Warning Daybeacon A	W "A"	N 37 18' 38.533"	W 076 33' 49.296"	37.3107	-76.56369	LNM 10/17, 5th Dist	581	12241_1	3/16/2017
12241	Change	Goodwin Thorofare Channel Warning Daybeacon A	W "A"	N 37 12' 50.756"	W 076 24' 28.341"	37.2141	-76.40788	LNM 09/17, 5th Dist	581	12241_1	3/9/2017
12241	Change	Goodwin Thorofare Channel Warning Daybeacon B	W "B"	N 37 12' 56.211"	W 076 24' 48.393"	37.21561	-76.41344	LNM 09/17, 5th Dist	581	12241_1	3/9/2017
12241	Delete	Goodwin Thorofare Channel Buoy 14	R N "14"	N 37 13' 12.544"	W 076 25' 03.694"	37.22015	-76.41769	LNM 09/17, 5th Dist	581	12241_1	3/9/2017
12241	Delete	Goodwin Thorofare Channel Buoy 15	G C "15"	N 37 13' 13.364"	W 076 25' 05.341"	37.22038	-76.41815	LNM 09/17, 5th Dist	581	12241_1	3/9/2017
12241	Change	Timberneck Creek Warning Daybeacon A	W "A"	N 37 17' 18.721"	W 076 32' 29.082"	37.28853	-76.54141	LNM 09/17, 5th Dist	581	12241_1	3/9/2017
12241	Change	Timberneck Creek Warning Daybeacon B	W "B"	N 37 17' 27.487"	W 076 32' 06.168"	37.29097	-76.53505	LNM 09/17, 5th Dist	581	12241_1	3/9/2017
12241	Change	Cedarbush Channel Warning Daybeacon A	W "A"	N 37 18' 38.533"	W 076 33' 49.296"	37.3107	-76.56369	LNM 09/17, 5th Dist	581	12241_1	3/9/2017
12241	Change	Goodwin Thorofare Channel Warning Daybeacon C	W "C"	N 37 13' 05.918"	W 076 25' 00.087"	37.21831	-76.41669	LNM 09/17, 5th Dist	581	12241_1	3/9/2017
12241	Change	Goodwin Thorofare Warning Daybeacon D	W "D"	N 37 13' 19.190"	W 076 25' 05.709"	37.222	-76.41825	LNM 09/17, 5th Dist	581	12241_1	3/9/2017
12241	Relocate	Timberneck Creek Warning Daybeacon A	W "A"	N 37 17' 18.721"	W 076 32' 29.082"	37.28853	-76.54141	LNM 09/17, 5th Dist	581	12241_1	3/9/2017
12241	Relocate	Timberneck Creek Warning Daybeacon B	W "B"	N 37 17' 27.487"	W 076 32' 06.168"	37.29097	-76.53505	LNM 09/17, 5th Dist	581	12241_1	3/9/2017
12241	Relocate	Cedarbush Channel Warning Daybeacon A	W "A"	N 37 18' 38.533"	W 076 33' 49.296"	37.3107	-76.56369	LNM 09/17, 5th Dist	581	12241_1	3/9/2017
12241	Relocate	Upper York River Channel Light 3	Fl G 4s 15ft 5M "3"	N 37 16' 12.426"	W 076 32' 49.518"	37.27012	-76.54709	LNM 08/17, 5th Dist	581	12241_1	3/2/2017
12241	Relocate	Back Creek - Mobjack Bay Daybeacon 3	G "3"	N 37 12' 31.713"	W 076 24' 49.746"	37.20881	-76.41382	LNM 06/17, 5th Dist	581	12241_1	2/16/2017
12241	Relocate	Back Creek - Mobjack Bay Daybeacon 4	R "4"	N 37 12' 32.760"	W 076 24' 54.750"	37.2091	-76.41521	LNM 06/17, 5th Dist	581	12241_1	2/16/2017
12241	Change	Sarah Creek Light 8	Fl R 4s 15ft 4M "8"	N 37 15' 13.836"	W 076 28' 57.051"	37.25385	-76.48251	LNM 49/16, 5th Dist	581	12241_1	12/15/2016
12241	Relocate	Upper York River Channel Light 2	Fl R 2.5s 16ft 4M "2"	N 37 15' 48.507"	W 076 31' 13.216"	37.26347	-76.52034	LNM 45/16, 5th Dist	581	12241_1	11/17/2016
12241	Relocate	Upper York River Channel Light 6	Fl R 2.5s 16ft 4M "6"	N 37 17' 23.625"	W 076 33' 56.676"	37.28989	-76.56574	LNM 44/16, 5th Dist	581	12241_1	11/10/2016
12241	Change	Perrin River Entrance Light 8	Fl R 4s 19ft 4M "8"	N 37 15' 40.537"	W 076 25' 13.992"	37.26126	-76.42056	LNM 43/16, 5th Dist	581	12241_1	11/3/2016
12241	Change	Perrin River Entrance Light 4	Fl R 4s 19ft 4M "4"	N 37 15' 33.679"	W 076 24' 31.044"	37.25935	-76.40862	LNM 43/16, 5th Dist	581	12241_1	11/3/2016
12241	Change	Sarah Creek Entrance Light 2	Fl R 4s 15ft 4M "2"	N 37 14' 45.999"	W 076 29' 09.802"	37.24611	-76.48605	LNM 43/16, 5th Dist	581	12241_1	11/3/2016
12241	Relocate	West Branch Channel Daybeacon 26	R "26"	N 37 12' 52.192"	W 076 28' 34.606"	37.2145	-76.47628	LNM 43/16, 5th Dist	581	12241_1	11/3/2016
12241	Relocate	West Branch Channel Buoy 11	G C "11"	N 37 12' 51.194"	W 076 28' 09.859"	37.21422	-76.46941	LNM 43/16, 5th Dist	581	12241_1	11/3/2016
12241	Relocate	Perrin River Entrance Light 4	Fl R 4s 19ft 4M "4"	N 37 15' 33.679"	W 076 24' 31.044"	37.25935	-76.40862	LNM 43/16, 5th Dist	581	12241_1	11/3/2016
12241	Relocate	Perrin River Entrance Light 8	Fl R 4s 19ft 4M "8"	N 37 15' 40.537"	W 076 25' 13.992"	37.26126	-76.42056	LNM 43/16, 5th Dist	581	12241_1	11/3/2016
12241	Change	West Branch Channel Entrance Light 1WB	Fl G 4s 15ft 4M "1WB"	N 37 13' 11.914"	W 076 27' 58.227"	37.21997	-76.46617	LNM 37/16, 5th Dist	581	12241_1	9/15/2016
12241	Change	Back Creek - Mobjack Bay Light 1BC	Fl G 4s 15ft 4M "1BC"	N 37 12' 36.515"	W 076 24' 46.808"	37.21014	-76.413	LNM 37/16, 5th Dist	581	12241_1	9/15/2016
12241	Add	Wreck in Feet	48 Wk Rep (2016)   (Chart No. 1: K26)	N 37 14' 35.500"	W 076 23' 52.900"	37.24319	-76.39803	LNM 24/16, 5th Dist	581	12241_1	6/16/2016
12241	Add	York River East Range Rear Passing Lights (2)	2 Fl 4s 18ft 4M	N 37 15' 04.850"	W 076 20' 32.978"	37.25135	-76.34249	LNM 17/16, 5th Dist	581	12241_1	5/5/2016
12241	Change	Goodwin Thorofare Channel Light 4	Fl R 4s 18ft 4M "4"	N 37 12' 30.482"	W 076 23' 42.621"	37.20847	-76.39517	LNM 06/16, 5th Dist	581	12241_1	2/11/2016
12241	Change	Poquoson River Entrance Light 6	Fl R 4s 15ft 4M "6"	N 37 11' 43.907"	W 076 21' 22.352"	37.19553	-76.35621	LNM 51/15, 5th Dist	581	12241_1	1/7/2016
12241	Change	Goodwin Thorofare Channel Light 2GT	Fl R 2.5s 15ft 4M "2GT"	N 37 12' 20.729"	W 076 22' 56.107"	37.20576	-76.38226	LNM 35/15, 5th Dist	581	12241_1	9/10/2015
12241	Delete	Pages Rock Warning Daybeacon A	PAGES ROCK W "A"	N 37 18' 39.247"	W 076 35' 12.138"	37.3109	-76.58671	LNM 21/15, 5th Dist	581	12241_1	6/4/2015
12241	Delete	Tue Marshes Warning Daybeacon	TUE MARSHES W Bn	N 37 14' 06.511"	W 076 23' 10.804"	37.23514	-76.38634	LNM 20/15, 5th Dist	581	12241_1	5/28/2015
12241	Change	Upper York River Channel Light 3	Fl G 4s 15ft 5M "3"	N 37 16' 12.542"	W 076 32' 49.641"	37.27015	-76.54712	LNM 12/15, 5th Dist	581	12241_1	4/2/2015
12241	Relocate	Bull Creek AMOCO Pier Light A	Fl Y 4s 27ft "A" Priv	N 37 13' 39.877"	W 076 26' 08.420"	37.22775	-76.43567	LNM 47/14, 5th Dist	581	12241_1	11/27/2014
12241	Relocate	Bull Creek AMOCO Pier Light B	Fl Y 4s 27ft "B" Priv	N 37 13' 33.809"	W 076 26' 35.906"	37.22606	-76.44331	LNM 47/14, 5th Dist	581	12241_1	11/27/2014
12241	Change	Bull Creek AMOCO Pier Light A	Fl Y 4s 27ft "A" Priv	N 37 13' 39.877"	W 076 26' 08.420"	37.22775	-76.43567	LNM 47/14, 5th Dist	581	12241_1	11/27/2014
12241	Change	Bull Creek AMOCO Pier Light B	Fl Y 4s 27ft "B" Priv	N 37 13' 33.809"	W 076 26' 35.906"	37.22606	-76.44331	LNM 47/14, 5th Dist	581	12241_1	11/27/2014
12241	Change	Upper York River Channel Light 4	Fl R 4s 15ft 5M "4"	N 37 16' 38.854"	W 076 32' 21.925"	37.27746	-76.53942	LNM 45/14, 5th Dist	581	12241_1	11/20/2014
12241	Relocate	Virginia Power Intake Jetty Light A	Fl Y 2.5s 7ft "A" Priv	N 37 13' 12.910"	W 076 27' 45.290"	37.22025	-76.46258	LNM 45/14, 5th Dist	581	12241_1	11/20/2014
12241	Relocate	Virginia Power Intake Jetty Light B	Fl Y 4s 7ft "B" Priv	N 37 13' 12.380"	W 076 27' 47.910"	37.2201	-76.46331	LNM 45/14, 5th Dist	581	12241_1	11/20/2014
12241	Relocate	Upper York River Channel Light 4	Fl R 4s 15ft 5M "4"	N 37 16' 38.854"	W 076 32' 21.925"	37.27746	-76.53942	LNM 45/14, 5th Dist	581	12241_1	11/20/2014
12241	Change	Danger Zone Label to:	DANGER ZONE 334.285 (see note A)	N 37 18' 06.300"	W 076 34' 47.000"	37.30175	-76.57972	LNM 30/14, 5th Dist	581	12241_1	7/24/2014
12241	Delete	Tabulation - YORK RIVER ENTRANCE CHANNEL DEPTHS	Tabulation - YORK RIVER ENTRANCE CHANNEL DEPTHS 	N 37 17' 24.000"	W 076 25' 35.000"	37.29	-76.42639	LNM 26/14, 5th Dist	581	12241_1	7/3/2014
12241	Delete	Channel Limits PT 1 OF 5	Chart No. 1: I20	N 37 14' 22.350"	W 076 25' 09.500"	37.23954	-76.4193	LNM 26/14, 5th Dist	581	12241_1	7/3/2014
12241	Delete	Channel Limits PT 2 OF 5	Chart No. 1: I20	N 37 14' 41.500"	W 076 24' 01.800"	37.24486	-76.4005	LNM 26/14, 5th Dist	581	12241_1	7/3/2014
12241	Delete	Channel Limits PT 3 OF 5	Chart No. 1: I20	N 37 14' 55.450"	W 076 22' 36.450"	37.24874	-76.37679	LNM 26/14, 5th Dist	581	12241_1	7/3/2014
12241	Delete	Channel Limits PT 4 OF 5	Chart No. 1: I20	N 37 14' 53.750"	W 076 21' 29.200"	37.24826	-76.35811	LNM 26/14, 5th Dist	581	12241_1	7/3/2014
12241	Delete	Channel Limits PT 5 OF 5	Chart No. 1: I20	N 37 14' 20.000"	W 076 20' 15.100"	37.23889	-76.33752	LNM 26/14, 5th Dist	581	12241_1	7/3/2014
12241	Delete	Channel Limits PT 1 OF 5	Chart No. 1: I20	N 37 14' 15.350"	W 076 25' 06.300"	37.2376	-76.41842	LNM 26/14, 5th Dist	581	12241_1	7/3/2014
12241	Delete	Channel Limits PT 2 OF 5	Chart No. 1: I20	N 37 14' 34.400"	W 076 23' 59.050"	37.24289	-76.39973	LNM 26/14, 5th Dist	581	12241_1	7/3/2014
12241	Delete	Channel Limits PT 3 OF 5	Chart No. 1: I20	N 37 14' 48.000"	W 076 22' 35.650"	37.24667	-76.37657	LNM 26/14, 5th Dist	581	12241_1	7/3/2014
12241	Delete	Channel Limits PT 4 OF 5	Chart No. 1: I20	N 37 14' 46.400"	W 076 21' 31.750"	37.24622	-76.35882	LNM 26/14, 5th Dist	581	12241_1	7/3/2014
12241	Delete	Channel Limits PT 5 OF 5	Chart No. 1: I20	N 37 14' 11.500"	W 076 20' 15.200"	37.23653	-76.33755	LNM 26/14, 5th Dist	581	12241_1	7/3/2014
12241	Delete	Channel Tabulation Label:	YORK RIVER ENTRANCE CHANNEL (see tabulation)	N 37 14' 44.400"	W 076 23' 19.000"	37.24567	-76.38861	LNM 26/14, 5th Dist	581	12241_1	7/3/2014
12241	Add	Sounding in Feet	62	N 37 14' 42.710"	W 076 23' 31.090"	37.2452	-76.39197	LNM 26/14, 5th Dist	581	12241_1	7/3/2014
12241	Add	Sounding in Feet	64	N 37 14' 50.470"	W 076 22' 32.730"	37.24735	-76.37576	LNM 26/14, 5th Dist	581	12241_1	7/3/2014
12241	Add	Sounding in Feet	41	N 37 14' 33.830"	W 076 20' 59.980"	37.24273	-76.34999	LNM 26/14, 5th Dist	581	12241_1	7/3/2014
12241	Add	Sounding in Feet	53	N 37 14' 50.870"	W 076 22' 18.280"	37.24746	-76.37174	LNM 26/14, 5th Dist	581	12241_1	7/3/2014
12241	Add	Sounding in Feet	47	N 37 14' 49.570"	W 076 21' 58.430"	37.2471	-76.36623	LNM 26/14, 5th Dist	581	12241_1	7/3/2014
12241	Add	Sounding in Feet	47	N 37 14' 47.850"	W 076 21' 38.520"	37.24662	-76.3607	LNM 26/14, 5th Dist	581	12241_1	7/3/2014
12241	Add	Sounding in Feet	51	N 37 14' 47.290"	W 076 21' 24.530"	37.24647	-76.35681	LNM 26/14, 5th Dist	581	12241_1	7/3/2014
12241	Add	Sounding in Feet	42	N 37 14' 40.950"	W 076 21' 17.620"	37.24471	-76.3549	LNM 26/14, 5th Dist	581	12241_1	7/3/2014
12241	Add	Sounding in Feet	39	N 37 14' 14.230"	W 076 20' 16.940"	37.23729	-76.33804	LNM 26/14, 5th Dist	581	12241_1	7/3/2014
12241	Add	Sounding in Feet	52	N 37 14' 26.690"	W 076 24' 37.070"	37.24075	-76.41029	LNM 26/14, 5th Dist	581	12241_1	7/3/2014
12241	Add	Sounding in Feet	64	N 37 14' 47.810"	W 076 23' 02.080"	37.24661	-76.38391	LNM 26/14, 5th Dist	581	12241_1	7/3/2014
12241	Add	Sounding in Feet	40	N 37 14' 26.090"	W 076 20' 36.910"	37.24058	-76.34359	LNM 26/14, 5th Dist	581	12241_1	7/3/2014
12241	Delete	Channel Tabulation Label:	YORK RIVER ENTRANCE CHANNEL (see tabulation)	N 37 14' 26.200"	W 076 20' 38.300"	37.24061	-76.34397	LNM 26/14, 5th Dist	581	12241_1	7/3/2014
12241	Add	Sounding in Feet	53	N 37 14' 20.790"	W 076 25' 00.900"	37.23911	-76.41692	LNM 26/14, 5th Dist	581	12241_1	7/3/2014
12241	Add	Sounding in Feet	56	N 37 14' 36.670"	W 076 24' 04.760"	37.24352	-76.40132	LNM 26/14, 5th Dist	581	12241_1	7/3/2014
12241	Delete	West Branch Channel Daybeacon 11	G "11"	N 37 12' 51.335"	W 076 28' 10.255"	37.21426	-76.46951	LNM 15/14, 5th Dist	581	12241_1	4/24/2014
12241	Add	West Branch Channel Buoy 11	G C "11"	N 37 12' 51.419"	W 076 28' 10.070"	37.21428	-76.46947	LNM 15/14, 5th Dist	581	12241_1	4/24/2014
12286	Change	Bonum Creek Warning Light A	Fl 2.5s 15ft 4M "A"	N 38 05' 54.135"	W 076 34' 47.400"	38.09837	-76.57983	LNM 22/17, 5th Dist	661	12286_1	6/8/2017
12286	Change	Bonum Creek North Jetty Warning Daybeacon B	W "B"	N 38 05' 53.546"	W 076 34' 48.690"	38.09821	-76.58019	LNM 22/17, 5th Dist	661	12286_1	6/8/2017
12286	Change	Bonum Creek Warning Daybeacon C	W "C"	N 38 05' 49.651"	W 076 34' 49.792"	38.09713	-76.5805	LNM 22/17, 5th Dist	661	12286_1	6/8/2017
12286	Delete	Bonum Creek Buoy 3A	G C "3A"	N 38 05' 44.863"	W 076 34' 54.236"	38.09579	-76.58173	LNM 22/17, 5th Dist	661	12286_1	6/8/2017
12286	Change	Bonum Creek Warning Daybeacon H	W "H"	N 38 05' 29.535"	W 076 34' 54.421"	38.09154	-76.58179	LNM 22/17, 5th Dist	661	12286_1	6/8/2017
12286	Change	Bonum Creek Warning Daybeacon D	W "D"	N 38 05' 43.224"	W 076 34' 56.058"	38.09534	-76.58224	LNM 22/17, 5th Dist	661	12286_1	6/8/2017
12286	Change	Bonum Creek Warning Daybeacon F	W "F"	N 38 05' 32.620"	W 076 34' 58.135"	38.0924	-76.58282	LNM 22/17, 5th Dist	661	12286_1	6/8/2017
12286	Change	Bonum Creek Warning Daybeacon G	W "G"	N 38 05' 31.746"	W 076 34' 59.729"	38.09215	-76.58326	LNM 22/17, 5th Dist	661	12286_1	6/8/2017
12286	Change	Bonum Creek Warning Daybeacon E	W "E"	N 38 05' 42.789"	W 076 34' 55.216"	38.09522	-76.582	LNM 22/17, 5th Dist	661	12286_1	6/8/2017
12286	Relocate	Heron Island Bar Buoy 5	G C "5"	N 38 12' 59.374"	W 076 44' 13.745"	38.21649	-76.73715	LNM 10/17, 5th Dist	661	12286_1	3/16/2017
12286	Relocate	Heron Island Bar Buoy 4	R N "4"	N 38 12' 58.611"	W 076 43' 55.987"	38.21628	-76.73222	LNM 10/17, 5th Dist	661	12286_1	3/16/2017
12286	Add	Bonum Creek Buoy 3A	G C "3A"	N 38 05' 44.863"	W 076 34' 54.236"	38.09579	-76.58173	LNM 05/17, 5th Dist	661	12286_1	2/9/2017
12286	Change	Bonum Creek Warning Daybeacon	W Bn	N 38 05' 42.789"	W 076 34' 55.216"	38.09522	-76.582	LNM 05/17, 5th Dist	661	12286_1	2/9/2017
12286	Change	St. Catherine Sound Upper Entrance Warning Daybeacon A	W "A"	N 38 15' 21.274"	W 076 48' 35.960"	38.25591	-76.80999	LNM 51/16, 5th Dist	661	12286_1	12/22/2016
12286	Change	St. Catherine Sound Upper Warning Daybeacon B	W "B"	N 38 15' 07.740"	W 076 48' 26.309"	38.25215	-76.8073	LNM 51/16, 5th Dist	661	12286_1	12/22/2016
12286	Change	St. Catherine Sound Upper Entrance Warning Daybeacon C	W "C"	N 38 15' 07.715"	W 076 48' 24.586"	38.25214	-76.80683	LNM 51/16, 5th Dist	661	12286_1	12/22/2016
12286	Change	St. Catherine Sound Upper Entrance Warning Daybeacon D	W "D"	N 38 14' 50.212"	W 076 48' 10.520"	38.24728	-76.80293	LNM 51/16, 5th Dist	661	12286_1	12/22/2016
12286	Change	St. Catherine Sound Upper Entrance Warning Daybeacon E	W "E"	N 38 14' 54.017"	W 076 47' 44.212"	38.24834	-76.79562	LNM 51/16, 5th Dist	661	12286_1	12/22/2016
12286	Change	Wicomico River Light 3W	Fl G 2.5s 15ft 4M "3W"	N 38 15' 41.160"	W 076 49' 54.150"	38.26143	-76.83171	LNM 47/16, 5th Dist	661	12286_1	12/1/2016
12286	Change	Monroe Creek Entrance Light 2	Fl R 4s 15ft 4M "2"	N 38 13' 55.066"	W 076 56' 57.480"	38.23196	-76.9493	LNM 47/16, 5th Dist	661	12286_1	12/1/2016
12286	Change	Monroe Creek Channel Light 8	Fl R 4s 15ft 4M "8"	N 38 14' 12.782"	W 076 57' 58.012"	38.23689	-76.96612	LNM 47/16, 5th Dist	661	12286_1	12/1/2016
12286	Relocate	Monroe Creek Channel Light 8	Fl R 4s 15ft 4M "8"	N 38 14' 12.782"	W 076 57' 58.012"	38.23689	-76.96612	LNM 47/16, 5th Dist	661	12286_1	12/1/2016
12286	Change	St. Catherine Sound Lower Entrance Daybeacon 5L	G "5L"	N 38 13' 58.404"	W 076 47' 08.727"	38.23289	-76.78576	LNM 44/16, 5th Dist	661	12286_1	11/10/2016
12286	Change	St. Catherine Sound Lower Entrance Warning Daybeacon	W Bn	N 38 14' 17.586"	W 076 47' 15.562"	38.23822	-76.78766	LNM 44/16, 5th Dist	661	12286_1	11/10/2016
12286	Add	St. Catherine Sound Lower Entrance Buoy 7L	G C "7L"	N 38 14' 23.379"	W 076 47' 12.244"	38.23983	-76.78674	LNM 44/16, 5th Dist	661	12286_1	11/10/2016
12286	Relocate	Line of Fire Buoy O	Y N "O" Navy	N 38 17' 11.062"	W 076 56' 05.797"	38.28641	-76.93494	LNM 41/16, 5th Dist	661	12286_1	10/20/2016
12286	Change	Line of Fire Buoy O	Y N "O" Navy	N 38 17' 11.062"	W 076 56' 05.797"	38.28641	-76.93494	LNM 41/16, 5th Dist	661	12286_1	10/20/2016
12286	Relocate	Wicomico River Daybeacon 13W	G "13W"	N 38 19' 49.934"	W 076 51' 19.604"	38.33054	-76.85545	LNM 40/16, 5th Dist	661	12286_1	10/13/2016
12286	Change	St. Clements Bay Light 2	Fl R 2.5s 15ft 4M "2"	N 38 14' 28.511"	W 076 43' 26.475"	38.24125	-76.72402	LNM 37/16, 5th Dist	661	12286_1	9/15/2016
12286	Relocate	St. Clements Bay Light 2	Fl R 2.5s 15ft 4M "2"	N 38 14' 28.511"	W 076 43' 26.475"	38.24125	-76.72402	LNM 37/16, 5th Dist	661	12286_1	9/15/2016
12286	Relocate	Line of Fire Buoy N	Y N "N" Navy	N 38 14' 53.466"	W 076 56' 57.397"	38.24818	-76.94928	LNM 34/16, 5th Dist	661	12286_1	9/1/2016
12286	Add	Line of Fire Buoy Q	Y N "Q" Navy	N 38 19' 05.987"	W 076 57' 05.919"	38.31833	-76.95164	LNM 30/16, 5th Dist	661	12286_1	8/11/2016
12286	Delete	Line of Fire Buoy Q	Y C "Q"	N 38 17' 27.561"	W 076 55' 56.896"	38.29099	-76.93247	LNM 30/16, 5th Dist	661	12286_1	8/11/2016
12286	Change	Wicomico River Entrance Light 1W	Fl G 4s 18ft 4M "1W"	N 38 14' 29.415"	W 076 49' 28.803"	38.2415	-76.82467	LNM 26/16, 5th Dist	661	12286_1	6/30/2016
12286	Delete	Herring Creek Warning Daybeacon	W Bn	N 38 10' 38.226"	W 076 32' 49.702"	38.17728	-76.54714	LNM 14/16, 5th Dist	661	12286_1	4/14/2016
12286	Add	Herring Creek Daybeacon 4	R "4"	N 38 10' 38.578"	W 076 32' 49.126"	38.17738	-76.54698	LNM 14/16, 5th Dist	661	12286_1	4/14/2016
12286	Change	Mattox Creek Light 4	Fl R 4s 15ft 4M "4"	N 38 12' 29.219"	W 076 57' 41.475"	38.20811	-76.96152	LNM 14/16, 5th Dist	661	12286_1	4/14/2016
12286	Delete	Herring Creek Buoy 4	R N "4"	N 38 10' 38.578"	W 076 32' 49.126"	38.17738	-76.54698	LNM 13/16, 5th Dist	661	12286_1	4/7/2016
12286	Relocate	Dukeharts Channel Buoy 9	G C "9"	N 38 13' 18.829"	W 076 45' 59.386"	38.2219	-76.76649	LNM 12/16, 5th Dist	661	12286_1	3/31/2016
12286	Change	Ragged Point Light	Fl 6s 44ft 7M	N 38 09' 16.302"	W 076 36' 04.603"	38.15453	-76.60128	LNM 06/16, 5th Dist	661	12286_1	2/11/2016
12286	Relocate	Ragged Point Light	Fl 6s 44ft 7M	N 38 09' 16.302"	W 076 36' 04.603"	38.15453	-76.60128	LNM 06/16, 5th Dist	661	12286_1	2/11/2016
12286	Change	Breton Bay Entrance Light 2	Fl R 4s 15ft 4M "2"	N 38 13' 36.412"	W 076 41' 40.347"	38.22678	-76.69454	LNM 47/15, 5th Dist	661	12286_1	12/3/2015
12286	Change	Cuckold Creek Light 1	Fl G 2.5s 15ft 4M "1"	N 38 18' 48.720"	W 076 55' 49.353"	38.31353	-76.93037	LNM 47/15, 5th Dist	661	12286_1	12/3/2015
12286	Relocate	Lower Creek Machodoc Creek Light 4	Fl R 4s 15ft 3M "4"	N 38 07' 28.733"	W 076 38' 21.721"	38.12465	-76.63937	LNM 47/15, 5th Dist	661	12286_1	12/3/2015
12286	Relocate	Nomini Creek Channel Light 1	Fl G 2.5s 18ft 4M "1"	N 38 08' 23.383"	W 076 43' 22.695"	38.13983	-76.72297	LNM 47/15, 5th Dist	661	12286_1	12/3/2015
12286	Relocate	Breton Bay Light 5	Fl G 6s 15ft 4M "5"	N 38 15' 18.442"	W 076 41' 34.605"	38.25512	-76.69295	LNM 47/15, 5th Dist	661	12286_1	12/3/2015
12286	Relocate	Breton Bay Light 8	Fl R 4s 15ft 4M "8"	N 38 15' 53.969"	W 076 39' 00.361"	38.26499	-76.6501	LNM 47/15, 5th Dist	661	12286_1	12/3/2015
12286	Relocate	St Patrick Creek Channel Light 2SP	Fl R 4s 16ft 4M "2SP"	N 38 13' 53.502"	W 076 44' 16.758"	38.23153	-76.73799	LNM 47/15, 5th Dist	661	12286_1	12/3/2015
12286	Relocate	Wicomico River Light 3W	Fl G 2.5s 15ft 3M "3W"	N 38 15' 41.160"	W 076 49' 54.150"	38.26143	-76.83171	LNM 47/15, 5th Dist	661	12286_1	12/3/2015
12286	Relocate	Wicomico River Light 5W	Fl G 4s 15ft 4M "5W"	N 38 16' 35.144"	W 076 49' 25.725"	38.27643	-76.82381	LNM 47/15, 5th Dist	661	12286_1	12/3/2015
12286	Relocate	Wicomico River Light 9W	Fl G 6s 15ft 4M "9W"	N 38 19' 01.317"	W 076 50' 44.736"	38.31703	-76.84576	LNM 47/15, 5th Dist	661	12286_1	12/3/2015
12286	Relocate	Cuckold Creek Light 1	Fl G 2.5s 15ft 3M "1"	N 38 18' 48.720"	W 076 55' 49.353"	38.31353	-76.93037	LNM 44/15, 5th Dist	661	12286_1	11/12/2015
12286	Delete	Dukeharts Channel Daybeacon 9	G "9"	N 38 13' 18.983"	W 076 46' 00.066"	38.22194	-76.76669	LNM 44/15, 5th Dist	661	12286_1	11/12/2015
12286	Add	Dukeharts Channel Buoy 9	G C "9"	N 38 13' 18.922"	W 076 46' 00.119"	38.22192	-76.7667	LNM 44/15, 5th Dist	661	12286_1	11/12/2015
12286	Delete	Dukeharts Channel Daybeacon 10	R "10"	N 38 13' 12.486"	W 076 46' 23.085"	38.22013	-76.77308	LNM 44/15, 5th Dist	661	12286_1	11/12/2015
12286	Add	Dukeharts Channel Buoy 10	R N "10"	N 38 13' 12.457"	W 076 46' 23.074"	38.22013	-76.77308	LNM 44/15, 5th Dist	661	12286_1	11/12/2015
12286	Relocate	Kingcopsico Point Warning Daybeacon	W Bn	N 38 09' 44.895"	W 076 42' 05.546"	38.16247	-76.70154	LNM 44/15, 5th Dist	661	12286_1	11/12/2015
12286	Relocate	Dukeharts Channel Daybeacon 8	R "8"	N 38 13' 07.031"	W 076 45' 08.727"	38.21862	-76.75243	LNM 43/15, 5th Dist	661	12286_1	10/29/2015
12286	Delete	Dukeharts Channel Daybeacon 7	G "7"	N 38 13' 07.413"	W 076 44' 46.398"	38.21873	-76.74622	LNM 43/15, 5th Dist	661	12286_1	10/29/2015
12286	Add	Dukeharts Channel Buoy 7	G C "7"	N 38 13' 07.473"	W 076 44' 46.470"	38.21874	-76.74624	LNM 43/15, 5th Dist	661	12286_1	10/29/2015
12286	Change	Neale Sound Channel Light 7	Fl G 4s 15ft 3M "7"	N 38 16' 15.723"	W 076 51' 50.669"	38.27103	-76.86407	LNM 37/15, 5th Dist	661	12286_1	9/24/2015
12286	Change	Breton Bay Daybeacon 11	G "11"	N 38 16' 45.806"	W 076 37' 48.136"	38.27939	-76.63004	LNM 37/15, 5th Dist	661	12286_1	9/24/2015
12286	Change	Herring Creek Warning Daybeacon	W Or Bn	N 38 10' 38.226"	W 076 32' 48.702"	38.17728	-76.54686	LNM 36/15, 5th Dist	661	12286_1	9/17/2015
12286	Add	Herring Creek Buoy 4	R N "4"	N 38 10' 38.578"	W 076 32' 49.126"	38.17738	-76.54698	LNM 36/15, 5th Dist	661	12286_1	9/17/2015
12286	Relocate	St. Patrick Creek Channel Buoy 3A	G C "3A"	N 38 13' 58.816"	W 076 44' 33.496"	38.23301	-76.74264	LNM 25/15, 5th Dist	661	12286_1	6/25/2015
12286	Relocate	Monroe Creek Entrance Light 2	Fl R 4s 15ft 3M "2"	N 38 13' 55.066"	W 076 56' 57.480"	38.23196	-76.9493	LNM 15/15, 5th Dist	661	12286_1	4/23/2015
12286	Relocate	Heron Island Bar Channel Light 3	Fl G 4s 15ft 4M "3"	N 38 12' 48.104"	W 076 43' 57.633"	38.21336	-76.73267	LNM 15/15, 5th Dist	661	12286_1	4/23/2015
12286	Change	Depth Legend - Kettle Bottom Shoal to:	20 FT FOR WIDTH OF 200 FT JUL 2014	N 38 14' 50.000"	W 076 52' 52.000"	38.24722	-76.88111	LNM 09/15, 5th Dist	661	12286_1	3/5/2015
12282	Change	Tabulation - BALTIMORE HARBOR CHANNEL DEPTHS	Tabulation - BALTIMORE HARBOR CHANNEL DEPTHS	N 38 58' 12.000"	W 076 33' 10.000"	38.97	-76.55278	LNM 06/17, 5th Dist	641	12282_1	2/2/2017
12282	Change	Horn Point Light HP	Fl 6s 15ft 4M "HP"	N 38 58' 24.611"	W 076 28' 09.127"	38.9735	-76.4692	LNM 51/16, 5th Dist	641	12282_1	12/22/2016
12282	Change	Spa Creek Buoy 3	G C "3"	N 38 58' 22.007"	W 076 29' 23.629"	38.97278	-76.4899	LNM 51/16, 5th Dist	641	12282_1	12/22/2016
12282	Change	Sillery Bay Light 3	Fl G 4s 15ft 4M "3"	N 39 05' 25.221"	W 076 26' 39.024"	39.09034	-76.44418	LNM 51/16, 5th Dist	641	12282_1	12/22/2016
12282	Change	Severn River - Mill Creek Light 2M	Fl R 2.5s 15ft 4M "2M"	N 38 59' 34.080"	W 076 26' 49.380"	38.9928	-76.44705	LNM 49/16, 5th Dist	641	12282_1	12/15/2016
12282	Relocate	Chesapeake Channel Lighted Buoy 93	G "93" Fl G 4s	N 39 00' 03.080"	W 076 22' 52.720"	39.00085	-76.38131	LNM 35/16, 5th Dist	641	12282_1	9/8/2016
12282	Relocate	Cypress Creek Daybeacon 1	G "1"	N 39 04' 26.073"	W 076 31' 16.696"	39.07391	-76.5213	LNM 34/16, 5th Dist	641	12282_1	9/1/2016
12282	Relocate	Cypress Creek Daybeacon 3	G "3"	N 39 04' 25.598"	W 076 31' 20.697"	39.07378	-76.52242	LNM 34/16, 5th Dist	641	12282_1	9/1/2016
12282	Change	NOAA Lighted Data Buoy AN	Y "AN" Fl Y 4s	N 38 57' 49.010"	W 076 26' 48.370"	38.96362	-76.44677	LNM 32/16, 5th Dist	641	12282_1	8/18/2016
12282	Change	Naval Anchorage Light A	Fl Y 2.5s 15ft 4M "A"	N 38 58' 00.507"	W 076 27' 09.003"	38.96681	-76.4525	LNM 13/16, 5th Dist	641	12282_1	4/7/2016
12282	Change	Annapolis Harbor Entrance Light 4	Fl R 6s 15ft 4M "4"	N 38 58' 06.185"	W 076 27' 27.737"	38.96838	-76.4577	LNM 13/16, 5th Dist	641	12282_1	4/7/2016
12282	Change	Magothy River Entrance Light 2	Fl R 4s 15ft 4M "2"	N 39 03' 21.879"	W 076 25' 46.824"	39.05608	-76.42967	LNM 13/16, 5th Dist	641	12282_1	4/7/2016
12282	Relocate	Annapolis Harbor Entrance Light 4	Fl R 6s 15ft 4M "4"	N 38 58' 06.185"	W 076 27' 27.737"	38.96838	-76.4577	LNM 13/16, 5th Dist	641	12282_1	4/7/2016
12282	Add	William P. Lane Jr. Bridge V-AIS SE	V-AIS "SE" (Chart No. 1: S18.2)	N 38 59' 33.479"	W 076 22' 47.059"	38.99263	-76.37974	LNM 06/16, 5th Dist	641	12282_1	2/11/2016
12282	Add	William P. Lane Jr. Bridge V-AIS SW	V-AIS "SW" (Chart No. 1: S18.2)	N 38 59' 37.823"	W 076 23' 04.969"	38.99384	-76.38471	LNM 06/16, 5th Dist	641	12282_1	2/11/2016
12282	Add	William P. Lane Jr. Bridge V-AIS NE	V-AIS "NE" (Chart No. 1: S18.2)	N 38 59' 37.768"	W 076 22' 45.337"	38.99382	-76.37926	LNM 06/16, 5th Dist	641	12282_1	2/11/2016
12282	Add	William P. Lane Jr. Bridge V-AIS NW	V-AIS "NW" (Chart No. 1: S18.2)	N 38 59' 41.734"	W 076 23' 03.355"	38.99493	-76.38426	LNM 06/16, 5th Dist	641	12282_1	2/11/2016
12282	Change	Tabulation - BALTIMORE HARBOR CHANNEL DEPTHS	Tabulation - BALTIMORE HARBOR CHANNEL DEPTHS	N 38 58' 12.000"	W 076 33' 10.000"	38.97	-76.55278	LNM 34/15, 5th Dist	641	12282_1	8/27/2015
12282	Relocate	Severn River Light 5	Fl G 4s 15ft 4M "5"	N 39 01' 51.331"	W 076 31' 57.905"	39.03093	-76.53275	LNM 20/15, 5th Dist	641	12282_1	5/28/2015
12282	Relocate	Severn River Light 6	Fl R 4s 15ft 4M "6"	N 39 02' 07.061"	W 076 32' 09.844"	39.03529	-76.53606	LNM 20/15, 5th Dist	641	12282_1	5/28/2015
12289	Relocate	Upper Potomac River Channel Buoy 46	R N "46"	N 38 33' 35.430"	W 077 14' 04.431"	38.55984	-77.23457	LNM 25/17, 5th Dist	664	12289_1	6/29/2017
12289	Relocate	Alexandria Channel Buoy 2	R N "2"	N 38 47' 59.908"	W 077 02' 06.915"	38.79998	-77.03526	LNM 25/17, 5th Dist	664	12289_1	6/29/2017
12289	Change	Neabsco Creek Light 2	Fl R 2.5s 15ft 4M "2"	N 38 35' 46.409"	W 077 14' 44.506"	38.59623	-77.2457	LNM 49/16, 5th Dist	664	12289_1	12/15/2016
12289	Change	Mattawoman Creek Light 5	Fl G 4s 15ft 4M "5"	N 38 33' 55.814"	W 077 11' 39.850"	38.5655	-77.1944	LNM 47/16, 5th Dist	664	12289_1	12/1/2016
12289	Change	Mattawoman Creek Light 3	Fl G 2.5s 15ft 4M "3"	N 38 33' 40.994"	W 077 12' 02.182"	38.56139	-77.20061	LNM 47/16, 5th Dist	664	12289_1	12/1/2016
12289	Relocate	Whitestone Point Light	Iso 6s 17ft 7M	N 38 41' 04.512"	W 077 07' 23.454"	38.68459	-77.12318	LNM 43/16, 5th Dist	664	12289_1	11/3/2016
12289	Change	Whitestone Point Light	Iso 6s 17ft 7M	N 38 41' 04.938"	W 077 07' 23.345"	38.6847	-77.12315	LNM 41/16, 5th Dist	664	12289_1	10/20/2016
12289	Relocate	Hains Point Buoy 2	R N "2"	N 38 51' 14.605"	W 077 01' 10.914"	38.85406	-77.0197	LNM 34/16, 5th Dist	665	12289_2	9/1/2016
12289	Relocate	Hains Point Buoy 2	R N "2"	N 38 51' 14.605"	W 077 01' 10.914"	38.85406	-77.0197	LNM 34/16, 5th Dist	664	12289_1	9/1/2016
12289	Add	Overhead Power Cable Label	OVHD PWR CAB AUTH CL 73 FT REP	N 38 41' 01.260"	W 077 15' 27.410"	38.68368	-77.25761	LNM 25/16, 5th Dist	664	12289_1	6/23/2016
12289	Add	Overhead Power Cable  PT 1 OF 2	Chart No. 1: D26  	N 38 41' 07.100"	W 077 15' 25.990"	38.68531	-77.25722	LNM 25/16, 5th Dist	664	12289_1	6/23/2016
12289	Add	Overhead Power Cable  PT 2 OF 2	Chart No. 1: D26  	N 38 40' 56.730"	W 077 15' 28.520"	38.68243	-77.25792	LNM 25/16, 5th Dist	664	12289_1	6/23/2016
12289	Change	Tabulation - ANACOSTIA AND WASHINGTON CHANNEL DEPTHS	Tabulation - ANACOSTIA AND WASHINGTON CHANNEL DEPTHS	N 38 46' 40.300"	W 076 57' 58.800"	38.77786	-76.96633	LNM 15/16, 5th Dist	664	12289_1	4/14/2016
12289	Change	Occoquan River Channel Light 14	Fl R 4s 15ft 4M "14"	N 38 39' 43.733"	W 077 14' 06.076"	38.66215	-77.23502	LNM 10/16, 5th Dist	664	12289_1	3/17/2016
12289	Delete	Washington Channel Warning Buoy A	W Or C "A"	N 38 51' 43.719"	W 077 01' 08.380"	38.86214	-77.019	LNM 51/15, 5th Dist	665	12289_2	1/7/2016
12289	Delete	Washington Channel Warning Buoy A	W Or C "A"	N 38 51' 43.719"	W 077 01' 08.380"	38.86214	-77.019	LNM 51/15, 5th Dist	664	12289_1	1/7/2016
12289	Delete	Washington Channel Warning Buoy B	W Or C "B"	N 38 51' 58.260"	W 077 01' 08.368"	38.86618	-77.01899	LNM 51/15, 5th Dist	665	12289_2	1/7/2016
12289	Delete	Washington Channel Warning Buoy B	W Or C "B"	N 38 51' 58.260"	W 077 01' 08.368"	38.86618	-77.01899	LNM 51/15, 5th Dist	664	12289_1	1/7/2016
12289	Change	Occoquan River Channel Light 2	Fl R 4s 15ft 4M "2"	N 38 37' 24.168"	W 077 12' 47.749"	38.62338	-77.21326	LNM 44/15, 5th Dist	664	12289_1	11/12/2015
12289	Change	Upper Potomac River Channel Light 56	Fl R 4s 15ft 4M "56"	N 38 36' 40.505"	W 077 08' 18.544"	38.61125	-77.13848	LNM 40/15, 5th Dist	664	12289_1	10/22/2015
12289	Change	Occoquan River Channel Light 12	Fl R 4s 15ft 4M "12"	N 38 39' 26.728"	W 077 13' 57.301"	38.65742	-77.23258	LNM 40/15, 5th Dist	664	12289_1	10/22/2015
12289	Relocate	Piscataway Creek Daybeacon 4	R "4"	N 38 42' 15.984"	W 077 02' 03.480"	38.70444	-77.0343	LNM 39/15, 5th Dist	664	12289_1	10/8/2015
12289	Relocate	Piscataway Creek Daybeacon 6	R "6"	N 38 42' 05.838"	W 077 01' 48.049"	38.70162	-77.03001	LNM 39/15, 5th Dist	664	12289_1	10/8/2015
12289	Change	Upper Potomac River Channel Light 88	Fl R 2.5s 20ft 4M "88"	N 38 46' 10.039"	W 077 01' 51.001"	38.76945	-77.03083	LNM 38/15, 5th Dist	664	12289_1	10/1/2015
12206	Change	Craney Island Creek Light 6	Q R 15ft 4M "6"	N 36 52' 52.623"	W 076 20' 47.129"	36.88128	-76.34643	LNM 07/17, 5th Dist	539	12206_1	2/23/2017
12206	Change	Elizabeth River Southern Branch Light 9	Fl G 2.5s 15ft 4M "9"	N 36 47' 17.064"	W 076 18' 07.048"	36.78807	-76.30196	LNM 07/17, 5th Dist	539	12206_1	2/23/2017
12206	Change	Elizabeth River Southern Branch Light 22	Fl R 4s 15ft 4M "22"	N 36 46' 34.415"	W 076 17' 49.253"	36.77623	-76.29701	LNM 07/17, 5th Dist	539	12206_1	2/23/2017
12206	Change	Elizabeth River Southern Branch Light 42	Fl R 4s 15ft 4M "42"	N 36 43' 46.971"	W 076 16' 30.655"	36.72971	-76.27518	LNM 07/17, 5th Dist	540	12206_2	2/23/2017
12206	Relocate	Craney Island Creek Light 6	Q R 15ft 4M "6"	N 36 52' 52.623"	W 076 20' 47.129"	36.88128	-76.34643	LNM 07/17, 5th Dist	539	12206_1	2/23/2017
12206	Change	Great Bridge to Albemarle Sound Light 143	Q G 18ft 4M "143"	N 36 17' 06.407"	W 075 56' 48.140"	36.28511	-75.94671	LNM 05/17, 5th Dist	542	12206_4	2/9/2017
12206	Change	Great Bridge to Albemarle Sound Light 44	Fl R 4s 15ft 4M "44"	N 36 36' 09.876"	W 076 03' 36.438"	36.60275	-76.06012	LNM 05/17, 5th Dist	541	12206_3	2/9/2017
12206	Change	Knotts Island Ferry Terminal Light 2	Q R 15ft 4M "2"	N 36 27' 59.297"	W 075 57' 38.997"	36.46647	-75.96083	LNM 05/17, 5th Dist	542	12206_4	2/9/2017
12206	Relocate	Great Bridge to Albemarle Sound Daybeacon 16	R "16"	N 36 41' 06.098"	W 076 03' 56.860"	36.68503	-76.0658	LNM 03/17, 5th Dist	541	12206_3	1/26/2017
12206	Relocate	Great Bridge to Albemarle Sound Light 18	Fl R 4s 15ft 4M "18"	N 36 40' 45.935"	W 076 04' 08.089"	36.67943	-76.06892	LNM 03/17, 5th Dist	541	12206_3	1/26/2017
12206	Change	Great Bridge to Albemarle Sound Light 4	Fl R 4s 15ft 4M "4"	N 36 42' 37.226"	W 076 04' 49.820"	36.71034	-76.08051	LNM 49/16, 5th Dist	541	12206_3	12/15/2016
12206	Change	Great Bridge to Albemarle Sound Light 10	Fl R 4s 19ft 4M "10"	N 36 41' 48.132"	W 076 04' 19.076"	36.6967	-76.07197	LNM 49/16, 5th Dist	541	12206_3	12/15/2016
12206	Change	Great Bridge to Albemarle Sound Light 14	Fl R 4s 15ft 4M "14"	N 36 41' 29.756"	W 076 04' 07.256"	36.6916	-76.06868	LNM 49/16, 5th Dist	541	12206_3	12/15/2016
12206	Change	Great Bridge to Albemarle Sound Light 20	Fl R 4s 15ft 4M "20"	N 36 40' 35.112"	W 076 04' 09.808"	36.67642	-76.06939	LNM 49/16, 5th Dist	541	12206_3	12/15/2016
12206	Change	Craney Island Creek Light 2CI	Q R 19ft 4M "2CI"	N 36 52' 50.821"	W 076 20' 27.700"	36.88078	-76.34103	LNM 49/16, 5th Dist	539	12206_1	12/15/2016
12206	Change	Great Bridge to Albemarle Sound Light 49	Q G 19ft 4M "49"	N 36 35' 32.808"	W 076 03' 00.636"	36.59245	-76.05018	LNM 49/16, 5th Dist	541	12206_3	12/15/2016
12206	Change	Craney Island Creek Wreck Light WR12	Q R 15ft 4M "WR12"	N 36 53' 05.154"	W 076 21' 01.974"	36.88477	-76.35055	LNM 44/16, 5th Dist	539	12206_1	11/10/2016
12206	Change	Elizabeth River Southern Branch Light 2	Fl R 2.5s 15ft 4M "2"	N 36 47' 38.515"	W 076 17' 50.026"	36.79403	-76.29723	LNM 34/16, 5th Dist	539	12206_1	9/1/2016
12206	Change	Elizabeth River Southern Branch Light 32	Fl R 4s 15ft 4M "32"	N 36 44' 26.268"	W 076 17' 56.256"	36.74063	-76.29896	LNM 34/16, 5th Dist	540	12206_2	9/1/2016
12206	Change	Great Bridge to Albemarle Sound Light 38	Fl R 4s 15ft 4M "38"	N 36 37' 45.054"	W 076 03' 14.886"	36.62918	-76.05414	LNM 26/16, 5th Dist	541	12206_3	6/30/2016
12206	Delete	NOAA Lighted Data Buoy N	Y "N" Fl Y 4s	N 36 50' 40.100"	W 076 18' 01.740"	36.84447	-76.30048	LNM 25/16, 5th Dist	539	12206_1	6/30/2016
12206	Delete	Nauticus Pier Light A	Fl Y 2.5s 5ft "A" Priv	N 36 50' 55.000"	W 076 17' 50.000"	36.84861	-76.29723	LNM 14/16, 5th Dist	539	12206_1	4/14/2016
12206	Delete	Nauticus Pier Light B	Fl Y 4s 5ft "B" Priv	N 36 50' 51.000"	W 076 17' 48.000"	36.8475	-76.29667	LNM 14/16, 5th Dist	539	12206_1	4/14/2016
12206	Change	Depth Legend - Southern Branch Elizabeth River to:	27 FT 2015	N 36 47' 05.000"	W 076 18' 10.000"	36.78472	-76.30278	LNM 14/16, 5th Dist	539	12206_1	3/31/2016
12206	Change	Depth Legend - Southern Branch Elizabeth River to:	25 FT 2015	N 36 45' 18.400"	W 076 17' 37.400"	36.75511	-76.29372	LNM 14/16, 5th Dist	540	12206_2	3/31/2016
12206	Change	Depth Legend - Southern Branch Elizabeth River to:	25 FT 2015	N 36 45' 18.400"	W 076 17' 37.400"	36.75511	-76.29372	LNM 14/16, 5th Dist	547	12206_9	3/31/2016
12206	Change	Depth Legend - Southern Branch Elizabeth River to:	24 FT 2015	N 36 46' 20.000"	W 076 17' 41.300"	36.77222	-76.29481	LNM 14/16, 5th Dist	539	12206_1	3/31/2016
12206	Change	Depth Legend - Southern Branch Elizabeth River to:	24 FT 2015	N 36 46' 20.000"	W 076 17' 41.300"	36.77222	-76.29481	LNM 14/16, 5th Dist	540	12206_2	3/31/2016
12206	Change	Depth Legend - Southern Branch Elizabeth River to:	23 FT 2015	N 36 47' 14.000"	W 076 18' 07.500"	36.78722	-76.30209	LNM 14/16, 5th Dist	539	12206_1	3/31/2016
12206	Add	Midtown Tunnel East Warning Light B	Fl 4s 12ft "B" Priv	N 36 51' 31.440"	W 076 18' 37.430"	36.85873	-76.31039	LNM 11/16, 5th Dist	539	12206_1	3/24/2016
12206	Change	Great Bridge to Albemarle Sound Light 46	Fl R 4s 15ft 4M "46"	N 36 35' 39.354"	W 076 03' 35.292"	36.59426	-76.05981	LNM 04/16, 5th Dist	541	12206_3	1/28/2016
12206	Change	Great Bridge to Albemarle Sound Light 47	Q G 15ft 4M "47"	N 36 35' 42.912"	W 076 03' 31.464"	36.59525	-76.05874	LNM 04/16, 5th Dist	541	12206_3	1/28/2016
12206	Change	Great Bridge to Albemarle Sound Light 123	Q G 17ft 4M "123"	N 36 21' 17.638"	W 075 56' 44.006"	36.3549	-75.94556	LNM 03/16, 5th Dist	542	12206_4	1/28/2016
12206	Delete	Chesapeake Outfall Warning Daybeacon A	W "A" Priv	N 36 44' 09.000"	W 076 17' 42.000"	36.73583	-76.295	LNM 01/16, 5th Dist	540	12206_2	1/14/2016
