Chart	Action	ItemName	ChartingLa	Latitude	Longitude	LatDD	LongDD	PublishedD	Kapp	RNCPanel	RNCPosted
11409	Change	Anclote River Light 9	Q G 16ft 4M "9"	N 28 10' 47.194"	W 082 48' 14.726"	28.17978	-82.80409	LNM 31/17, 7th Dist	174	11409_1	8/24/2017
11409	Add	Homosassa River Buoy 74A	R N "74A"	N 28 47' 01.433"	W 082 37' 49.269"	28.78373	-82.63036	LNM 26/17, 7th Dist	174	11409_1	6/29/2017
11409	Delete	Homosassa Bay Lighted Buoy 26	R "26" Fl R 4s	N 28 46' 19.566"	W 082 42' 25.566"	28.7721	-82.7071	LNM 13/17, 7th Dist	174	11409_1	4/13/2017
11409	Add	Homosassa Bay Light 26	Fl R 4s 5M "26"	N 28 46' 19.503"	W 082 42' 25.521"	28.77208	-82.70709	LNM 13/17, 7th Dist	174	11409_1	4/13/2017
11447	Change	tabulation - KEY WEST HARBOR CHANNEL DEPTHS	tabulation - KEY WEST HARBOR CHANNEL DEPTHS	N 24 33' 19.000"	W 081 47' 03.000"	24.55528	-81.78416	LNM 10/17, 7th Dist	327	11447_1	3/2/2017
11447	Add	channel reach separation line PT 1 OF 2	channel reach separation line	N 24 33' 46.790"	W 081 48' 26.780"	24.563	-81.80744	LNM 10/17, 7th Dist	327	11447_1	3/2/2017
11447	Add	channel reach separation line PT 2 OF 2	channel reach separation line	N 24 33' 42.600"	W 081 48' 28.850"	24.56183	-81.80801	LNM 10/17, 7th Dist	327	11447_1	3/2/2017
11447	Add	Tug Tilly Lighted Buoy T	RB "T" Fl (2) 5s	N 24 31' 13.213"	W 081 49' 52.678"	24.52034	-81.8313	LNM 36/16, 7th Dist	327	11447_1	9/15/2016
11447	Delete	Dangerous Wreck	PA	N 24 30' 35.156"	W 081 50' 27.322"	24.50977	-81.84092	LNM 30/16, 7th Dist	327	11447_1	7/28/2016
11447	Change	Key West Main Channel Cut A Range Rear Light	Iso 6s 50ft	N 24 33' 35.977"	W 081 50' 20.610"	24.55999	-81.83906	LNM 24/16, 7th Dist	327	11447_1	6/30/2016
11447	Relocate	Key West Main Channel Cut A Range Front Light	Q 35ft	N 24 33' 12.007"	W 081 50' 02.428"	24.55334	-81.83401	LNM 23/16, 7th Dist	327	11447_1	6/16/2016
11447	Change	Key West Main Channel Cut A Range Front Light	Q 10ft	N 24 33' 12.007"	W 081 50' 02.428"	24.55334	-81.83401	LNM 23/16, 7th Dist	327	11447_1	6/16/2016
11447	Delete	Fleming Key Buoy 1	G C "1"	N 24 34' 31.421"	W 081 48' 03.828"	24.5754	-81.80106	LNM 06/16, 7th Dist	327	11447_1	2/18/2016
11447	Delete	Fleming Key Buoy 2	R N "2"	N 24 34' 29.185"	W 081 48' 02.863"	24.57477	-81.8008	LNM 06/16, 7th Dist	327	11447_1	2/18/2016
11447	Change	Key West Main Channel Turning Basin Light 27	Fl G 4s 16ft 5M "27"	N 24 34' 02.078"	W 081 48' 28.277"	24.56724	-81.80785	LNM 49/15, 7th Dist	327	11447_1	12/17/2015
11447	Delete	Double Line Pier PT 1 OF 4	Chart No. 1: F14	N 24 33' 18.920"	W 081 48' 36.270"	24.55526	-81.81007	LNM 47/15, 7th Dist	327	11447_1	11/19/2015
11447	Delete	Double Line Pier PT 2 OF 4	Chart No. 1: F14	N 24 33' 19.950"	W 081 48' 35.520"	24.55554	-81.80987	LNM 47/15, 7th Dist	327	11447_1	11/19/2015
11447	Delete	Double Line Pier PT 3 OF 4	Chart No. 1: F14	N 24 33' 19.700"	W 081 48' 35.000"	24.55547	-81.80972	LNM 47/15, 7th Dist	327	11447_1	11/19/2015
11447	Delete	Double Line Pier PT 4 OF 4	Chart No. 1: F14	N 24 33' 18.580"	W 081 48' 35.600"	24.55516	-81.80989	LNM 47/15, 7th Dist	327	11447_1	11/19/2015
11447	Delete	Dolphin	Dol   Chart No. 1: F20	N 24 33' 20.000"	W 081 48' 35.690"	24.55556	-81.80991	LNM 47/15, 7th Dist	327	11447_1	11/19/2015
11447	Add	Double Line Pier PT 1 OF 2	Chart No. 1: F14	N 24 33' 19.000"	W 081 48' 36.500"	24.55528	-81.81014	LNM 47/15, 7th Dist	327	11447_1	11/19/2015
11447	Add	Double Line Pier PT 2 OF 2	Chart No. 1: F14	N 24 33' 18.600"	W 081 48' 35.600"	24.55517	-81.80989	LNM 47/15, 7th Dist	327	11447_1	11/19/2015
11447	Add	Dolphin	Dol   Chart No. 1: F20	N 24 33' 13.800"	W 081 48' 40.800"	24.55383	-81.81133	LNM 47/15, 7th Dist	327	11447_1	11/19/2015
11447	Delete	Fort Taylor Southeast Obstruction Daybeacon	W Bn Priv	N 24 32' 40.000"	W 081 48' 38.000"	24.54445	-81.81055	LNM 21/15, 7th Dist	327	11447_1	6/4/2015
11447	Delete	Fort Taylor Southwest Obstruction Daybeacon	W Bn Priv	N 24 32' 40.000"	W 081 48' 42.000"	24.54445	-81.81167	LNM 21/15, 7th Dist	327	11447_1	6/4/2015
11447	Add	Key West Main Channel Lighted Buoy 15 Magenta Circle	G "15" Fl G 4s AIS	N 24 32' 55.235"	W 081 48' 55.915"	24.54868	-81.81553	LNM 08/15, 7th Dist	327	11447_1	3/5/2015
11447	Add	Key West Main Channel Lighted Buoy 23 Magenta Circle	G "23" Fl G 4s AIS	N 24 33' 37.096"	W 081 48' 35.080"	24.5603	-81.80975	LNM 08/15, 7th Dist	327	11447_1	3/5/2015
11447	Add	Key West Main Channel Lighted Buoy 8 Magenta Circle	R "8" Q R AIS	N 24 30' 59.314"	W 081 48' 15.570"	24.51648	-81.80432	LNM 08/15, 7th Dist	327	11447_1	3/5/2015
11447	Add	Key West Main Channel Lighted Buoy 9 Magenta Circle	G "9" Fl G 4s AIS	N 24 31' 42.813"	W 081 49' 00.191"	24.52856	-81.81672	LNM 08/15, 7th Dist	327	11447_1	3/5/2015
11447	Add	Visible Wreck	PA	N 24 31' 13.199"	W 081 49' 50.819"	24.52033	-81.83078	LNM 49/14, 7th Dist	327	11447_1	12/18/2014
11447	Change	Key West Northwest Channel Light 18	Fl R 2.5s 16ft 5M "18"	N 24 33' 28.234"	W 081 49' 42.757"	24.55784	-81.82854	LNM 46/14, 7th Dist	327	11447_1	11/27/2014
11447	Change	Garrison Bight Channel Light 21	Fl G 4s 16ft 5M "21"	N 24 33' 53.642"	W 081 46' 55.621"	24.5649	-81.78212	LNM 32/14, 7th Dist	327	11447_1	8/21/2014
11447	Relocate	Key West Main Channel Turning Basin Light 27	Fl G 4s 16ft 4M "27"	N 24 34' 02.078"	W 081 48' 28.277"	24.56724	-81.80785	LNM 28/14, 7th Dist	327	11447_1	7/24/2014
11447	Add	Visible Wreck	PA	N 24 30' 35.580"	W 081 50' 27.240"	24.50988	-81.8409	LNM 20/14, 7th Dist	327	11447_1	5/29/2014
11447	Change	Key West Northwest Channel Light 19	Fl G 4s 16ft 5M "19"	N 24 33' 40.473"	W 081 49' 14.129"	24.56124	-81.82059	LNM 14/14, 7th Dist	327	11447_1	4/17/2014
11447	Delete	Fleming Key Buoy 3	G C "3"	N 24 34' 31.515"	W 081 47' 59.681"	24.57542	-81.79991	LNM 02/14, 7th Dist	327	11447_1	1/30/2014
11447	Delete	Fleming Key Buoy 4	R N "4"	N 24 34' 29.627"	W 081 47' 58.177"	24.5749	-81.79949	LNM 02/14, 7th Dist	327	11447_1	1/30/2014
11447	Add	Fleming Key Daybeacon 3	G "3"	N 24 34' 31.515"	W 081 47' 59.681"	24.57542	-81.79991	LNM 02/14, 7th Dist	327	11447_1	1/30/2014
11447	Add	Fleming Key Daybeacon 4	R "4"	N 24 34' 29.627"	W 081 47' 58.177"	24.5749	-81.79949	LNM 02/14, 7th Dist	327	11447_1	1/30/2014
11447	Delete	Fleming Key Daybeacon 6	R "6" 	N 24 34' 29.850"	W 081 47' 58.150"	24.57496	-81.79948	LNM 02/14, 7th Dist	327	11447_1	1/30/2014
11447	Delete	Fleming Key Range Front Daybeacon	RW Bn PA Navy	N 24 34' 34.000"	W 081 47' 46.300"	24.57611	-81.7962	LNM 02/14, 7th Dist	327	11447_1	1/30/2014
11447	Delete	Fleming Key Range Rear Daybeacon	RW Bn PA Navy	N 24 34' 34.500"	W 081 47' 45.200"	24.57625	-81.79589	LNM 02/14, 7th Dist	327	11447_1	1/30/2014
11447	Add	Fleming Key Buoy 1	G C "1"	N 24 34' 31.421"	W 081 48' 03.828"	24.5754	-81.80106	LNM 02/14, 7th Dist	327	11447_1	1/30/2014
11447	Add	Fleming Key Buoy 2	R N "2"	N 24 34' 29.185"	W 081 48' 02.863"	24.57477	-81.8008	LNM 02/14, 7th Dist	327	11447_1	1/30/2014
11447	Add	Fleming Key Buoy 3	G C "3"	N 24 34' 31.515"	W 081 47' 59.681"	24.57542	-81.79991	LNM 02/14, 7th Dist	327	11447_1	1/30/2014
11447	Add	Fleming Key Buoy 4	R N "4"	N 24 34' 29.627"	W 081 47' 58.177"	24.5749	-81.79949	LNM 02/14, 7th Dist	327	11447_1	1/30/2014
11447	Relocate	Key West Main Channel Daybeacon 21	G "21"	N 24 33' 40.343"	W 081 48' 41.122"	24.56121	-81.81142	LNM 33/13, 7th Dist	327	11447_1	8/22/2013
11447	Delete	Key West Southwest Channel Buoy E	RW C "E"	N 24 31' 11.534"	W 081 51' 02.333"	24.51987	-81.85065	LNM 27/13, 7th Dist	327	11447_1	8/15/2013
11447	Delete	Key West Southwest Channel Buoy F	RW C "F"	N 24 32' 01.533"	W 081 49' 46.832"	24.53376	-81.82967	LNM 27/13, 7th Dist	327	11447_1	8/15/2013
11447	Delete	Sand Key Preferred Channel Buoy	RG N	N 24 30' 34.736"	W 081 50' 25.433"	24.50965	-81.8404	LNM 27/13, 7th Dist	327	11447_1	8/15/2013
11441	Add	Obstruction in Feet	18 Obstn       Chart No. 1: K41	N 24 27' 29.900"	W 081 52' 06.000"	24.45831	-81.86833	LNM 12/17, 7th Dist	328	11441_1	3/16/2017
11441	Change	tabulation - KEY WEST HARBOR CHANNEL DEPTHS	tabulation - KEY WEST HARBOR CHANNEL DEPTHS	N 24 36' 31.000"	W 081 59' 27.000"	24.60861	-81.99084	LNM 10/17, 7th Dist	328	11441_1	3/2/2017
11441	Add	channel reach separation line PT 1 OF 2	channel reach separation line	N 24 33' 35.980"	W 081 48' 32.140"	24.55999	-81.80893	LNM 10/17, 7th Dist	328	11441_1	3/2/2017
11441	Add	channel reach separation line PT 2 OF 2	channel reach separation line	N 24 33' 37.100"	W 081 48' 34.990"	24.5603	-81.80972	LNM 10/17, 7th Dist	328	11441_1	3/2/2017
11441	Add	channel reach separation line PT 1 OF 2	channel reach separation line	N 24 33' 46.790"	W 081 48' 26.780"	24.563	-81.80744	LNM 10/17, 7th Dist	328	11441_1	3/2/2017
11441	Add	channel reach separation line PT 2 OF 2	channel reach separation line	N 24 33' 42.600"	W 081 48' 28.850"	24.56183	-81.80801	LNM 10/17, 7th Dist	328	11441_1	3/2/2017
11441	Change	Boca Chica Channel Light 16	Fl R 4s 16ft 5M "16"	N 24 34' 24.024"	W 081 42' 41.549"	24.57334	-81.71154	LNM 49/16, 7th Dist	328	11441_1	12/15/2016
11441	Add	Tug Tilly Lighted Buoy T	RB "T" Fl (2) 5s	N 24 31' 13.213"	W 081 49' 52.678"	24.52034	-81.8313	LNM 36/16, 7th Dist	328	11441_1	9/15/2016
11441	Change	Boca Chica Channel Light 8	Fl R 4s 16ft 5M "8"	N 24 33' 45.023"	W 081 43' 03.850"	24.56251	-81.71774	LNM 34/16, 7th Dist	328	11441_1	9/1/2016
11441	Delete	Dangerous Wreck	PA	N 24 30' 35.156"	W 081 50' 27.322"	24.50977	-81.84092	LNM 30/16, 7th Dist	328	11441_1	7/28/2016
11441	Change	Key West Main Channel Cut A Range Rear Light	Iso 6s 50ft	N 24 33' 35.977"	W 081 50' 20.610"	24.55999	-81.83906	LNM 24/16, 7th Dist	328	11441_1	6/30/2016
11441	Relocate	Key West Main Channel Cut A Range Front Light	Q 35ft	N 24 33' 12.007"	W 081 50' 02.428"	24.55334	-81.83401	LNM 23/16, 7th Dist	328	11441_1	6/16/2016
11441	Change	Key West Main Channel Cut A Range Front Light	Q 10ft	N 24 33' 12.007"	W 081 50' 02.428"	24.55334	-81.83401	LNM 23/16, 7th Dist	328	11441_1	6/16/2016
11441	Change	Garrison Bight Channel Light 8	Fl R 4s 12ft 5M "8"	N 24 35' 39.947"	W 081 48' 01.585"	24.59443	-81.80044	LNM 12/16, 7th Dist	328	11441_1	3/31/2016
11441	Change	Key West Northwest Channel Jetty Light A	Q Y 18ft 4M "A"	N 24 38' 27.737"	W 081 53' 34.035"	24.64104	-81.89278	LNM 11/16, 7th Dist	328	11441_1	3/24/2016
11441	Delete	Cow Key Obstruction Daybeacon 1	G "1"	N 24 34' 42.000"	W 081 45' 18.000"	24.57833	-81.755	LNM 11/16, 7th Dist	328	11441_1	3/24/2016
11441	Delete	Fleming Key Buoy 1	G C "1"	N 24 34' 31.421"	W 081 48' 03.828"	24.5754	-81.80106	LNM 06/16, 7th Dist	328	11441_1	2/18/2016
11441	Delete	Fleming Key Buoy 2	R N "2"	N 24 34' 29.185"	W 081 48' 02.863"	24.57477	-81.8008	LNM 06/16, 7th Dist	328	11441_1	2/18/2016
11441	Change	Key West Main Channel Turning Basin Light 27	Fl G 4s 16ft 5M "27"	N 24 34' 02.078"	W 081 48' 28.277"	24.56724	-81.80785	LNM 49/15, 7th Dist	328	11441_1	12/17/2015
11441	Add	Visible Wreck	PA	N 24 32' 43.320"	W 081 45' 54.180"	24.54537	-81.76505	LNM 49/15, 7th Dist	328	11441_1	12/17/2015
11441	Delete	Double Line Pier PT 1 OF 4	Chart No. 1: F14	N 24 33' 18.920"	W 081 48' 36.270"	24.55526	-81.81007	LNM 47/15, 7th Dist	328	11441_1	11/19/2015
11441	Delete	Double Line Pier PT 2 OF 4	Chart No. 1: F14	N 24 33' 19.950"	W 081 48' 35.520"	24.55554	-81.80987	LNM 47/15, 7th Dist	328	11441_1	11/19/2015
11441	Delete	Double Line Pier PT 3 OF 4	Chart No. 1: F14	N 24 33' 19.700"	W 081 48' 35.000"	24.55547	-81.80972	LNM 47/15, 7th Dist	328	11441_1	11/19/2015
11441	Delete	Double Line Pier PT 4 OF 4	Chart No. 1: F14	N 24 33' 18.580"	W 081 48' 35.600"	24.55516	-81.80989	LNM 47/15, 7th Dist	328	11441_1	11/19/2015
11441	Add	Double Line Pier PT 1 OF 2	Chart No. 1: F14	N 24 33' 19.000"	W 081 48' 36.500"	24.55528	-81.81014	LNM 47/15, 7th Dist	328	11441_1	11/19/2015
11441	Add	Double Line Pier PT 2 OF 2	Chart No. 1: F14	N 24 33' 18.600"	W 081 48' 35.600"	24.55517	-81.80989	LNM 47/15, 7th Dist	328	11441_1	11/19/2015
11441	Add	Dolphin	Dol   Chart No. 1: F20	N 24 33' 13.800"	W 081 48' 40.800"	24.55383	-81.81133	LNM 47/15, 7th Dist	328	11441_1	11/19/2015
11441	Delete	Key West Southwest Channel Lighted Buoy SW	RW "SW" Mo (A)	N 24 26' 38.547"	W 081 58' 47.341"	24.44404	-81.97982	LNM 29/15, 7th Dist	328	11441_1	7/30/2015
11441	Delete	Key West Southwest Channel Buoy 2	R N "2"	N 24 28' 28.992"	W 081 54' 48.417"	24.47472	-81.91345	LNM 28/15, 7th Dist	328	11441_1	7/23/2015
11441	Delete	Key West Southwest Channel Buoy 3	G C "3"	N 24 29' 02.631"	W 081 54' 15.647"	24.48406	-81.90434	LNM 28/15, 7th Dist	328	11441_1	7/23/2015
11441	Delete	Key West Southwest Channel Buoy 4	R N "4"	N 24 29' 32.649"	W 081 53' 25.646"	24.4924	-81.89046	LNM 28/15, 7th Dist	328	11441_1	7/23/2015
11441	Delete	Key West Southwest Channel Buoy A	RW C "A"	N 24 27' 07.368"	W 081 57' 47.310"	24.45205	-81.96314	LNM 28/15, 7th Dist	328	11441_1	7/23/2015
11441	Delete	Key West Southwest Channel Buoy B	RW N "B"	N 24 27' 30.545"	W 081 56' 48.340"	24.45848	-81.94676	LNM 28/15, 7th Dist	328	11441_1	7/23/2015
11441	Delete	Key West Southwest Channel Buoy C	RW C "C"	N 24 28' 01.543"	W 081 55' 47.338"	24.46709	-81.92982	LNM 28/15, 7th Dist	328	11441_1	7/23/2015
11441	Change	Stock Island Approach Channel Light 32	Fl R 2.5s 19ft 5M "32"	N 24 28' 28.951"	W 081 44' 31.725"	24.47471	-81.74215	LNM 22/15, 7th Dist	328	11441_1	6/4/2015
11441	Relocate	Garrison Bight Channel Daybeacon 10	R "10"	N 24 35' 44.537"	W 081 47' 57.542"	24.59571	-81.79932	LNM 22/15, 7th Dist	328	11441_1	6/4/2015
11441	Delete	Fort Taylor Southeast Obstruction Daybeacon	W Bn Priv	N 24 32' 40.000"	W 081 48' 38.000"	24.54445	-81.81055	LNM 21/15, 7th Dist	328	11441_1	6/4/2015
11441	Delete	Fort Taylor Southwest Obstruction Daybeacon	W Bn Priv	N 24 32' 40.000"	W 081 48' 42.000"	24.54445	-81.81167	LNM 21/15, 7th Dist	328	11441_1	6/4/2015
11441	Change	Garrison Bight Channel Light 17	Fl G 4s 13ft 5M "17"	N 24 35' 32.605"	W 081 47' 35.473"	24.59239	-81.79319	LNM 14/15, 7th Dist	328	11441_1	4/16/2015
11441	Add	Key West Entrance Lighted Whistle Buoy KW Magenta Circle	RW "KW" Mo (A) WHISTLE AIS	N 24 27' 25.815"	W 081 47' 59.974"	24.45717	-81.8	LNM 08/15, 7th Dist	328	11441_1	3/5/2015
11441	Change	Garrison Bight Channel Light 13	Fl G 4s 16ft 5M "13"	N 24 35' 49.532"	W 081 47' 51.095"	24.59709	-81.79752	LNM 08/15, 7th Dist	328	11441_1	3/5/2015
11441	Add	Key West Main Channel Lighted Buoy 15 Magenta Circle	G "15" Fl G 4s AIS	N 24 32' 55.235"	W 081 48' 55.915"	24.54868	-81.81553	LNM 08/15, 7th Dist	328	11441_1	3/5/2015
11441	Add	Key West Main Channel Lighted Buoy 23 Magenta Circle	G "23" Fl G 4s AIS	N 24 33' 37.096"	W 081 48' 35.080"	24.5603	-81.80975	LNM 08/15, 7th Dist	328	11441_1	3/5/2015
11441	Add	Key West Main Channel Lighted Buoy 8 Magenta Circle	R "8" Q R AIS	N 24 30' 59.314"	W 081 48' 15.570"	24.51648	-81.80432	LNM 08/15, 7th Dist	328	11441_1	3/5/2015
11441	Add	Key West Main Channel Lighted Buoy 9 Magenta Circle	G "9" Fl G 4s AIS	N 24 31' 42.813"	W 081 49' 00.191"	24.52856	-81.81672	LNM 08/15, 7th Dist	328	11441_1	3/5/2015
11441	Change	Key West Northwest Channel Light 14	Fl R 6s 16ft 5M "14"	N 24 35' 26.007"	W 081 51' 12.645"	24.59056	-81.85352	LNM 52/14, 7th Dist	328	11441_1	1/8/2015
11441	Add	Visible Wreck	PA	N 24 31' 13.199"	W 081 49' 50.819"	24.52033	-81.83078	LNM 49/14, 7th Dist	328	11441_1	12/18/2014
11441	Add	Visible Wreck	PA	N 24 33' 03.540"	W 081 43' 27.360"	24.55098	-81.72427	LNM 48/14, 7th Dist	328	11441_1	12/11/2014
11441	Delete	Sounding in Feet	23	N 24 33' 04.500"	W 081 48' 32.000"	24.55125	-81.80889	LNM 49/14, 7th Dist	328	11441_1	12/4/2014
11441	Add	Sounding in Feet	34	N 24 33' 04.500"	W 081 48' 32.000"	24.55125	-81.80889	LNM 49/14, 7th Dist	328	11441_1	12/4/2014
11441	Change	Key West Northwest Channel Light 18	Fl R 2.5s 16ft 5M "18"	N 24 33' 28.234"	W 081 49' 42.757"	24.55784	-81.82854	LNM 46/14, 7th Dist	328	11441_1	11/27/2014
11441	Change	Garrison Bight Channel Light 21	Fl G 4s 16ft 5M "21"	N 24 33' 53.642"	W 081 46' 55.621"	24.5649	-81.78212	LNM 32/14, 7th Dist	328	11441_1	8/21/2014
11441	Relocate	Key West Main Channel Turning Basin Light 27	Fl G 4s 16ft 4M "27"	N 24 34' 02.078"	W 081 48' 28.277"	24.56724	-81.80785	LNM 28/14, 7th Dist	328	11441_1	7/24/2014
11441	Delete	Sand Key Light	Fl (2) 15s 109ft 11M RACON (_.)	N 24 27' 20.941"	W 081 52' 38.313"	24.45582	-81.87731	LNM 26/14, 7th Dist	328	11441_1	7/17/2014
11441	Add	Abandoned Light House	TOWER (ABAND LT HO)	N 24 27' 20.941"	W 081 52' 38.313"	24.45582	-81.87731	LNM 26/14, 7th Dist	328	11441_1	7/17/2014
11441	Add	Sand Key Light	Fl (2) 15s 40ft 13M	N 24 27' 20.941"	W 081 52' 38.313"	24.45582	-81.87731	LNM 26/14, 7th Dist	328	11441_1	7/17/2014
11441	Add	Visible Wreck	PA	N 24 30' 35.580"	W 081 50' 27.240"	24.50988	-81.8409	LNM 20/14, 7th Dist	328	11441_1	5/29/2014
11441	Delete	Calda Channel Shoal Daybeacon	W Bn	N 24 36' 19.673"	W 081 48' 22.513"	24.60546	-81.80625	LNM 15/14, 7th Dist	328	11441_1	5/1/2014
11441	Add	Calda Channel Daybeacon 20A	R "20A"	N 24 36' 19.673"	W 081 48' 22.513"	24.60546	-81.80625	LNM 15/14, 7th Dist	328	11441_1	5/1/2014
11441	Relocate	Calda Channel Buoy 20	R N "20"	N 24 36' 22.214"	W 081 48' 21.322"	24.60617	-81.80592	LNM 14/14, 7th Dist	328	11441_1	4/17/2014
11441	Change	Key West Northwest Channel Light 19	Fl G 4s 16ft 5M "19"	N 24 33' 40.473"	W 081 49' 14.129"	24.56124	-81.82059	LNM 14/14, 7th Dist	328	11441_1	4/17/2014
11441	Delete	Fleming Key Daybeacon 6	R "6" 	N 24 34' 29.850"	W 081 47' 58.150"	24.57496	-81.79948	LNM 02/14, 7th Dist	328	11441_1	1/30/2014
11441	Delete	Fleming Key Range Front Daybeacon	RW Bn PA Navy	N 24 34' 34.000"	W 081 47' 46.300"	24.57611	-81.7962	LNM 02/14, 7th Dist	328	11441_1	1/30/2014
11441	Delete	Fleming Key Range Rear Daybeacon	RW Bn PA Navy	N 24 34' 34.500"	W 081 47' 45.200"	24.57625	-81.79589	LNM 02/14, 7th Dist	328	11441_1	1/30/2014
11441	Add	Fleming Key Buoy 1	G C "1"	N 24 34' 31.421"	W 081 48' 03.828"	24.5754	-81.80106	LNM 02/14, 7th Dist	328	11441_1	1/30/2014
11441	Add	Fleming Key Buoy 2	R N "2"	N 24 34' 29.185"	W 081 48' 02.863"	24.57477	-81.8008	LNM 02/14, 7th Dist	328	11441_1	1/30/2014
11441	Add	Dangerous Wreck 	Masts PA	N 24 30' 31.200"	W 081 44' 24.180"	24.50867	-81.74005	LNM 39/13, 7th Dist	328	11441_1	10/11/2013
11441	Relocate	Key West Main Channel Daybeacon 21	G "21"	N 24 33' 40.343"	W 081 48' 41.122"	24.56121	-81.81142	LNM 33/13, 7th Dist	328	11441_1	8/22/2013
11441	Change	Key West Northwest Channel Light 15A	Fl G 4s 14ft 5M "15A"	N 24 34' 54.987"	W 081 50' 24.966"	24.58194	-81.84027	LNM 31/13, 7th Dist	328	11441_1	8/19/2013
11441	Delete	Key West Southwest Channel Buoy D	RW C "D"	N 24 30' 25.537"	W 081 52' 22.835"	24.50709	-81.87301	LNM 27/13, 7th Dist	328	11441_1	8/15/2013
11441	Delete	Key West Southwest Channel Buoy E	RW C "E"	N 24 31' 11.534"	W 081 51' 02.333"	24.51987	-81.85065	LNM 27/13, 7th Dist	328	11441_1	8/15/2013
11441	Delete	Key West Southwest Channel Buoy F	RW C "F"	N 24 32' 01.533"	W 081 49' 46.832"	24.53376	-81.82967	LNM 27/13, 7th Dist	328	11441_1	8/15/2013
11441	Delete	Sand Key Preferred Channel Buoy	RG N	N 24 30' 34.736"	W 081 50' 25.433"	24.50965	-81.8404	LNM 27/13, 7th Dist	328	11441_1	8/15/2013
11441	Change	Garrison Bight Channel Approach Light 2	Fl R 16ft 16ft 5M "2"	N 24 35' 04.020"	W 081 48' 16.751"	24.58445	-81.80465	LNM 26/13, 7th Dist	328	11441_1	7/30/2013
11441	Change	Safe Harbor Channel Light 3	Fl G 6s 5M "3"	N 24 32' 47.905"	W 081 43' 59.423"	24.54664	-81.73317	LNM 22/13, 7th Dist	328	11441_1	6/20/2013
11441	Change	Calda Channel Light 1	Fl G 4s 16ft 5M "1"	N 24 37' 48.055"	W 081 49' 34.071"	24.63001	-81.82613	LNM 21/13, 7th Dist	328	11441_1	6/4/2013
11441	Change	Key West Northwest Channel Light 10	Fl R 4s 12ft 5M "10"	N 24 36' 54.581"	W 081 52' 34.256"	24.61516	-81.87618	LNM 21/13, 7th Dist	328	11441_1	6/4/2013
11441	Change	Safe Harbor Channel Light 4	Fl R 2.5s 16ft 5M "4"	N 24 33' 06.084"	W 081 43' 59.394"	24.55169	-81.73316	LNM 20/13, 7th Dist	328	11441_1	5/30/2013
11441	Delete	Fleming Key Daybeacon 2	R "2" PA Navy	N 24 34' 29.850"	W 081 47' 58.150"	24.57496	-81.79948	LNM 18/13, 7th Dist	328	11441_1	5/23/2013
11441	Add	Fleming Key Daybeacon 6	R "6"	N 24 34' 29.850"	W 081 47' 58.150"	24.57496	-81.79948	LNM 18/13, 7th Dist	328	11441_1	5/23/2013
11441	Add	Rock in Feet	5 Rk      Chart No. 1: K14.2	N 24 31' 11.580"	W 082 00' 19.650"	24.51988	-82.00546	LNM 16/13, 7th Dist	328	11441_1	4/15/2013
11441	Change	Boca Chica Channel Light 1	Fl G 4s 16ft 5M "1"	N 24 32' 46.728"	W 081 43' 34.479"	24.54631	-81.72624	LNM 13/13, 7th Dist	328	11441_1	4/8/2013
11441	Change	Garrison Bight Channel Light 3	Fl G 4s 16ft 5M "3"	N 24 35' 21.867"	W 081 48' 16.049"	24.58941	-81.80446	LNM 13/13, 7th Dist	328	11441_1	4/8/2013
11469	Delete	Miami Anchorage Buoy A	Y N "A"	N 25 48' 20.702"	W 080 05' 42.532"	25.80575	-80.09515	LNM 33/17, 7th Dist	321	11469_1	Not Yet
11469	Delete	Miami Anchorage Buoy B	Y N "B"	N 25 46' 22.686"	W 080 06' 09.240"	25.77297	-80.10257	LNM 33/17, 7th Dist	321	11469_1	Not Yet
11469	Add	Anchorage Area A Point 1 of 4	Anchorage Area A 110.188 (see note A)	N 25 47' 57.687"	W 080 05' 37.225"	25.79936	-80.09367	LNM 31/17, 7th Dist	321	11469_1	8/24/2017
11469	Add	Anchorage Area A Point 2 of 4	Anchorage Area A 110.188 (see note A)	N 25 47' 57.341"	W 080 05' 26.466"	25.79926	-80.09068	LNM 31/17, 7th Dist	321	11469_1	8/24/2017
11469	Add	Anchorage Area A Point 3 of 4	Anchorage Area A 110.188 (see note A)	N 25 46' 31.443"	W 080 05' 27.069"	25.7754	-80.09085	LNM 31/17, 7th Dist	321	11469_1	8/24/2017
11469	Add	Anchorage Area A Point 4 of 4	Anchorage Area A 110.188 (see note A)	N 25 46' 31.557"	W 080 05' 37.868"	25.77543	-80.09385	LNM 31/17, 7th Dist	321	11469_1	8/24/2017
11469	Add	Anchorage Area B Point 1 of 4	Anchorage Area B 110.188 (see note A)	N 25 48' 13.841"	W 080 04' 59.155"	25.80384	-80.0831	LNM 31/17, 7th Dist	321	11469_1	8/24/2017
11469	Add	Anchorage Area B Point 2 of 4	Anchorage Area B 110.188 (see note A)	N 25 48' 04.617"	W 080 04' 04.582"	25.80128	-80.06794	LNM 31/17, 7th Dist	321	11469_1	8/24/2017
11469	Add	Anchorage Area B Point 3 of 4	Anchorage Area B 110.188 (see note A)	N 25 46' 32.712"	W 080 04' 28.387"	25.77575	-80.07455	LNM 31/17, 7th Dist	321	11469_1	8/24/2017
11469	Add	Anchorage Area B Point 4 of 4	Anchorage Area B 110.188 (see note A)	N 25 46' 43.770"	W 080 05' 02.360"	25.77883	-80.08399	LNM 31/17, 7th Dist	321	11469_1	8/24/2017
11469	Delete	Anchorage Area Point 1 of 4	Anchorage Area	N 25 48' 03.740"	W 080 04' 04.330"	25.80104	-80.06787	LNM 31/17, 7th Dist	321	11469_1	8/24/2017
11469	Delete	Anchorage Area Point 2 of 4	Anchorage Area	N 25 48' 21.130"	W 080 05' 42.590"	25.80587	-80.09516	LNM 31/17, 7th Dist	321	11469_1	8/24/2017
11469	Delete	Anchorage Area Point 3 of 4	Anchorage Area	N 25 46' 23.400"	W 080 06' 07.630"	25.77317	-80.10212	LNM 31/17, 7th Dist	321	11469_1	8/24/2017
11469	Delete	Anchorage Area Point 4 of 4	Anchorage Area	N 25 46' 02.790"	W 080 04' 11.690"	25.76744	-80.06992	LNM 31/17, 7th Dist	321	11469_1	8/24/2017
11469	Add	Channel Limits PT 1 OF 12	Chart No. 1: I20	N 26 05' 27.190"	W 080 06' 50.940"	26.09089	-80.11415	LNM 27/17, 7th Dist	321	11469_1	7/6/2017
11469	Add	Channel Limits PT 2 OF 12	Chart No. 1: I20	N 26 05' 10.380"	W 080 06' 45.750"	26.08622	-80.11271	LNM 27/17, 7th Dist	321	11469_1	7/6/2017
11469	Add	Channel Limits PT 3 OF 12	Chart No. 1: I20	N 26 04' 46.680"	W 080 06' 49.320"	26.07963	-80.1137	LNM 27/17, 7th Dist	321	11469_1	7/6/2017
11469	Add	Channel Limits PT 4 OF 12	Chart No. 1: I20	N 26 03' 53.890"	W 080 06' 50.610"	26.06497	-80.11406	LNM 27/17, 7th Dist	321	11469_1	7/6/2017
11469	Add	Channel Limits PT 5 OF 12	Chart No. 1: I20	N 26 03' 53.930"	W 080 06' 52.490"	26.06498	-80.11458	LNM 27/17, 7th Dist	321	11469_1	7/6/2017
11469	Add	Channel Limits PT 6 OF 12	Chart No. 1: I20	N 26 03' 53.970"	W 080 06' 54.710"	26.06499	-80.1152	LNM 27/17, 7th Dist	321	11469_1	7/6/2017
11469	Add	Channel Limits PT 7 OF 12	Chart No. 1: I20	N 26 04' 21.810"	W 080 06' 53.920"	26.07273	-80.11497	LNM 27/17, 7th Dist	321	11469_1	7/6/2017
11469	Add	Channel Limits PT 8 OF 12	Chart No. 1: I20	N 26 04' 21.810"	W 080 06' 54.270"	26.07273	-80.11507	LNM 27/17, 7th Dist	321	11469_1	7/6/2017
11469	Add	Channel Limits PT 9 OF 12	Chart No. 1: I20	N 26 04' 42.830"	W 080 06' 53.880"	26.07856	-80.11497	LNM 27/17, 7th Dist	321	11469_1	7/6/2017
11469	Add	Channel Limits PT 10 OF 12	Chart No. 1: I20	N 26 04' 42.830"	W 080 06' 54.490"	26.07856	-80.11514	LNM 27/17, 7th Dist	321	11469_1	7/6/2017
11469	Add	Channel Limits PT 11 OF 12	Chart No. 1: I20	N 26 05' 10.110"	W 080 06' 50.220"	26.08614	-80.11395	LNM 27/17, 7th Dist	321	11469_1	7/6/2017
11469	Add	Channel Limits PT 12 OF 12	Chart No. 1: I20	N 26 05' 24.130"	W 080 06' 54.580"	26.09004	-80.11516	LNM 27/17, 7th Dist	321	11469_1	7/6/2017
11469	Add	Channel Limits PT 1 OF 4	Chart No. 1: I20	N 26 04' 23.180"	W 080 06' 54.390"	26.0731	-80.1151	LNM 27/17, 7th Dist	321	11469_1	7/6/2017
11469	Add	Channel Limits PT 2 OF 4	Chart No. 1: I20	N 26 04' 23.090"	W 080 07' 05.340"	26.07308	-80.11815	LNM 27/17, 7th Dist	321	11469_1	7/6/2017
11469	Add	Channel Limits PT 3 OF 4	Chart No. 1: I20	N 26 04' 29.460"	W 080 07' 05.470"	26.07485	-80.11819	LNM 27/17, 7th Dist	321	11469_1	7/6/2017
11469	Add	Channel Limits PT 4 OF 4	Chart No. 1: I20	N 26 04' 29.550"	W 080 06' 54.240"	26.07487	-80.11507	LNM 27/17, 7th Dist	321	11469_1	7/6/2017
11469	Change	Depth Note - PORT EVERGLADES to:	The project depth is 42 to 45 feet. For controlling depths see chart 11470.	N 26 08' 34.000"	W 080 08' 32.000"	26.14278	-80.14222	LNM 27/17, 7th Dist	321	11469_1	7/6/2017
11469	Add	Bent Light	Fl 4s 25ft Priv	N 25 45' 11.048"	W 080 06' 28.821"	25.75307	-80.10801	LNM 13/17, 7th Dist	321	11469_1	4/13/2017
11469	Change	Minimum Size (2mm sq.) Dotted Fish Haven and Label	Obstn Fish Haven (auth min 6_4 fms), Chart No. 1 K46.2	N 25 59' 05.700"	W 080 05' 12.700"	25.98492	-80.08686	LNM 12/17, 7th Dist	321	11469_1	3/16/2017
11469	Change	Miami Main Channel Lighted Buoy 10	R "10" Fl R 2.5s	N 25 45' 34.904"	W 080 07' 16.078"	25.7597	-80.12113	LNM 04/17, 7th Dist	321	11469_1	2/2/2017
11469	Change	Miami Main Channel Lighted Buoy 12	R "12" Q R	N 25 45' 39.563"	W 080 07' 28.837"	25.76099	-80.12468	LNM 04/17, 7th Dist	321	11469_1	2/2/2017
11469	Change	Miami Main Channel Lighted Buoy 8	R "8" Q R	N 25 45' 30.958"	W 080 06' 58.262"	25.7586	-80.11618	LNM 04/17, 7th Dist	321	11469_1	2/2/2017
11469	Change	Depth Note - Miami Harbor Channel, FL to:	MIAMI HARBOR CHANNEL The project depths are 34 to 52 feet. Use chart 11468 for controlling depths.	N 25 49' 43.000"	W 080 08' 51.000"	25.82861	-80.1475	LNM 41/16, 7th Dist	321	11469_1	10/6/2016
11469	Change	Biscayne Channel Light 1	Fl G 2.5s 16ft 5M "1"	N 25 38' 41.299"	W 080 08' 02.328"	25.64481	-80.13398	LNM 36/16, 7th Dist	321	11469_1	9/15/2016
11469	Change	Biscayne Channel Light 6	Fl R 4s 12ft 5M "6"	N 25 39' 13.931"	W 080 08' 58.642"	25.65387	-80.14962	LNM 31/16, 7th Dist	321	11469_1	8/11/2016
11469	Change	Fowey Rocks Light	Fl 10s 110ft 7M RACON (___)	N 25 35' 26.249"	W 080 05' 48.242"	25.59062	-80.09673	LNM 10/16, 7th Dist	321	11469_1	3/17/2016
11469	Delete	Biscayne National Park North Lighted Buoy N	Y "N" Fl Y 2.5s	N 25 38' 44.473"	W 080 05' 22.160"	25.64569	-80.08949	LNM 06/16, 7th Dist	321	11469_1	2/18/2016
11469	Relocate	Government Cut Range Front Light	Fl G 2.5s 25ft (Night), Fl 2.5s 25ft (Day), Fl 2.5s 25ft	N 25 45' 14.860"	W 080 06' 37.760"	25.75413	-80.11049	LNM 02/16, 7th Dist	321	11469_1	1/21/2016
11469	Relocate	Government Cut Range Rear Light	Iso G 6s 50ft (Night), Iso 6s 50ft (Day)	N 25 44' 58.190"	W 080 05' 57.880"	25.7495	-80.09941	LNM 02/16, 7th Dist	321	11469_1	1/21/2016
11469	Relocate	Government Cut Range Rear Passing Light	Fl 2.5s 5M	N 25 44' 58.190"	W 080 05' 57.880"	25.7495	-80.09941	LNM 02/16, 7th Dist	321	11469_1	1/21/2016
11469	Relocate	Miami Main Channel Entrance Range Front Light	Q 25ft, Q 25ft	N 25 45' 13.220"	W 080 07' 17.810"	25.75367	-80.12161	LNM 02/16, 7th Dist	321	11469_1	1/21/2016
11469	Relocate	Miami Main Channel Entrance Range Rear Light	Iso 6s 49ft	N 25 45' 06.550"	W 080 07' 37.820"	25.75182	-80.12717	LNM 02/16, 7th Dist	321	11469_1	1/21/2016
11469	Relocate	Miami Main Channel Entrance Range Rear Passing Light	Fl 4s 5M	N 25 45' 06.550"	W 080 07' 37.820"	25.75182	-80.12717	LNM 02/16, 7th Dist	321	11469_1	1/21/2016
11469	Delete	Dotted Fish Haven PT 1 OF 4	Chart No. 1: K46.2	N 25 42' 49.680"	W 080 05' 12.010"	25.7138	-80.08667	LNM 40/15, 7th Dist	321	11469_1	10/8/2015
11469	Delete	Dotted Fish Haven PT 2 OF 4	Chart No. 1: K46.2	N 25 42' 49.490"	W 080 04' 11.730"	25.71375	-80.06992	LNM 40/15, 7th Dist	321	11469_1	10/8/2015
11469	Delete	Dotted Fish Haven PT 3 OF 4	Chart No. 1: K46.2	N 25 41' 20.690"	W 080 04' 11.430"	25.68908	-80.06984	LNM 40/15, 7th Dist	321	11469_1	10/8/2015
11469	Delete	Dotted Fish Haven PT 4 OF 4	Chart No. 1: K46.2	N 25 41' 20.500"	W 080 05' 12.200"	25.68903	-80.08672	LNM 40/15, 7th Dist	321	11469_1	10/8/2015
11469	Add	Dotted Fish Haven PT 1 OF 4	Chart No. 1: K46.2	N 25 42' 48.000"	W 080 05' 12.060"	25.71333	-80.08669	LNM 40/15, 7th Dist	321	11469_1	10/8/2015
11469	Add	Dotted Fish Haven PT 2 OF 4	Chart No. 1: K46.2	N 25 42' 47.940"	W 080 04' 11.940"	25.71332	-80.06998	LNM 40/15, 7th Dist	321	11469_1	10/8/2015
11469	Add	Dotted Fish Haven PT 3 OF 4	Chart No. 1: K46.2	N 25 41' 18.960"	W 080 04' 12.000"	25.6886	-80.07	LNM 40/15, 7th Dist	321	11469_1	10/8/2015
11469	Add	Dotted Fish Haven PT 4 OF 4	Chart No. 1: K46.2	N 25 41' 18.960"	W 080 05' 12.240"	25.6886	-80.08673	LNM 40/15, 7th Dist	321	11469_1	10/8/2015
11469	Delete	Dotted Fish Haven PT 1 OF 4	Chart No. 1: K46.2	N 25 42' 49.670"	W 080 05' 28.340"	25.7138	-80.0912	LNM 40/15, 7th Dist	321	11469_1	10/8/2015
11469	Delete	Dotted Fish Haven PT 2 OF 4	Chart No. 1: K46.2	N 25 42' 49.680"	W 080 05' 12.010"	25.7138	-80.08667	LNM 40/15, 7th Dist	321	11469_1	10/8/2015
11469	Delete	Dotted Fish Haven PT 3 OF 4	Chart No. 1: K46.2	N 25 41' 20.500"	W 080 05' 12.200"	25.68903	-80.08672	LNM 40/15, 7th Dist	321	11469_1	10/8/2015
11469	Delete	Dotted Fish Haven PT 4 OF 4	Chart No. 1: K46.2	N 25 41' 20.520"	W 080 05' 28.580"	25.68903	-80.09127	LNM 40/15, 7th Dist	321	11469_1	10/8/2015
11469	Add	Dotted Fish Haven PT 1 OF 4	Chart No. 1: K46.2	N 25 42' 48.000"	W 080 05' 30.960"	25.71333	-80.09193	LNM 40/15, 7th Dist	321	11469_1	10/8/2015
11469	Add	Dotted Fish Haven PT 2 OF 4	Chart No. 1: K46.2	N 25 42' 48.000"	W 080 05' 12.060"	25.71333	-80.08669	LNM 40/15, 7th Dist	321	11469_1	10/8/2015
11469	Add	Dotted Fish Haven PT 3 OF 4	Chart No. 1: K46.2	N 25 41' 18.960"	W 080 05' 12.240"	25.6886	-80.08673	LNM 40/15, 7th Dist	321	11469_1	10/8/2015
11469	Add	Dotted Fish Haven PT 4 OF 4	Chart No. 1: K46.2	N 25 41' 18.960"	W 080 05' 30.960"	25.6886	-80.09193	LNM 40/15, 7th Dist	321	11469_1	10/8/2015
11469	Change	Government Cut Range Front Light	Fl G 2.5s 25ft (Night) Fl 2.5s 25ft (Day) Fl 2.5s 25ft	N 25 45' 11.048"	W 080 06' 28.821"	25.75307	-80.10801	LNM 18/15, 7th Dist	321	11469_1	5/14/2015
11469	Change	Government Cut Range Rear Light	Iso G 6s 50ft (Night) Iso 6s 50ft (Day)	N 25 45' 01.289"	W 080 06' 05.360"	25.75036	-80.10149	LNM 18/15, 7th Dist	321	11469_1	5/14/2015
11469	Change	Miami Main Channel Entrance Range Front Light	Q 25ft Q 25ft	N 25 45' 06.159"	W 080 07' 38.683"	25.75171	-80.12741	LNM 18/15, 7th Dist	321	11469_1	5/14/2015
11469	Change	Miami Main Channel Entrance Range Rear Light	Iso 6s 49ft	N 25 44' 59.259"	W 080 07' 59.244"	25.74979	-80.13313	LNM 18/15, 7th Dist	321	11469_1	5/14/2015
11469	Add	Government Cut Range Rear Passing Light	Fl 2.5s 5M	N 25 45' 01.289"	W 080 06' 05.360"	25.75036	-80.10149	LNM 18/15, 7th Dist	321	11469_1	5/14/2015
11469	Add	Miami Main Channel Entrance Range Rear Passing Light	Fl 4s 5M	N 25 44' 59.259"	W 080 07' 59.244"	25.74979	-80.13313	LNM 18/15, 7th Dist	321	11469_1	5/14/2015
11469	Relocate	Government Cut Range Front Light	Fl G 2.5s 25ft (Night) Fl 2.5s 25ft (Day) Fl 2.5s 25ft	N 25 45' 11.048"	W 080 06' 28.821"	25.75307	-80.10801	LNM 18/15, 7th Dist	321	11469_1	5/14/2015
11469	Relocate	Government Cut Range Rear Light	Iso G 6s 50ft (Night) Iso 6s 50ft (Day)	N 25 45' 01.289"	W 080 06' 05.360"	25.75036	-80.10149	LNM 18/15, 7th Dist	321	11469_1	5/14/2015
11469	Relocate	Miami Main Channel Entrance Range Front Light	Q 25ft Q 25ft	N 25 45' 06.159"	W 080 07' 38.683"	25.75171	-80.12741	LNM 18/15, 7th Dist	321	11469_1	5/14/2015
11469	Relocate	Miami Main Channel Entrance Range Rear Light	Iso 6s 49ft	N 25 44' 59.259"	W 080 07' 59.244"	25.74979	-80.13313	LNM 18/15, 7th Dist	321	11469_1	5/14/2015
11469	Add	Miami Lighted Buoy M Magenta Circle	RW "M" Mo (A) RACON (--) AIS	N 25 46' 05.916"	W 080 04' 59.936"	25.76831	-80.08331	LNM 08/15, 7th Dist	321	11469_1	3/5/2015
11469	Add	Port Everglades Lighted Buoy PE Magenta Circle	RW "PE" Mo (A) RACON (-) AIS	N 26 05' 30.288"	W 080 04' 45.871"	26.09175	-80.07941	LNM 08/15, 7th Dist	321	11469_1	3/5/2015
11469	Add	Miami Main Channel Lighted Buoy 4 Magenta Circle	R "4" Q R AIS	N 25 45' 33.944"	W 080 06' 23.240"	25.75943	-80.10645	LNM 08/15, 7th Dist	321	11469_1	3/5/2015
11469	Add	Port Everglades Entrance Range Front Light Magenta Circle	F G 85ft AIS	N 26 05' 36.709"	W 080 07' 26.371"	26.09353	-80.12399	LNM 08/15, 7th Dist	321	11469_1	3/5/2015
11469	Add	Port Everglades Entrance Range Rear Light Magenta Circle	RWG 133ft (Directional) (see note) AIS	N 26 05' 36.501"	W 080 07' 56.793"	26.09347	-80.13245	LNM 08/15, 7th Dist	321	11469_1	3/5/2015
11469	Delete	Biscayne Channel Light	Fl 4s 37ft 6M	N 25 38' 20.373"	W 080 07' 52.645"	25.63899	-80.13129	LNM 32/14, 7th Dist	321	11469_1	8/21/2014
11469	Change	Dotted Fish Haven Label	Obstns Fish Haven (auth min 1 fm)	N 26 11' 11.700"	W 080 05' 33.800"	26.18658	-80.09272	LNM 30/14, 7th Dist	321	11469_1	7/31/2014
11469	Delete	Sounding in Fathoms and Feet	1 fm 4 ft	N 26 11' 16.000"	W 080 05' 37.800"	26.18778	-80.09383	LNM 30/14, 7th Dist	321	11469_1	7/31/2014
11469	Relocate	Miami Main Channel Lighted Buoy 4	R "4" Q R	N 25 45' 33.944"	W 080 06' 23.240"	25.75943	-80.10645	LNM 26/14, 7th Dist	321	11469_1	7/17/2014
11469	Relocate	Miami Main Channel Lighted Buoy 7	G "7" Q G	N 25 45' 18.790"	W 080 06' 53.005"	25.75522	-80.11472	LNM 26/14, 7th Dist	321	11469_1	7/17/2014
11469	Relocate	Miami Main Channel Lighted Buoy 9	G "9" Fl G 2.5s	N 25 45' 26.795"	W 080 07' 12.017"	25.75744	-80.12	LNM 26/14, 7th Dist	321	11469_1	7/17/2014
11469	Relocate	Hillsboro Inlet Entrance Light 1	Fl G 4s 16ft 5M "1"	N 26 15' 16.986"	W 080 04' 46.918"	26.25472	-80.0797	LNM 11/13, 7th Dist	321	11469_1	4/2/2013
11469	Delete	Dotted Fish Haven	Chart No. 1: K46.2	N 26 06' 50.000"	W 080 04' 16.000"	26.11389	-80.07111	LNM 09/13, 7th Dist	321	11469_1	2/21/2013
11469	Change	Hillsboro Inlet Entrance Light 4	Fl R 4s 16ft 5M "4"	N 26 15' 25.012"	W 080 04' 48.760"	26.25695	-80.08021	LNM 45/12, 7th Dist	321	11469_1	12/12/2012
11469	Relocate	Miami Main Channel Lighted Buoy 9	G "9" Fl G 2.5s	N 25 45' 26.795"	W 080 07' 12.017"	25.75744	-80.12	LNM 03/12, 7th Dist	321	11469_1	1/30/2012
11469	Change	Hillsboro Inlet Entrance Light 1	Fl G 4s 16ft 5M "1"	N 26 15' 17.167"	W 080 04' 45.724"	26.25477	-80.07937	LNM 38/11, 7th Dist	321	11469_1	10/7/2011
11469	Change	Hillsboro Inlet Entrance Light 2	Fl R 2.5s 16ft 5M "2"	N 26 15' 23.005"	W 080 04' 43.942"	26.25639	-80.07887	LNM 38/11, 7th Dist	321	11469_1	10/7/2011
11469	Change	Biscayne Channel Light 3	Fl G 4s 12ft 5M "3"	N 25 39' 04.061"	W 080 08' 39.882"	25.65113	-80.14441	LNM 31/11, 7th Dist	321	11469_1	8/17/2011
11406	Change	tabulation -  ST. MARKS RIVER	tabulation -  ST. MARKS RIVER	N 30 06' 37.000"	W 084 10' 53.000"	30.11028	-84.18139	LNM 29/17, 8th Dist	147	11406_2	7/13/2017
11406	Change	tabulation - ST. MARKS RIVER	tabulation - ST. MARKS RIVER	N 30 06' 37.000"	W 084 10' 53.000"	30.11028	-84.18139	LNM 19/16, 7th Dist	147	11406_2	5/19/2016
11434	Delete	Fort Jefferson Buoy D	Y C "D"	N 24 36' 30.000"	W 082 58' 00.000"	24.60833	-82.96667	LNM 28/17, 7th Dist	373	11434_1	7/20/2017
11434	Delete	Fort Jefferson Buoy Q	Y C "Q"	N 24 35' 00.000"	W 082 52' 00.000"	24.58333	-82.86667	LNM 28/17, 7th Dist	373	11434_1	7/20/2017
11434	Delete	Fort Jefferson Lighted Buoy E	Y "E" Fl Y 6s	N 24 39' 00.000"	W 082 58' 00.000"	24.65	-82.96667	LNM 28/17, 7th Dist	373	11434_1	7/20/2017
11434	Delete	Fort Jefferson Buoy K 	Y "K" Fl Y 6s	N 24 43' 31.922"	W 082 47' 59.897"	24.72553	-82.79997	LNM 28/17, 7th Dist	373	11434_1	7/20/2017
11434	Delete	Fort Jefferson Lighted Buoy C	Y "C" Fl Y 4s	N 24 34' 00.000"	W 082 58' 00.000"	24.56667	-82.96667	LNM 23/17, 7th Dist	373	11434_1	6/22/2017
11434	Add	Obstruction in Fathoms	3 Obstn       Chart No. 1: K41	N 24 27' 29.900"	W 081 52' 06.000"	24.45831	-81.86833	LNM 12/17, 7th Dist	373	11434_1	3/16/2017
11434	Delete	Dry Tortugas Light	Fl 20s 151ft 20M RACON (_._)	N 24 38' 00.021"	W 082 55' 13.958"	24.63334	-82.92055	LNM 38/15, 7th Dist	373	11434_1	9/24/2015
11434	Add	Abandoned Light House	TOWER (ABAND LT HO)	N 24 38' 00.021"	W 082 55' 13.958"	24.63334	-82.92055	LNM 38/15, 7th Dist	373	11434_1	9/24/2015
11434	Delete	American Shoal Light	Fl (3) 15s 109ft 10M RACON (_-__)	N 24 31' 30.422"	W 081 31' 09.898"	24.52512	-81.51942	LNM 36/15, 7th Dist	373	11434_1	9/17/2015
11434	Add	Abandoned Light House	TOWER (ABAND LT HO)	N 24 31' 30.422"	W 081 31' 09.898"	24.52512	-81.51942	LNM 36/15, 7th Dist	373	11434_1	9/17/2015
11434	Add	American Shoal Light	Fl (4) 60s 19ft 7M	N 24 31' 32.493"	W 081 31' 02.576"	24.52569	-81.51738	LNM 36/15, 7th Dist	373	11434_1	9/17/2015
11434	Relocate	Sombrero Key Light	Fl (5) 60s 19ft 7M	N 24 37' 39.900"	W 081 06' 30.841"	24.62775	-81.10857	LNM 33/15, 7th Dist	373	11434_1	8/20/2015
11434	Delete	Sombrero Key Light	Fl (5) 60s 142ft 12M RACON (__)	N 24 37' 40.240"	W 081 06' 38.927"	24.62784	-81.11081	LNM 31/15, 7th Dist	373	11434_1	8/13/2015
11434	Add	Abandoned Light House	TOWER (ABAND LT HO)	N 24 37' 40.240"	W 081 06' 38.927"	24.62784	-81.11081	LNM 31/15, 7th Dist	373	11434_1	8/13/2015
11434	Add	Sombrero Key Light	Fl (5) 60s 19ft 7M	N 24 37' 40.080"	W 081 06' 31.260"	24.6278	-81.10868	LNM 31/15, 7th Dist	373	11434_1	8/13/2015
11434	Delete	Coalbin Rock Buoy CB	RG N "CB"	N 24 27' 03.518"	W 082 05' 17.751"	24.45098	-82.08826	LNM 29/15, 7th Dist	373	11434_1	7/30/2015
11434	Delete	Marquesas Rock Buoy MR	RG N "MR"	N 24 27' 29.751"	W 082 12' 27.962"	24.45826	-82.20776	LNM 29/15, 7th Dist	373	11434_1	7/30/2015
11434	Delete	Key West Southwest Channel Lighted Buoy SW	RW "SW" Mo (A)	N 24 26' 38.547"	W 081 58' 47.341"	24.44404	-81.97982	LNM 29/15, 7th Dist	373	11434_1	7/30/2015
11434	Change	Stock Island Approach Channel Light 32	Fl R 2.5s 19ft 5M "32"	N 24 28' 28.951"	W 081 44' 31.725"	24.47471	-81.74215	LNM 22/15, 7th Dist	373	11434_1	6/4/2015
11434	Add	Key West Entrance Lighted Whistle Buoy KW Magenta Circle	RW "KW" Mo (A) WHISTLE AIS	N 24 27' 25.815"	W 081 47' 59.974"	24.45717	-81.8	LNM 08/15, 7th Dist	373	11434_1	3/5/2015
11434	Add	Pulaski Shoal Light Magenta Circle	Fl 6s 56ft 9M AIS	N 24 41' 36.021"	W 082 46' 22.786"	24.69334	-82.77299	LNM 08/15, 7th Dist	373	11434_1	3/5/2015
11434	Relocate	Fort Jefferson Buoy N	Y N "N"	N 24 38' 14.782"	W 082 47' 11.722"	24.63744	-82.78659	LNM 46/14, 7th Dist	373	11434_1	11/27/2014
11434	Delete	Rebecca Shoal Light	Fl 6s 66ft 6M	N 24 34' 44.484"	W 082 35' 06.776"	24.57902	-82.58521	LNM 31/14, 7th Dist	373	11434_1	8/14/2014
11434	Add	Abandoned Light House	TOWER (ABAND LT HO)	N 24 34' 44.484"	W 082 35' 06.776"	24.57902	-82.58521	LNM 31/14, 7th Dist	373	11434_1	8/14/2014
11434	Delete	Visible Wreck	Masts PA	N 24 32' 24.000"	W 082 01' 04.200"	24.54	-82.01783	LNM 30/14, 7th Dist	373	11434_1	8/7/2014
11434	Add	Visible Wreck	Masts PA	N 24 32' 14.400"	W 082 01' 04.200"	24.53733	-82.01783	LNM 30/14, 7th Dist	373	11434_1	8/7/2014
11434	Change	Big Pine Shoal Light 22	Q R 18ft 4M "22"	N 24 34' 06.078"	W 081 19' 32.338"	24.56836	-81.32565	LNM 29/14, 7th Dist	373	11434_1	7/24/2014
11434	Add	Visible Wreck	Masts PA	N 24 32' 24.000"	W 082 01' 04.200"	24.54	-82.01783	LNM 29/14, 7th Dist	373	11434_1	7/24/2014
11434	Delete	Sand Key Light	Fl (2) 15s 109ft 11M RACON (_.)	N 24 27' 20.941"	W 081 52' 38.313"	24.45582	-81.87731	LNM 26/14, 7th Dist	373	11434_1	7/17/2014
11434	Add	Abandoned Light House	TOWER (ABAND LT HO)	N 24 27' 20.941"	W 081 52' 38.313"	24.45582	-81.87731	LNM 26/14, 7th Dist	373	11434_1	7/17/2014
11434	Add	Sand Key Light	Fl (2) 15s 40ft 13M	N 24 27' 20.941"	W 081 52' 38.313"	24.45582	-81.87731	LNM 26/14, 7th Dist	373	11434_1	7/17/2014
11434	Add	Rebecca Shoal Lighted Buoy 4	R "4" Fl R 6s	N 24 34' 43.607"	W 082 35' 26.713"	24.57878	-82.59075	LNM 26/14, 7th Dist	373	11434_1	7/17/2014
11434	Change	New Ground Rocks Light	Fl 4s 19ft 4M	N 24 39' 59.758"	W 082 26' 38.975"	24.6666	-82.44416	LNM 09/14, 7th Dist	373	11434_1	3/13/2014
11434	Change	Dry Tortugas Southeast Channel Light 1	Fl G 2.5s 19ft 5M "1"	N 24 35' 37.100"	W 082 52' 25.470"	24.59364	-82.87374	LNM 09/14, 7th Dist	373	11434_1	3/13/2014
11434	Relocate	Big Pine Shoal Light 22	Q R 18ft 6M "22"	N 24 34' 06.078"	W 081 19' 32.338"	24.56836	-81.32565	LNM 33/13, 7th Dist	373	11434_1	8/22/2013
11490	Add	Submarine Cable  PT 1 OF 8	Chart No. 1: L30.1	N 30 22' 19.980"	W 081 17' 02.900"	30.37222	-81.28414	LNM 25/17, 7th Dist	259	11490_1	6/15/2017
11490	Add	Submarine Cable  PT 2 OF 8	Chart No. 1: L30.1	N 30 22' 07.180"	W 081 16' 16.970"	30.36866	-81.27138	LNM 25/17, 7th Dist	259	11490_1	6/15/2017
11490	Add	Submarine Cable  PT 3 OF 8	Chart No. 1: L30.1	N 30 21' 17.640"	W 081 11' 37.350"	30.3549	-81.19371	LNM 25/17, 7th Dist	259	11490_1	6/15/2017
11490	Add	Submarine Cable  PT 4 OF 8	Chart No. 1: L30.1	N 30 21' 02.570"	W 081 10' 40.270"	30.35071	-81.17786	LNM 25/17, 7th Dist	259	11490_1	6/15/2017
11490	Add	Submarine Cable  PT 5 OF 8	Chart No. 1: L30.1	N 30 20' 41.130"	W 081 08' 41.170"	30.34476	-81.14477	LNM 25/17, 7th Dist	259	11490_1	6/15/2017
11490	Add	Submarine Cable  PT 6 OF 8	Chart No. 1: L30.1	N 30 20' 34.280"	W 081 07' 45.720"	30.34286	-81.12936	LNM 25/17, 7th Dist	259	11490_1	6/15/2017
11490	Add	Submarine Cable  PT 7 OF 8	Chart No. 1: L30.1	N 30 20' 34.600"	W 081 07' 33.930"	30.34295	-81.12609	LNM 25/17, 7th Dist	259	11490_1	6/15/2017
11490	Change	tabulation - ST. JOHNS RIVER CHANNEL DEPTHS	tabulation - ST. JOHNS RIVER CHANNEL DEPTHS	N 30 25' 20.000"	W 081 20' 09.000"	30.42222	-81.33583	LNM 25/17, 7th Dist	258	11490_2	6/15/2017
11490	Delete	Nassau Sound Approach Buoy 6A	R N "6A" AIS	N 30 29' 23.952"	W 081 22' 50.791"	30.48999	-81.38078	LNM 14/17, 7th Dist	259	11490_1	4/13/2017
11490	Change	tabulation - ST. JOHNS RIVER CHANNEL DEPTHS	tabulation - ST. JOHNS RIVER CHANNEL DEPTHS	N 30 25' 20.000"	W 081 20' 09.000"	30.42222	-81.33583	LNM 08/17, 7th Dist	258	11490_2	2/16/2017
11490	Relocate	Mayport Basin Channel Lighted Buoy 4	R "4" Fl R 4s	N 30 23' 49.462"	W 081 24' 08.458"	30.39707	-81.40235	LNM 50/15, 7th Dist	258	11490_2	12/24/2015
11490	Add	Depth Note - Mayport to:	Dump Site (dredged material) (see note S) Depths from survey of 2007-2008	N 30 19' 29.900"	W 081 17' 45.000"	30.32497	-81.29583	LNM 47/15, 7th Dist	259	11490_1	11/19/2015
11490	Delete	Dump Site	dump site, (use Chart No. 1: N1.1)	N 30 21' 00.800"	W 081 17' 59.700"	30.35022	-81.29992	LNM 47/15, 7th Dist	259	11490_1	11/19/2015
11490	Add	Dump Site PT 1 OF 6	dump site, (use Chart No. 1: N1.1)	N 30 21' 30.840"	W 081 18' 33.300"	30.35857	-81.30925	LNM 47/15, 7th Dist	259	11490_1	11/19/2015
11490	Add	Dump Site PT 2 OF 6	dump site, (use Chart No. 1: N1.1)	N 30 21' 30.840"	W 081 17' 25.320"	30.35857	-81.29037	LNM 47/15, 7th Dist	259	11490_1	11/19/2015
11490	Add	Dump Site PT 3 OF 6	dump site, (use Chart No. 1: N1.1)	N 30 20' 30.900"	W 081 17' 25.320"	30.34192	-81.29037	LNM 47/15, 7th Dist	259	11490_1	11/19/2015
11490	Add	Dump Site PT 4 OF 6	dump site, (use Chart No. 1: N1.1)	N 30 20' 30.900"	W 081 17' 00.720"	30.34192	-81.28353	LNM 47/15, 7th Dist	259	11490_1	11/19/2015
11490	Add	Dump Site PT 5 OF 6	dump site, (use Chart No. 1: N1.1)	N 30 17' 49.740"	W 081 17' 00.720"	30.29715	-81.28353	LNM 47/15, 7th Dist	259	11490_1	11/19/2015
11490	Add	Dump Site PT 6 OF 6	dump site, (use Chart No. 1: N1.1)	N 30 17' 49.740"	W 081 18' 33.300"	30.29715	-81.30925	LNM 47/15, 7th Dist	259	11490_1	11/19/2015
11490	Delete	Depth Note - Mayport to:	Dump Site (dredged material) (see note S) Depths from survey of 2007-2008	N 30 21' 00.800"	W 081 17' 59.700"	30.35022	-81.29992	LNM 47/15, 7th Dist	259	11490_1	11/19/2015
11490	Add	Submarine Cable  PT 1 OF 7	Chart No. 1: L30.1	N 30 23' 28.430"	W 081 23' 39.420"	30.39123	-81.39429	LNM 43/15, 7th Dist	258	11490_2	10/22/2015
11490	Add	Submarine Cable  PT 2 OF 7	Chart No. 1: L30.1	N 30 23' 22.040"	W 081 23' 00.850"	30.38946	-81.38357	LNM 43/15, 7th Dist	258	11490_2	10/22/2015
11490	Add	Submarine Cable  PT 3 OF 7	Chart No. 1: L30.1	N 30 23' 22.700"	W 081 22' 29.250"	30.38964	-81.37479	LNM 43/15, 7th Dist	258	11490_2	10/22/2015
11490	Add	Submarine Cable  PT 4 OF 7	Chart No. 1: L30.1	N 30 23' 21.480"	W 081 22' 05.970"	30.3893	-81.36832	LNM 43/15, 7th Dist	258	11490_2	10/22/2015
11490	Add	Submarine Cable  PT 5 OF 7	Chart No. 1: L30.1	N 30 23' 15.170"	W 081 21' 31.510"	30.38755	-81.35875	LNM 43/15, 7th Dist	258	11490_2	10/22/2015
11490	Add	Submarine Cable  PT 6 OF 7	Chart No. 1: L30.1	N 30 23' 02.790"	W 081 20' 49.150"	30.38411	-81.34698	LNM 43/15, 7th Dist	258	11490_2	10/22/2015
11490	Add	Submarine Cable  PT 1 OF 7	Chart No. 1: L30.1	N 30 23' 28.430"	W 081 23' 39.420"	30.39123	-81.39429	LNM 43/15, 7th Dist	259	11490_1	10/22/2015
11490	Add	Submarine Cable  PT 7 OF 7	Chart No. 1: L30.1	N 30 22' 19.980"	W 081 17' 02.900"	30.37222	-81.28414	LNM 43/15, 7th Dist	259	11490_1	10/22/2015
11490	Add	Submarine Cable  PT 6 OF 7	Chart No. 1: L30.1	N 30 23' 02.790"	W 081 20' 49.150"	30.38411	-81.34698	LNM 43/15, 7th Dist	259	11490_1	10/22/2015
11490	Add	Submarine Cable  PT 5 OF 7	Chart No. 1: L30.1	N 30 23' 15.170"	W 081 21' 31.510"	30.38755	-81.35875	LNM 43/15, 7th Dist	259	11490_1	10/22/2015
11490	Add	Submarine Cable  PT 4 OF 7	Chart No. 1: L30.1	N 30 23' 21.480"	W 081 22' 05.970"	30.3893	-81.36832	LNM 43/15, 7th Dist	259	11490_1	10/22/2015
11490	Add	Submarine Cable  PT 3 OF 7	Chart No. 1: L30.1	N 30 23' 22.700"	W 081 22' 29.250"	30.38964	-81.37479	LNM 43/15, 7th Dist	259	11490_1	10/22/2015
11490	Add	Submarine Cable  PT 2 OF 7	Chart No. 1: L30.1	N 30 23' 22.040"	W 081 23' 00.850"	30.38946	-81.38357	LNM 43/15, 7th Dist	259	11490_1	10/22/2015
11490	Add	Submarine Cable  PT 7 OF 7	Chart No. 1: L30.1	N 30 22' 52.910"	W 081 20' 05.710"	30.38136	-81.33492	LNM 43/15, 7th Dist	258	11490_2	10/22/2015
11490	Change	tabulation - ST. JOHNS RIVER CHANNEL DEPTHS	tabulation - ST. JOHNS RIVER CHANNEL DEPTHS	N 30 25' 20.000"	W 081 20' 09.000"	30.42222	-81.33583	LNM 29/15, 7th Dist	258	11490_2	7/16/2015
11490	Change	tabulation - ST. JOHNS RIVER CHANNEL DEPTHS	tabulation - ST. JOHNS RIVER CHANNEL DEPTHS	N 30 25' 20.000"	W 081 20' 09.000"	30.42222	-81.33583	LNM 29/15, 7th Dist	258	11490_2	7/16/2015
11490	Add	Nassau Sound Approach Buoy 6A Magenta Circle	R N "6A" AIS	N 30 29' 23.952"	W 081 22' 50.791"	30.48999	-81.38078	LNM 08/15, 7th Dist	259	11490_1	3/5/2015
11490	Add	St Johns Lighted Buoy STJ Magenta Circle	RW "STJ" Mo (A) AIS	N 30 23' 35.368"	W 081 19' 08.398"	30.39316	-81.319	LNM 08/15, 7th Dist	259	11490_1	3/5/2015
11490	Add	St Johns River Lighted Buoy 5 Magenta Circle	G "5" Q G AIS	N 30 23' 47.535"	W 081 22' 25.935"	30.39654	-81.37387	LNM 08/15, 7th Dist	258	11490_2	3/5/2015
11490	Add	St Johns River Lighted Buoy 5 Magenta Circle	G "5" Q G AIS	N 30 23' 47.535"	W 081 22' 25.935"	30.39654	-81.37387	LNM 08/15, 7th Dist	259	11490_1	3/5/2015
11475	Change	Depth Legend - Turning Basin, Fort Pierce Harbor to:	16 FT NOV 2016	N 27 27' 38.000"	W 080 19' 15.000"	27.46056	-80.32083	LNM 32/17, 7th Dist	290	11475_1	8/3/2017
11475	Delete	Sounding in Feet	17	N 27 27' 37.970"	W 080 19' 08.260"	27.46055	-80.31896	LNM 32/17, 7th Dist	290	11475_1	8/3/2017
11475	Delete	Sounding in Feet	14	N 27 27' 30.120"	W 080 19' 13.120"	27.45837	-80.32031	LNM 32/17, 7th Dist	290	11475_1	8/3/2017
11475	Delete	Sounding in Feet	14	N 27 27' 31.810"	W 080 19' 12.030"	27.45884	-80.32001	LNM 32/17, 7th Dist	290	11475_1	8/3/2017
11475	Delete	Sounding in Feet	11	N 27 27' 33.540"	W 080 19' 10.510"	27.45932	-80.31959	LNM 32/17, 7th Dist	290	11475_1	8/3/2017
11475	Delete	Sounding in Feet	14	N 27 27' 35.860"	W 080 19' 09.000"	27.45996	-80.31917	LNM 32/17, 7th Dist	290	11475_1	8/3/2017
11475	Change	tabulation - Fort Pierce Harbor	tabulation - Fort Pierce Harbor	N 27 28' 07.000"	W 080 20' 11.000"	27.46861	-80.33639	LNM 32/17, 7th Dist	290	11475_1	8/3/2017
11475	Add	Shoaling reported	Shoaling rep to 4ft PA	N 27 27' 21.246"	W 080 19' 03.408"	27.4559	-80.31761	LNM 18/16, 7th Dist	290	11475_1	5/12/2016
11475	Add	Causeway Cove Daybeacon 2	R "2" Priv	N 27 27' 21.760"	W 080 18' 48.520"	27.45605	-80.31348	LNM 35/15, 7th Dist	290	11475_1	9/10/2015
11475	Add	Causeway Cove North Shoal Daybeacon A	W "A" Priv	N 27 27' 23.130"	W 080 18' 46.350"	27.45642	-80.31287	LNM 35/15, 7th Dist	290	11475_1	9/10/2015
11475	Add	Causeway Cove North Shoal Daybeacon B	W "B" Priv	N 27 27' 24.180"	W 080 18' 43.700"	27.45672	-80.31214	LNM 35/15, 7th Dist	290	11475_1	9/10/2015
11475	Add	Causeway Cove North Shoal Daybeacon C	W "C" Priv	N 27 27' 24.770"	W 080 18' 40.120"	27.45688	-80.31114	LNM 35/15, 7th Dist	290	11475_1	9/10/2015
11475	Add	Causeway Cove South Shoal Daybeacon A	W "A" Priv	N 27 27' 27.750"	W 080 18' 45.940"	27.45771	-80.31276	LNM 35/15, 7th Dist	290	11475_1	9/10/2015
11475	Add	Causeway Cove South Shoal Daybeacon B	W "B" Priv	N 27 27' 22.470"	W 080 18' 42.720"	27.45624	-80.31187	LNM 35/15, 7th Dist	290	11475_1	9/10/2015
11475	Add	Causeway Cove South Shoal Daybeacon C	W "C" Priv	N 27 27' 22.590"	W 080 18' 39.160"	27.45628	-80.31087	LNM 35/15, 7th Dist	290	11475_1	9/10/2015
11475	Add	Fort Pierce Inlet Lighted Buoy 5 Magenta Circle	G "5" Fl G 4s AIS	N 27 28' 19.940"	W 080 17' 00.440"	27.47221	-80.28345	LNM 08/15, 7th Dist	290	11475_1	3/5/2015
11475	Add	Fort Pierce Inlet Lighted Buoy 6 Magenta Circle	R "6" Fl R 4s AIS	N 27 28' 24.591"	W 080 16' 55.743"	27.4735	-80.28215	LNM 08/15, 7th Dist	290	11475_1	3/5/2015
11475	Delete	Sounding in Feet	8	N 27 27' 59.300"	W 080 19' 44.500"	27.46647	-80.32903	LNM 16/14, 7th Dist	290	11475_1	4/17/2014
11475	Delete	Sounding in Feet	9	N 27 28' 01.100"	W 080 19' 33.200"	27.46697	-80.32589	LNM 16/14, 7th Dist	290	11475_1	4/17/2014
11475	Change	Depth Legend - TAYLOR CREEK 	7 FEET 2007-2013	N 27 27' 59.700"	W 080 19' 36.300"	27.46658	-80.32675	LNM 16/14, 7th Dist	290	11475_1	4/17/2014
11475	Add	Obstruction in Feet	6 Obstn       Chart No. 1: K41	N 27 28' 02.540"	W 080 19' 21.430"	27.46737	-80.32262	LNM 16/14, 7th Dist	290	11475_1	4/17/2014
11475	Change	Depth Legend - TAYLOR CREEK 	7 FT 2007-2013	N 27 27' 59.700"	W 080 19' 36.300"	27.46658	-80.32675	LNM 16/14, 7th Dist	290	11475_1	4/17/2014
11475	Change	Indian River (South Section) Light 187	Fl G 4s 16ft 5M "187"	N 27 27' 48.225"	W 080 19' 11.357"	27.4634	-80.31982	LNM 02/14, 7th Dist	290	11475_1	1/30/2014
11475	Relocate	Indian River (South Section) Light 187	Fl G 4s 16ft 4M "187"	N 27 27' 48.225"	W 080 19' 11.357"	27.4634	-80.31982	LNM 33/13, 7th Dist	290	11475_1	8/22/2013
11475	Change	tabulation - Fort Pierce Harbor	tabulation - Fort Pierce Harbor	N 27 28' 07.000"	W 080 20' 11.000"	27.46861	-80.33639	LNM 34/13, 7th Dist	290	11475_1	8/14/2013
11475	Change	Fort Pierce Inlet Turning Basin Lighted Buoy B	Y "B" Fl Y 6s	N 27 27' 28.884"	W 080 19' 14.094"	27.45802	-80.32058	LNM 16/13, 7th Dist	290	11475_1	4/30/2013
11475	Delete	Fort Pierce City Marina Channel Daybeacon 3	G "3"	N 27 27' 23.700"	W 080 19' 06.420"	27.45658	-80.31845	LNM 07/13, 7th Dist	290	11475_1	3/5/2013
11475	Delete	Fort Pierce City Marina Channel Daybeacon 4	R "4"	N 27 27' 24.840"	W 080 19' 07.500"	27.4569	-80.31875	LNM 07/13, 7th Dist	290	11475_1	3/5/2013
11475	Delete	Fort Pierce City Marina Channel Junction Daybeacon	GR Bn	N 27 27' 22.920"	W 080 19' 07.020"	27.45637	-80.31862	LNM 07/13, 7th Dist	290	11475_1	3/5/2013
11475	Change	tabulation - Fort Pierce Harbor	tabulation - Fort Pierce Harbor	N 27 28' 07.000"	W 080 20' 11.000"	27.46861	-80.33639	LNM 22/12, 7th Dist	290	11475_1	5/30/2012
11475	Change	Depth Legend - Fort Pierce Harbor, Turning Basin	20 FT JAN 2011	N 27 27' 38.000"	W 080 19' 15.000"	27.46056	-80.32083	LNM 20/12, 7th Dist	290	11475_1	5/9/2012
11475	Change	Fort Pierce Inlet Inner Harbor Light 16	Q R 12ft 4M "16"	N 27 27' 42.727"	W 080 19' 05.843"	27.46187	-80.31829	LNM 45/11, 7th Dist	290	11475_1	11/29/2011
11475	Change	Fort Pierce Inlet Inner Harbor Light 17	Q G 16ft 4M "17"	N 27 27' 38.375"	W 080 19' 04.886"	27.46066	-80.31802	LNM 45/11, 7th Dist	290	11475_1	11/29/2011
11475	Add	Fort Pierce Inlet Turning Basin Lighted Buoy B	Y "B" Fl Y 4s	N 27 27' 28.884"	W 080 19' 14.094"	27.45802	-80.32058	LNM 38/11, 7th Dist	290	11475_1	10/7/2011
11475	Delete	Fort Pierce Inlet Turning Basin Lighted Buoy A	Y "A" Fl Y 4s	N 27 27' 28.900"	W 080 19' 14.100"	27.45803	-80.32058	LNM 38/11, 7th Dist	290	11475_1	10/7/2011
11475	Change	Fort Pierce Inlet Harbor Light 16	Q R 12ft 5M "16"	N 27 27' 42.727"	W 080 19' 05.843"	27.46187	-80.31829	LNM 13/11, 7th Dist	290	11475_1	4/6/2011
11475	Change	Fort Pierce Inlet Harbor Light 17	Q G 16ft 5M "17"	N 27 27' 38.375"	W 080 19' 04.886"	27.46066	-80.31802	LNM 13/11, 7th Dist	290	11475_1	4/6/2011
11475	Relocate	Fort Pierce Inlet Entrance RF Light	Q G 15ft	N 27 28' 09.743"	W 080 18' 12.363"	27.46937	-80.30344	LNM 10/11, 7th Dist	290	11475_1	3/16/2011
11475	Relocate	Fort Pierce Inlet Entrance RR Light	Iso G 6s 50ft	N 27 28' 02.771"	W 080 18' 54.789"	27.46744	-80.31522	LNM 10/11, 7th Dist	290	11475_1	3/16/2011
11475	Relocate	Fort Pierce Inlet Inner Hbr Outbound RR Light	Iso G 6s 32ft	N 27 28' 19.961"	W 080 17' 41.874"	27.47221	-80.29497	LNM 10/11, 7th Dist	290	11475_1	3/16/2011
11475	Change	Fort Pierce Inlet Entrance RF Light	Q G 18ft	N 27 28' 09.743"	W 080 18' 12.363"	27.46937	-80.30344	LNM 10/11, 7th Dist	290	11475_1	3/16/2011
11475	Change	Fort Pierce Inlet Inner Hbr Outbound RR Light	Iso G 6s 38ft	N 27 28' 19.961"	W 080 17' 41.874"	27.47221	-80.29497	LNM 10/11, 7th Dist	290	11475_1	3/16/2011
11475	Change	Submerged Pile label	Subm Pile	N 27 27' 36.000"	W 080 19' 05.000"	27.46	-80.31805	LNM 09/10, 7th Dist	290	11475_1	3/4/2010
11475	Delete	Visible Wreck	PA     Chart No. 1: K24	N 27 27' 23.000"	W 080 19' 26.600"	27.45639	-80.32406	LNM 09/10, 7th Dist	290	11475_1	3/4/2010
11475	Add	Dangerous Wreck	ED      Chart No. 1: K28	N 27 27' 23.000"	W 080 19' 26.600"	27.45639	-80.32406	LNM 09/10, 7th Dist	290	11475_1	3/4/2010
11475	Change	Fort Pierce Inlet Harbor LB 9	G "9" Q G	N 27 28' 12.102"	W 080 17' 50.111"	27.47003	-80.29726	LNM 04/10, 7th Dist	290	11475_1	2/3/2010
11475	Relocate	Fort Pierce Inlet Lighted Buoy 4	R "4" Fl R 2.5s	N 27 28' 31.777"	W 080 16' 13.040"	27.47549	-80.27029	LNM 03/10, 7th Dist	290	11475_1	1/28/2010
11475	Relocate	Fort Pierce Inlet Lighted Buoy 5	G "5" Fl G 4s	N 27 28' 19.940"	W 080 17' 00.440"	27.47221	-80.28345	LNM 03/10, 7th Dist	290	11475_1	1/28/2010
11475	Relocate	Fort Pierce Inlet Lighted Buoy 6	R "6" Fl R 4s	N 27 28' 24.591"	W 080 16' 55.743"	27.4735	-80.28215	LNM 03/10, 7th Dist	290	11475_1	1/28/2010
11475	Delete	Pier in Ruins PT 1 OF 2	Ruins     Chart No. 1: F33.1 \ F33.2	N 27 27' 01.450"	W 080 19' 18.500"	27.4504	-80.32181	LNM 48/09, 7th Dist	290	11475_1	12/3/2009
11475	Delete	Pier in Ruins PT 2 OF 2	Ruins     Chart No. 1: F33.1 \ F33.2	N 27 27' 02.600"	W 080 19' 13.450"	27.45072	-80.3204	LNM 48/09, 7th Dist	290	11475_1	12/3/2009
11475	Delete	Pier in Ruins PT 1 OF 4	Ruins     Chart No. 1: F33.1 \ F33.2	N 27 27' 05.500"	W 080 19' 20.350"	27.45153	-80.32232	LNM 48/09, 7th Dist	290	11475_1	12/3/2009
11475	Delete	Pier in Ruins PT 2 OF 4	Ruins     Chart No. 1: F33.1 \ F33.2	N 27 27' 05.700"	W 080 19' 19.950"	27.45158	-80.3222	LNM 48/09, 7th Dist	290	11475_1	12/3/2009
11475	Delete	Pier in Ruins PT 3 OF 4	Ruins     Chart No. 1: F33.1 \ F33.2	N 27 27' 06.300"	W 080 19' 17.950"	27.45175	-80.32166	LNM 48/09, 7th Dist	290	11475_1	12/3/2009
11475	Delete	Pier in Ruins PT 4 OF 4	Ruins     Chart No. 1: F33.1 \ F33.2	N 27 27' 04.950"	W 080 19' 13.150"	27.45137	-80.32032	LNM 48/09, 7th Dist	290	11475_1	12/3/2009
11475	Delete	Pile	Pile     Chart No. 1: F22	N 27 27' 05.500"	W 080 19' 19.800"	27.45153	-80.32217	LNM 48/09, 7th Dist	290	11475_1	12/3/2009
11475	Delete	Piling PT 1 OF 2	Piles	N 27 27' 07.170"	W 080 19' 19.550"	27.45199	-80.3221	LNM 48/09, 7th Dist	290	11475_1	12/3/2009
11475	Delete	Piling PT 2 OF 2	Piles	N 27 27' 07.400"	W 080 19' 18.000"	27.45205	-80.32166	LNM 48/09, 7th Dist	290	11475_1	12/3/2009
11475	Delete	Pier in Ruins PT 1 OF 3	Ruins     Chart No. 1: F33.1 \ F33.2	N 27 26' 57.450"	W 080 19' 17.400"	27.44929	-80.3215	LNM 48/09, 7th Dist	290	11475_1	12/3/2009
11475	Delete	Pier in Ruins PT 2 OF 3	Ruins     Chart No. 1: F33.1 \ F33.2	N 27 26' 58.850"	W 080 19' 11.000"	27.44968	-80.31973	LNM 48/09, 7th Dist	290	11475_1	12/3/2009
11475	Delete	Pier in Ruins PT 3 OF 3	Ruins     Chart No. 1: F33.1 \ F33.2	N 27 27' 03.600"	W 080 19' 12.350"	27.451	-80.3201	LNM 48/09, 7th Dist	290	11475_1	12/3/2009
11475	Delete	Pier in Ruins PT 1 OF 2	Ruins     Chart No. 1: F33.1 \ F33.2	N 27 26' 59.400"	W 080 19' 17.950"	27.44983	-80.32166	LNM 48/09, 7th Dist	290	11475_1	12/3/2009
11475	Delete	Pier in Ruins PT 2 OF 2	Ruins     Chart No. 1: F33.1 \ F33.2	N 27 27' 00.650"	W 080 19' 12.900"	27.45018	-80.32025	LNM 48/09, 7th Dist	290	11475_1	12/3/2009
11475	Delete	Approximate Landmark (Sign)	Sign	N 27 27' 06.100"	W 080 19' 17.200"	27.45169	-80.32144	LNM 48/09, 7th Dist	290	11475_1	12/3/2009
11475	Change	Tabulation - FORT PIERCE HARBOR	Tabulation - FORT PIERCE HARBOR	N 27 28' 07.000"	W 080 20' 11.000"	27.46861	-80.33639	LNM 41/09, 7th Dist	290	11475_1	10/15/2009
11475	Add	Sounding in Feet	19	N 27 27' 30.600"	W 080 19' 13.200"	27.4585	-80.32034	LNM 41/09, 7th Dist	290	11475_1	10/15/2009
11475	Substitute	Sounding in Feet	9	N 27 27' 35.200"	W 080 19' 09.100"	27.45978	-80.31919	LNM 41/09, 7th Dist	290	11475_1	10/15/2009
11475	Add	Obstruction in Feet	24 Obstn       Chart No. 1: K41	N 27 27' 28.400"	W 080 19' 18.800"	27.45789	-80.32189	LNM 40/09, 7th Dist	290	11475_1	10/8/2009
11428	Delete	Sewalls Point Channel Daybeacon 2	R "2" Priv PA	N 27 10' 18.900"	W 080 11' 19.320"	27.17192	-80.1887	LNM 35/17, 7th Dist	2930	11428_3	Not Yet
11428	Delete	Sewalls Point Channel Daybeacon 3	G "3" PA Priv	N 27 10' 15.000"	W 080 11' 31.350"	27.17083	-80.19204	LNM 35/17, 7th Dist	2930	11428_3	Not Yet
11428	Delete	Sewalls Point Channel Daybeacon 4	R "4" Priv PA	N 27 10' 18.960"	W 080 11' 22.480"	27.17193	-80.18958	LNM 35/17, 7th Dist	2930	11428_3	Not Yet
11428	Change	Bascule Bridge Label	FEC RR BASCULE BRIDGE HOR CL 46 FT VERT CL 6 FT (AT CENTER) AUTOMATIC CONTROL SEE NOTE FOR FEC RR	N 27 12' 13.500"	W 080 15' 35.900"	27.20375	-80.25997	LNM 35/17, 7th Dist	301	11428_4	8/24/2017
11428	Add	Dotted Fish Haven PT 1 OF 4	Chart No. 1: K46.2	N 26 47' 40.910"	W 080 41' 49.120"	26.7947	-80.69698	LNM 35/17, 7th Dist	303	11428_5	8/24/2017
11428	Add	Dotted Fish Haven PT 1 OF 4	Chart No. 1: K46.2	N 26 47' 40.910"	W 080 41' 49.120"	26.7947	-80.69698	LNM 35/17, 7th Dist	304	11428_7	8/24/2017
11428	Add	Dotted Fish Haven PT 2 OF 4	Chart No. 1: K46.2	N 26 47' 40.910"	W 080 41' 49.230"	26.7947	-80.69701	LNM 35/17, 7th Dist	303	11428_5	8/24/2017
11428	Add	Dotted Fish Haven PT 2 OF 4	Chart No. 1: K46.2	N 26 47' 40.910"	W 080 41' 49.230"	26.7947	-80.69701	LNM 35/17, 7th Dist	304	11428_7	8/24/2017
11428	Add	Dotted Fish Haven PT 3 OF 4	Chart No. 1: K46.2	N 26 47' 47.840"	W 080 41' 49.150"	26.79662	-80.69698	LNM 35/17, 7th Dist	303	11428_5	8/24/2017
11428	Add	Dotted Fish Haven PT 3 OF 4	Chart No. 1: K46.2	N 26 47' 47.840"	W 080 41' 49.150"	26.79662	-80.69698	LNM 35/17, 7th Dist	304	11428_7	8/24/2017
11428	Add	Dotted Fish Haven PT 4 OF 4	Chart No. 1: K46.2	N 26 47' 47.840"	W 080 41' 49.040"	26.79662	-80.69695	LNM 35/17, 7th Dist	303	11428_5	8/24/2017
11428	Add	Dotted Fish Haven PT 4 OF 4	Chart No. 1: K46.2	N 26 47' 47.840"	W 080 41' 49.040"	26.79662	-80.69695	LNM 35/17, 7th Dist	304	11428_7	8/24/2017
11428	Add	Dotted Fish Haven Label	Obstn Fish Haven	N 26 47' 44.400"	W 080 41' 49.100"	26.79567	-80.69698	LNM 35/17, 7th Dist	303	11428_5	8/24/2017
11428	Add	Dotted Fish Haven Label	Obstn Fish Haven	N 26 47' 44.400"	W 080 41' 49.100"	26.79567	-80.69698	LNM 35/17, 7th Dist	304	11428_7	8/24/2017
11428	Delete	Manatee Pocket Channel Daybeacon 19	G "19" Priv	N 27 08' 56.400"	W 080 11' 37.680"	27.149	-80.1938	LNM 31/17, 7th Dist	2930	11428_3	8/24/2017
11428	Add	St Lucie River Stuart Ext Daybeacon 1	G "1" Priv	N 27 12' 12.790"	W 080 15' 07.140"	27.20355	-80.25198	LNM 30/17, 7th Dist	301	11428_4	8/24/2017
11428	Add	St Lucie River Stuart Ext Daybeacon 2	R "2" Priv	N 27 12' 13.710"	W 080 15' 08.670"	27.20381	-80.25241	LNM 30/17, 7th Dist	301	11428_4	8/24/2017
11428	Add	St Lucie River Stuart Ext Daybeacon 3	G "3" Priv	N 27 12' 08.980"	W 080 15' 10.650"	27.20249	-80.25296	LNM 30/17, 7th Dist	301	11428_4	8/24/2017
11428	Add	St Lucie River Stuart Ext Daybeacon 4	R "4" Priv	N 27 12' 09.830"	W 080 15' 11.850"	27.20273	-80.25329	LNM 30/17, 7th Dist	301	11428_4	8/24/2017
11428	Change	St Lucie River Light 13A	Fl G 4s 16ft 5M "13A"	N 27 10' 29.605"	W 080 11' 50.579"	27.17489	-80.19738	LNM 05/17, 7th Dist	2930	11428_3	2/9/2017
11428	Change	St Lucie River Light 14	Fl R 4s 14ft 5M "14"	N 27 10' 34.742"	W 080 11' 46.593"	27.17632	-80.19627	LNM 05/17, 7th Dist	2930	11428_3	2/9/2017
11428	Change	St Lucie River Light 15	Fl G 4s 14ft 5M "15"	N 27 10' 48.555"	W 080 11' 44.859"	27.18015	-80.19579	LNM 05/17, 7th Dist	2930	11428_3	2/9/2017
11428	Change	St Lucie River Light 7	Fl G 4s 16ft 5M "7"	N 27 09' 54.329"	W 080 11' 29.640"	27.16509	-80.19157	LNM 05/17, 7th Dist	2930	11428_3	2/9/2017
11428	Change	Indian River (South Section) Light 229	Fl G 4s 12ft 5M "229"	N 27 11' 58.991"	W 080 11' 13.992"	27.19972	-80.18722	LNM 50/16, 7th Dist	301	11428_4	12/22/2016
11428	Relocate	Taylor Creek Bar Light 1	Fl G 4s 16ft 5M "1"	N 27 11' 36.376"	W 080 47' 38.625"	27.19344	-80.79406	LNM 17/16, 7th Dist	300	11428_1	5/5/2016
11428	Relocate	Taylor Creek Daybeacon 2	R "2"	N 27 11' 37.142"	W 080 47' 35.540"	27.19365	-80.79321	LNM 17/16, 7th Dist	300	11428_1	5/5/2016
11428	Change	St Lucie River Light 13	Fl G 4s 16ft 5M "13"	N 27 10' 18.184"	W 080 11' 47.593"	27.17172	-80.19656	LNM 11/16, 7th Dist	2930	11428_3	3/24/2016
11428	Delete	Admiralty Yacht Club Daybeacon 14	R "14" PA Priv	N 26 41' 04.253"	W 081 51' 00.307"	26.68451	-81.85008	LNM 09/16, 7th Dist	305	11428_6	3/10/2016
11416	Change	tabulation - TAMPA BAY CHANNEL DEPTHS	tabulation - TAMPA BAY CHANNEL DEPTHS	N 27 46' 32.600"	W 082 41' 15.700"	27.77572	-82.68769	LNM 35/17, 7th Dist	2983	11416_1	8/24/2017
11416	Change	Depth Legend - Alafia River Channel to:	29 FT FOR A WIDTH OF 200 FT FEB 2016	N 27 50' 59.890"	W 082 25' 09.680"	27.84997	-82.41936	LNM 35/17, 7th Dist	2983	11416_1	8/24/2017
11416	Change	Depth Legend - Alafia River Turning Basin to:	34 FT	N 27 51' 22.800"	W 082 23' 29.400"	27.85633	-82.3915	LNM 35/17, 7th Dist	2983	11416_1	8/24/2017
11416	Change	Depth Legend - Alafia River Channel Widener to:	32 FT FEB 2016	N 27 50' 41.000"	W 082 26' 34.000"	27.84472	-82.44278	LNM 35/17, 7th Dist	2983	11416_1	8/24/2017
11416	Change	Depth Legend - Tampa Harbor to:	46 FT 2016	N 27 54' 54.900"	W 082 26' 34.600"	27.91525	-82.44295	LNM 35/17, 7th Dist	2984	11416_2	8/24/2017
11416	Change	Depth Legend - Tampa Harbor to:	37 FT 2016	N 27 54' 44.700"	W 082 26' 29.000"	27.91242	-82.44139	LNM 35/17, 7th Dist	2984	11416_2	8/24/2017
11416	Change	Depth Legend - Tampa Harbor to:	42 FT 	N 27 54' 10.000"	W 082 26' 15.300"	27.90278	-82.43758	LNM 35/17, 7th Dist	2984	11416_2	8/24/2017
11416	Change	Depth Legend - Tampa Harbor to:	35 FT FOR A WIDTH OF 200 FT AUG 2015	N 27 54' 13.600"	W 082 25' 11.700"	27.90378	-82.41991	LNM 35/17, 7th Dist	2984	11416_2	8/24/2017
11416	Change	Depth Legend - Tampa Harbor to:	35 FT FOR A WIDTH OF 200 FT AUG 2015	N 27 54' 13.600"	W 082 25' 11.700"	27.90378	-82.41991	LNM 35/17, 7th Dist	2983	11416_1	8/24/2017
11416	Change	Depth Legend - Tampa Harbor to:	25 FT FOR A WIDTH OF 100 FT AUG 2015	N 27 54' 12.300"	W 082 25' 06.900"	27.90342	-82.41859	LNM 35/17, 7th Dist	2984	11416_2	8/24/2017
11416	Change	Depth Legend - Tampa Harbor to:	25 FT FOR A WIDTH OF 100 FT AUG 2015	N 27 54' 12.300"	W 082 25' 06.900"	27.90342	-82.41859	LNM 35/17, 7th Dist	2983	11416_1	8/24/2017
11416	Change	Depth Legend - Tampa Harbor to:	42 FT 2015	N 27 54' 46.500"	W 082 25' 42.800"	27.91292	-82.42856	LNM 35/17, 7th Dist	2984	11416_2	8/24/2017
11416	Delete	Port Sutton Channel Light 3	Fl G 6s 16ft 4M "3"	N 27 54' 19.288"	W 082 26' 01.257"	27.90536	-82.43369	LNM 29/17, 7th Dist	2984	11416_2	8/3/2017
11416	Delete	Port Sutton Channel Light 3	Fl G 6s 16ft 4M "3"	N 27 54' 19.288"	W 082 26' 01.257"	27.90536	-82.43369	LNM 29/17, 7th Dist	2983	11416_1	8/3/2017
11416	Relocate	Port Sutton Channel Lighted Buoy 5	G "5" Fl G 4s	N 27 54' 21.526"	W 082 25' 57.842"	27.90598	-82.43273	LNM 24/17, 7th Dist	2984	11416_2	6/22/2017
11416	Relocate	Port Sutton Channel Lighted Buoy 5	G "5" Fl G 4s	N 27 54' 21.526"	W 082 25' 57.842"	27.90598	-82.43273	LNM 24/17, 7th Dist	2983	11416_1	6/22/2017
11416	Change	tabulation - TAMPA BAY CHANNEL DEPTHS	tabulation - TAMPA BAY CHANNEL DEPTHS	N 27 46' 32.600"	W 082 41' 15.800"	27.77572	-82.68772	LNM 25/17, 7th Dist	2983	11416_1	6/15/2017
11416	Relocate	Cabbagehead Bayou Daybeacon 12	R "12" Priv	N 27 59' 34.680"	W 082 37' 20.460"	27.99297	-82.62235	LNM 21/17, 7th Dist	2989	11416_4	6/1/2017
11416	Relocate	Cabbagehead Bayou Daybeacon 1	G "1" Priv	N 27 59' 14.520"	W 082 37' 27.600"	27.98737	-82.62434	LNM 21/17, 7th Dist	2989	11416_4	6/1/2017
11416	Relocate	Cabbagehead Bayou Daybeacon 11	G "11" Priv	N 27 59' 34.980"	W 082 37' 21.300"	27.99305	-82.62258	LNM 21/17, 7th Dist	2989	11416_4	6/1/2017
11416	Relocate	Cabbagehead Bayou Daybeacon 2	R "2" Priv	N 27 59' 13.920"	W 082 37' 26.880"	27.9872	-82.62413	LNM 21/17, 7th Dist	2989	11416_4	6/1/2017
11416	Relocate	Cabbagehead Bayou Daybeacon 6	R "6" Priv	N 27 59' 23.400"	W 082 37' 23.880"	27.98983	-82.6233	LNM 21/17, 7th Dist	2989	11416_4	6/1/2017
11416	Relocate	Cabbagehead Bayou Daybeacon 7	G "7" Priv	N 27 59' 26.640"	W 082 37' 23.700"	27.99073	-82.62325	LNM 21/17, 7th Dist	2989	11416_4	6/1/2017
11416	Change	Tampa Bay Cut F Channel Inbound Range Front Light	Fl 2.5s 17ft	N 27 47' 43.774"	W 082 31' 23.455"	27.79549	-82.52319	LNM 19/17, 7th Dist	2983	11416_1	5/18/2017
11416	Change	Tampa Bay Cut F Channel Inbound Range Rear Light	Iso 6s 53ft	N 27 48' 27.976"	W 082 31' 23.828"	27.80777	-82.52328	LNM 19/17, 7th Dist	2983	11416_1	5/18/2017
11416	Change	Tampa Bay Cut G Channel Range Front Light	Q R 16ft	N 27 47' 34.835"	W 082 35' 13.705"	27.79301	-82.58714	LNM 16/17, 7th Dist	2983	11416_1	4/27/2017
11416	Change	Tampa Bay Cut G Channel Range Front Light (Secondary Light)	Q R 4M	N 27 47' 34.835"	W 082 35' 13.705"	27.79301	-82.58714	LNM 16/17, 7th Dist	2983	11416_1	4/27/2017
11416	Change	Tampa Bay Cut J Outbound Range Front Passing Light	Fl 4s 5M	N 27 45' 54.313"	W 082 34' 20.929"	27.76509	-82.57248	LNM 16/17, 7th Dist	2983	11416_1	4/27/2017
11416	Change	Tampa Bay Cut J Outbound Range Rear Passing Light A	Fl 4s 5M "A"	N 27 45' 02.998"	W 082 34' 19.642"	27.75083	-82.57212	LNM 16/17, 7th Dist	2983	11416_1	4/27/2017
11416	Add	Tampa Bay Cut J Outbound Range Rear Passing Light B	Fl 4s 5M "B"	N 27 45' 02.998"	W 082 34' 19.642"	27.75083	-82.57212	LNM 16/17, 7th Dist	2983	11416_1	4/27/2017
11416	Add	Visible Wreck	PA	N 27 46' 36.960"	W 082 37' 31.500"	27.77693	-82.62542	LNM 16/17, 7th Dist	2985	11416_3	4/27/2017
11416	Add	Visible Wreck	PA	N 27 46' 36.960"	W 082 37' 31.500"	27.77693	-82.62542	LNM 16/17, 7th Dist	2983	11416_1	4/27/2017
11416	Change	Tampa Bay Cut J Channel Outbound Range Front Light	Q 10ft Q 5M	N 27 45' 54.313"	W 082 34' 20.929"	27.76509	-82.57248	LNM 15/17, 7th Dist	2983	11416_1	4/27/2017
11416	Delete	Sparkman Channel Light 5	Fl G 6s 16ft 4M "5" AIS	N 27 56' 00.829"	W 082 26' 51.037"	27.93356	-82.44751	LNM 14/17, 7th Dist	2984	11416_2	4/13/2017
11416	Add	Sparkman Channel Lighted Buoy 5	G "5" Fl G 6s	N 27 56' 00.808"	W 082 26' 50.641"	27.93356	-82.4474	LNM 14/17, 7th Dist	2984	11416_2	4/13/2017
11416	Delete	Weedon Island Channel Entrance Lighted Buoy 1	G "1" Q G Priv	N 27 49' 45.161"	W 082 34' 17.229"	27.82921	-82.57145	LNM 13/17, 7th Dist	2983	11416_1	4/13/2017
11416	Delete	Weedon Island Channel Entrance Lighted Buoy 2	R "2" Fl R 4s Priv	N 27 49' 46.411"	W 082 34' 13.559"	27.82956	-82.57043	LNM 13/17, 7th Dist	2983	11416_1	4/13/2017
11416	Delete	Weedon Island Channel Lighted Buoy 3	G "3" Fl G 4s Priv	N 27 50' 12.020"	W 082 34' 29.929"	27.83667	-82.57498	LNM 13/17, 7th Dist	2983	11416_1	4/13/2017
11416	Delete	Weedon Island Channel Lighted Buoy 4	R "4" Fl R 4s Priv	N 27 50' 13.320"	W 082 34' 26.279"	27.83703	-82.57397	LNM 13/17, 7th Dist	2983	11416_1	4/13/2017
11416	Delete	Weedon Island Channel Lighted Buoy 5	G "5" Fl G 4s Priv	N 27 50' 38.869"	W 082 34' 42.629"	27.84413	-82.57851	LNM 13/17, 7th Dist	2983	11416_1	4/13/2017
11416	Delete	Weedon Island Channel Lighted Buoy 6	R "6" Fl R 4s Priv	N 27 50' 40.219"	W 082 34' 39.009"	27.84451	-82.5775	LNM 13/17, 7th Dist	2983	11416_1	4/13/2017
11416	Delete	Weedon Island Channel Lighted Buoy 7	G "7" Fl G 4s Priv	N 27 51' 05.728"	W 082 34' 55.409"	27.85159	-82.58206	LNM 13/17, 7th Dist	2983	11416_1	4/13/2017
11416	Delete	Weedon Island Channel Lighted Buoy 8	R "8" Fl R 4s Priv	N 27 51' 07.108"	W 082 34' 51.799"	27.85197	-82.58105	LNM 13/17, 7th Dist	2983	11416_1	4/13/2017
11416	Delete	Weedon Island Channel Lighted Buoy 9	G "9" Q G Priv	N 27 51' 32.577"	W 082 35' 08.200"	27.85905	-82.58561	LNM 13/17, 7th Dist	2983	11416_1	4/13/2017
11416	Delete	Weedon Island Channel Lighted Buoy 10	R "10" Fl R 4s Priv	N 27 51' 33.987"	W 082 35' 04.590"	27.85944	-82.58461	LNM 13/17, 7th Dist	2983	11416_1	4/13/2017
11416	Delete	Weedon Island Channel Lighted Buoy 11	G "11" Fl G Priv	N 27 51' 40.157"	W 082 35' 20.560"	27.86115	-82.58904	LNM 13/17, 7th Dist	2983	11416_1	4/13/2017
11416	Delete	Weedon Island Channel Lighted Buoy 12	R "12" Fl R 4s Priv	N 27 51' 43.667"	W 082 35' 20.570"	27.86213	-82.58905	LNM 13/17, 7th Dist	2983	11416_1	4/13/2017
11416	Delete	Weedon Island Channel Lighted Buoy 13	G "13" Fl G Priv	N 27 51' 39.647"	W 082 35' 36.480"	27.86101	-82.59347	LNM 13/17, 7th Dist	2983	11416_1	4/13/2017
11416	Delete	Weedon Island Channel Lighted Buoy 14	R "14" Fl R Priv	N 27 51' 43.707"	W 082 35' 36.610"	27.86214	-82.59351	LNM 13/17, 7th Dist	2983	11416_1	4/13/2017
11416	Delete	Weedon Island Channel Lighted Buoy 15	G "15" Fl G Priv	N 27 51' 36.267"	W 082 35' 39.130"	27.86007	-82.5942	LNM 13/17, 7th Dist	2983	11416_1	4/13/2017
11416	Delete	Weedon Island Channel Lighted Buoy 16	R "16" Fl R Priv	N 27 51' 47.357"	W 082 35' 39.190"	27.86316	-82.59422	LNM 13/17, 7th Dist	2983	11416_1	4/13/2017
11416	Delete	Weedon Island Channel Lighted Buoy 17	G "17" Fl G Priv	N 27 51' 36.247"	W 082 35' 45.371"	27.86007	-82.59594	LNM 13/17, 7th Dist	2983	11416_1	4/13/2017
11416	Delete	Weedon Island Channel Lighted Buoy 18	R "18" Fl R Priv	N 27 51' 47.337"	W 082 35' 45.431"	27.86315	-82.59595	LNM 13/17, 7th Dist	2983	11416_1	4/13/2017
11416	Delete	Weedon Island Channel Range Front Light	Q R 25ft Priv	N 27 51' 44.372"	W 082 35' 11.533"	27.86233	-82.58654	LNM 13/17, 7th Dist	2983	11416_1	4/13/2017
11416	Delete	Weedon Island Channel Range Rear Light	Iso R 6s 46ft Priv	N 27 52' 07.118"	W 082 35' 22.396"	27.86864	-82.58955	LNM 13/17, 7th Dist	2983	11416_1	4/13/2017
11416	Change	Mullet Key Channel Range Front Light	Q 20ft	N 27 36' 50.999"	W 082 39' 56.131"	27.61417	-82.66559	LNM 13/17, 7th Dist	2983	11416_1	4/13/2017
11416	Change	Mullet Key Channel Range Rear Light	Iso 6s 78ft	N 27 36' 57.106"	W 082 39' 13.365"	27.61586	-82.65371	LNM 13/17, 7th Dist	2983	11416_1	4/13/2017
11416	Add	Mullet Key Channel Range Front Light Passing Light	Q 20ft 4M	N 27 36' 50.999"	W 082 39' 56.131"	27.61417	-82.66559	LNM 13/17, 7th Dist	2983	11416_1	4/13/2017
11416	Add	Mullet Key Channel Range Rear Light Passing Light	Q 40ft 4M	N 27 36' 57.106"	W 082 39' 13.365"	27.61586	-82.65371	LNM 13/17, 7th Dist	2983	11416_1	4/13/2017
11416	Add	Tampa Bay Cut J-2 Channel Inbound Range Rear Light	Iso 6s 45ft, (2) Fl 6s 5M	N 27 50' 44.275"	W 082 33' 58.560"	27.84563	-82.56627	LNM 02/17, 7th Dist	2983	11416_1	1/12/2017
11416	Relocate	Sunshine Skyway Channel Daybeacon 11	G "11"	N 27 39' 17.295"	W 082 40' 56.388"	27.6548	-82.68233	LNM 52/16, 7th Dist	2983	11416_1	12/29/2016
11416	Relocate	Alafia River Warning Daybeacon A	W "A" Priv	N 27 51' 25.700"	W 082 23' 01.420"	27.85714	-82.38373	LNM 30/16, 7th Dist	2983	11416_1	7/28/2016
11416	Add	Davis Island Danger Light A	Fl 4s "A" Priv	N 27 54' 41.940"	W 082 26' 45.720"	27.91165	-82.44603	LNM 30/16, 7th Dist	2984	11416_2	7/28/2016
11416	Add	Davis Island Danger Light A	Fl 4s "A" Priv	N 27 54' 41.940"	W 082 26' 45.720"	27.91165	-82.44603	LNM 30/16, 7th Dist	2983	11416_1	7/28/2016
11416	Add	Davis Island Danger Light B	Fl 4s "B" Priv	N 27 54' 42.830"	W 082 26' 45.800"	27.9119	-82.44605	LNM 30/16, 7th Dist	2984	11416_2	7/28/2016
11416	Add	Davis Island Danger Light B	Fl 4s "B" Priv	N 27 54' 42.830"	W 082 26' 45.800"	27.9119	-82.44605	LNM 30/16, 7th Dist	2983	11416_1	7/28/2016
11416	Change	Hillsborough Cut A Channel Range Rear Light	Iso 6s 50ft, 2 Fl 4s	N 27 49' 17.538"	W 082 25' 41.226"	27.82154	-82.42812	LNM 30/16, 7th Dist	2983	11416_1	7/28/2016
11416	Relocate	Tampa Bay Cut J Channel Outbound Range Rear Light	Iso 6s 64ft, Fl 4s 23ft 5M	N 27 45' 03.000"	W 082 34' 19.665"	27.75083	-82.57213	LNM 27/16, 7th Dist	2983	11416_1	7/14/2016
11416	Change	Tampa Bay Cut J Channel Outbound Range Rear Light	Iso 6s 50ft, Fl 4s	N 27 45' 03.000"	W 082 34' 19.665"	27.75083	-82.57213	LNM 27/16, 7th Dist	2983	11416_1	7/14/2016
11416	Relocate	Port Sutton Channel Range Front Light	Q G 18ft	N 27 53' 56.677"	W 082 26' 29.498"	27.89908	-82.44153	LNM 22/16, 7th Dist	2984	11416_2	6/9/2016
11416	Relocate	Port Sutton Channel Range Front Light	Q G 18ft	N 27 53' 56.677"	W 082 26' 29.498"	27.89908	-82.44153	LNM 22/16, 7th Dist	2983	11416_1	6/9/2016
11416	Change	Depth Legend - St. Petersburg Harbor to:	17 1/2 FT AUG 2015	N 27 41' 16.000"	W 082 36' 32.600"	27.68778	-82.60905	LNM 21/16, 7th Dist	2983	11416_1	5/19/2016
11416	Change	Depth Legend - St. Petersburg Harbor to:	20 FT AUG 2015	N 27 45' 24.600"	W 082 36' 42.000"	27.75683	-82.61166	LNM 21/16, 7th Dist	2985	11416_3	5/19/2016
11416	Change	Depth Legend - St. Petersburg Harbor to:	20 FT AUG 2015	N 27 45' 24.600"	W 082 36' 42.000"	27.75683	-82.61166	LNM 21/16, 7th Dist	2983	11416_1	5/19/2016
11416	Change	Depth Note - St. Petersburg Harbor to:	North quarter..20, Middle half20, South quarter..19, Aug 2015	N 27 45' 58.000"	W 082 38' 07.000"	27.76611	-82.63528	LNM 21/16, 7th Dist	2985	11416_3	5/19/2016
11416	Change	Depth Legend - St. Petersburg Harbor to:	21 1/2 FT AUG 2015	N 27 45' 36.300"	W 082 37' 44.300"	27.76008	-82.62897	LNM 21/16, 7th Dist	2985	11416_3	5/19/2016
11416	Change	Depth Legend - St. Petersburg Harbor to:	17 1/2 FT SEP 2015	N 27 45' 32.500"	W 082 37' 53.000"	27.75903	-82.63139	LNM 21/16, 7th Dist	2985	11416_3	5/19/2016
11416	Change	Depth Legend - St. Petersburg Harbor to:	10 1/2 FT SEP 2015	N 27 45' 33.400"	W 082 38' 00.000"	27.75928	-82.63333	LNM 21/16, 7th Dist	2985	11416_3	5/19/2016
11416	Change	St Petersburg Channel Junction Light S	Fl (2+1) G 6s 16ft 4M "S"	N 27 45' 32.505"	W 082 36' 41.251"	27.75903	-82.61146	LNM 05/16, 7th Dist	2985	11416_3	2/11/2016
11416	Change	St Petersburg Channel Junction Light S	Fl (2+1) G 6s 16ft 4M "S"	N 27 45' 32.505"	W 082 36' 41.251"	27.75903	-82.61146	LNM 05/16, 7th Dist	2983	11416_1	2/11/2016
11416	Add	Sunshine Skyway Bridge V-AIS	V-AIS	N 27 37' 13.346"	W 082 39' 20.102"	27.62037	-82.65559	LNM 03/16, 7th Dist	2983	11416_1	1/28/2016
11416	Change	Port Sutton Channel Light 3	Fl G 6s 16ft 4M "3"	N 27 54' 19.288"	W 082 26' 01.257"	27.90536	-82.43369	LNM 02/16, 7th Dist	2984	11416_2	1/21/2016
11416	Change	Port Sutton Channel Light 3	Fl G 6s 16ft 4M "3"	N 27 54' 19.288"	W 082 26' 01.257"	27.90536	-82.43369	LNM 02/16, 7th Dist	2983	11416_1	1/21/2016
11416	Change	Tampa Bay Cut E Channel Inbound Range Front Light Passing Light	Q 17ft 4M	N 27 45' 47.889"	W 082 31' 14.092"	27.7633	-82.52058	LNM 02/16, 7th Dist	2983	11416_1	1/21/2016
11416	Change	Alafia River Light 8	Fl R 2.5s 15ft 5M "8"	N 27 50' 54.957"	W 082 25' 25.931"	27.8486	-82.42387	LNM 51/15, 7th Dist	2983	11416_1	12/31/2015
11416	Change	Hillsborough Cut C Channel Inbound Range Rear Light	Iso 6s 124ft (Day) Iso G 6s 126ft (Night) AIS	N 27 55' 12.754"	W 082 26' 13.049"	27.92021	-82.43696	LNM 48/15, 7th Dist	2984	11416_2	12/31/2015
11416	Change	Hillsborough Cut C Channel Inbound Range Rear Light	Iso 6s 124ft (Day) Iso G 6s 126ft (Night) AIS	N 27 55' 12.754"	W 082 26' 13.049"	27.92021	-82.43696	LNM 48/15, 7th Dist	2983	11416_1	12/31/2015
11416	Change	Hillsborough Cut C Channel Inbound Range Front Light	Iso 2s 59ft (Day) Iso G 2s 57ft (Night) AIS	N 27 54' 28.686"	W 082 26' 17.622"	27.90797	-82.43822	LNM 48/15, 7th Dist	2984	11416_2	12/31/2015
11416	Change	Hillsborough Cut C Channel Inbound Range Front Light	Iso 2s 59ft (Day) Iso G 2s 57ft (Night) AIS	N 27 54' 28.686"	W 082 26' 17.622"	27.90797	-82.43822	LNM 48/15, 7th Dist	2983	11416_1	12/31/2015
11416	Change	Obstruction	Obstn PA	N 27 47' 23.160"	W 082 36' 41.160"	27.78977	-82.61143	LNM 42/15, 7th Dist	2983	11416_1	10/29/2015
11416	Add	Pile	Pile PA	N 27 47' 23.160"	W 082 36' 41.160"	27.78977	-82.61143	LNM 41/15, 7th Dist	2983	11416_1	10/22/2015
11416	Add	Dangerous Wreck	Obstn PA	N 27 48' 27.120"	W 082 24' 29.760"	27.80753	-82.40826	LNM 39/15, 7th Dist	2983	11416_1	10/8/2015
11442	Change	Harbor Key Bank Light 57	Fl G 4s 16ft 5M "57"	N 24 50' 24.030"	W 081 25' 44.595"	24.84001	-81.42905	LNM 11/17, 7th Dist	355	11442_1	3/16/2017
11442	Add	Obstruction in Feet	18 Obstn       Chart No. 1: K41	N 24 27' 29.900"	W 081 52' 06.000"	24.45831	-81.86833	LNM 12/17, 7th Dist	355	11442_1	3/16/2017
11442	Change	Boca Chica Channel Light 16	Fl R 4s 16ft 5M "16"	N 24 34' 24.024"	W 081 42' 41.549"	24.57334	-81.71154	LNM 49/16, 7th Dist	355	11442_1	12/15/2016
11442	Change	Boca Chica Channel Light 8	Fl R 4s 16ft 5M "8"	N 24 33' 45.023"	W 081 43' 03.850"	24.56251	-81.71774	LNM 34/16, 7th Dist	355	11442_1	9/1/2016
11442	Delete	Dangerous Wreck	PA	N 24 30' 35.156"	W 081 50' 27.322"	24.50977	-81.84092	LNM 30/16, 7th Dist	355	11442_1	7/28/2016
11442	Change	Key West Main Channel Cut A Range Rear Light	Iso 6s 50ft	N 24 33' 35.977"	W 081 50' 20.610"	24.55999	-81.83906	LNM 24/16, 7th Dist	355	11442_1	6/30/2016
11442	Relocate	Key West Main Channel Cut A Range Front Light	Q 35ft	N 24 33' 12.007"	W 081 50' 02.428"	24.55334	-81.83401	LNM 23/16, 7th Dist	355	11442_1	6/16/2016
11442	Change	Key West Main Channel Cut A Range Front Light	Q 10ft	N 24 33' 12.007"	W 081 50' 02.428"	24.55334	-81.83401	LNM 23/16, 7th Dist	355	11442_1	6/16/2016
11442	Change	Key West Northwest Channel Jetty Light A	Q Y 18ft 4M "A"	N 24 38' 27.737"	W 081 53' 34.035"	24.64104	-81.89278	LNM 11/16, 7th Dist	355	11442_1	3/24/2016
11442	Change	Bullfrog Banks Light BB	Fl 6s 20ft 5M "BB"	N 24 50' 44.316"	W 081 20' 32.688"	24.84564	-81.34241	LNM 05/16, 7th Dist	355	11442_1	2/11/2016
11442	Add	Visible Wreck	PA	N 24 32' 43.320"	W 081 45' 54.180"	24.54537	-81.76505	LNM 49/15, 7th Dist	355	11442_1	12/17/2015
11442	Change	Bahia Honda Key Light 49A	Fl G 6s 20ft 5M "49A"	N 24 37' 29.946"	W 081 14' 08.442"	24.62498	-81.23568	LNM 42/15, 7th Dist	355	11442_1	10/29/2015
11442	Delete	American Shoal Light	Fl (3) 15s 109ft 10M RACON (_-__)	N 24 31' 30.422"	W 081 31' 09.898"	24.52512	-81.51942	LNM 36/15, 7th Dist	355	11442_1	9/17/2015
11442	Add	Abandoned Light House	TOWER (ABAND LT HO)	N 24 31' 30.422"	W 081 31' 09.898"	24.52512	-81.51942	LNM 36/15, 7th Dist	355	11442_1	9/17/2015
11442	Add	American Shoal Light	Fl (4) 60s 19ft 7M	N 24 31' 32.493"	W 081 31' 02.576"	24.52569	-81.51738	LNM 36/15, 7th Dist	355	11442_1	9/17/2015
11442	Relocate	Sombrero Key Light	Fl (5) 60s 19ft 7M	N 24 37' 39.900"	W 081 06' 30.841"	24.62775	-81.10857	LNM 33/15, 7th Dist	355	11442_1	8/20/2015
11442	Delete	Sombrero Key Light	Fl (5) 60s 142ft 12M RACON (__)	N 24 37' 40.240"	W 081 06' 38.927"	24.62784	-81.11081	LNM 31/15, 7th Dist	355	11442_1	8/13/2015
11442	Add	Abandoned Light House	TOWER (ABAND LT HO)	N 24 37' 40.240"	W 081 06' 38.927"	24.62784	-81.11081	LNM 31/15, 7th Dist	355	11442_1	8/13/2015
11442	Add	Sombrero Key Light	Fl (5) 60s 19ft 7M	N 24 37' 40.080"	W 081 06' 31.260"	24.6278	-81.10868	LNM 31/15, 7th Dist	355	11442_1	8/13/2015
11442	Delete	Key West Southwest Channel Buoy 2	R N "2"	N 24 28' 28.992"	W 081 54' 48.417"	24.47472	-81.91345	LNM 28/15, 7th Dist	355	11442_1	7/23/2015
11442	Delete	Key West Southwest Channel Buoy 3	G C "3"	N 24 29' 02.631"	W 081 54' 15.647"	24.48406	-81.90434	LNM 28/15, 7th Dist	355	11442_1	7/23/2015
11442	Delete	Key West Southwest Channel Buoy 4	R N "4"	N 24 29' 32.649"	W 081 53' 25.646"	24.4924	-81.89046	LNM 28/15, 7th Dist	355	11442_1	7/23/2015
11442	Change	Stock Island Approach Channel Light 32	Fl R 2.5s 19ft 5M "32"	N 24 28' 28.951"	W 081 44' 31.725"	24.47471	-81.74215	LNM 22/15, 7th Dist	355	11442_1	6/4/2015
11442	Relocate	Pigeon Key Light 21	Fl G 4s 16ft 5M "21"	N 24 42' 55.022"	W 081 09' 06.098"	24.71528	-81.1517	LNM 22/15, 7th Dist	355	11442_1	6/4/2015
11442	Change	Moser Channel Light 13	Fl G 2.5s 16ft 5M "13"	N 24 45' 53.134"	W 081 10' 24.417"	24.76476	-81.17345	LNM 20/15, 7th Dist	355	11442_1	5/28/2015
11442	Change	Moser Channel Light 8	Fl R 6s 16ft 5M "8"	N 24 43' 21.855"	W 081 10' 13.252"	24.72274	-81.17035	LNM 20/15, 7th Dist	355	11442_1	5/28/2015
11442	Add	Key West Entrance Lighted Whistle Buoy KW Magenta Circle	RW "KW" Mo (A) WHISTLE AIS	N 24 27' 25.815"	W 081 47' 59.974"	24.45717	-81.8	LNM 08/15, 7th Dist	355	11442_1	3/5/2015
11442	Add	Key West Main Channel Lighted Buoy 8 Magenta Circle	R "8" Q R AIS	N 24 30' 59.314"	W 081 48' 15.570"	24.51648	-81.80432	LNM 08/15, 7th Dist	355	11442_1	3/5/2015
11442	Change	Nine-Foot Shoal Light	Fl 2.5s 18ft 5M	N 24 34' 09.069"	W 081 33' 06.768"	24.56919	-81.55188	LNM 06/15, 7th Dist	355	11442_1	2/19/2015
11442	Change	Key West Northwest Channel Light 14	Fl R 6s 16ft 5M "14"	N 24 35' 26.007"	W 081 51' 12.645"	24.59056	-81.85352	LNM 52/14, 7th Dist	355	11442_1	1/8/2015
11442	Add	Visible Wreck	PA	N 24 33' 03.540"	W 081 43' 27.360"	24.55098	-81.72427	LNM 48/14, 7th Dist	355	11442_1	12/11/2014
11442	Add	Danger Zone PT 1 OF 4	Chart No. 1: N1.2 or N2.2	N 24 35' 43.400"	W 081 41' 58.180"	24.59539	-81.69949	LNM 46/14, 7th Dist	355	11442_1	11/20/2014
11442	Add	Danger Zone PT 2 OF 4	Chart No. 1: N1.2 or N2.2	N 24 36' 25.040"	W 081 41' 57.520"	24.60696	-81.69931	LNM 46/14, 7th Dist	355	11442_1	11/20/2014
11442	Add	Danger Zone PT 3 OF 4	Chart No. 1: N1.2 or N2.2	N 24 36' 18.860"	W 081 41' 25.540"	24.60524	-81.69043	LNM 46/14, 7th Dist	355	11442_1	11/20/2014
11442	Add	Danger Zone PT 4 OF 4	Chart No. 1: N1.2 or N2.2	N 24 35' 29.840"	W 081 41' 48.760"	24.59162	-81.69688	LNM 46/14, 7th Dist	355	11442_1	11/20/2014
11442	Delete	Danger Zone PT 1 OF 4	Chart No. 1: N1.2 or N2.2	N 24 35' 43.710"	W 081 41' 58.810"	24.59547	-81.69967	LNM 46/14, 7th Dist	355	11442_1	11/20/2014
11442	Delete	Danger Zone PT 2 OF 4	Chart No. 1: N1.2 or N2.2	N 24 36' 23.570"	W 081 41' 58.100"	24.60655	-81.69947	LNM 46/14, 7th Dist	355	11442_1	11/20/2014
11442	Delete	Danger Zone PT 3 OF 4	Chart No. 1: N1.2 or N2.2	N 24 36' 17.450"	W 081 41' 26.300"	24.60485	-81.69064	LNM 46/14, 7th Dist	355	11442_1	11/20/2014
11442	Delete	Danger Zone PT 4 OF 4	Chart No. 1: N1.2 or N2.2	N 24 35' 29.310"	W 081 41' 48.900"	24.59147	-81.69691	LNM 46/14, 7th Dist	355	11442_1	11/20/2014
11442	Change	Big Pine Shoal Light 22	Q R 18ft 4M "22"	N 24 34' 06.078"	W 081 19' 32.338"	24.56836	-81.32565	LNM 29/14, 7th Dist	355	11442_1	7/24/2014
11442	Delete	Sand Key Light	Fl (2) 15s 109ft 11M RACON (_.)	N 24 27' 20.941"	W 081 52' 38.313"	24.45582	-81.87731	LNM 26/14, 7th Dist	355	11442_1	7/17/2014
11442	Add	Abandoned Light House	TOWER (ABAND LT HO)	N 24 27' 20.941"	W 081 52' 38.313"	24.45582	-81.87731	LNM 26/14, 7th Dist	355	11442_1	7/17/2014
11442	Add	Sand Key Light	Fl (2) 15s 40ft 13M	N 24 27' 20.941"	W 081 52' 38.313"	24.45582	-81.87731	LNM 26/14, 7th Dist	355	11442_1	7/17/2014
11442	Relocate	Moser Channel Light 12	Fl R 2.5s 16ft 3M "12"	N 24 45' 14.881"	W 081 10' 15.776"	24.75413	-81.17105	LNM 26/14, 7th Dist	355	11442_1	7/17/2014
11442	Relocate	Moser Channel Light 17	Fl G 4s 16ft 4M "17"	N 24 48' 56.630"	W 081 09' 08.877"	24.81573	-81.15247	LNM 25/14, 7th Dist	355	11442_1	6/26/2014
11442	Relocate	Moser Channel Light 10	Fl R 4s 16ft 5M "10"	N 24 44' 01.652"	W 081 10' 14.873"	24.73379	-81.1708	LNM 25/14, 7th Dist	355	11442_1	6/26/2014
11442	Relocate	Moser Channel Light 8	Fl R 6s 16ft 4M "8"	N 24 43' 21.855"	W 081 10' 13.252"	24.72274	-81.17035	LNM 25/14, 7th Dist	355	11442_1	6/26/2014
11442	Add	Visible Wreck	PA	N 24 30' 35.580"	W 081 50' 27.240"	24.50988	-81.8409	LNM 20/14, 7th Dist	355	11442_1	5/29/2014
11442	Change	Pigeon Key Light 21	Fl G 4s 16ft 5M "21"	N 24 42' 55.227"	W 081 09' 06.108"	24.71534	-81.1517	LNM 17/14, 7th Dist	355	11442_1	5/8/2014
11442	Delete	Calda Channel Shoal Daybeacon	W Bn	N 24 36' 19.673"	W 081 48' 22.513"	24.60546	-81.80625	LNM 15/14, 7th Dist	355	11442_1	5/1/2014
11442	Add	Calda Channel Daybeacon 20A	R "20A"	N 24 36' 19.673"	W 081 48' 22.513"	24.60546	-81.80625	LNM 15/14, 7th Dist	355	11442_1	5/1/2014
11442	Relocate	Big Pine Shoal Light 22	Q R 18ft 6M "22"	N 24 34' 06.078"	W 081 19' 32.338"	24.56836	-81.32565	LNM 33/13, 7th Dist	355	11442_1	8/22/2013
11442	Relocate	Newfound Harbor Keys Light 50	Fl R 2.5s 16ft 5M "50"	N 24 36' 47.377"	W 081 23' 38.483"	24.61316	-81.39402	LNM 33/13, 7th Dist	355	11442_1	8/22/2013
11442	Change	Key West Northwest Channel Light 15A	Fl G 4s 14ft 5M "15A"	N 24 34' 54.987"	W 081 50' 24.966"	24.58194	-81.84027	LNM 31/13, 7th Dist	355	11442_1	8/19/2013
11442	Change	Newfound Harbor Keys Light 50	Fl R 2.5s 16ft 5M "50"	N 24 36' 47.520"	W 081 23' 38.285"	24.6132	-81.39397	LNM 31/13, 7th Dist	355	11442_1	8/19/2013
11442	Delete	Key West Southwest Channel Buoy D	RW C "D"	N 24 30' 25.537"	W 081 52' 22.835"	24.50709	-81.87301	LNM 27/13, 7th Dist	355	11442_1	8/15/2013
11442	Delete	Key West Southwest Channel Buoy E	RW C "E"	N 24 31' 11.534"	W 081 51' 02.333"	24.51987	-81.85065	LNM 27/13, 7th Dist	355	11442_1	8/15/2013
11442	Delete	Sand Key Preferred Channel Buoy	RG N	N 24 30' 34.736"	W 081 50' 25.433"	24.50965	-81.8404	LNM 27/13, 7th Dist	355	11442_1	8/15/2013
11442	Delete	Dangerous Wreck	PD      Chart No. 1: K28	N 24 38' 24.700"	W 081 54' 25.800"	24.64019	-81.90717	LNM 28/13, 7th Dist	355	11442_1	7/4/2013
11442	Change	Safe Harbor Channel Light 3	Fl G 6s 5M "3"	N 24 32' 47.905"	W 081 43' 59.423"	24.54664	-81.73317	LNM 22/13, 7th Dist	355	11442_1	6/20/2013
11442	Delete	Restricted Area Label	(sanctuary preservation area; see note A)	N 24 34' 01.700"	W 081 23' 19.900"	24.56714	-81.38886	LNM 26/13, 7th Dist	355	11442_1	6/17/2013
11442	Add	Restricted Area Label	(special-use area; see note A)	N 24 34' 01.700"	W 081 23' 19.900"	24.56714	-81.38886	LNM 26/13, 7th Dist	355	11442_1	6/17/2013
11442	Delete	Restricted Area Label	(special-use area; see note A)	N 24 32' 53.900"	W 081 24' 22.500"	24.54831	-81.40625	LNM 26/13, 7th Dist	355	11442_1	6/17/2013
11442	Add	Restricted Area Label	(sanctuary preservation area; see note A)	N 24 32' 53.900"	W 081 24' 22.500"	24.54831	-81.40625	LNM 26/13, 7th Dist	355	11442_1	6/17/2013
11442	Change	Calda Channel Light 1	Fl G 4s 16ft 5M "1"	N 24 37' 48.055"	W 081 49' 34.071"	24.63001	-81.82613	LNM 21/13, 7th Dist	355	11442_1	6/4/2013
11442	Change	Key West Northwest Channel Light 10	Fl R 4s 12ft 5M "10"	N 24 36' 54.581"	W 081 52' 34.256"	24.61516	-81.87618	LNM 21/13, 7th Dist	355	11442_1	6/4/2013
11442	Change	Safe Harbor Channel Light 4	Fl R 2.5s 16ft 5M "4"	N 24 33' 06.084"	W 081 43' 59.394"	24.55169	-81.73316	LNM 20/13, 7th Dist	355	11442_1	5/30/2013
11442	Add	Obstruction in Feet	29 Obstn       Chart No. 1: K41	N 24 41' 59.397"	W 081 52' 46.779"	24.69983	-81.87966	LNM 16/13, 7th Dist	355	11442_1	4/15/2013
11442	Change	Boca Chica Channel Light 1	Fl G 4s 16ft 5M "1"	N 24 32' 46.728"	W 081 43' 34.479"	24.54631	-81.72624	LNM 13/13, 7th Dist	355	11442_1	4/8/2013
11442	Change	Loggerhead Key Light 50A	Fl R 6s 16ft 5M "50A"	N 24 35' 50.592"	W 081 27' 17.130"	24.59739	-81.45476	LNM 10/13, 7th Dist	355	11442_1	4/2/2013
11442	Change	Newfound Harbor Channel Entrance Light 2	Fl R 4s 16ft 5M "2"	N 24 37' 08.229"	W 081 24' 25.525"	24.61895	-81.40709	LNM 10/13, 7th Dist	355	11442_1	4/2/2013
11442	Change	Little Money Key Light 25	Fl G 4s 16ft 5M "25"	N 24 41' 46.453"	W 081 12' 26.827"	24.69624	-81.20745	LNM 09/13, 7th Dist	355	11442_1	3/18/2013
11485	Relocate	Ponce de Leon Inlet Buoy 8B	R N "8B"	N 29 04' 26.508"	W 080 55' 16.975"	29.07403	-80.92138	LNM 21/17, 7th Dist	280	11485_3	6/1/2017
11485	Relocate	Tolomato River Lighted Buoy 60	R "60" Q R AIS	N 29 54' 29.100"	W 081 17' 51.830"	29.90808	-81.29773	LNM 20/17, 7th Dist	279	11485_1	6/1/2017
11427	Relocate	Jug Creek Channel Daybeacon 1	G "1" Priv	N 26 42' 06.209"	W 082 10' 55.653"	26.70173	-82.18213	LNM 35/17, 7th Dist	365	11427_2	Not Yet
11427	Relocate	Jug Creek Channel Daybeacon 2	R "2" Priv	N 26 42' 05.363"	W 082 10' 55.948"	26.70149	-82.18221	LNM 35/17, 7th Dist	365	11427_2	Not Yet
11427	Relocate	Jug Creek Channel Daybeacon 4	R "4" Priv	N 26 42' 00.917"	W 082 10' 54.573"	26.70025	-82.18182	LNM 35/17, 7th Dist	365	11427_2	Not Yet
11427	Relocate	Jug Creek Channel Daybeacon 6	R "6" Priv	N 26 41' 57.840"	W 082 10' 51.048"	26.6994	-82.18085	LNM 35/17, 7th Dist	365	11427_2	Not Yet
11427	Relocate	Jug Creek Channel Daybeacon 8	R "8" Priv	N 26 41' 57.516"	W 082 10' 39.683"	26.69931	-82.17769	LNM 35/17, 7th Dist	365	11427_2	Not Yet
11427	Relocate	Jug Creek Channel Daybeacon 10	R "10" Priv	N 26 41' 55.319"	W 082 10' 35.372"	26.6987	-82.17649	LNM 35/17, 7th Dist	365	11427_2	Not Yet
11427	Relocate	Jug Creek Channel Daybeacon 11	G "11" Priv	N 26 41' 52.518"	W 082 10' 26.824"	26.69792	-82.17412	LNM 35/17, 7th Dist	365	11427_2	Not Yet
11427	Relocate	Jug Creek Channel Daybeacon 12	R "12" Priv	N 26 41' 47.914"	W 082 10' 21.913"	26.69664	-82.17275	LNM 35/17, 7th Dist	365	11427_2	Not Yet
11427	Relocate	Jug Creek Channel Daybeacon 14	R "14" Priv	N 26 41' 46.528"	W 082 10' 13.924"	26.69626	-82.17053	LNM 35/17, 7th Dist	365	11427_2	Not Yet
11427	Relocate	Jug Creek Channel Daybeacon 16	R "16" Priv	N 26 41' 39.588"	W 082 10' 09.047"	26.69433	-82.16918	LNM 35/17, 7th Dist	365	11427_2	Not Yet
11427	Relocate	Jug Creek Channel Daybeacon 18	R "18" Priv	N 26 41' 40.585"	W 082 10' 06.243"	26.69461	-82.1684	LNM 35/17, 7th Dist	365	11427_2	Not Yet
11427	Relocate	Jug Creek Channel Daybeacon 20	R "20" Priv	N 26 41' 41.373"	W 082 10' 03.363"	26.69483	-82.1676	LNM 35/17, 7th Dist	365	11427_2	Not Yet
11427	Relocate	Jug Creek Channel Daybeacon 24	R "24" Priv	N 26 41' 43.374"	W 082 09' 51.335"	26.69538	-82.16426	LNM 35/17, 7th Dist	365	11427_2	Not Yet
11427	Add	Jug Creek Channel Daybeacon 11A	G "11A" Priv	N 26 41' 50.535"	W 082 10' 22.709"	26.69737	-82.17297	LNM 35/17, 7th Dist	365	11427_2	Not Yet
11427	Change	Depth Note - NOTE D MATANZAS PASS to:	The controlling depth was 9 feet for a width of 150 feet to 2627'52.08"N 8158'11.75"W; thence 10 feet for a width of 125 feet from Light "7" to the SR 865 bridge; thence 4 1/2 feet for a width of 125 feet to the turning basin with 6 feet in the basin. Jan 2016	N 26 29' 08.000"	W 081 54' 55.000"	26.48556	-81.91528	LNM 35/17, 7th Dist	364	11427_3	8/24/2017
11427	Change	Depth Note - NOTE D MATANZAS PASS to:	The controlling depth was 9 feet for a width of 150 feet to 2627'52.08"N 8158'11.75"W; thence 10 feet for a width of 125 feet from Light "7" to the SR 865 bridge; thence 4 1/2 feet for a width of 125 feet to the turning basin with 6 feet in the basin. Jan 2016	N 26 29' 47.000"	W 081 58' 14.000"	26.49639	-81.97056	LNM 35/17, 7th Dist	366	11427_1	8/24/2017
11427	Delete	Channel Limits PT 1 OF 5	Chart No. 1: I20	N 26 27' 59.830"	W 081 58' 02.990"	26.46662	-81.9675	LNM 35/17, 7th Dist	364	11427_3	8/24/2017
11427	Delete	Channel Limits PT 1 OF 5	Chart No. 1: I20	N 26 27' 59.830"	W 081 58' 02.990"	26.46662	-81.9675	LNM 35/17, 7th Dist	366	11427_1	8/24/2017
11427	Delete	Channel Limits PT 2 OF 5	Chart No. 1: I20	N 26 27' 52.760"	W 081 58' 12.250"	26.46465	-81.97007	LNM 35/17, 7th Dist	364	11427_3	8/24/2017
11427	Delete	Channel Limits PT 2 OF 5	Chart No. 1: I20	N 26 27' 52.760"	W 081 58' 12.250"	26.46465	-81.97007	LNM 35/17, 7th Dist	366	11427_1	8/24/2017
11427	Delete	Channel Limits PT 3 OF 5	Chart No. 1: I20	N 26 27' 57.780"	W 081 58' 01.880"	26.46605	-81.96719	LNM 35/17, 7th Dist	364	11427_3	8/24/2017
11427	Delete	Channel Limits PT 3 OF 5	Chart No. 1: I20	N 26 27' 57.780"	W 081 58' 01.880"	26.46605	-81.96719	LNM 35/17, 7th Dist	366	11427_1	8/24/2017
11427	Delete	Channel Limits PT 4 OF 5	Chart No. 1: I20	N 26 27' 56.910"	W 081 58' 04.250"	26.46581	-81.96785	LNM 35/17, 7th Dist	364	11427_3	8/24/2017
11427	Delete	Channel Limits PT 4 OF 5	Chart No. 1: I20	N 26 27' 56.910"	W 081 58' 04.250"	26.46581	-81.96785	LNM 35/17, 7th Dist	366	11427_1	8/24/2017
11427	Delete	Channel Limits PT 5 OF 5	Chart No. 1: I20	N 26 27' 51.540"	W 081 58' 11.300"	26.46432	-81.9698	LNM 35/17, 7th Dist	364	11427_3	8/24/2017
11427	Delete	Channel Limits PT 5 OF 5	Chart No. 1: I20	N 26 27' 51.540"	W 081 58' 11.300"	26.46432	-81.9698	LNM 35/17, 7th Dist	366	11427_1	8/24/2017
11427	Relocate	New Pass Buoy 4	R N  "4" Priv	N 26 22' 39.596"	W 081 52' 09.958"	26.37767	-81.86943	LNM 31/17, 7th Dist	364	11427_3	8/24/2017
11427	Relocate	New Pass Lighted Buoy 1	G "1" Fl G 2.5s Priv	N 26 22' 27.831"	W 081 52' 34.683"	26.3744	-81.8763	LNM 31/17, 7th Dist	364	11427_3	8/24/2017
11427	Relocate	New Pass Lighted Buoy 2	R "2" Fl R 2.5s Priv	N 26 22' 31.591"	W 081 52' 25.805"	26.37544	-81.87383	LNM 31/17, 7th Dist	364	11427_3	8/24/2017
11427	Relocate	Redfish Pass Buoy 4	R N "4" Priv	N 26 33' 11.689"	W 082 12' 23.318"	26.55325	-82.20647	LNM 31/17, 7th Dist	365	11427_2	8/24/2017
11427	Relocate	Redfish Pass Buoy 5	G C "5" Priv	N 26 33' 15.579"	W 082 12' 08.182"	26.55433	-82.20227	LNM 31/17, 7th Dist	365	11427_2	8/24/2017
11427	Relocate	Redfish Pass Lighted Buoy 1	G "1" Fl G 2.5s Priv	N 26 33' 11.403"	W 082 12' 42.532"	26.55317	-82.21181	LNM 31/17, 7th Dist	365	11427_2	8/24/2017
11427	Delete	Estero Pointe Channel Daybeacon 13	G "13"	N 26 25' 25.100"	W 081 52' 08.500"	26.42364	-81.86903	LNM 31/17, 7th Dist	364	11427_3	8/24/2017
11427	Delete	Estero Pointe Channel Daybeacon 28	R "28" Priv	N 26 25' 45.500"	W 081 51' 48.400"	26.42931	-81.86344	LNM 30/17, 7th Dist	364	11427_3	8/24/2017
11427	Delete	Bunche Beach Channel Daybeacon 1	G "1" Priv	N 26 28' 01.000"	W 081 57' 50.000"	26.46694	-81.96389	LNM 29/17, 7th Dist	364	11427_3	8/3/2017
11427	Delete	Bunche Beach Channel Daybeacon 1	G "1" Priv	N 26 28' 01.000"	W 081 57' 50.000"	26.46694	-81.96389	LNM 29/17, 7th Dist	366	11427_1	8/3/2017
11427	Delete	Bunche Beach Channel Daybeacon 2	R "2" Priv	N 26 28' 00.000"	W 081 57' 48.200"	26.46667	-81.96339	LNM 29/17, 7th Dist	364	11427_3	8/3/2017
11427	Delete	Bunche Beach Channel Daybeacon 2	R "2" Priv	N 26 28' 00.000"	W 081 57' 48.200"	26.46667	-81.96339	LNM 29/17, 7th Dist	366	11427_1	8/3/2017
11427	Delete	Bunche Beach Channel Daybeacon 3	G "3" Priv	N 26 28' 02.300"	W 081 57' 46.500"	26.46731	-81.96291	LNM 29/17, 7th Dist	364	11427_3	8/3/2017
11427	Delete	Bunche Beach Channel Daybeacon 3	G "3" Priv	N 26 28' 02.300"	W 081 57' 46.500"	26.46731	-81.96291	LNM 29/17, 7th Dist	366	11427_1	8/3/2017
11427	Delete	Bunche Beach Channel Daybeacon 5	G "5" Priv	N 26 28' 04.300"	W 081 57' 43.000"	26.46786	-81.96194	LNM 29/17, 7th Dist	364	11427_3	8/3/2017
11427	Delete	Bunche Beach Channel Daybeacon 5	G "5" Priv	N 26 28' 04.300"	W 081 57' 43.000"	26.46786	-81.96194	LNM 29/17, 7th Dist	366	11427_1	8/3/2017
11427	Delete	Bunche Beach Channel Daybeacon 6	R "6" Priv	N 26 28' 03.000"	W 081 57' 40.800"	26.4675	-81.96133	LNM 29/17, 7th Dist	364	11427_3	8/3/2017
11427	Delete	Bunche Beach Channel Daybeacon 6	R "6" Priv	N 26 28' 03.000"	W 081 57' 40.800"	26.4675	-81.96133	LNM 29/17, 7th Dist	366	11427_1	8/3/2017
11427	Delete	Bunche Beach Channel Daybeacon 7	G "7" Priv	N 26 28' 09.300"	W 081 57' 39.200"	26.46925	-81.96089	LNM 29/17, 7th Dist	364	11427_3	8/3/2017
11427	Delete	Bunche Beach Channel Daybeacon 7	G "7" Priv	N 26 28' 09.300"	W 081 57' 39.200"	26.46925	-81.96089	LNM 29/17, 7th Dist	366	11427_1	8/3/2017
11427	Delete	Bunche Beach Channel Daybeacon 9	G "9" Priv	N 26 28' 13.200"	W 081 57' 37.100"	26.47033	-81.9603	LNM 29/17, 7th Dist	364	11427_3	8/3/2017
11427	Delete	Bunche Beach Channel Daybeacon 10	R "10" Priv	N 26 28' 12.200"	W 081 57' 35.300"	26.47005	-81.95981	LNM 29/17, 7th Dist	364	11427_3	8/3/2017
11427	Delete	Bunche Beach Channel Daybeacon 10	R "10" Priv	N 26 28' 12.200"	W 081 57' 35.300"	26.47005	-81.95981	LNM 29/17, 7th Dist	366	11427_1	8/3/2017
11427	Relocate	North Estero Bay Daybeacon 2	R "2" Priv	N 26 27' 15.413"	W 081 56' 34.797"	26.45428	-81.943	LNM 28/17, 7th Dist	364	11427_3	7/20/2017
11427	Relocate	North Estero Bay Daybeacon 4	R "4" Priv	N 26 27' 13.875"	W 081 56' 27.679"	26.45385	-81.94102	LNM 28/17, 7th Dist	364	11427_3	7/20/2017
11427	Relocate	North Estero Bay Daybeacon 8	R "8" Priv	N 26 27' 07.718"	W 081 56' 13.037"	26.45214	-81.93696	LNM 28/17, 7th Dist	364	11427_3	7/20/2017
11427	Relocate	North Estero Bay Daybeacon 19	G "19" Priv	N 26 26' 46.573"	W 081 55' 31.954"	26.44627	-81.92554	LNM 28/17, 7th Dist	364	11427_3	7/20/2017
11427	Relocate	North Estero Bay Daybeacon 23	G "23" Priv	N 26 26' 31.888"	W 081 55' 19.663"	26.44219	-81.92213	LNM 28/17, 7th Dist	364	11427_3	7/20/2017
11427	Relocate	North Estero Bay Daybeacon 25	G "25" Priv	N 26 26' 26.674"	W 081 55' 12.516"	26.44074	-81.92014	LNM 28/17, 7th Dist	364	11427_3	7/20/2017
11427	Relocate	North Estero Bay Daybeacon 27	G "27" Priv	N 26 26' 23.899"	W 081 55' 09.415"	26.43997	-81.91928	LNM 28/17, 7th Dist	364	11427_3	7/20/2017
11427	Relocate	North Estero Bay Daybeacon 33	G "33" Priv	N 26 26' 17.115"	W 081 54' 52.917"	26.43809	-81.9147	LNM 28/17, 7th Dist	364	11427_3	7/20/2017
11427	Relocate	North Estero Bay Daybeacon 37	G "37" Priv	N 26 26' 05.537"	W 081 54' 37.260"	26.43487	-81.91035	LNM 28/17, 7th Dist	364	11427_3	7/20/2017
11427	Relocate	North Estero Bay Daybeacon 39	G "39" Priv	N 26 26' 04.880"	W 081 54' 15.588"	26.43469	-81.90433	LNM 28/17, 7th Dist	364	11427_3	7/20/2017
11427	Relocate	North Estero Bay Daybeacon 47	G "47" Priv	N 26 25' 46.914"	W 081 53' 48.529"	26.4297	-81.89681	LNM 28/17, 7th Dist	364	11427_3	7/20/2017
11427	Relocate	North Estero Bay Daybeacon 52	R "52" Priv	N 26 25' 30.896"	W 081 53' 31.317"	26.42525	-81.89203	LNM 28/17, 7th Dist	364	11427_3	7/20/2017
11427	Relocate	North Estero Bay Daybeacon 57	G "57" Priv	N 26 25' 05.388"	W 081 53' 26.061"	26.41816	-81.89057	LNM 28/17, 7th Dist	364	11427_3	7/20/2017
11427	Relocate	North Estero Bay Daybeacon 59	G "59" Priv	N 26 24' 57.429"	W 081 53' 30.644"	26.41595	-81.89185	LNM 28/17, 7th Dist	364	11427_3	7/20/2017
11427	Relocate	North Estero Bay Daybeacon 63	G "63" Priv	N 26 24' 39.748"	W 081 53' 15.350"	26.41104	-81.8876	LNM 28/17, 7th Dist	364	11427_3	7/20/2017
11427	Relocate	North Estero Bay Daybeacon 67	G "67" Priv	N 26 24' 38.357"	W 081 52' 58.160"	26.41065	-81.88282	LNM 28/17, 7th Dist	364	11427_3	7/20/2017
11427	Relocate	North Estero Bay Daybeacon 68	R "68" Priv	N 26 24' 30.680"	W 081 52' 56.594"	26.40852	-81.88239	LNM 28/17, 7th Dist	364	11427_3	7/20/2017
11427	Add	North Estero Bay Daybeacon 66	R "66" Priv	N 26 24' 34.744"	W 081 53' 00.561"	26.40965	-81.88349	LNM 27/17, 7th Dist	364	11427_3	7/13/2017
11427	Relocate	Pine Island Sound Daybeacon 38	R "38"	N 26 32' 58.724"	W 082 10' 02.657"	26.54965	-82.1674	LNM 24/17, 7th Dist	365	11427_2	6/22/2017
11427	Relocate	Matlacha Pass Daybeacon 7	G "7" Priv	N 26 30' 26.458"	W 082 03' 36.750"	26.50735	-82.06021	LNM 21/17, 7th Dist	366	11427_1	6/1/2017
11427	Relocate	Caloosahatchee River Light 101	Q G 16ft 4M "101"	N 26 30' 40.214"	W 082 00' 59.499"	26.51117	-82.01653	LNM 10/17, 7th Dist	366	11427_1	3/16/2017
11427	Change	San Carlos Bay Channel Light 4	Q R 16ft 4M "4"	N 26 27' 06.751"	W 081 58' 40.591"	26.45188	-81.97794	LNM 07/17, 7th Dist	364	11427_3	2/23/2017
11427	Change	San Carlos Bay Channel Light 4	Q R 16ft 4M "4"	N 26 27' 06.751"	W 081 58' 40.591"	26.45188	-81.97794	LNM 07/17, 7th Dist	366	11427_1	2/23/2017
11432	Change	Whitewater Bay Daybeacon 40	R "40" Priv	N 25 19' 12.708"	W 081 01' 49.611"	25.3202	-81.03045	LNM 31/17, 7th Dist	357	11432_1	8/24/2017
11432	Change	Cormorant Pass Daybeacon 48	R "48" Priv	N 25 19' 52.727"	W 081 03' 20.638"	25.33131	-81.05573	LNM 31/17, 7th Dist	357	11432_1	8/24/2017
11432	Change	Oyster Bay Daybeacon 53	G "53" Priv	N 25 19' 36.368"	W 081 04' 59.041"	25.32677	-81.08307	LNM 31/17, 7th Dist	357	11432_1	8/24/2017
11432	Change	Oyster Bay Daybeacon 63	G "63" Priv	N 25 20' 16.912"	W 081 05' 53.700"	25.33803	-81.09825	LNM 31/17, 7th Dist	357	11432_1	8/24/2017
11432	Change	Little Shark River Daybeacon 69	G "69" Priv	N 25 19' 52.763"	W 081 07' 14.906"	25.33132	-81.1208	LNM 31/17, 7th Dist	357	11432_1	8/24/2017
11432	Change	Lostmans River Light 8	Fl R 2.5s 18ft 5M "8"	N 25 32' 33.510"	W 081 14' 59.048"	25.54264	-81.24973	LNM 50/16, 7th Dist	357	11432_1	12/22/2016
11432	Change	Broad Creek Light 6	Fl R 6s 18ft 5M "6"	N 25 26' 19.414"	W 081 12' 12.279"	25.43873	-81.20341	LNM 50/16, 7th Dist	357	11432_1	12/22/2016
11432	Change	Little Shark River Entrance Light 1	Fl G 4s 16ft 5M "1"	N 25 19' 21.164"	W 081 09' 14.380"	25.32255	-81.15399	LNM 50/16, 7th Dist	357	11432_1	12/22/2016
11432	Delete	Cormorant Pass Daybeacon 44	R "44"	N 25 19' 26.622"	W 081 02' 31.563"	25.32406	-81.0421	LNM 39/16, 7th Dist	357	11432_1	10/6/2016
11432	Delete	Cormorant Pass Daybeacon 45	G "45"	N 25 19' 26.772"	W 081 02' 46.737"	25.3241	-81.04632	LNM 39/16, 7th Dist	357	11432_1	10/6/2016
11432	Delete	Little Shark River Daybeacon 64	R "64"	N 25 20' 20.897"	W 081 06' 00.502"	25.33914	-81.10014	LNM 39/16, 7th Dist	357	11432_1	10/6/2016
11432	Delete	Little Shark River Daybeacon 65	G "65"	N 25 20' 16.057"	W 081 06' 17.423"	25.33779	-81.10484	LNM 39/16, 7th Dist	357	11432_1	10/6/2016
11432	Delete	Little Shark River Daybeacon 67	G "67"	N 25 20' 10.774"	W 081 06' 34.356"	25.33633	-81.10954	LNM 39/16, 7th Dist	357	11432_1	10/6/2016
11432	Delete	Little Shark River Daybeacon 68	R "68"	N 25 20' 07.737"	W 081 06' 42.713"	25.33548	-81.11186	LNM 39/16, 7th Dist	357	11432_1	10/6/2016
11432	Delete	Little Shark River Daybeacon 70	R "70" PA	N 25 19' 54.400"	W 081 07' 15.200"	25.33178	-81.12089	LNM 39/16, 7th Dist	357	11432_1	10/6/2016
11432	Delete	Oyster Bay Daybeacon 50	R "50"	N 25 19' 57.287"	W 081 03' 41.918"	25.33258	-81.06165	LNM 39/16, 7th Dist	357	11432_1	10/6/2016
11432	Delete	Oyster Bay Daybeacon 55	G "55"	N 25 19' 36.068"	W 081 05' 07.961"	25.32668	-81.08555	LNM 39/16, 7th Dist	357	11432_1	10/6/2016
11432	Delete	Oyster Bay Daybeacon 57	G "57"	N 25 19' 47.838"	W 081 05' 22.711"	25.32995	-81.08965	LNM 39/16, 7th Dist	357	11432_1	10/6/2016
11432	Delete	Oyster Bay Daybeacon 59	G "59"	N 25 20' 04.800"	W 081 05' 36.400"	25.33467	-81.09344	LNM 39/16, 7th Dist	357	11432_1	10/6/2016
11432	Delete	Oyster Bay Daybeacon 62	R "62"	N 25 20' 14.357"	W 081 05' 45.687"	25.33732	-81.09602	LNM 39/16, 7th Dist	357	11432_1	10/6/2016
11432	Delete	Cormorant Pass Buoy 47	G C "47"	N 25 19' 35.427"	W 081 03' 08.979"	25.32651	-81.0525	LNM 39/16, 7th Dist	357	11432_1	10/6/2016
11432	Delete	Cormorant Pass Daybeacon 42	R "42"	N 25 19' 21.174"	W 081 02' 13.851"	25.32255	-81.03718	LNM 50/15, 7th Dist	357	11432_1	12/24/2015
11432	Delete	Oyster Bay Daybeacon 61	G "61"	N 25 20' 09.457"	W 081 05' 45.222"	25.33596	-81.09589	LNM 50/15, 7th Dist	357	11432_1	12/24/2015
11432	Delete	Oyster Bay Buoy 51	G C "51"	N 25 19' 50.614"	W 081 04' 21.802"	25.33073	-81.07272	LNM 45/15, 7th Dist	357	11432_1	11/19/2015
11481	Delete	Banana River Daybeacon 24	R "24"	N 28 19' 55.830"	W 080 39' 16.518"	28.33217	-80.65459	LNM 25/17, 7th Dist	323	11481_1	6/29/2017
11481	Add	Banana River Buoy 24	R N "24"	N 28 19' 55.810"	W 080 39' 16.504"	28.33217	-80.65459	LNM 25/17, 7th Dist	323	11481_1	6/29/2017
11481	Delete	Banana River Daybeacon 17	G "17"	N 28 18' 32.844"	W 080 39' 12.684"	28.30912	-80.65353	LNM 24/17, 7th Dist	323	11481_1	6/22/2017
11481	Add	Banana River Buoy 17	G C "17"	N 28 18' 32.852"	W 080 39' 12.686"	28.30913	-80.65353	LNM 24/17, 7th Dist	323	11481_1	6/22/2017
11481	Add	Depth Legend to:	33 FT NOV 2016	N 28 24' 33.370"	W 080 37' 02.620"	28.40927	-80.61739	LNM 22/17, 7th Dist	323	11481_1	5/25/2017
11481	Change	Depth Legend to:	32 FT NOV 2016	N 28 24' 32.010"	W 080 35' 53.920"	28.40889	-80.59831	LNM 22/17, 7th Dist	323	11481_1	5/25/2017
11481	Change	Depth Legend - Widener to:	41 FT NOV 2016	N 28 24' 30.500"	W 080 34' 31.800"	28.40847	-80.5755	LNM 22/17, 7th Dist	323	11481_1	5/25/2017
11481	Add	Depth Legend to:	12 FT NOV 2016	N 28 24' 33.400"	W 080 37' 35.000"	28.40928	-80.62639	LNM 22/17, 7th Dist	323	11481_1	5/25/2017
11481	Delete	Depth Legend to:	12 FT JAN 2015	N 28 24' 32.200"	W 080 37' 43.000"	28.40895	-80.62861	LNM 22/17, 7th Dist	323	11481_1	5/25/2017
11481	Add	magenta channel reach separation line PT 1 OF 2	magenta channel reach separation line	N 28 24' 33.720"	W 080 37' 54.580"	28.40937	-80.63183	LNM 22/17, 7th Dist	323	11481_1	5/25/2017
11481	Add	magenta channel reach separation line PT 2 OF 2	magenta channel reach separation line	N 28 24' 32.800"	W 080 37' 54.590"	28.40911	-80.63183	LNM 22/17, 7th Dist	323	11481_1	5/25/2017
11481	Change	tabulation - Port Canaveral Channel Depths	tabulation - Port Canaveral Channel Depths	N 28 20' 52.100"	W 080 40' 00.820"	28.34781	-80.66689	LNM 22/17, 7th Dist	323	11481_1	5/25/2017
11481	Relocate	Canaveral Harbor Entrance Channel Range Front Light	Q G 32ft	N 28 24' 35.790"	W 080 37' 36.820"	28.40994	-80.62689	LNM 45/16, 7th Dist	323	11481_1	11/17/2016
11481	Change	Canaveral Harbor Entrance Channel Range Front Light	Fl G 2.5s 28ft	N 28 24' 35.790"	W 080 37' 36.820"	28.40994	-80.62689	LNM 45/16, 7th Dist	323	11481_1	11/17/2016
11481	Relocate	Canaveral Harbor Entrance Channel Range Rear Light	Iso G 6s 64ft	N 28 24' 35.910"	W 080 38' 02.580"	28.40998	-80.63405	LNM 45/16, 7th Dist	323	11481_1	11/17/2016
11481	Change	Canaveral Harbor Entrance Channel Range Rear Light	Iso G 6s 65ft	N 28 24' 35.910"	W 080 38' 02.580"	28.40998	-80.63405	LNM 45/16, 7th Dist	323	11481_1	11/17/2016
11481	Add	Submerged Pile	Subm pile PA	N 28 26' 15.900"	W 080 38' 26.610"	28.43775	-80.64072	LNM 43/16, 7th Dist	323	11481_1	11/3/2016
11481	Change	tabulation - PORT CANAVERAL CHANNEL DEPTHS	tabulation - PORT CANAVERAL CHANNEL DEPTHS	N 28 27' 30.000"	W 080 34' 30.000"	28.45833	-80.575	LNM 25/16, 7th Dist	323	11481_1	8/18/2016
11481	Change	Depth Legend - Inner Reach to:	30 FT JUN 2015	N 28 24' 32.000"	W 080 35' 54.000"	28.40889	-80.59834	LNM 25/16, 7th Dist	323	11481_1	6/30/2016
11481	Change	Depth Legend - East Basin to:	35 1/2 FT JUN 2015	N 28 25' 06.000"	W 080 35' 44.000"	28.41833	-80.59556	LNM 25/16, 7th Dist	323	11481_1	6/30/2016
11481	Change	Depth Legend - Widener to:	43 1/2 FT JUN 2015	N 28 24' 30.500"	W 080 34' 31.800"	28.40847	-80.5755	LNM 25/16, 7th Dist	323	11481_1	6/30/2016
11481	Change	Depth Legend - Middle Basin to:	15 1/2 FT MAY 2015	N 28 24' 54.000"	W 080 36' 30.000"	28.415	-80.60833	LNM 25/16, 7th Dist	323	11481_1	6/30/2016
11481	Change	Depth Legend - West Turning Basin to:	28 1/2 FT MAY 2015 (PROJECT DEPTH 35 FT)	N 28 24' 49.000"	W 080 37' 28.000"	28.41361	-80.62444	LNM 25/16, 7th Dist	323	11481_1	6/30/2016
11481	Change	Depth Legend - Middle Basin to:	31 1/2 FT MAY 2015	N 28 24' 51.000"	W 080 36' 30.000"	28.41417	-80.60833	LNM 25/16, 7th Dist	323	11481_1	6/30/2016
11481	Change	Depth Legend - Port Canaveral legend to:	25 FT MAY 2015	N 28 24' 33.000"	W 080 37' 05.000"	28.40917	-80.61806	LNM 25/16, 7th Dist	323	11481_1	6/30/2016
11481	Change	Depth Legend - Middle Basin to:	37 1/2 FT MAY 2015	N 28 24' 42.000"	W 080 36' 32.000"	28.41167	-80.60889	LNM 25/16, 7th Dist	323	11481_1	6/30/2016
11481	Change	Pile	Pile PA	N 28 20' 54.360"	W 080 39' 10.560"	28.34843	-80.65293	LNM 23/16, 7th Dist	323	11481_1	6/16/2016
11481	Delete	East Basin Light 2	Fl R 6s 12ft 5M "2"	N 28 24' 39.839"	W 080 35' 24.905"	28.41107	-80.59025	LNM 21/16, 7th Dist	323	11481_1	6/2/2016
11481	Relocate	Canaveral Harbor Approach Channel Lighted Buoy 9	G "9" Q G	N 28 24' 08.144"	W 080 33' 58.351"	28.40226	-80.56621	LNM 21/16, 7th Dist	323	11481_1	6/2/2016
11481	Change	Canaveral Harbor Approach Channel Lighted Buoy 9	G "9" Fl G 2.5s	N 28 24' 08.144"	W 080 33' 58.351"	28.40226	-80.56621	LNM 21/16, 7th Dist	323	11481_1	6/2/2016
11481	Relocate	Canaveral Harbor Entrance Channel Light 14	Fl R 2.5s 20ft 5M "14"	N 28 24' 38.820"	W 080 35' 36.984"	28.41078	-80.59361	LNM 21/16, 7th Dist	323	11481_1	6/2/2016
11481	Relocate	Canaveral Harbor Entrance Channel Lighted Buoy 11	G "11" Fl G 2.5s AIS	N 28 24' 21.185"	W 080 34' 20.712"	28.40588	-80.57242	LNM 21/16, 7th Dist	323	11481_1	6/2/2016
11481	Change	Canaveral Harbor Entrance Channel Lighted Buoy 11	G "11" Q G AIS	N 28 24' 21.185"	W 080 34' 20.712"	28.40588	-80.57242	LNM 21/16, 7th Dist	323	11481_1	6/2/2016
11481	Relocate	Canaveral Harbor Entrance Channel Lighted Buoy 12	R "12" Fl R 4s	N 28 24' 37.819"	W 080 35' 01.529"	28.41051	-80.58376	LNM 21/16, 7th Dist	323	11481_1	6/2/2016
11481	Relocate	Canaveral Harbor Entrance Channel Lighted Buoy 13	G "13" Fl G 4s	N 28 24' 29.396"	W 080 34' 46.001"	28.40816	-80.57944	LNM 21/16, 7th Dist	323	11481_1	6/2/2016
11481	Relocate	Canaveral Harbor Entrance Channel Lighted Buoy 14A	R "14A" Fl R 4s	N 28 24' 38.348"	W 080 36' 09.141"	28.41065	-80.60254	LNM 21/16, 7th Dist	323	11481_1	6/2/2016
11481	Add	Canaveral Harbor Entrance Channel Light 12A	Fl R 2.5s 12ft 5M "12A"	N 28 24' 38.720"	W 080 35' 21.704"	28.41076	-80.58936	LNM 21/16, 7th Dist	323	11481_1	6/2/2016
11481	Relocate	Canaveral Harbor Entrance Channel Lighted Buoy 19	G "19" Fl G 4s	N 28 24' 32.792"	W 080 37' 14.173"	28.40911	-80.62061	LNM 21/16, 7th Dist	323	11481_1	6/2/2016
11481	Change	Canaveral Harbor Entrance Channel Light 14	Fl R 4s 20ft 5M "14"	N 28 24' 38.820"	W 080 35' 36.984"	28.41078	-80.59361	LNM 21/16, 7th Dist	323	11481_1	6/2/2016
11481	Change	East Basin Light 5	Fl G 4s 12ft 5M "5"	N 28 24' 56.851"	W 080 35' 51.909"	28.41579	-80.59776	LNM 37/15, 7th Dist	323	11481_1	9/24/2015
11481	Change	tabulation - PORT CANAVERAL CHANNEL DEPTHS	tabulation - PORT CANAVERAL CHANNEL DEPTHS	N 28 27' 30.000"	W 080 34' 30.000"	28.45833	-80.575	LNM 34/15, 7th Dist	323	11481_1	8/27/2015
11481	Change	Depth Legend - East Basin to:	35 1/2 FT JAN 2015	N 28 25' 06.000"	W 080 35' 44.000"	28.41833	-80.59556	LNM 33/15, 7th Dist	323	11481_1	8/20/2015
11481	Add	Sounding in Feet	10	N 28 24' 55.100"	W 080 36' 23.800"	28.41531	-80.60661	LNM 33/15, 7th Dist	323	11481_1	8/20/2015
11481	Change	Depth Legend - Middle Basin to:	38 FT JAN 2015	N 28 24' 42.000"	W 080 36' 32.000"	28.41167	-80.60889	LNM 33/15, 7th Dist	323	11481_1	8/20/2015
11481	Change	Depth Legend - Inner Reach to:	31 FT JAN 2015	N 28 24' 32.000"	W 080 35' 54.000"	28.40889	-80.59834	LNM 33/15, 7th Dist	323	11481_1	8/20/2015
11481	Change	Depth Legend - Middle Basin to:	17 FT JAN 2015	N 28 24' 54.000"	W 080 36' 30.000"	28.415	-80.60833	LNM 33/15, 7th Dist	323	11481_1	8/20/2015
11481	Change	Depth Legend - Widener to:	43 FT JAN 2015	N 28 24' 30.500"	W 080 34' 31.800"	28.40847	-80.5755	LNM 33/15, 7th Dist	323	11481_1	8/20/2015
11481	Change	Banana River North Light 19	Fl G 4s 16ft 5M "19"	N 28 26' 53.856"	W 080 38' 29.994"	28.44829	-80.64166	LNM 15/15, 7th Dist	323	11481_1	4/23/2015
11481	Change	Canaveral Barge Canal Light 5	Fl G 4s 16ft 5M "5"	N 28 24' 32.348"	W 080 38' 42.514"	28.40899	-80.64514	LNM 15/15, 7th Dist	323	11481_1	4/23/2015
11481	Change	Canaveral Barge Canal Light 8	Fl R 4s 12ft 5M "8"	N 28 24' 33.699"	W 080 39' 34.041"	28.40936	-80.65945	LNM 15/15, 7th Dist	323	11481_1	4/23/2015
11481	Change	Cape Canaveral South Jetty Light	Fl 2.5s 20ft 5M	N 28 24' 29.630"	W 080 35' 13.540"	28.40823	-80.5871	LNM 10/15, 7th Dist	323	11481_1	3/19/2015
11481	Relocate	Cape Canaveral South Jetty Light	Fl 2.5s 20ft 5M	N 28 24' 29.630"	W 080 35' 13.540"	28.40823	-80.5871	LNM 10/15, 7th Dist	323	11481_1	3/19/2015
11481	Add	Canaveral Harbor Entrance Channel Lighted Buoy 11 Magenta Circle	G "11" Fl G 2.5s AIS	N 28 24' 30.587"	W 080 34' 41.867"	28.4085	-80.57829	LNM 08/15, 7th Dist	323	11481_1	3/5/2015
11407	Change	Depth Note - Cedar Island Channel, FL to:	CEDAR ISLAND CHANNEL  The controlling depth was1 1/2 feet for a width of 50 feet.  Nov 2016	N 29 49' 10.200"	W 083 32' 54.500"	29.8195	-83.54847	LNM 32/17, 7th Dist	169	11407_1	8/3/2017
11407	Change	Depth Legend - Horseshoe Cove Entrance Channel, FL to:	2 1/2 FT FOR A WIDTH OF 75 FT NOV 2016	N 29 25' 38.000"	W 083 17' 53.000"	29.42722	-83.29806	LNM 32/17, 7th Dist	170	11407_2	8/3/2017
11407	Change	Depth Legend - Horseshoe Cove Turning Basin, FL to:	2 FT 2016	N 29 26' 11.500"	W 083 17' 30.500"	29.43653	-83.29181	LNM 32/17, 7th Dist	170	11407_2	8/3/2017
11407	Change	Horseshoe Beach Approach Light 2	Fl R 4s 16ft 5M "2"	N 29 23' 16.188"	W 083 20' 24.430"	29.38783	-83.34012	LNM 23/16, 7th Dist	169	11407_1	6/16/2016
11407	Add	Pile	Pile PA	N 29 40' 09.900"	W 083 22' 57.240"	29.66942	-83.38257	LNM 17/15, 7th Dist	169	11407_1	5/7/2015
11412	Change	Anclote River Light 9	Q G 16ft 4M "9"	N 28 10' 47.194"	W 082 48' 14.726"	28.17978	-82.80409	LNM 31/17, 7th Dist	175	11412_1	8/24/2017
11412	Add	Scripps Wave Data Lighted Buoy CDIP STA 214	Y "CDIP STA 214" Fl (5) Y 20s Priv	N 27 35' 25.560"	W 082 55' 52.260"	27.59043	-82.93118	LNM 31/17, 7th Dist	175	11412_1	8/24/2017
11412	Relocate	Johns Pass Channel Buoy 3	G C "3"	N 27 46' 37.651"	W 082 47' 19.546"	27.77712	-82.78876	LNM 24/17, 7th Dist	175	11412_1	6/29/2017
11412	Delete	Pass-A-Grille Channel Light 6	Fl R 4s 16ft 5M "6"	N 27 40' 31.498"	W 082 44' 56.530"	27.67542	-82.74904	LNM 23/17, 7th Dist	175	11412_1	6/22/2017
11412	Relocate	Pass-A-Grille Channel Daybeacon 7	G "7"	N 27 40' 31.498"	W 082 44' 56.530"	27.67542	-82.74904	LNM 23/17, 7th Dist	175	11412_1	6/22/2017
11412	Change	Pass-A-Grille Channel Light 7	Q G 16ft 4M "7"	N 27 40' 31.498"	W 082 44' 56.530"	27.67542	-82.74904	LNM 23/17, 7th Dist	175	11412_1	6/22/2017
11412	Add	Pass-A-Grille Channel Shoal Daybeacon	W Bn	N 27 40' 36.369"	W 082 44' 52.820"	27.67677	-82.74801	LNM 23/17, 7th Dist	175	11412_1	6/22/2017
11412	Change	tabulation - TAMPA BAY CHANNEL DEPTHS	tabulation - TAMPA BAY CHANNEL DEPTHS	N 28 03' 50.500"	W 082 26' 22.700"	28.06403	-82.43964	LNM 25/17, 7th Dist	175	11412_1	6/15/2017
11412	Change	Tampa Bay Cut F Channel Inbound Range Front Light	Fl 2.5s 17ft	N 27 47' 43.774"	W 082 31' 23.455"	27.79549	-82.52319	LNM 19/17, 7th Dist	175	11412_1	5/18/2017
11412	Change	Tampa Bay Cut F Channel Inbound Range Rear Light	Iso 6s 53ft	N 27 48' 27.976"	W 082 31' 23.828"	27.80777	-82.52328	LNM 19/17, 7th Dist	175	11412_1	5/18/2017
11412	Change	Tampa Bay Cut G Channel Range Front Light	Q R 16ft	N 27 47' 34.835"	W 082 35' 13.705"	27.79301	-82.58714	LNM 16/17, 7th Dist	175	11412_1	4/27/2017
11412	Change	Tampa Bay Cut G Channel Range Front Light (Secondary Light)	Q R 4M	N 27 47' 34.835"	W 082 35' 13.705"	27.79301	-82.58714	LNM 16/17, 7th Dist	175	11412_1	4/27/2017
11412	Change	Tampa Bay Cut J Outbound Range Front Passing Light	Fl 4s 5M	N 27 45' 54.313"	W 082 34' 20.929"	27.76509	-82.57248	LNM 16/17, 7th Dist	175	11412_1	4/27/2017
11412	Change	Tampa Bay Cut J Outbound Range Rear Passing Light A	Fl 4s 5M "A"	N 27 45' 02.998"	W 082 34' 19.642"	27.75083	-82.57212	LNM 16/17, 7th Dist	175	11412_1	4/27/2017
11412	Add	Tampa Bay Cut J Outbound Range Rear Passing Light B	Fl 4s 5M "B"	N 27 45' 02.998"	W 082 34' 19.642"	27.75083	-82.57212	LNM 16/17, 7th Dist	175	11412_1	4/27/2017
11412	Add	Visible Wreck	PA	N 27 46' 36.960"	W 082 37' 31.500"	27.77693	-82.62542	LNM 16/17, 7th Dist	175	11412_1	4/27/2017
11412	Change	Tampa Bay Cut J Channel Outbound Range Front Light	Q 10ft Q 5M	N 27 45' 54.313"	W 082 34' 20.929"	27.76509	-82.57248	LNM 15/17, 7th Dist	175	11412_1	4/27/2017
11412	Change	Mullet Key Channel Range Front Light	Q 20ft	N 27 36' 50.999"	W 082 39' 56.131"	27.61417	-82.66559	LNM 13/17, 7th Dist	175	11412_1	4/13/2017
11412	Change	Mullet Key Channel Range Rear Light	Iso 6s 78ft	N 27 36' 57.106"	W 082 39' 13.365"	27.61586	-82.65371	LNM 13/17, 7th Dist	175	11412_1	4/13/2017
11412	Add	Mullet Key Channel Range Front Light Passing Light	Q 20ft 4M	N 27 36' 50.999"	W 082 39' 56.131"	27.61417	-82.66559	LNM 13/17, 7th Dist	175	11412_1	4/13/2017
11412	Add	Mullet Key Channel Range Rear Light Passing Light	Q 40ft 4M	N 27 36' 57.106"	W 082 39' 13.365"	27.61586	-82.65371	LNM 13/17, 7th Dist	175	11412_1	4/13/2017
11412	Relocate	Johns Pass Channel Buoy 3	G C "3"	N 27 46' 38.923"	W 082 47' 17.591"	27.77748	-82.78822	LNM 06/17, 7th Dist	175	11412_1	2/23/2017
11412	Relocate	Sunshine Skyway Channel Daybeacon 11	G "11"	N 27 39' 17.295"	W 082 40' 56.388"	27.6548	-82.68233	LNM 52/16, 7th Dist	175	11412_1	12/29/2016
11412	Relocate	Anclote Anchorage South Entrance Light 3	Fl G 4s 16ft 5M "3"	N 28 08' 18.493"	W 082 50' 52.622"	28.13847	-82.84795	LNM 44/16, 7th Dist	175	11412_1	11/3/2016
11412	Relocate	Tampa Bay Cut J Channel Outbound Range Rear Light	Iso 6s 64ft, Fl 4s 23ft 5M	N 27 45' 03.000"	W 082 34' 19.665"	27.75083	-82.57213	LNM 27/16, 7th Dist	175	11412_1	7/14/2016
11412	Change	Tampa Bay Cut J Channel Outbound Range Rear Light	Iso 6s 50ft, Fl 4s	N 27 45' 03.000"	W 082 34' 19.665"	27.75083	-82.57213	LNM 27/16, 7th Dist	175	11412_1	7/14/2016
11412	Delete	Anna Maria One Mile Fish Haven B	Y C "B" Priv	N 27 29' 30.000"	W 082 43' 48.000"	27.49167	-82.73	LNM 20/16, 7th Dist	175	11412_1	5/26/2016
11412	Delete	Anna Maria One Mile Fish Haven A	Y C "A" Priv	N 27 29' 17.000"	W 082 43' 45.000"	27.48806	-82.72916	LNM 20/16, 7th Dist	175	11412_1	5/26/2016
11412	Add	Passage Key Inlet Chartlet - revised hydrography, shoreline	Passage Key Inlet Chartlet - revised hydrography, shoreline	N 27 32' 00.000"	W 082 45' 00.000"	27.53333	-82.75	LNM 21/16, 7th Dist	175	11412_1	5/19/2016
11412	Change	Depth Legend - St. Petersburg Harbor to:	21 1/2 FT	N 27 45' 36.300"	W 082 37' 44.300"	27.76008	-82.62897	LNM 21/16, 7th Dist	175	11412_1	5/19/2016
11412	Change	Depth Legend - St. Petersburg Harbor to:	17 1/2 FT AUG 2015	N 27 41' 16.000"	W 082 36' 32.600"	27.68778	-82.60905	LNM 21/16, 7th Dist	175	11412_1	5/19/2016
11412	Change	Depth Legend - St. Petersburg Harbor to:	19 FT 2015	N 27 45' 33.200"	W 082 37' 21.800"	27.75922	-82.62272	LNM 21/16, 7th Dist	175	11412_1	5/19/2016
11412	Change	Depth Legend - St. Petersburg Harbor to:	10 1/2 FT	N 27 45' 33.400"	W 082 38' 00.000"	27.75928	-82.63333	LNM 21/16, 7th Dist	175	11412_1	5/19/2016
11412	Change	Depth Legend - St. Petersburg Harbor to:	20 FT AUG 2015	N 27 45' 24.600"	W 082 36' 42.000"	27.75683	-82.61166	LNM 21/16, 7th Dist	175	11412_1	5/19/2016
11412	Change	St Petersburg Channel Junction Light S	Fl (2+1) G 6s 16ft 4M "S"	N 27 45' 32.505"	W 082 36' 41.251"	27.75903	-82.61146	LNM 05/16, 7th Dist	175	11412_1	2/11/2016
11412	Add	Sunshine Skyway Bridge V-AIS	V-AIS	N 27 37' 13.346"	W 082 39' 20.102"	27.62037	-82.65559	LNM 03/16, 7th Dist	175	11412_1	1/28/2016
11412	Change	Tampa Bay Cut E Channel Inbound Range Front Light Passing Light	Q 17ft 4M	N 27 45' 47.889"	W 082 31' 14.092"	27.7633	-82.52058	LNM 02/16, 7th Dist	175	11412_1	1/21/2016
11412	Relocate	Manatee River Light 7	Q G 16ft 4M "7"	N 27 31' 50.008"	W 082 39' 02.595"	27.53056	-82.65072	LNM 50/15, 7th Dist	175	11412_1	12/24/2015
11412	Add	Manatee River Daybeacon 5	G "5"	N 27 31' 56.640"	W 082 39' 39.920"	27.5324	-82.66109	LNM 50/15, 7th Dist	175	11412_1	12/24/2015
11412	Change	Obstruction	Obstn PA	N 27 47' 23.160"	W 082 36' 41.160"	27.78977	-82.61143	LNM 42/15, 7th Dist	175	11412_1	10/29/2015
11412	Add	Pile	Pile PA	N 27 47' 23.160"	W 082 36' 41.160"	27.78977	-82.61143	LNM 41/15, 7th Dist	175	11412_1	10/22/2015
11404	Change	tabulation - CARRABELLE HARBOR CHANNEL DEPTHS	tabulation - CARRABELLE HARBOR CHANNEL DEPTHS	N 29 50' 37.000"	W 084 54' 21.000"	29.84361	-84.90583	LNM 29/17, 8th Dist	144	11404_1	7/13/2017
11404	Change	Depth Legend - Bob Sikes Pass to:	3 FT FOR A MID-WIDTH OF 50-100 FT JAN 2017	N 29 36' 55.500"	W 084 57' 35.900"	29.61542	-84.95997	LNM 29/17, 8th Dist	144	11404_1	7/13/2017
11404	Delete	St George Island Range Rear Light	Iso G 6s 36ft	N 29 37' 46.802"	W 084 58' 03.741"	29.62967	-84.9677	LNM 20/17, 8th Dist	144	11404_1	6/1/2017
11404	Delete	St George Island Range Front Light	Q G 20ft	N 29 37' 28.773"	W 084 57' 53.942"	29.62466	-84.96498	LNM 20/17, 8th Dist	144	11404_1	6/1/2017
11404	Relocate	Carrabelle River Buoy 43	G C "43"	N 29 51' 26.519"	W 084 41' 09.233"	29.85737	-84.6859	LNM 16/17, 8th Dist	145	11404_2	4/27/2017
11404	Change	Depth Legend - Scipio Creek Turning Basin to:	7 1/2 FT AUG 2016	N 29 44' 02.000"	W 084 59' 42.500"	29.73389	-84.99514	LNM 05/17, 8th Dist	144	11404_1	2/2/2017
11404	Change	Depth Legend - Scipio Creek Channel to:	7 FT BY 80 FT AUG 2016	N 29 43' 56.000"	W 084 59' 16.000"	29.73222	-84.98778	LNM 05/17, 8th Dist	144	11404_1	2/2/2017
11404	Change	Depth Legend - East Point Entrance Channel to:	ENTRANCE CHANNEL 1 1/2 FT BY 100 FT AUG 2016	N 29 44' 13.800"	W 084 52' 22.000"	29.73717	-84.87278	LNM 05/17, 8th Dist	144	11404_1	2/2/2017
11404	Change	Depth Legend - East Point West Arm Channel to:	WEST ARM CHANNEL 1/2 FT BY MID 50 AUG 2016	N 29 44' 13.000"	W 084 52' 36.500"	29.73694	-84.87681	LNM 05/17, 8th Dist	144	11404_1	2/2/2017
11404	Add	Carrabelle River Buoy 21A	G C "21A"	N 29 51' 03.123"	W 084 40' 52.834"	29.85087	-84.68134	LNM 41/16, 8th Dist	145	11404_2	10/27/2016
11404	Change	Depth Legend - East Point Entrance Channel to:	ENTRANCE CHANNEL 1 1/2 FT FOR MID-WIDTH OF 50 FT AUG 2015	N 29 44' 13.800"	W 084 52' 22.000"	29.73717	-84.87278	LNM 21/16, 8th Dist	144	11404_1	5/19/2016
11404	Change	Depth Legend - East Point West Arm Channel to:	WEST ARM CHANNEL BARES AUG 2015	N 29 44' 13.000"	W 084 52' 36.500"	29.73694	-84.87681	LNM 21/16, 8th Dist	144	11404_1	5/19/2016
11404	Change	tabulation - CARRABELLE HARBOR CHANNEL DEPTHS	tabulation - CARRABELLE HARBOR CHANNEL DEPTHS	N 29 50' 37.000"	W 084 54' 21.000"	29.84361	-84.90583	LNM 21/16, 8th Dist	144	11404_1	5/19/2016
11404	Delete	St George Island Daybeacon 3	G "3" Ra Ref	N 29 37' 17.483"	W 084 57' 49.263"	29.62152	-84.96368	LNM 15/16, 8th Dist	144	11404_1	4/21/2016
11404	Delete	St George Island Daybeacon 4	R "4" Ra Ref	N 29 37' 18.775"	W 084 57' 45.672"	29.62188	-84.96268	LNM 15/16, 8th Dist	144	11404_1	4/21/2016
11404	Add	ST GEORGE ISLAND LIGHTED BUOY 3	G "3" Fl G 2.5s	N 29 37' 07.222"	W 084 57' 44.027"	29.61867	-84.96223	LNM 15/16, 8th Dist	144	11404_1	4/21/2016
11404	Add	ST GEORGE ISLAND LIGHTED BUOY 4	R "4" Fl R 2.5s	N 29 37' 07.408"	W 084 57' 42.223"	29.61872	-84.96173	LNM 15/16, 8th Dist	144	11404_1	4/21/2016
11404	Add	ST GEORGE ISLAND LIGHTED BUOY 5	G "5" Fl G 4s	N 29 37' 19.710"	W 084 57' 50.007"	29.62214	-84.96389	LNM 15/16, 8th Dist	144	11404_1	4/21/2016
11404	Add	ST GEORGE ISLAND LIGHTED BUOY 6	R "6" Fl R 4s 	N 29 37' 20.193"	W 084 57' 48.114"	29.62228	-84.96336	LNM 15/16, 8th Dist	144	11404_1	4/21/2016
11404	Relocate	Carrabelle River Buoy 23	G C "23"	N 29 51' 04.832"	W 084 40' 57.268"	29.85134	-84.68257	LNM 05/16, 8th Dist	145	11404_2	2/11/2016
11404	Delete	Fixed Bridge	Chart No. 1: D22	N 29 43' 26.630"	W 084 58' 35.770"	29.72406	-84.9766	LNM 44/15, 8th Dist	144	11404_1	10/29/2015
11404	Add	Fixed Bridge PT 1 OF 8	Chart No. 1: D22	N 29 43' 25.550"	W 084 58' 50.700"	29.72376	-84.98075	LNM 44/15, 8th Dist	144	11404_1	10/29/2015
11404	Add	Fixed Bridge PT 2 OF 8	Chart No. 1: D22	N 29 43' 25.670"	W 084 58' 48.190"	29.7238	-84.98005	LNM 44/15, 8th Dist	144	11404_1	10/29/2015
11404	Add	Fixed Bridge PT 3 OF 8	Chart No. 1: D22	N 29 43' 28.610"	W 084 58' 37.870"	29.72461	-84.97719	LNM 44/15, 8th Dist	144	11404_1	10/29/2015
11404	Add	Fixed Bridge PT 4 OF 8	Chart No. 1: D22	N 29 43' 32.720"	W 084 58' 23.810"	29.72576	-84.97328	LNM 44/15, 8th Dist	144	11404_1	10/29/2015
11404	Add	Fixed Bridge PT 5 OF 8	Chart No. 1: D22	N 29 43' 32.100"	W 084 58' 23.610"	29.72558	-84.97323	LNM 44/15, 8th Dist	144	11404_1	10/29/2015
11404	Add	Fixed Bridge PT 6 OF 8	Chart No. 1: D22	N 29 43' 28.000"	W 084 58' 37.620"	29.72445	-84.97712	LNM 44/15, 8th Dist	144	11404_1	10/29/2015
11404	Add	Fixed Bridge PT 7 OF 8	Chart No. 1: D22	N 29 43' 25.020"	W 084 58' 48.020"	29.72362	-84.98	LNM 44/15, 8th Dist	144	11404_1	10/29/2015
11404	Add	Fixed Bridge PT 8 OF 8	Chart No. 1: D22	N 29 43' 24.870"	W 084 58' 50.470"	29.72358	-84.98068	LNM 44/15, 8th Dist	144	11404_1	10/29/2015
11404	Change	Depth Legend - SCIPIO CREEK to:	7 1/2 FT FOR A MID-WIDTH OF 40 FT AUG 2014	N 29 43' 56.000"	W 084 59' 16.000"	29.73222	-84.98778	LNM 41/15, 8th Dist	144	11404_1	10/29/2015
11404	Change	Depth Legend - BOAT BASIN to:	6 FT AUG 2014	N 29 44' 02.000"	W 084 59' 42.500"	29.73389	-84.99514	LNM 41/15, 8th Dist	144	11404_1	10/29/2015
11404	Add	Channel reach separation line PT 1 OF 2	magenta line	N 29 44' 05.100"	W 084 59' 39.400"	29.73475	-84.99428	LNM 41/15, 8th Dist	144	11404_1	10/8/2015
11404	Add	Channel reach separation line PT 2 OF 2	magenta line	N 29 44' 05.900"	W 084 59' 41.500"	29.73497	-84.99486	LNM 41/15, 8th Dist	144	11404_1	10/8/2015
11404	Change	Depth Legend - Scipio Creek Turning Basin to:	7 FT JUL 2015	N 29 44' 02.000"	W 084 59' 42.500"	29.73389	-84.99514	LNM 41/15, 8th Dist	144	11404_1	10/8/2015
11404	Delete	Carrabelle River Daybeacon 21	G "21"	N 29 50' 57.453"	W 084 40' 44.421"	29.84929	-84.67901	LNM 32/15, 8th Dist	145	11404_2	8/27/2015
11404	Add	Carrabelle River Buoy 21	G C "21"	N 29 50' 57.481"	W 084 40' 44.419"	29.8493	-84.67901	LNM 32/15, 8th Dist	145	11404_2	8/27/2015
11404	Change	tabulation - CARRABELLE HARBOR CHANNEL DEPTHS	tabulation - CARRABELLE HARBOR CHANNEL DEPTHS	N 29 50' 37.000"	W 084 54' 21.000"	29.84361	-84.90583	LNM 29/15, 8th Dist	144	11404_1	7/16/2015
11404	Change	Depth Legend - East Point Entrance Channel to:	ENTRANCE CHANNEL 1 1/2 FT BY 100 FT AUG 2014	N 29 44' 13.800"	W 084 52' 22.000"	29.73717	-84.87278	LNM 28/15, 8th Dist	144	11404_1	7/16/2015
11404	Change	Depth Legend - East Point West Arm Channel to:	WEST ARM CHANNEL 1/2 FT BY 100 FT AUG 2014	N 29 44' 13.000"	W 084 52' 36.500"	29.73694	-84.87681	LNM 28/15, 8th Dist	144	11404_1	7/16/2015
11404	Change	Depth Legend - Bob Sikes Pass to:	2 FT FOR A MID-WIDTH OF 50-100 FT JAN 2015	N 29 36' 55.500"	W 084 57' 35.900"	29.61542	-84.95997	LNM 19/15, 8th Dist	144	11404_1	5/14/2015
11404	Change	East Point Channel Daybeacon 4	R "4" Ra Ref	N 29 44' 18.063"	W 084 52' 24.166"	29.73835	-84.87338	LNM 17/15, 8th Dist	144	11404_1	5/7/2015
11433	Change	Flamingo Channel Light 9	Fl G 4s 16ft 5M "9" Priv	N 25 07' 25.234"	W 080 55' 46.746"	25.12368	-80.92965	LNM 31/17, 7th Dist	352	11433_1	8/24/2017
11433	Change	Flamingo Channel Daybeacon 12	R "12" Priv	N 25 07' 49.047"	W 080 55' 38.905"	25.13029	-80.92747	LNM 31/17, 7th Dist	352	11433_1	8/24/2017
11433	Change	Flamingo Channel Daybeacon 14	R "14" Priv	N 25 08' 12.603"	W 080 55' 32.087"	25.13684	-80.92558	LNM 31/17, 7th Dist	352	11433_1	8/24/2017
11433	Change	Flamingo Channel Light 15	Fl G 2.5s 16ft 4M "15" Priv	N 25 08' 24.064"	W 080 55' 26.596"	25.14002	-80.92406	LNM 31/17, 7th Dist	352	11433_1	8/24/2017
11433	Change	Flamingo Channel Daybeacon 16	R "16" Priv	N 25 08' 19.649"	W 080 55' 27.422"	25.13879	-80.92429	LNM 31/17, 7th Dist	352	11433_1	8/24/2017
11433	Change	Flamingo Channel Daybeacon 18	R "18" Priv	N 25 08' 25.076"	W 080 55' 19.261"	25.1403	-80.92202	LNM 31/17, 7th Dist	352	11433_1	8/24/2017
11433	Change	Coot Bay Daybeacon 2	R "2" Priv	N 25 11' 06.120"	W 080 54' 43.599"	25.18503	-80.91211	LNM 31/17, 7th Dist	352	11433_1	8/24/2017
11433	Change	Coot Bay Daybeacon 8	R "8" Priv	N 25 12' 12.948"	W 080 55' 36.723"	25.2036	-80.92686	LNM 31/17, 7th Dist	352	11433_1	8/24/2017
11433	Change	Whitewater Bay Daybeacon 10	R "10" Priv	N 25 12' 42.648"	W 080 55' 51.423"	25.21185	-80.93095	LNM 31/17, 7th Dist	352	11433_1	8/24/2017
11433	Change	Whitewater Bay Daybeacon 14	R "14" Priv	N 25 14' 20.076"	W 080 56' 13.077"	25.23891	-80.93697	LNM 31/17, 7th Dist	352	11433_1	8/24/2017
11433	Change	Whitewater Bay Daybeacon 23	G "23" Priv	N 25 15' 55.614"	W 080 58' 11.949"	25.26545	-80.96999	LNM 31/17, 7th Dist	352	11433_1	8/24/2017
11433	Change	Whitewater Bay Daybeacon 25	G "25" Priv	N 25 15' 57.618"	W 080 58' 26.475"	25.266	-80.97402	LNM 31/17, 7th Dist	352	11433_1	8/24/2017
11433	Change	Whitewater Bay Daybeacon 26	R "26" Priv	N 25 16' 14.118"	W 080 58' 35.457"	25.27059	-80.97652	LNM 31/17, 7th Dist	352	11433_1	8/24/2017
11433	Change	Whitewater Bay Daybeacon 34	R "34" Priv	N 25 17' 40.206"	W 081 00' 18.537"	25.2945	-81.00515	LNM 31/17, 7th Dist	352	11433_1	8/24/2017
11433	Change	Whitewater Bay Daybeacon 40	R "40" Priv	N 25 19' 12.708"	W 081 01' 49.611"	25.3202	-81.03045	LNM 31/17, 7th Dist	352	11433_1	8/24/2017
11433	Change	Cormorant Pass Daybeacon 48	R "48" Priv	N 25 19' 52.727"	W 081 03' 20.638"	25.33131	-81.05573	LNM 31/17, 7th Dist	352	11433_1	8/24/2017
11433	Change	Oyster Bay Daybeacon 53	G "53" Priv	N 25 19' 36.368"	W 081 04' 59.041"	25.32677	-81.08307	LNM 31/17, 7th Dist	352	11433_1	8/24/2017
11433	Change	Oyster Bay Daybeacon 63	G "63" Priv	N 25 20' 16.912"	W 081 05' 53.700"	25.33803	-81.09825	LNM 31/17, 7th Dist	352	11433_1	8/24/2017
11433	Change	Little Shark River Daybeacon 69	G "69" Priv	N 25 19' 52.763"	W 081 07' 14.906"	25.33132	-81.1208	LNM 31/17, 7th Dist	352	11433_1	8/24/2017
11433	Change	Little Shark River Entrance Light 1	Fl G 4s 16ft 5M "1"	N 25 19' 21.164"	W 081 09' 14.380"	25.32255	-81.15399	LNM 50/16, 7th Dist	352	11433_1	12/22/2016
11433	Change	East Cape Light 5	Fl G 4s 16ft 5M "5"	N 25 05' 46.673"	W 081 01' 51.452"	25.0963	-81.03096	LNM 50/16, 7th Dist	352	11433_1	12/22/2016
11433	Change	Flamingo Channel Light 15	Fl G 2.5s 16ft 4M "15"	N 25 08' 24.064"	W 080 55' 26.596"	25.14002	-80.92406	LNM 50/16, 7th Dist	352	11433_1	12/22/2016
11433	Delete	Cormorant Pass Daybeacon 44	R "44"	N 25 19' 26.622"	W 081 02' 31.563"	25.32406	-81.0421	LNM 39/16, 7th Dist	352	11433_1	10/6/2016
11433	Delete	Cormorant Pass Daybeacon 45	G "45"	N 25 19' 26.772"	W 081 02' 46.737"	25.3241	-81.04632	LNM 39/16, 7th Dist	352	11433_1	10/6/2016
11433	Delete	Little Shark River Daybeacon 64	R "64"	N 25 20' 20.897"	W 081 06' 00.502"	25.33914	-81.10014	LNM 39/16, 7th Dist	352	11433_1	10/6/2016
11433	Delete	Little Shark River Daybeacon 65	G "65"	N 25 20' 16.057"	W 081 06' 17.423"	25.33779	-81.10484	LNM 39/16, 7th Dist	352	11433_1	10/6/2016
11433	Delete	Little Shark River Daybeacon 67	G "67"	N 25 20' 10.774"	W 081 06' 34.356"	25.33633	-81.10954	LNM 39/16, 7th Dist	352	11433_1	10/6/2016
11433	Delete	Little Shark River Daybeacon 68	R "68"	N 25 20' 07.737"	W 081 06' 42.713"	25.33548	-81.11186	LNM 39/16, 7th Dist	352	11433_1	10/6/2016
11433	Delete	Little Shark River Daybeacon 70	R "70" PA	N 25 19' 54.400"	W 081 07' 15.200"	25.33178	-81.12089	LNM 39/16, 7th Dist	352	11433_1	10/6/2016
11433	Delete	Oyster Bay Daybeacon 50	R "50"	N 25 19' 57.287"	W 081 03' 41.918"	25.33258	-81.06165	LNM 39/16, 7th Dist	352	11433_1	10/6/2016
11433	Delete	Oyster Bay Daybeacon 55	G "55"	N 25 19' 36.068"	W 081 05' 07.961"	25.32668	-81.08555	LNM 39/16, 7th Dist	352	11433_1	10/6/2016
11433	Delete	Oyster Bay Daybeacon 57	G "57"	N 25 19' 47.838"	W 081 05' 22.711"	25.32995	-81.08965	LNM 39/16, 7th Dist	352	11433_1	10/6/2016
11433	Delete	Oyster Bay Daybeacon 59	G "59"	N 25 20' 04.800"	W 081 05' 36.400"	25.33467	-81.09344	LNM 39/16, 7th Dist	352	11433_1	10/6/2016
11433	Delete	Oyster Bay Daybeacon 62	R "62"	N 25 20' 14.357"	W 081 05' 45.687"	25.33732	-81.09602	LNM 39/16, 7th Dist	352	11433_1	10/6/2016
11433	Delete	Cormorant Pass Buoy 47	G C "47"	N 25 19' 35.427"	W 081 03' 08.979"	25.32651	-81.0525	LNM 39/16, 7th Dist	352	11433_1	10/6/2016
11433	Change	Flamingo Channel Light 9	Fl G 4s 16ft 5M "9"	N 25 07' 25.234"	W 080 55' 46.746"	25.12368	-80.92965	LNM 28/16, 7th Dist	352	11433_1	7/21/2016
11433	Delete	Cormorant Pass Daybeacon 42	R "42"	N 25 19' 21.174"	W 081 02' 13.851"	25.32255	-81.03718	LNM 50/15, 7th Dist	352	11433_1	12/24/2015
11433	Delete	Oyster Bay Daybeacon 61	G "61"	N 25 20' 09.457"	W 081 05' 45.222"	25.33596	-81.09589	LNM 50/15, 7th Dist	352	11433_1	12/24/2015
11433	Delete	Coot Bay Buoy 1	G C "1"	N 25 11' 02.658"	W 080 54' 44.601"	25.18407	-80.91239	LNM 50/15, 7th Dist	352	11433_1	12/24/2015
11433	Delete	Coot Bay Buoy 4	R N "4"	N 25 11' 39.736"	W 080 55' 12.244"	25.19437	-80.92007	LNM 50/15, 7th Dist	352	11433_1	12/24/2015
11433	Delete	Coot Bay Daybeacon 5	G "5"	N 25 12' 03.648"	W 080 55' 33.009"	25.20101	-80.92583	LNM 50/15, 7th Dist	352	11433_1	12/24/2015
11433	Delete	Coot Bay Daybeacon 6	R "6"	N 25 12' 04.362"	W 080 55' 32.211"	25.20121	-80.92561	LNM 50/15, 7th Dist	352	11433_1	12/24/2015
11433	Delete	Flamingo Channel Daybeacon 10	R "10"	N 25 07' 24.735"	W 080 55' 44.838"	25.12354	-80.92912	LNM 50/15, 7th Dist	352	11433_1	12/24/2015
11433	Delete	Flamingo Channel Daybeacon 11	G "11"	N 25 07' 38.981"	W 080 55' 43.122"	25.12749	-80.92864	LNM 50/15, 7th Dist	352	11433_1	12/24/2015
11433	Delete	Flamingo Channel Daybeacon 13	G "13" PA	N 25 08' 01.450"	W 080 55' 35.256"	25.13374	-80.92646	LNM 50/15, 7th Dist	352	11433_1	12/24/2015
11433	Delete	Whitewater Bay Buoy 32	R N "32"	N 25 17' 14.292"	W 080 59' 43.707"	25.2873	-80.99548	LNM 50/15, 7th Dist	352	11433_1	12/24/2015
11433	Delete	Whitewater Bay Daybeacon 12	R "12"	N 25 13' 38.994"	W 080 56' 02.877"	25.2275	-80.93414	LNM 50/15, 7th Dist	352	11433_1	12/24/2015
11433	Delete	Whitewater Bay Daybeacon 18	R "18"	N 25 14' 53.592"	W 080 56' 49.557"	25.24822	-80.9471	LNM 50/15, 7th Dist	352	11433_1	12/24/2015
11433	Delete	Whitewater Bay Daybeacon 20	R "20"	N 25 15' 17.958"	W 080 57' 19.989"	25.25499	-80.95555	LNM 50/15, 7th Dist	352	11433_1	12/24/2015
11433	Delete	Whitewater Bay Daybeacon 22	R "22"	N 25 15' 41.034"	W 080 57' 46.263"	25.2614	-80.96285	LNM 50/15, 7th Dist	352	11433_1	12/24/2015
11433	Delete	Whitewater Bay Daybeacon 28	R "28"	N 25 16' 31.962"	W 080 58' 51.501"	25.27555	-80.98097	LNM 50/15, 7th Dist	352	11433_1	12/24/2015
11433	Delete	Whitewater Bay Daybeacon 30	R "30"	N 25 16' 46.740"	W 080 59' 09.021"	25.27965	-80.98584	LNM 50/15, 7th Dist	352	11433_1	12/24/2015
11433	Delete	Whitewater Bay Daybeacon 33	G "33"	N 25 17' 32.664"	W 081 00' 11.445"	25.29241	-81.00318	LNM 50/15, 7th Dist	352	11433_1	12/24/2015
11433	Delete	Whitewater Bay Daybeacon 35	G "35"	N 25 17' 51.961"	W 081 00' 35.984"	25.29777	-81.00999	LNM 50/15, 7th Dist	352	11433_1	12/24/2015
11433	Delete	Whitewater Bay Daybeacon 36	R "36"	N 25 18' 25.164"	W 081 01' 07.065"	25.30699	-81.01863	LNM 50/15, 7th Dist	352	11433_1	12/24/2015
11433	Delete	Whitewater Bay Daybeacon 38	R "38"	N 25 18' 51.444"	W 081 01' 30.603"	25.31429	-81.02517	LNM 50/15, 7th Dist	352	11433_1	12/24/2015
11433	Delete	Coot Bay Buoy 3	G C "3"	N 25 11' 20.352"	W 080 54' 58.527"	25.18899	-80.91626	LNM 45/15, 7th Dist	352	11433_1	11/19/2015
11433	Delete	Oyster Bay Buoy 51	G C "51"	N 25 19' 50.614"	W 081 04' 21.802"	25.33073	-81.07272	LNM 45/15, 7th Dist	352	11433_1	11/19/2015
11433	Relocate	Flamingo Channel Buoy 14	R N "14"	N 25 08' 12.603"	W 080 55' 32.087"	25.13684	-80.92558	LNM 23/14, 7th Dist	352	11433_1	6/19/2014
11433	Delete	Flamingo Channel Daybeacon 14	R "14"	N 25 08' 12.509"	W 080 55' 31.531"	25.13681	-80.92542	LNM 29/11, 7th Dist	352	11433_1	5/24/2011
11433	Add	Flamingo Channel Buoy 14	R N "14"	N 25 08' 12.509"	W 080 55' 31.531"	25.13681	-80.92542	LNM 29/11, 7th Dist	352	11433_1	5/24/2011
11433	Relocate	Coot Bay Buoy 3	G C "3"	N 25 11' 20.352"	W 080 54' 58.527"	25.18899	-80.91626	LNM 16/11, 7th Dist	352	11433_1	4/20/2011
11433	Relocate	Flamingo Channel Daybeacon 14	R "14"	N 25 08' 12.509"	W 080 55' 31.531"	25.13681	-80.92542	LNM 16/11, 7th Dist	352	11433_1	4/20/2011
11433	Delete	Cormorant Pass Daybeacon 47	G "47"	N 25 19' 35.427"	W 081 03' 08.979"	25.32651	-81.0525	LNM 06/11, 7th Dist	352	11433_1	2/14/2011
11433	Add	Cormorant Pass Buoy 47	G C "47"	N 25 19' 35.427"	W 081 03' 08.979"	25.32651	-81.0525	LNM 06/11, 7th Dist	352	11433_1	2/14/2011
11433	Delete	Oyster Bay Daybeacon 51	G "51"	N 25 19' 50.614"	W 081 04' 21.802"	25.33073	-81.07272	LNM 06/11, 7th Dist	352	11433_1	2/14/2011
11433	Add	Oyster Bay Buoy 51	G C "51"	N 25 19' 50.614"	W 081 04' 21.802"	25.33073	-81.07272	LNM 06/11, 7th Dist	352	11433_1	2/14/2011
11433	Delete	Coot Bay Daybeacon 3	G "3"	N 25 11' 20.904"	W 080 54' 57.177"	25.18914	-80.91589	LNM 33/10, 7th Dist	352	11433_1	8/21/2010
11433	Add	Coot Bay Buoy 3	G C "3"	N 25 11' 20.904"	W 080 54' 57.177"	25.18914	-80.91589	LNM 33/10, 7th Dist	352	11433_1	8/21/2010
11433	Delete	Coot Bay Daybeacon 4	R "4"	N 25 11' 39.736"	W 080 55' 12.244"	25.19437	-80.92007	LNM 33/10, 7th Dist	352	11433_1	8/21/2010
11433	Add	Coot Bay Buoy 4	R N  "4"	N 25 11' 39.736"	W 080 55' 12.244"	25.19437	-80.92007	LNM 33/10, 7th Dist	352	11433_1	8/21/2010
11433	Delete	Whitewater Bay Daybeacon 32	R "32"	N 25 17' 14.292"	W 080 59' 43.707"	25.2873	-80.99548	LNM 33/10, 7th Dist	352	11433_1	8/21/2010
11433	Add	Whitewater Bay Buoy 32	R N "32"	N 25 17' 14.292"	W 080 59' 43.707"	25.2873	-80.99548	LNM 33/10, 7th Dist	352	11433_1	8/21/2010
11433	Add	HURRICANES AND TROPICAL STORMS STORM	Hurricanes, tropical storms and other major storms may cause considerable damage to marine structures, aids to navigation and moored vessels, resulting in submerged debris in unknown locations. Charted soundings, channel depths and shoreline may not reflect actual conditions following these storms. Fixed aids to navigation may have been damaged or destroyed. Buoys may have been moved from charted positions, damaged, sunk extinguished or otherwise made inoperative. Mariners should not rely upon the position or operation of an aid to navigation. Wrecks and submerged obstructions may have been displaced from charted locations. Pipelines may have become uncovered or moved. Mariners are urged to exercise extreme caution and are requested to report aids to navigation discrepancies and hazards to navigation to the nearest United States Coast Guard unit.	N 25 04' 05.000"	W 081 11' 38.000"	25.06806	-81.19389	LNM 15/06, 7th Dist	352	11433_1	2/13/2008
11433	Relocate	Little Shark River Entrance DB 3	G "3"	N 25 19' 30.570"	W 081 08' 57.752"	25.32516	-81.14938	LNM 48/05, 7th Dist	352	11433_1	2/13/2008
11433	Relocate	Little Shark River Entrance DB 4	R "4"	N 25 19' 38.026"	W 081 08' 43.296"	25.32723	-81.14536	LNM 48/05, 7th Dist	352	11433_1	2/13/2008
11433	Relocate	Little Shark River Entrance LT 1	Fl G 4s 16ft 4M "1"	N 25 19' 21.164"	W 081 09' 14.380"	25.32255	-81.15399	LNM 48/05, 7th Dist	352	11433_1	2/13/2008
11433	Relocate	Little Shark River DB 67	G "67"	N 25 20' 10.774"	W 081 06' 34.356"	25.33633	-81.10954	LNM 48/05, 7th Dist	352	11433_1	2/13/2008
11433	Relocate	Little Shark River DB 69	G "69"	N 25 19' 52.763"	W 081 07' 14.906"	25.33132	-81.1208	LNM 48/05, 7th Dist	352	11433_1	2/13/2008
11433	Relocate	Oyster Bay DB 62	R "62"	N 25 20' 14.357"	W 081 05' 45.687"	25.33732	-81.09602	LNM 48/05, 7th Dist	352	11433_1	2/13/2008
11433	Relocate	Oyster Bay DB 63	G "63"	N 25 20' 16.912"	W 081 05' 53.700"	25.33803	-81.09825	LNM 48/05, 7th Dist	352	11433_1	2/13/2008
11433	Relocate	Flamingo Channel Lt 9	Fl G 4s 16ft 4M "9"	N 25 07' 25.234"	W 080 55' 46.746"	25.12368	-80.92965	LNM 48/05, 7th Dist	352	11433_1	2/13/2008
11433	Relocate	East Cape DB 1A	G "1A"	N 25 06' 30.932"	W 081 05' 08.391"	25.10859	-81.08566	LNM 48/05, 7th Dist	352	11433_1	2/13/2008
11433	Relocate	East Cape Light 2	Fl R 4s 16ft 5M "2"	N 25 05' 00.014"	W 081 04' 57.793"	25.08334	-81.08272	LNM 47/05, 7th Dist	352	11433_1	2/13/2008
11439	Add	Obstruction in Feet	18 Obstn       Chart No. 1: K41	N 24 27' 29.900"	W 081 52' 06.000"	24.45831	-81.86833	LNM 12/17, 7th Dist	356	11439_1	3/16/2017
11439	Change	Key West Northwest Channel Jetty Light A	Q Y 18ft 4M "A"	N 24 38' 27.737"	W 081 53' 34.035"	24.64104	-81.89278	LNM 11/16, 7th Dist	356	11439_1	3/24/2016
11439	Delete	Coalbin Rock Buoy CB	RG N "CB"	N 24 27' 03.518"	W 082 05' 17.751"	24.45098	-82.08826	LNM 29/15, 7th Dist	356	11439_1	7/30/2015
11439	Delete	Marquesas Rock Buoy MR	RG N "MR"	N 24 27' 29.751"	W 082 12' 27.962"	24.45826	-82.20776	LNM 29/15, 7th Dist	356	11439_1	7/30/2015
11439	Delete	Key West Southwest Channel Lighted Buoy SW	RW "SW" Mo (A)	N 24 26' 38.547"	W 081 58' 47.341"	24.44404	-81.97982	LNM 29/15, 7th Dist	356	11439_1	7/30/2015
11439	Delete	Key West Southwest Channel Buoy 2	R N "2"	N 24 28' 28.992"	W 081 54' 48.417"	24.47472	-81.91345	LNM 28/15, 7th Dist	356	11439_1	7/23/2015
11439	Delete	Key West Southwest Channel Buoy 3	G C "3"	N 24 29' 02.631"	W 081 54' 15.647"	24.48406	-81.90434	LNM 28/15, 7th Dist	356	11439_1	7/23/2015
11439	Delete	Key West Southwest Channel Buoy 4	R N "4"	N 24 29' 32.649"	W 081 53' 25.646"	24.4924	-81.89046	LNM 28/15, 7th Dist	356	11439_1	7/23/2015
11439	Delete	Key West Southwest Channel Buoy A	RW C "A"	N 24 27' 07.368"	W 081 57' 47.310"	24.45205	-81.96314	LNM 28/15, 7th Dist	356	11439_1	7/23/2015
11439	Delete	Key West Southwest Channel Buoy B	RW N "B"	N 24 27' 30.545"	W 081 56' 48.340"	24.45848	-81.94676	LNM 28/15, 7th Dist	356	11439_1	7/23/2015
11439	Delete	Key West Southwest Channel Buoy C	RW C "C"	N 24 28' 01.543"	W 081 55' 47.338"	24.46709	-81.92982	LNM 28/15, 7th Dist	356	11439_1	7/23/2015
11439	Delete	Rebecca Shoal Light	Fl 6s 66ft 6M	N 24 34' 44.484"	W 082 35' 06.776"	24.57902	-82.58521	LNM 31/14, 7th Dist	356	11439_1	8/14/2014
11439	Add	Abandoned Light House	TOWER (ABAND LT HO)	N 24 34' 44.484"	W 082 35' 06.776"	24.57902	-82.58521	LNM 31/14, 7th Dist	356	11439_1	8/14/2014
11439	Delete	Visible Wreck	Masts PA	N 24 32' 24.000"	W 082 01' 04.200"	24.54	-82.01783	LNM 30/14, 7th Dist	356	11439_1	8/7/2014
11439	Add	Visible Wreck	Masts PA	N 24 32' 14.400"	W 082 01' 04.200"	24.53733	-82.01783	LNM 30/14, 7th Dist	356	11439_1	8/7/2014
11439	Add	Visible Wreck	Masts PA	N 24 32' 24.000"	W 082 01' 04.200"	24.54	-82.01783	LNM 29/14, 7th Dist	356	11439_1	7/24/2014
11439	Delete	Sand Key Light	Fl (2) 15s 109ft 11M RACON (_.)	N 24 27' 20.941"	W 081 52' 38.313"	24.45582	-81.87731	LNM 26/14, 7th Dist	356	11439_1	7/17/2014
11439	Add	Abandoned Light House	TOWER (ABAND LT HO)	N 24 27' 20.941"	W 081 52' 38.313"	24.45582	-81.87731	LNM 26/14, 7th Dist	356	11439_1	7/17/2014
11439	Add	Sand Key Light	Fl (2) 15s 40ft 13M	N 24 27' 20.941"	W 081 52' 38.313"	24.45582	-81.87731	LNM 26/14, 7th Dist	356	11439_1	7/17/2014
11439	Add	Rebecca Shoal Lighted Buoy 4	R "4" Fl R 6s	N 24 34' 43.607"	W 082 35' 26.713"	24.57878	-82.59075	LNM 26/14, 7th Dist	356	11439_1	7/17/2014
11439	Change	New Ground Rocks Light	Fl 4s 19ft 4M	N 24 39' 59.758"	W 082 26' 38.975"	24.6666	-82.44416	LNM 09/14, 7th Dist	356	11439_1	3/13/2014
11439	Delete	Key West Southwest Channel Buoy D	RW C "D"	N 24 30' 25.537"	W 081 52' 22.835"	24.50709	-81.87301	LNM 27/13, 7th Dist	356	11439_1	8/15/2013
11439	Delete	Dangerous Wreck	PD      Chart No. 1: K28	N 24 38' 24.700"	W 081 54' 25.800"	24.64019	-81.90717	LNM 28/13, 7th Dist	356	11439_1	7/4/2013
11439	Change	Key West Northwest Channel Light 10	Fl R 4s 12ft 5M "10"	N 24 36' 54.581"	W 081 52' 34.256"	24.61516	-81.87618	LNM 21/13, 7th Dist	356	11439_1	6/4/2013
11466	Delete	Miami Anchorage Buoy A	Y N "A"	N 25 48' 20.702"	W 080 05' 42.532"	25.80575	-80.09515	LNM 33/17, 7th Dist	348	11466_1	Not Yet
11466	Delete	Miami Anchorage Buoy B	Y N "B"	N 25 46' 22.686"	W 080 06' 09.240"	25.77297	-80.10257	LNM 33/17, 7th Dist	348	11466_1	Not Yet
11466	Delete	SFOMF Restricted Area Lighted Buoy D	W Or "D" Fl 2s Priv	N 26 04' 45.180"	W 080 05' 00.420"	26.07922	-80.08345	LNM 33/17, 7th Dist	348	11466_1	8/31/2017
11466	Delete	SFOMF Restricted Area Lighted Buoy E	W Or "E" Fl 4s Priv	N 26 04' 14.820"	W 080 05' 03.240"	26.07078	-80.08424	LNM 33/17, 7th Dist	348	11466_1	8/31/2017
11466	Delete	SFOMF Restricted Area Lighted Buoy F	W Or "F" Fl 6s Priv	N 26 03' 30.000"	W 080 05' 29.700"	26.05833	-80.09158	LNM 33/17, 7th Dist	348	11466_1	8/31/2017
11466	Delete	SFOMF Restricted Area Lighted Buoy H	W Or "H" Fl 6s Priv	N 26 03' 30.180"	W 080 06' 00.540"	26.05838	-80.10015	LNM 33/17, 7th Dist	348	11466_1	8/31/2017
11466	Add	Anchorage Area A Point 1 of 4	Anchorage Area A 110.188 (see note A)	N 25 47' 57.687"	W 080 05' 37.225"	25.79936	-80.09367	LNM 31/17, 7th Dist	348	11466_1	8/24/2017
11466	Add	Anchorage Area A Point 2 of 4	Anchorage Area A 110.188 (see note A)	N 25 47' 57.341"	W 080 05' 26.466"	25.79926	-80.09068	LNM 31/17, 7th Dist	348	11466_1	8/24/2017
11466	Add	Anchorage Area A Point 3 of 4	Anchorage Area A 110.188 (see note A)	N 25 46' 31.443"	W 080 05' 27.069"	25.7754	-80.09085	LNM 31/17, 7th Dist	348	11466_1	8/24/2017
11466	Add	Anchorage Area A Point 4 of 4	Anchorage Area A 110.188 (see note A)	N 25 46' 31.557"	W 080 05' 37.868"	25.77543	-80.09385	LNM 31/17, 7th Dist	348	11466_1	8/24/2017
11466	Add	Anchorage Area B Point 1 of 4	Anchorage Area B 110.188 (see note A)	N 25 48' 13.841"	W 080 04' 59.155"	25.80384	-80.0831	LNM 31/17, 7th Dist	348	11466_1	8/24/2017
11466	Add	Anchorage Area B Point 2 of 4	Anchorage Area B 110.188 (see note A)	N 25 48' 04.617"	W 080 04' 04.582"	25.80128	-80.06794	LNM 31/17, 7th Dist	348	11466_1	8/24/2017
11466	Add	Anchorage Area B Point 3 of 4	Anchorage Area B 110.188 (see note A)	N 25 46' 32.712"	W 080 04' 28.387"	25.77575	-80.07455	LNM 31/17, 7th Dist	348	11466_1	8/24/2017
11466	Add	Anchorage Area B Point 4 of 4	Anchorage Area B 110.188 (see note A)	N 25 46' 43.770"	W 080 05' 02.360"	25.77883	-80.08399	LNM 31/17, 7th Dist	348	11466_1	8/24/2017
11466	Delete	Anchorage Area Point 1 of 4	Anchorage Area	N 25 48' 03.740"	W 080 04' 04.330"	25.80104	-80.06787	LNM 31/17, 7th Dist	348	11466_1	8/24/2017
11466	Delete	Anchorage Area Point 2 of 4	Anchorage Area	N 25 48' 21.130"	W 080 05' 42.590"	25.80587	-80.09516	LNM 31/17, 7th Dist	348	11466_1	8/24/2017
11466	Delete	Anchorage Area Point 3 of 4	Anchorage Area	N 25 46' 23.400"	W 080 06' 07.630"	25.77317	-80.10212	LNM 31/17, 7th Dist	348	11466_1	8/24/2017
11466	Delete	Anchorage Area Point 4 of 4	Anchorage Area	N 25 46' 02.790"	W 080 04' 11.690"	25.76744	-80.06992	LNM 31/17, 7th Dist	348	11466_1	8/24/2017
11466	Add	Channel Limits PT 1 OF 12	Chart No. 1: I20	N 26 05' 27.190"	W 080 06' 50.940"	26.09089	-80.11415	LNM 27/17, 7th Dist	348	11466_1	7/6/2017
11466	Add	Channel Limits PT 2 OF 12	Chart No. 1: I20	N 26 05' 10.380"	W 080 06' 45.750"	26.08622	-80.11271	LNM 27/17, 7th Dist	348	11466_1	7/6/2017
11466	Add	Channel Limits PT 3 OF 12	Chart No. 1: I20	N 26 04' 46.680"	W 080 06' 49.320"	26.07963	-80.1137	LNM 27/17, 7th Dist	348	11466_1	7/6/2017
11466	Add	Channel Limits PT 4 OF 12	Chart No. 1: I20	N 26 03' 53.890"	W 080 06' 50.610"	26.06497	-80.11406	LNM 27/17, 7th Dist	348	11466_1	7/6/2017
11466	Add	Channel Limits PT 5 OF 12	Chart No. 1: I20	N 26 03' 53.930"	W 080 06' 52.490"	26.06498	-80.11458	LNM 27/17, 7th Dist	348	11466_1	7/6/2017
11466	Add	Channel Limits PT 6 OF 12	Chart No. 1: I20	N 26 03' 53.970"	W 080 06' 54.710"	26.06499	-80.1152	LNM 27/17, 7th Dist	348	11466_1	7/6/2017
11466	Add	Channel Limits PT 7 OF 12	Chart No. 1: I20	N 26 04' 21.810"	W 080 06' 53.920"	26.07273	-80.11497	LNM 27/17, 7th Dist	348	11466_1	7/6/2017
11466	Add	Channel Limits PT 8 OF 12	Chart No. 1: I20	N 26 04' 21.810"	W 080 06' 54.270"	26.07273	-80.11507	LNM 27/17, 7th Dist	348	11466_1	7/6/2017
11466	Add	Channel Limits PT 9 OF 12	Chart No. 1: I20	N 26 04' 42.830"	W 080 06' 53.880"	26.07856	-80.11497	LNM 27/17, 7th Dist	348	11466_1	7/6/2017
11466	Add	Channel Limits PT 10 OF 12	Chart No. 1: I20	N 26 04' 42.830"	W 080 06' 54.490"	26.07856	-80.11514	LNM 27/17, 7th Dist	348	11466_1	7/6/2017
11466	Add	Channel Limits PT 11 OF 12	Chart No. 1: I20	N 26 05' 10.110"	W 080 06' 50.220"	26.08614	-80.11395	LNM 27/17, 7th Dist	348	11466_1	7/6/2017
11466	Add	Channel Limits PT 12 OF 12	Chart No. 1: I20	N 26 05' 24.130"	W 080 06' 54.580"	26.09004	-80.11516	LNM 27/17, 7th Dist	348	11466_1	7/6/2017
11466	Change	Depth Note - PORT EVERGLADES to:	The project depth is 42 to 45 feet. For controlling depths see chart 11470.	N 26 05' 10.000"	W 080 10' 00.000"	26.08611	-80.16666	LNM 27/17, 7th Dist	348	11466_1	7/6/2017
11466	Add	Channel Limits PT 1 OF 4	Chart No. 1: I20	N 26 04' 23.180"	W 080 06' 54.390"	26.0731	-80.1151	LNM 27/17, 7th Dist	348	11466_1	7/6/2017
11466	Add	Channel Limits PT 2 OF 4	Chart No. 1: I20	N 26 04' 23.090"	W 080 07' 05.340"	26.07308	-80.11815	LNM 27/17, 7th Dist	348	11466_1	7/6/2017
11466	Add	Channel Limits PT 3 OF 4	Chart No. 1: I20	N 26 04' 29.460"	W 080 07' 05.470"	26.07485	-80.11819	LNM 27/17, 7th Dist	348	11466_1	7/6/2017
11466	Add	Channel Limits PT 4 OF 4	Chart No. 1: I20	N 26 04' 29.550"	W 080 06' 54.240"	26.07487	-80.11507	LNM 27/17, 7th Dist	348	11466_1	7/6/2017
11466	Relocate	Biscayne Flats Daybeacon 3	G "3"	N 25 39' 49.911"	W 080 11' 01.169"	25.66386	-80.18365	LNM 17/17, 7th Dist	348	11466_1	5/4/2017
11466	Add	Bent Light	Fl 4s 25ft Priv	N 25 45' 11.048"	W 080 06' 28.821"	25.75307	-80.10801	LNM 13/17, 7th Dist	348	11466_1	4/13/2017
11466	Delete	tabulation - Lake Worth Inlet Channel Depths	tabulation - Lake Worth Inlet Channel Depths	N 26 17' 00.000"	W 080 16' 40.000"	26.28333	-80.27778	LNM 12/17, 7th Dist	348	11466_1	3/16/2017
11466	Change	Minimum Size (2mm sq.) Dotted Fish Haven and Label	Obstn Fish Haven (auth min 40 ft), Chart No. 1 K46.2	N 25 59' 05.794"	W 080 05' 12.766"	25.98494	-80.08688	LNM 12/17, 7th Dist	348	11466_1	3/16/2017
11466	Change	Miami Main Channel Lighted Buoy 10	R "10" Fl R 2.5s	N 25 45' 34.904"	W 080 07' 16.078"	25.7597	-80.12113	LNM 04/17, 7th Dist	348	11466_1	2/2/2017
11466	Change	Miami Main Channel Lighted Buoy 12	R "12" Q R	N 25 45' 39.563"	W 080 07' 28.837"	25.76099	-80.12468	LNM 04/17, 7th Dist	348	11466_1	2/2/2017
11466	Change	Miami Main Channel Lighted Buoy 8	R "8" Q R	N 25 45' 30.958"	W 080 06' 58.262"	25.7586	-80.11618	LNM 04/17, 7th Dist	348	11466_1	2/2/2017
11420	Add	CDIP Wave Data Lighted Buoy STA 226	Y "CDIP STA 226" Fl (5) Y 20s Priv	N 25 42' 00.780"	W 083 39' 00.660"	25.70022	-83.65018	LNM 29/17, 7th Dist	374	11420_1	8/3/2017
11420	Delete	Fort Jefferson Buoy D	Y C "D"	N 24 36' 30.000"	W 082 58' 00.000"	24.60833	-82.96667	LNM 28/17, 7th Dist	374	11420_1	7/20/2017
11420	Delete	Fort Jefferson Buoy Q	Y C "Q"	N 24 35' 00.000"	W 082 52' 00.000"	24.58333	-82.86667	LNM 28/17, 7th Dist	374	11420_1	7/20/2017
11420	Delete	Fort Jefferson Lighted Buoy E	Y "E" Fl Y 6s	N 24 39' 00.000"	W 082 58' 00.000"	24.65	-82.96667	LNM 28/17, 7th Dist	374	11420_1	7/20/2017
11420	Delete	Fort Jefferson Buoy K 	Y "K" Fl Y 6s	N 24 43' 31.922"	W 082 47' 59.897"	24.72553	-82.79997	LNM 28/17, 7th Dist	374	11420_1	7/20/2017
11420	Change	New Pass Entrance Light NP	Q 16ft 4M "NP"	N 27 18' 55.113"	W 082 35' 53.168"	27.31531	-82.5981	LNM 26/17, 7th Dist	374	11420_1	6/29/2017
11420	Delete	Fort Jefferson Lighted Buoy C	Y "C" Fl Y 4s	N 24 34' 00.000"	W 082 58' 00.000"	24.56667	-82.96667	LNM 23/17, 7th Dist	374	11420_1	6/22/2017
11420	Change	Harbor Key Bank Light 57	Fl G 4s 16ft 5M "57"	N 24 50' 24.030"	W 081 25' 44.595"	24.84001	-81.42905	LNM 11/17, 7th Dist	374	11420_1	3/16/2017
11420	Relocate	Longboat Pass Danger Shoal Light	Q 16ft 4M	N 27 25' 50.877"	W 082 41' 50.851"	27.4308	-82.69746	LNM 10/17, 7th Dist	374	11420_1	3/16/2017
11420	Change	New Pass Channel Light NP	Mo (A) 16ft 6M "NP"	N 27 18' 55.113"	W 082 35' 53.168"	27.31531	-82.5981	LNM 06/17, 7th Dist	374	11420_1	2/23/2017
11420	Add	Obstruction	Obstn PA (rep 2 fms)         Chart No. 1: K40	N 26 18' 49.680"	W 082 01' 25.740"	26.3138	-82.02382	LNM 07/17, 7th Dist	374	11420_1	2/23/2017
11420	Delete	Longboat Pass Approach Light LP	Mo (A) 16ft 6M "LP"	N 27 25' 50.747"	W 082 41' 40.341"	27.43076	-82.69454	LNM 05/17, 7th Dist	374	11420_1	2/9/2017
11420	Add	Longboat Pass Channel Approach Lighted Buoy LP	RW "LP" Mo (A)	N 27 26' 06.005"	W 082 42' 10.046"	27.435	-82.70279	LNM 05/17, 7th Dist	374	11420_1	2/9/2017
11420	Add	Longboat Pass Danger Shoal Light	Q 16ft 4M	N 27 25' 50.747"	W 082 41' 40.341"	27.43076	-82.69454	LNM 05/17, 7th Dist	374	11420_1	2/9/2017
11470	Delete	SFOMF Restricted Area Lighted Buoy A	W Or "A" Fl (2) 12s Priv	N 26 05' 30.120"	W 080 06' 15.300"	26.0917	-80.10425	LNM 33/17, 7th Dist	308	11470_1	8/31/2017
11470	Delete	SFOMF Restricted Area Lighted Buoy B	W Or "B" Fl (2) 6s Priv	N 26 05' 30.180"	W 080 06' 00.480"	26.09172	-80.10014	LNM 33/17, 7th Dist	308	11470_1	8/31/2017
11470	Delete	SFOMF Restricted Area Lighted Buoy C	W Or "C" Fl (3) 10s Priv	N 26 05' 30.660"	W 080 05' 42.300"	26.09185	-80.09509	LNM 33/17, 7th Dist	308	11470_1	8/31/2017
11470	Delete	SFOMF Restricted Area Lighted Buoy D	W Or "D" Fl 2s Priv	N 26 04' 45.180"	W 080 05' 00.420"	26.07922	-80.08345	LNM 33/17, 7th Dist	308	11470_1	8/31/2017
11470	Delete	SFOMF Restricted Area Lighted Buoy E	W Or "E" Fl 4s Priv	N 26 04' 14.820"	W 080 05' 03.240"	26.07078	-80.08424	LNM 33/17, 7th Dist	308	11470_1	8/31/2017
11470	Delete	SFOMF Restricted Area Lighted Buoy F	W Or "F" Fl 6s Priv	N 26 03' 30.000"	W 080 05' 29.700"	26.05833	-80.09158	LNM 33/17, 7th Dist	308	11470_1	8/31/2017
11470	Delete	SFOMF Restricted Area Lighted Buoy H	W Or "H" Fl 6s Priv	N 26 03' 30.180"	W 080 06' 00.540"	26.05838	-80.10015	LNM 33/17, 7th Dist	308	11470_1	8/31/2017
11470	Change	tabulation - PORT EVERGLADES CHANNEL DEPTHS	tabulation - PORT EVERGLADES CHANNEL DEPTHS	N 26 05' 12.000"	W 080 08' 57.000"	26.08667	-80.14917	LNM 27/17, 7th Dist	308	11470_1	7/6/2017
11470	Change	channel reach name to	MAIN TURNING BASIN	N 26 05' 37.500"	W 080 07' 06.000"	26.09375	-80.11833	LNM 27/17, 7th Dist	308	11470_1	7/6/2017
11470	Delete	Channel Limits PT 1 OF 7	Chart No. 1: I20	N 26 05' 24.950"	W 080 06' 53.720"	26.09026	-80.11492	LNM 27/17, 7th Dist	308	11470_1	7/6/2017
11470	Delete	Channel Limits PT 2 OF 7	Chart No. 1: I20	N 26 05' 12.190"	W 080 06' 49.110"	26.08672	-80.11364	LNM 27/17, 7th Dist	308	11470_1	7/6/2017
11470	Delete	Channel Limits PT 3 OF 7	Chart No. 1: I20	N 26 03' 53.960"	W 080 06' 51.150"	26.06499	-80.11421	LNM 27/17, 7th Dist	308	11470_1	7/6/2017
11470	Delete	Channel Limits PT 4 OF 7	Chart No. 1: I20	N 26 03' 53.890"	W 080 06' 52.460"	26.06497	-80.11457	LNM 27/17, 7th Dist	308	11470_1	7/6/2017
11470	Delete	Channel Limits PT 5 OF 7	Chart No. 1: I20	N 26 05' 09.360"	W 080 06' 50.590"	26.08593	-80.11405	LNM 27/17, 7th Dist	308	11470_1	7/6/2017
11470	Delete	Channel Limits PT 6 OF 7	Chart No. 1: I20	N 26 05' 14.440"	W 080 06' 51.460"	26.08735	-80.1143	LNM 27/17, 7th Dist	308	11470_1	7/6/2017
11470	Delete	Channel Limits PT 7 OF 7	Chart No. 1: I20	N 26 05' 24.040"	W 080 06' 54.940"	26.09001	-80.11526	LNM 27/17, 7th Dist	308	11470_1	7/6/2017
11470	Add	Channel Limits PT 1 OF 12	Chart No. 1: I20	N 26 05' 27.190"	W 080 06' 50.940"	26.09089	-80.11415	LNM 27/17, 7th Dist	308	11470_1	7/6/2017
11470	Add	Channel Limits PT 2 OF 12	Chart No. 1: I20	N 26 05' 10.380"	W 080 06' 45.750"	26.08622	-80.11271	LNM 27/17, 7th Dist	308	11470_1	7/6/2017
11470	Add	Channel Limits PT 3 OF 12	Chart No. 1: I20	N 26 04' 46.680"	W 080 06' 49.320"	26.07963	-80.1137	LNM 27/17, 7th Dist	308	11470_1	7/6/2017
11470	Add	Channel Limits PT 4 OF 12	Chart No. 1: I20	N 26 03' 53.890"	W 080 06' 50.610"	26.06497	-80.11406	LNM 27/17, 7th Dist	308	11470_1	7/6/2017
11470	Add	Channel Limits PT 5 OF 12	Chart No. 1: I20	N 26 03' 53.930"	W 080 06' 52.490"	26.06498	-80.11458	LNM 27/17, 7th Dist	308	11470_1	7/6/2017
11470	Add	Channel Limits PT 6 OF 12	Chart No. 1: I20	N 26 03' 53.970"	W 080 06' 54.710"	26.06499	-80.1152	LNM 27/17, 7th Dist	308	11470_1	7/6/2017
11470	Add	Channel Limits PT 7 OF 12	Chart No. 1: I20	N 26 04' 21.810"	W 080 06' 53.920"	26.07273	-80.11497	LNM 27/17, 7th Dist	308	11470_1	7/6/2017
11470	Add	Channel Limits PT 8 OF 12	Chart No. 1: I20	N 26 04' 21.810"	W 080 06' 54.270"	26.07273	-80.11507	LNM 27/17, 7th Dist	308	11470_1	7/6/2017
11470	Add	Channel Limits PT 9 OF 12	Chart No. 1: I20	N 26 04' 42.830"	W 080 06' 53.880"	26.07856	-80.11497	LNM 27/17, 7th Dist	308	11470_1	7/6/2017
11470	Add	Channel Limits PT 10 OF 12	Chart No. 1: I20	N 26 04' 42.830"	W 080 06' 54.490"	26.07856	-80.11514	LNM 27/17, 7th Dist	308	11470_1	7/6/2017
11470	Add	Channel Limits PT 11 OF 12	Chart No. 1: I20	N 26 05' 10.110"	W 080 06' 50.220"	26.08614	-80.11395	LNM 27/17, 7th Dist	308	11470_1	7/6/2017
11470	Add	Channel Limits PT 12 OF 12	Chart No. 1: I20	N 26 05' 24.130"	W 080 06' 54.580"	26.09004	-80.11516	LNM 27/17, 7th Dist	308	11470_1	7/6/2017
11470	Add	soundings inside channel PT 1 OF 2	soundings inside channel	N 26 05' 26.070"	W 080 06' 51.200"	26.09057	-80.11422	LNM 27/17, 7th Dist	308	11470_1	7/6/2017
11470	Add	soundings inside channel PT 2 OF 2	soundings inside channel	N 26 03' 53.990"	W 080 06' 52.680"	26.065	-80.11463	LNM 27/17, 7th Dist	308	11470_1	7/6/2017
11470	Change	channel reach name	INNER ENTRANCE CHANNEL	N 26 05' 37.000"	W 080 06' 30.500"	26.09361	-80.10847	LNM 27/17, 7th Dist	308	11470_1	7/6/2017
11470	Change	channel reach name	NORTH TURNING BASIN	N 26 05' 53.000"	W 080 07' 09.000"	26.09805	-80.11916	LNM 27/17, 7th Dist	308	11470_1	7/6/2017
11470	Change	channel reach name	SOUTH TURNING BASIN	N 26 05' 16.770"	W 080 07' 05.500"	26.08799	-80.11819	LNM 27/17, 7th Dist	308	11470_1	7/6/2017
11470	Add	channel reach name	SOUTHPORT CHANNEL	N 26 04' 34.500"	W 080 06' 52.000"	26.07625	-80.11444	LNM 27/17, 7th Dist	308	11470_1	7/6/2017
11470	Add	channel reach name	TURNING NOTCH	N 26 04' 26.500"	W 080 07' 00.000"	26.07403	-80.11667	LNM 27/17, 7th Dist	308	11470_1	7/6/2017
11470	Add	Channel Limits PT 1 OF 4	Chart No. 1: I20	N 26 04' 23.180"	W 080 06' 54.390"	26.0731	-80.1151	LNM 27/17, 7th Dist	308	11470_1	7/6/2017
11470	Add	Channel Limits PT 2 OF 4	Chart No. 1: I20	N 26 04' 23.090"	W 080 07' 05.340"	26.07308	-80.11815	LNM 27/17, 7th Dist	308	11470_1	7/6/2017
11470	Add	Channel Limits PT 3 OF 4	Chart No. 1: I20	N 26 04' 29.460"	W 080 07' 05.470"	26.07485	-80.11819	LNM 27/17, 7th Dist	308	11470_1	7/6/2017
11470	Add	Channel Limits PT 4 OF 4	Chart No. 1: I20	N 26 04' 29.550"	W 080 06' 54.240"	26.07487	-80.11507	LNM 27/17, 7th Dist	308	11470_1	7/6/2017
11470	Change	Depth Legend - New River to:	8 FT JUN 2016	N 26 06' 54.000"	W 080 07' 26.300"	26.115	-80.12397	LNM 25/17, 7th Dist	308	11470_1	6/15/2017
11470	Add	magenta reach separator PT 1 OF 2	magenta reach separator	N 26 06' 48.250"	W 080 07' 09.390"	26.1134	-80.11928	LNM 25/17, 7th Dist	308	11470_1	6/15/2017
11470	Add	magenta reach separator PT 2 OF 2	magenta reach separator	N 26 06' 49.430"	W 080 07' 11.170"	26.11373	-80.11977	LNM 25/17, 7th Dist	308	11470_1	6/15/2017
11470	Add	Depth Legend - New River to:	8 FT JUN 2016	N 26 06' 42.500"	W 080 07' 10.700"	26.1118	-80.11964	LNM 25/17, 7th Dist	308	11470_1	6/15/2017
11470	Relocate	Port Everglades Light 7	Fl G 2.5s 16ft 5M "7"	N 26 05' 33.853"	W 080 06' 31.754"	26.09274	-80.10882	LNM 17/17, 7th Dist	308	11470_1	5/4/2017
11470	Change	tabulation - PORT EVERGLADES CHANNEL DEPTHS	tabulation - PORT EVERGLADES CHANNEL DEPTHS	N 26 05' 18.000"	W 080 08' 36.000"	26.08833	-80.14333	LNM 15/17, 7th Dist	308	11470_1	4/6/2017
11470	Relocate	New River Sound Light 3	Fl G 4s 16ft 4M "3"	N 26 07' 46.223"	W 080 06' 33.611"	26.12951	-80.10934	LNM 42/16, 7th Dist	308	11470_1	10/27/2016
11470	Change	New River Sound Light 16	Fl R 4s 12ft 5M "16"	N 26 06' 41.098"	W 080 06' 49.580"	26.11142	-80.11377	LNM 42/16, 7th Dist	308	11470_1	10/27/2016
11470	Change	New River Sound Light 3	Fl G 4s 16ft 5M "3"	N 26 07' 46.223"	W 080 06' 33.611"	26.12951	-80.10934	LNM 42/16, 7th Dist	308	11470_1	10/27/2016
11470	Change	New River Sound Light 5	Fl G 4s 12ft 5M "5"	N 26 07' 34.258"	W 080 06' 24.707"	26.12618	-80.10686	LNM 42/16, 7th Dist	308	11470_1	10/27/2016
11470	Change	Port Everglades North Regulatory Light	Fl 4s 16ft 4M	N 26 05' 40.923"	W 080 06' 41.035"	26.0947	-80.1114	LNM 42/16, 7th Dist	308	11470_1	10/27/2016
11470	Change	Port Everglades South Regulatory Light	Fl 4s 16ft 4M	N 26 05' 33.434"	W 080 06' 40.892"	26.09262	-80.11136	LNM 42/16, 7th Dist	308	11470_1	10/27/2016
11470	Change	Stranahan River Light 18	Fl R 4s 16ft 5M "18"	N 26 06' 42.107"	W 080 07' 02.170"	26.1117	-80.11727	LNM 32/16, 7th Dist	308	11470_1	8/18/2016
11470	Delete	Port Everglades Outfall Obstruction Daybeacon	W Bn PA	N 26 06' 01.313"	W 080 07' 09.160"	26.10036	-80.11921	LNM 20/16, 7th Dist	308	11470_1	5/26/2016
11470	Delete	Port Everglades South Port Art Light B	Art "B" Fl Y 4s 25ft Priv PA	N 26 04' 27.316"	W 080 07' 05.160"	26.07425	-80.1181	LNM 20/16, 7th Dist	308	11470_1	5/26/2016
11470	Relocate	Port Everglades Turning Basin Light 11	Fl G 2.5s 16ft 5M "11"	N 26 05' 26.615"	W 080 06' 50.088"	26.09073	-80.11391	LNM 18/16, 7th Dist	308	11470_1	5/12/2016
11470	Change	New River Light 9	Fl G 4s 16ft 5M "9"	N 26 06' 55.221"	W 080 07' 33.601"	26.11534	-80.126	LNM 02/16, 7th Dist	308	11470_1	1/21/2016
11470	Change	Stranahan River Light 24	Fl R 4s 16ft 5M "24"	N 26 06' 28.566"	W 080 07' 15.309"	26.10793	-80.12092	LNM 02/16, 7th Dist	308	11470_1	1/21/2016
11470	Change	Port Everglades Turning Basin Light 12	Q R 16ft 5M "12"	N 26 05' 40.292"	W 080 06' 57.234"	26.09453	-80.1159	LNM 50/15, 7th Dist	308	11470_1	12/24/2015
11470	Change	New River Sound Light 8	Fl R 4s 16ft 5M "8"	N 26 07' 20.456"	W 080 06' 33.671"	26.12235	-80.10935	LNM 49/15, 7th Dist	308	11470_1	12/17/2015
11470	Change	New River Light 6	Fl R 4s 16ft 5M "6"	N 26 06' 50.613"	W 080 07' 11.202"	26.11406	-80.11978	LNM 41/15, 7th Dist	308	11470_1	10/22/2015
11470	Change	Coast Guard Station Breakwater Light PE	Fl 2.5s 5ft 4M "PE"	N 26 05' 22.214"	W 080 06' 48.059"	26.0895	-80.11335	LNM 32/15, 7th Dist	308	11470_1	8/13/2015
11470	Change	Dania Sound Light 35	Fl G 4s 16ft 5M "35"	N 26 03' 53.350"	W 080 06' 50.799"	26.06482	-80.11411	LNM 28/15, 7th Dist	308	11470_1	7/23/2015
11470	Relocate	Stranahan River Daybeacon 22	R "22"	N 26 06' 34.295"	W 080 07' 13.791"	26.10953	-80.1205	LNM 18/15, 7th Dist	308	11470_1	5/14/2015
11470	Change	Stranahan River Light 29	Fl G 4s 16ft 5M "29"	N 26 05' 47.835"	W 080 07' 01.807"	26.09662	-80.11717	LNM 09/15, 7th Dist	308	11470_1	3/12/2015
11470	Add	Port Everglades Lighted Buoy PE Magenta Circle	RW "PE" Mo (A) RACON (-) AIS	N 26 05' 30.288"	W 080 04' 45.871"	26.09175	-80.07941	LNM 08/15, 7th Dist	308	11470_1	3/5/2015
11470	Add	Port Everglades Entrance Range Front Light Magenta Circle	F G 85ft AIS	N 26 05' 36.709"	W 080 07' 26.371"	26.09353	-80.12399	LNM 08/15, 7th Dist	308	11470_1	3/5/2015
11470	Add	Port Everglades Entrance Range Rear Light Magenta Circle	RWG 133ft (Directional) (see note) AIS	N 26 05' 36.501"	W 080 07' 56.793"	26.09347	-80.13245	LNM 08/15, 7th Dist	308	11470_1	3/5/2015
11470	Delete	New River Sound Daybeacon 11	G "11"	N 26 07' 01.080"	W 080 06' 31.609"	26.11697	-80.10878	LNM 06/15, 7th Dist	308	11470_1	2/19/2015
11470	Add	New River Sound Lighted Buoy 11	G "11" Fl G 4s	N 26 07' 01.080"	W 080 06' 31.609"	26.11697	-80.10878	LNM 06/15, 7th Dist	308	11470_1	2/19/2015
11470	Delete	Port Everglades Southport Art Light A	Art "A" Fl Y 4s 25ft Priv PA	N 26 04' 29.316"	W 080 07' 05.160"	26.07481	-80.1181	LNM 03/15, 7th Dist	308	11470_1	1/22/2015
11476	Delete	Banana River Daybeacon 4	R "4"	N 28 10' 39.426"	W 080 37' 04.764"	28.17762	-80.61799	LNM 25/17, 7th Dist	306	11476_1	6/29/2017
11476	Delete	Banana River Daybeacon 6B	R "6B"	N 28 13' 42.822"	W 080 37' 38.760"	28.22856	-80.62743	LNM 25/17, 7th Dist	306	11476_1	6/29/2017
11476	Add	Banana River Buoy 4	R N "4"	N 28 10' 39.422"	W 080 37' 04.824"	28.17762	-80.618	LNM 25/17, 7th Dist	306	11476_1	6/29/2017
11476	Add	Banana River Buoy 6B	R N "6B"	N 28 13' 42.849"	W 080 37' 38.767"	28.22857	-80.62743	LNM 25/17, 7th Dist	306	11476_1	6/29/2017
11476	Delete	Banana River Daybeacon 24	R "24"	N 28 19' 55.830"	W 080 39' 16.518"	28.33217	-80.65459	LNM 25/17, 7th Dist	306	11476_1	6/29/2017
11476	Add	Banana River Buoy 24	R N "24"	N 28 19' 55.810"	W 080 39' 16.504"	28.33217	-80.65459	LNM 25/17, 7th Dist	306	11476_1	6/29/2017
11476	Delete	Banana River Daybeacon 17	G "17"	N 28 18' 32.844"	W 080 39' 12.684"	28.30912	-80.65353	LNM 24/17, 7th Dist	306	11476_1	6/22/2017
11476	Add	Banana River Buoy 17	G C "17"	N 28 18' 32.852"	W 080 39' 12.686"	28.30913	-80.65353	LNM 24/17, 7th Dist	306	11476_1	6/22/2017
11476	Relocate	Banana River Daybeacon 1	G "1"	N 28 08' 30.750"	W 080 36' 12.888"	28.14187	-80.60358	LNM 11/17, 7th Dist	306	11476_1	3/16/2017
11476	Relocate	Canaveral Harbor Entrance Channel Range Front Light	Q G 32ft	N 28 24' 35.790"	W 080 37' 36.820"	28.40994	-80.62689	LNM 45/16, 7th Dist	306	11476_1	11/17/2016
11476	Change	Canaveral Harbor Entrance Channel Range Front Light	Fl G 2.5s 28ft	N 28 24' 35.790"	W 080 37' 36.820"	28.40994	-80.62689	LNM 45/16, 7th Dist	306	11476_1	11/17/2016
11476	Relocate	Canaveral Harbor Entrance Channel Range Rear Light	Iso G 6s 64ft	N 28 24' 35.910"	W 080 38' 02.580"	28.40998	-80.63405	LNM 45/16, 7th Dist	306	11476_1	11/17/2016
11476	Change	Canaveral Harbor Entrance Channel Range Rear Light	Iso G 6s 65ft	N 28 24' 35.910"	W 080 38' 02.580"	28.40998	-80.63405	LNM 45/16, 7th Dist	306	11476_1	11/17/2016
11476	Add	Submerged Pile	Subm pile PA	N 28 26' 15.900"	W 080 38' 26.610"	28.43775	-80.64072	LNM 43/16, 7th Dist	306	11476_1	11/3/2016
11476	Change	Depth Note - Note F CANAVERAL HARBOR CHANNEL to:	The project depths are 46 feet. For controlling depths use chart 11478.	N 28 26' 42.620"	W 080 34' 40.470"	28.44517	-80.57791	LNM 25/16, 7th Dist	306	11476_1	6/30/2016
11476	Change	Pile	Pile PA	N 28 20' 54.360"	W 080 39' 10.560"	28.34843	-80.65293	LNM 23/16, 7th Dist	306	11476_1	6/16/2016
11476	Delete	East Basin Light 2	Fl R 6s 12ft 5M "2"	N 28 24' 39.839"	W 080 35' 24.905"	28.41107	-80.59025	LNM 21/16, 7th Dist	306	11476_1	6/2/2016
11476	Relocate	Canaveral Harbor Approach Channel Lighted Buoy 9	G "9" Q G	N 28 24' 08.144"	W 080 33' 58.351"	28.40226	-80.56621	LNM 21/16, 7th Dist	306	11476_1	6/2/2016
11476	Change	Canaveral Harbor Approach Channel Lighted Buoy 9	G "9" Fl G 2.5s	N 28 24' 08.144"	W 080 33' 58.351"	28.40226	-80.56621	LNM 21/16, 7th Dist	306	11476_1	6/2/2016
11476	Relocate	Canaveral Harbor Entrance Channel Light 14	Fl R 2.5s 20ft 5M "14"	N 28 24' 38.820"	W 080 35' 36.984"	28.41078	-80.59361	LNM 21/16, 7th Dist	306	11476_1	6/2/2016
11476	Relocate	Canaveral Harbor Entrance Channel Lighted Buoy 11	G "11" Fl G 2.5s AIS	N 28 24' 21.185"	W 080 34' 20.712"	28.40588	-80.57242	LNM 21/16, 7th Dist	306	11476_1	6/2/2016
11476	Change	Canaveral Harbor Entrance Channel Lighted Buoy 11	G "11" Q G AIS	N 28 24' 21.185"	W 080 34' 20.712"	28.40588	-80.57242	LNM 21/16, 7th Dist	306	11476_1	6/2/2016
11476	Relocate	Canaveral Harbor Entrance Channel Lighted Buoy 12	R "12" Fl R 4s	N 28 24' 37.819"	W 080 35' 01.529"	28.41051	-80.58376	LNM 21/16, 7th Dist	306	11476_1	6/2/2016
11476	Relocate	Canaveral Harbor Entrance Channel Lighted Buoy 13	G "13" Fl G 4s	N 28 24' 29.396"	W 080 34' 46.001"	28.40816	-80.57944	LNM 21/16, 7th Dist	306	11476_1	6/2/2016
11476	Add	Canaveral Harbor Entrance Channel Light 12A	Fl R 2.5s 12ft 5M "12A"	N 28 24' 38.720"	W 080 35' 21.704"	28.41076	-80.58936	LNM 21/16, 7th Dist	306	11476_1	6/2/2016
11476	Change	Canaveral Harbor Entrance Channel Light 14	Fl R 4s 20ft 5M "14"	N 28 24' 38.820"	W 080 35' 36.984"	28.41078	-80.59361	LNM 21/16, 7th Dist	306	11476_1	6/2/2016
11476	Delete	Sounding in Feet	79	N 28 22' 52.960"	W 080 18' 10.550"	28.38138	-80.30293	LNM 43/15, 7th Dist	306	11476_1	10/22/2015
11476	Delete	Dotted Fish Haven PT 1 OF 3	Chart No. 1: K46.2	N 28 24' 32.350"	W 080 18' 42.350"	28.40899	-80.31177	LNM 43/15, 7th Dist	306	11476_1	10/22/2015
11476	Delete	Dotted Fish Haven PT 2 OF 3	Chart No. 1: K46.2	N 28 21' 15.870"	W 080 17' 26.390"	28.35441	-80.29066	LNM 43/15, 7th Dist	306	11476_1	10/22/2015
11476	Delete	Dotted Fish Haven PT 3 OF 3	Chart No. 1: K46.2	N 28 21' 45.980"	W 080 16' 35.300"	28.36277	-80.27647	LNM 43/15, 7th Dist	306	11476_1	10/22/2015
11476	Add	Dotted Fish Haven PT 1 OF 5	Chart No. 1: K46.2	N 28 24' 32.350"	W 080 18' 42.350"	28.40899	-80.31177	LNM 43/15, 7th Dist	306	11476_1	10/22/2015
11476	Add	Dotted Fish Haven PT 2 OF 5	Chart No. 1: K46.2	N 28 24' 30.400"	W 080 18' 56.700"	28.40845	-80.31575	LNM 43/15, 7th Dist	306	11476_1	10/22/2015
11476	Add	Dotted Fish Haven PT 3 OF 5	Chart No. 1: K46.2	N 28 21' 09.800"	W 080 17' 38.900"	28.35272	-80.29414	LNM 43/15, 7th Dist	306	11476_1	10/22/2015
11476	Add	Dotted Fish Haven PT 4 OF 5	Chart No. 1: K46.2	N 28 21' 32.200"	W 080 16' 29.800"	28.35894	-80.27495	LNM 43/15, 7th Dist	306	11476_1	10/22/2015
11476	Add	Dotted Fish Haven PT 5 OF 5	Chart No. 1: K46.2	N 28 21' 45.980"	W 080 16' 35.300"	28.36277	-80.27647	LNM 43/15, 7th Dist	306	11476_1	10/22/2015
11476	Change	Banana River North Light 19	Fl G 4s 16ft 5M "19"	N 28 26' 53.856"	W 080 38' 29.994"	28.44829	-80.64166	LNM 15/15, 7th Dist	306	11476_1	4/23/2015
11476	Change	Canaveral Barge Canal Light 5	Fl G 4s 16ft 5M "5"	N 28 24' 32.348"	W 080 38' 42.514"	28.40899	-80.64514	LNM 15/15, 7th Dist	306	11476_1	4/23/2015
11476	Change	Canaveral Barge Canal Light 8	Fl R 4s 12ft 5M "8"	N 28 24' 33.699"	W 080 39' 34.041"	28.40936	-80.65945	LNM 15/15, 7th Dist	306	11476_1	4/23/2015
11476	Change	Cape Canaveral South Jetty Light	Fl 2.5s 20ft 5M	N 28 24' 29.630"	W 080 35' 13.540"	28.40823	-80.5871	LNM 10/15, 7th Dist	306	11476_1	3/19/2015
11476	Relocate	Cape Canaveral South Jetty Light	Fl 2.5s 20ft 5M	N 28 24' 29.630"	W 080 35' 13.540"	28.40823	-80.5871	LNM 10/15, 7th Dist	306	11476_1	3/19/2015
11476	Add	Canaveral Harbor Entrance Channel Lighted Buoy 11 Magenta Circle	G "11" Fl G 2.5s AIS	N 28 24' 30.587"	W 080 34' 41.867"	28.4085	-80.57829	LNM 08/15, 7th Dist	306	11476_1	3/5/2015
11476	Change	Depth Legend - Canaveral Barge Canal to:	9 FT FOR MID 60 FT FEB 2014	N 28 24' 32.900"	W 080 40' 51.300"	28.40914	-80.68092	LNM 35/14, 7th Dist	306	11476_1	9/4/2014
11424	Delete	Big Sarasota Pass Shoal Daybeacon D	W "D" Priv	N 27 16' 58.469"	W 082 34' 03.900"	27.28291	-82.56775	LNM 29/17, 7th Dist	176	11424_1	8/3/2017
11424	Delete	Big Sarasota Pass Shoal Daybeacon A	W "A" Priv	N 27 15' 58.000"	W 082 33' 53.000"	27.26611	-82.56472	LNM 29/17, 7th Dist	176	11424_1	8/3/2017
11424	Delete	Big Sarasota Pass Shoal Daybeacon B	W "B" Priv	N 27 16' 21.000"	W 082 34' 14.000"	27.2725	-82.57056	LNM 29/17, 7th Dist	176	11424_1	8/3/2017
11424	Change	New Pass Entrance Light NP	Q 16ft 4M "NP"	N 27 18' 55.113"	W 082 35' 53.168"	27.31531	-82.5981	LNM 26/17, 7th Dist	176	11424_1	6/29/2017
11424	Relocate	Longboat Pass Danger Shoal Light	Q 16ft 4M	N 27 25' 50.877"	W 082 41' 50.851"	27.4308	-82.69746	LNM 10/17, 7th Dist	176	11424_1	3/16/2017
11424	Change	New Pass Channel Light NP	Mo (A) 16ft 6M "NP"	N 27 18' 55.113"	W 082 35' 53.168"	27.31531	-82.5981	LNM 06/17, 7th Dist	176	11424_1	2/23/2017
11424	Delete	Longboat Pass Approach Light LP	Mo (A) 16ft 6M "LP"	N 27 25' 50.747"	W 082 41' 40.341"	27.43076	-82.69454	LNM 05/17, 7th Dist	176	11424_1	2/9/2017
11424	Add	Longboat Pass Channel Approach Lighted Buoy LP	RW "LP" Mo (A)	N 27 26' 06.005"	W 082 42' 10.046"	27.435	-82.70279	LNM 05/17, 7th Dist	176	11424_1	2/9/2017
11424	Add	Longboat Pass Danger Shoal Light	Q 16ft 4M	N 27 25' 50.747"	W 082 41' 40.341"	27.43076	-82.69454	LNM 05/17, 7th Dist	176	11424_1	2/9/2017
11424	Delete	Bradenton Beach Fish Haven Buoy	Y C Priv	N 27 28' 09.000"	W 082 42' 11.000"	27.46917	-82.70306	LNM 29/16, 7th Dist	176	11424_1	7/28/2016
11424	Delete	Anna Maria One Mile Fish Haven A	Y C "A" Priv	N 27 29' 17.000"	W 082 43' 45.000"	27.48806	-82.72916	LNM 20/16, 7th Dist	176	11424_1	5/26/2016
11424	Delete	Anna Maria One Mile Fish Haven B	Y C "B" Priv	N 27 29' 30.000"	W 082 43' 48.000"	27.49167	-82.73	LNM 20/16, 7th Dist	176	11424_1	5/26/2016
11424	Add	Depth Note - NOTE D to:	Satellite Derived BathymetryDepths within the area indicated are derived from satellite imagery from 2014-2015. Their vertical accuracy is typically  7ft. Uncharted dangers may exist.	N 27 26' 30.600"	W 082 36' 37.800"	27.44183	-82.6105	LNM 21/16, 7th Dist	176	11424_1	5/19/2016
11424	Add	Passage Key Inlet Chartlet - revised hydrography, shoreline	Passage Key Inlet Chartlet - revised hydrography, shoreline	N 27 32' 00.000"	W 082 45' 00.000"	27.53333	-82.75	LNM 21/16, 7th Dist	176	11424_1	5/19/2016
11424	Add	chartlet - Longboat Pass	chartlet - Longboat Pass	N 27 26' 12.500"	W 082 41' 30.800"	27.43681	-82.69189	LNM 21/16, 7th Dist	176	11424_1	5/19/2016
11424	Change	New Pass Entrance Light NP	Q 16ft 3M "NP"	N 27 18' 55.113"	W 082 35' 53.168"	27.31531	-82.5981	LNM 10/16, 7th Dist	176	11424_1	3/17/2016
11424	Delete	Big Sarasota Pass Daybeacon 14	R "14" Priv	N 27 17' 49.291"	W 082 33' 36.660"	27.29703	-82.56018	LNM 09/16, 7th Dist	176	11424_1	3/10/2016
11424	Delete	Big Sarasota Pass Daybeacon 9	G "9" PA Priv	N 27 17' 04.769"	W 082 33' 58.200"	27.28466	-82.56617	LNM 09/16, 7th Dist	176	11424_1	3/10/2016
11424	Relocate	Manatee River Light 7	Q G 16ft 4M "7"	N 27 31' 50.008"	W 082 39' 02.595"	27.53056	-82.65072	LNM 50/15, 7th Dist	176	11424_1	12/24/2015
11424	Add	Manatee River Daybeacon 5	G "5"	N 27 31' 56.640"	W 082 39' 39.920"	27.5324	-82.66109	LNM 50/15, 7th Dist	176	11424_1	12/24/2015
11424	Change	Manatee River Light 7	Q G 16ft 4M "7"	N 27 31' 49.965"	W 082 39' 02.451"	27.53055	-82.65068	LNM 29/15, 7th Dist	176	11424_1	7/30/2015
11424	Change	Siesta Key - Tampa Bay Light 62	Fl R 4s 16ft 5M "62"	N 27 31' 15.914"	W 082 41' 50.808"	27.52109	-82.69745	LNM 29/15, 7th Dist	176	11424_1	7/30/2015
11424	Change	Anna Maria Sound Light 1	Fl G 6s 16ft 5M "1"	N 27 32' 03.394"	W 082 42' 47.776"	27.53428	-82.71327	LNM 28/15, 7th Dist	176	11424_1	7/23/2015
11424	Change	Manatee River Light 7	Q G 16ft 5M "7"	N 27 31' 49.965"	W 082 39' 02.451"	27.53055	-82.65068	LNM 28/15, 7th Dist	176	11424_1	7/23/2015
11424	Change	Lemon Bay Channel Light 53	Q G 16ft 4M "53"	N 27 03' 12.041"	W 082 26' 20.255"	27.05334	-82.43896	LNM 17/15, 7th Dist	176	11424_1	5/7/2015
11424	Relocate	Longboat Pass Approach Light LP	Mo (A) 16ft 6M "LP"	N 27 25' 50.747"	W 082 41' 40.341"	27.43076	-82.69454	LNM 16/15, 7th Dist	176	11424_1	4/30/2015
11424	Change	Manatee River Light 2	Fl R 2.5s 16ft 5M "2"	N 27 32' 37.377"	W 082 40' 41.752"	27.54372	-82.67826	LNM 13/15, 7th Dist	176	11424_1	4/9/2015
11424	Delete	USF COMPS Lighted Buoy C20	Y "C20" Fl Y 4s Priv	N 27 17' 50.640"	W 082 38' 30.960"	27.2974	-82.64193	LNM 22/14, 7th Dist	176	11424_1	6/12/2014
11424	Relocate	Manatee River Daybeacon 8	R "8"	N 27 31' 47.494"	W 082 39' 03.537"	27.52986	-82.65099	LNM 19/14, 7th Dist	176	11424_1	5/22/2014
11424	Add	Low Water Area PT 1 OF 4	**See Chart 1 **	N 27 19' 21.810"	W 082 35' 26.010"	27.32273	-82.59056	LNM 20/14, 7th Dist	176	11424_1	5/15/2014
11424	Add	Low Water Area PT 2 OF 4	**See Chart 1 **	N 27 19' 20.720"	W 082 35' 27.250"	27.32242	-82.5909	LNM 20/14, 7th Dist	176	11424_1	5/15/2014
11424	Add	Low Water Area PT 3 OF 4	**See Chart 1 **	N 27 19' 17.080"	W 082 35' 26.370"	27.32141	-82.59066	LNM 20/14, 7th Dist	176	11424_1	5/15/2014
11424	Add	Low Water Area PT 4 OF 4	**See Chart 1 **	N 27 19' 21.810"	W 082 35' 26.010"	27.32273	-82.59056	LNM 20/14, 7th Dist	176	11424_1	5/15/2014
11424	Change	Manatee River Light 4	Q R 18ft 5M "4"	N 27 31' 58.205"	W 082 39' 58.703"	27.53284	-82.66631	LNM 15/14, 7th Dist	176	11424_1	5/1/2014
11424	Relocate	Siesta Key-Tampa Bay Light 64	Fl R 4s 16ft 5M "64"	N 27 31' 52.293"	W 082 42' 08.754"	27.53119	-82.70243	LNM 14/14, 7th Dist	176	11424_1	4/17/2014
11424	Change	Venice Inlet Light 1	Fl G 6s 20ft 5M "1"	N 27 06' 45.755"	W 082 28' 12.879"	27.11271	-82.47025	LNM 51/13, 7th Dist	176	11424_1	1/16/2014
11424	Change	USF COMPS Lighted Buoy C10	Y "C10" Fl Y 4s Priv	N 27 10' 09.000"	W 082 55' 34.200"	27.16917	-82.92617	LNM 33/13, 7th Dist	176	11424_1	8/22/2013
11424	Change	USF COMPS Lighted Buoy C20	Y "C20" Fl Y 4s Priv	N 27 17' 50.640"	W 082 38' 30.960"	27.2974	-82.64193	LNM 33/13, 7th Dist	176	11424_1	8/22/2013
11424	Change	SIesta Key - Tampa Bay Light 64	Fl R 4s 16ft 5M "64"	N 27 31' 52.442"	W 082 42' 08.790"	27.53123	-82.70244	LNM 11/13, 7th Dist	176	11424_1	4/2/2013
11424	Add	Dotted Fish Haven PT 1 OF 6	Chart No. 1: K46.2	N 27 27' 17.110"	W 082 41' 57.240"	27.45475	-82.69923	LNM 40/12, 7th Dist	176	11424_1	10/1/2012
11424	Add	Dotted Fish Haven PT 2 OF 6	Chart No. 1: K46.2	N 27 27' 17.560"	W 082 41' 54.080"	27.45488	-82.69836	LNM 40/12, 7th Dist	176	11424_1	10/1/2012
11424	Add	Dotted Fish Haven PT 3 OF 6	Chart No. 1: K46.2	N 27 27' 02.820"	W 082 41' 48.620"	27.45078	-82.69684	LNM 40/12, 7th Dist	176	11424_1	10/1/2012
11424	Add	Dotted Fish Haven PT 4 OF 6	Chart No. 1: K46.2	N 27 27' 00.390"	W 082 41' 56.770"	27.45011	-82.6991	LNM 40/12, 7th Dist	176	11424_1	10/1/2012
11424	Add	Dotted Fish Haven PT 5 OF 6	Chart No. 1: K46.2	N 27 27' 03.290"	W 082 41' 57.790"	27.45091	-82.69939	LNM 40/12, 7th Dist	176	11424_1	10/1/2012
11424	Add	Dotted Fish Haven PT 6 OF 6	Chart No. 1: K46.2	N 27 27' 08.870"	W 082 41' 55.950"	27.45246	-82.69888	LNM 40/12, 7th Dist	176	11424_1	10/1/2012
11424	Add	Dotted Fish Haven Label	Obstn Fish Haven (auth min 7 ft)	N 27 27' 09.800"	W 082 41' 53.800"	27.45272	-82.69828	LNM 40/12, 7th Dist	176	11424_1	10/1/2012
11424	Delete	Sounding in Feet	12	N 27 27' 01.200"	W 082 41' 54.800"	27.45033	-82.69855	LNM 40/12, 7th Dist	176	11424_1	10/1/2012
11488	Add	Scripps Wave Data Lighted Buoy CDIP STA 194	Y "CDIP STA 194" Fl (5) Y 20s Priv	N 30 30' 00.180"	W 081 04' 48.001"	30.50005	-81.08	LNM 29/17, 7th Dist	285	11488_1	8/3/2017
11488	Add	Submarine Cable  PT 1 OF 12	Chart No. 1: L30.1	N 30 22' 19.980"	W 081 17' 02.900"	30.37222	-81.28414	LNM 25/17, 7th Dist	285	11488_1	6/15/2017
11488	Add	Submarine Cable  PT 2 OF 12	Chart No. 1: L30.1	N 30 22' 07.180"	W 081 16' 16.970"	30.36866	-81.27138	LNM 25/17, 7th Dist	285	11488_1	6/15/2017
11488	Add	Submarine Cable  PT 3 OF 12	Chart No. 1: L30.1	N 30 21' 17.640"	W 081 11' 37.350"	30.3549	-81.19371	LNM 25/17, 7th Dist	285	11488_1	6/15/2017
11488	Add	Submarine Cable  PT 4 OF 12	Chart No. 1: L30.1	N 30 21' 02.570"	W 081 10' 40.270"	30.35071	-81.17786	LNM 25/17, 7th Dist	285	11488_1	6/15/2017
11488	Add	Submarine Cable  PT 5 OF 12	Chart No. 1: L30.1	N 30 20' 41.130"	W 081 08' 41.170"	30.34476	-81.14477	LNM 25/17, 7th Dist	285	11488_1	6/15/2017
11488	Add	Submarine Cable  PT 6 OF 12	Chart No. 1: L30.1	N 30 20' 34.280"	W 081 07' 45.720"	30.34286	-81.12936	LNM 25/17, 7th Dist	285	11488_1	6/15/2017
11488	Add	Submarine Cable  PT 7 OF 12	Chart No. 1: L30.1	N 30 20' 34.600"	W 081 07' 33.930"	30.34295	-81.12609	LNM 25/17, 7th Dist	285	11488_1	6/15/2017
11488	Add	Submarine Cable  PT 8 OF 12	Chart No. 1: L30.1	N 30 20' 46.250"	W 081 06' 44.700"	30.34618	-81.11242	LNM 25/17, 7th Dist	285	11488_1	6/15/2017
11488	Add	Submarine Cable  PT 9 OF 12	Chart No. 1: L30.1	N 30 20' 48.160"	W 081 06' 24.610"	30.34671	-81.10683	LNM 25/17, 7th Dist	285	11488_1	6/15/2017
11488	Add	Submarine Cable  PT 10 OF 12	Chart No. 1: L30.1	N 30 20' 32.580"	W 081 05' 01.180"	30.34238	-81.08366	LNM 25/17, 7th Dist	285	11488_1	6/15/2017
11488	Add	Submarine Cable  PT 11 OF 12	Chart No. 1: L30.1	N 30 19' 47.320"	W 081 03' 11.990"	30.32981	-81.05333	LNM 25/17, 7th Dist	285	11488_1	6/15/2017
11488	Delete	Nassau Sound Approach Buoy 6A	R N "6A" AIS	N 30 29' 23.952"	W 081 22' 50.791"	30.48999	-81.38078	LNM 14/17, 7th Dist	285	11488_1	4/13/2017
11488	Delete	Overhead Power Cable  PT 1 OF 2	Chart No. 1: D26  	N 30 19' 21.160"	W 081 36' 02.940"	30.32254	-81.60081	LNM 31/16, 7th Dist	285	11488_1	7/28/2016
11488	Delete	Overhead Power Cable  PT 2 OF 2	Chart No. 1: D26  	N 30 19' 16.210"	W 081 35' 55.440"	30.32117	-81.59873	LNM 31/16, 7th Dist	285	11488_1	7/28/2016
11488	Delete	Overhead Power Cable Label	OVHD PWR CAB	N 30 19' 19.660"	W 081 35' 59.270"	30.32213	-81.5998	LNM 31/16, 7th Dist	285	11488_1	7/28/2016
11488	Add	Depth Note - Mayport to:	Dump Site (dredged material) (see note S) Depths from survey of 2007-2008	N 30 19' 29.900"	W 081 17' 45.000"	30.32497	-81.29583	LNM 47/15, 7th Dist	285	11488_1	11/19/2015
11488	Delete	Dump Site	dump site, (use Chart No. 1: N1.1)	N 30 21' 00.800"	W 081 17' 59.700"	30.35022	-81.29992	LNM 47/15, 7th Dist	285	11488_1	11/19/2015
11488	Add	Dump Site PT 1 OF 6	dump site, (use Chart No. 1: N1.1)	N 30 21' 30.840"	W 081 18' 33.300"	30.35857	-81.30925	LNM 47/15, 7th Dist	285	11488_1	11/19/2015
11488	Add	Dump Site PT 2 OF 6	dump site, (use Chart No. 1: N1.1)	N 30 21' 30.840"	W 081 17' 25.320"	30.35857	-81.29037	LNM 47/15, 7th Dist	285	11488_1	11/19/2015
11488	Add	Dump Site PT 3 OF 6	dump site, (use Chart No. 1: N1.1)	N 30 20' 30.900"	W 081 17' 25.320"	30.34192	-81.29037	LNM 47/15, 7th Dist	285	11488_1	11/19/2015
11488	Add	Dump Site PT 4 OF 6	dump site, (use Chart No. 1: N1.1)	N 30 20' 30.900"	W 081 17' 00.720"	30.34192	-81.28353	LNM 47/15, 7th Dist	285	11488_1	11/19/2015
11488	Add	Dump Site PT 5 OF 6	dump site, (use Chart No. 1: N1.1)	N 30 17' 49.740"	W 081 17' 00.720"	30.29715	-81.28353	LNM 47/15, 7th Dist	285	11488_1	11/19/2015
11488	Add	Dump Site PT 6 OF 6	dump site, (use Chart No. 1: N1.1)	N 30 17' 49.740"	W 081 18' 33.300"	30.29715	-81.30925	LNM 47/15, 7th Dist	285	11488_1	11/19/2015
11488	Delete	Depth Note - Mayport to:	Dump Site (dredged material) (see note S) Depths from survey of 2007-2008	N 30 21' 00.800"	W 081 17' 59.700"	30.35022	-81.29992	LNM 47/15, 7th Dist	285	11488_1	11/19/2015
11488	Add	Submarine Cable  PT 1 OF 7	Chart No. 1: L30.1	N 30 23' 28.430"	W 081 23' 39.420"	30.39123	-81.39429	LNM 43/15, 7th Dist	285	11488_1	10/22/2015
11488	Add	Submarine Cable  PT 7 OF 7	Chart No. 1: L30.1	N 30 22' 19.980"	W 081 17' 02.900"	30.37222	-81.28414	LNM 43/15, 7th Dist	285	11488_1	10/22/2015
11488	Add	Submarine Cable  PT 6 OF 7	Chart No. 1: L30.1	N 30 23' 02.790"	W 081 20' 49.150"	30.38411	-81.34698	LNM 43/15, 7th Dist	285	11488_1	10/22/2015
11488	Add	Submarine Cable  PT 5 OF 7	Chart No. 1: L30.1	N 30 23' 15.170"	W 081 21' 31.510"	30.38755	-81.35875	LNM 43/15, 7th Dist	285	11488_1	10/22/2015
11488	Add	Submarine Cable  PT 4 OF 7	Chart No. 1: L30.1	N 30 23' 21.480"	W 081 22' 05.970"	30.3893	-81.36832	LNM 43/15, 7th Dist	285	11488_1	10/22/2015
11488	Add	Submarine Cable  PT 3 OF 7	Chart No. 1: L30.1	N 30 23' 22.700"	W 081 22' 29.250"	30.38964	-81.37479	LNM 43/15, 7th Dist	285	11488_1	10/22/2015
11488	Add	Submarine Cable  PT 2 OF 7	Chart No. 1: L30.1	N 30 23' 22.040"	W 081 23' 00.850"	30.38946	-81.38357	LNM 43/15, 7th Dist	285	11488_1	10/22/2015
11488	Change	Depth Note - St. Johns River to:	NOTE C ST. JOHNS RIVER The project depth is 30-50 feet to Jacksonville. For controlling depth use Chart 11491.	N 30 22' 24.000"	W 081 30' 00.000"	30.37333	-81.5	LNM 26/15, 7th Dist	285	11488_1	7/2/2015
11488	Add	Nassau Sound Approach Buoy 6A Magenta Circle	R N "6A" AIS	N 30 29' 23.952"	W 081 22' 50.791"	30.48999	-81.38078	LNM 08/15, 7th Dist	285	11488_1	3/5/2015
11488	Add	St Johns Lighted Buoy STJ Magenta Circle	RW "STJ" Mo (A) AIS	N 30 23' 35.368"	W 081 19' 08.398"	30.39316	-81.319	LNM 08/15, 7th Dist	285	11488_1	3/5/2015
11488	Add	St Johns River Lighted Buoy 5 Magenta Circle	G "5" Q G AIS	N 30 23' 47.535"	W 081 22' 25.935"	30.39654	-81.37387	LNM 08/15, 7th Dist	285	11488_1	3/5/2015
11488	Add	Obstruction in Feet	58 Obstn       Chart No. 1: K41	N 30 26' 10.320"	W 081 18' 02.170"	30.4362	-81.30061	LNM 04/15, 7th Dist	285	11488_1	1/29/2015
11488	Add	Obstruction in Feet	56 Obstn       Chart No. 1: K41	N 30 28' 49.890"	W 081 16' 44.840"	30.48052	-81.27912	LNM 04/15, 7th Dist	285	11488_1	1/29/2015
11488	Add	Obstruction in Feet	55 Obstn       Chart No. 1: K41	N 30 26' 07.430"	W 081 18' 07.340"	30.4354	-81.30204	LNM 04/15, 7th Dist	285	11488_1	1/29/2015
11488	Add	Obstruction in Feet	44 Obstn       Chart No. 1: K41	N 30 23' 44.830"	W 081 22' 06.020"	30.39579	-81.36834	LNM 03/15, 7th Dist	285	11488_1	1/22/2015
11488	Add	Obstruction in Feet	41 Obstn       Chart No. 1: K41	N 30 23' 43.730"	W 081 21' 56.890"	30.39548	-81.36581	LNM 03/15, 7th Dist	285	11488_1	1/22/2015
11488	Add	Submarine Cable  PT 1 OF 10	Chart No. 1: L30.1	N 30 17' 49.140"	W 081 23' 25.980"	30.29698	-81.39055	LNM 51/14, 7th Dist	285	11488_1	12/18/2014
11488	Add	Submarine Cable  PT 2 OF 10	Chart No. 1: L30.1	N 30 17' 51.630"	W 081 21' 19.330"	30.29767	-81.35537	LNM 51/14, 7th Dist	285	11488_1	12/18/2014
11488	Add	Submarine Cable  PT 3 OF 10	Chart No. 1: L30.1	N 30 17' 37.780"	W 081 20' 15.960"	30.29383	-81.33777	LNM 51/14, 7th Dist	285	11488_1	12/18/2014
11488	Add	Submarine Cable  PT 4 OF 10	Chart No. 1: L30.1	N 30 16' 16.700"	W 081 17' 14.130"	30.27131	-81.28726	LNM 51/14, 7th Dist	285	11488_1	12/18/2014
11488	Add	Submarine Cable  PT 5 OF 10	Chart No. 1: L30.1	N 30 15' 29.120"	W 081 14' 21.420"	30.25809	-81.23928	LNM 51/14, 7th Dist	285	11488_1	12/18/2014
11488	Add	Submarine Cable  PT 6 OF 10	Chart No. 1: L30.1	N 30 15' 09.040"	W 081 10' 46.000"	30.25251	-81.17944	LNM 51/14, 7th Dist	285	11488_1	12/18/2014
11488	Add	Submarine Cable  PT 7 OF 10	Chart No. 1: L30.1	N 30 14' 39.140"	W 081 07' 41.500"	30.24421	-81.1282	LNM 51/14, 7th Dist	285	11488_1	12/18/2014
11488	Add	Submarine Cable  PT 8 OF 10	Chart No. 1: L30.1	N 30 14' 12.670"	W 081 06' 13.810"	30.23685	-81.10384	LNM 51/14, 7th Dist	285	11488_1	12/18/2014
11488	Add	Submarine Cable  PT 9 OF 10	Chart No. 1: L30.1	N 30 13' 30.040"	W 081 04' 48.410"	30.22501	-81.08012	LNM 51/14, 7th Dist	285	11488_1	12/18/2014
11488	Add	Submarine Cable  PT 10 OF 10	Chart No. 1: L30.1	N 30 10' 40.130"	W 081 00' 59.630"	30.17781	-81.01656	LNM 51/14, 7th Dist	285	11488_1	12/18/2014
11488	Change	South Amelia River Light 45	Fl G 2.5s 16ft 5M "45"	N 30 32' 07.529"	W 081 27' 43.981"	30.53543	-81.46222	LNM 48/14, 7th Dist	285	11488_1	12/11/2014
11488	Change	St Johns Lighted Buoy STJ	RW "STJ" Mo (A)	N 30 23' 35.368"	W 081 19' 08.398"	30.39316	-81.319	LNM 37/14, 7th Dist	285	11488_1	9/25/2014
11488	Add	Submarine Cable  PT 1 OF 11	Chart No. 1: L30.1	N 30 18' 27.690"	W 081 23' 31.330"	30.30769	-81.39204	LNM 32/14, 7th Dist	285	11488_1	8/14/2014
11488	Add	Submarine Cable  PT 2 OF 11	Chart No. 1: L30.1	N 30 18' 27.540"	W 081 22' 09.920"	30.30765	-81.36942	LNM 32/14, 7th Dist	285	11488_1	8/14/2014
11488	Add	Submarine Cable  PT 3 OF 11	Chart No. 1: L30.1	N 30 18' 14.650"	W 081 20' 47.320"	30.30407	-81.34648	LNM 32/14, 7th Dist	285	11488_1	8/14/2014
11488	Add	Submarine Cable  PT 4 OF 11	Chart No. 1: L30.1	N 30 17' 31.270"	W 081 18' 52.920"	30.29202	-81.3147	LNM 32/14, 7th Dist	285	11488_1	8/14/2014
11488	Add	Submarine Cable  PT 5 OF 11	Chart No. 1: L30.1	N 30 17' 31.540"	W 081 16' 36.350"	30.2921	-81.27676	LNM 32/14, 7th Dist	285	11488_1	8/14/2014
11488	Add	Submarine Cable  PT 6 OF 11	Chart No. 1: L30.1	N 30 17' 42.670"	W 081 15' 24.820"	30.29519	-81.2569	LNM 32/14, 7th Dist	285	11488_1	8/14/2014
11488	Add	Submarine Cable  PT 7 OF 11	Chart No. 1: L30.1	N 30 17' 37.900"	W 081 13' 44.070"	30.29386	-81.2289	LNM 32/14, 7th Dist	285	11488_1	8/14/2014
11488	Add	Submarine Cable  PT 8 OF 11	Chart No. 1: L30.1	N 30 17' 18.760"	W 081 12' 20.570"	30.28854	-81.20571	LNM 32/14, 7th Dist	285	11488_1	8/14/2014
11488	Add	Submarine Cable  PT 9 OF 11	Chart No. 1: L30.1	N 30 15' 13.430"	W 081 06' 47.270"	30.25373	-81.11313	LNM 32/14, 7th Dist	285	11488_1	8/14/2014
11488	Add	Submarine Cable  PT 10 OF 11	Chart No. 1: L30.1	N 30 11' 44.330"	W 081 01' 39.370"	30.19565	-81.0276	LNM 32/14, 7th Dist	285	11488_1	8/14/2014
11488	Add	Submarine Cable  PT 11 OF 11	Chart No. 1: L30.1	N 30 11' 12.550"	W 081 00' 59.760"	30.18682	-81.0166	LNM 32/14, 7th Dist	285	11488_1	8/14/2014
11488	Add	Dangerous Wreck	PA	N 30 30' 27.840"	W 081 23' 54.060"	30.50773	-81.39835	LNM 04/14, 7th Dist	285	11488_1	2/6/2014
11488	Change	Nassau Cutoff Light 47	Fl G 4s 12ft 5M "47"	N 30 31' 20.020"	W 081 27' 38.566"	30.52223	-81.46072	LNM 31/13, 7th Dist	285	11488_1	8/19/2013
11488	Add	Obstruction	Obstn          Chart No. 1: K40	N 29 55' 04.300"	W 081 16' 20.200"	29.91786	-81.27228	LNM 26/13, 7th Dist	285	11488_1	6/17/2013
11450	Change	Harbor Key Bank Light 57	Fl G 4s 16ft 5M "57"	N 24 50' 24.030"	W 081 25' 44.595"	24.84001	-81.42905	LNM 11/17, 7th Dist	708	11450_1	3/16/2017
11450	Change	Northwest Cape Light 4	Fl R 2.5s 16ft 5M "4"	N 25 12' 49.763"	W 081 11' 45.445"	25.21382	-81.19595	LNM 50/16, 7th Dist	708	11450_1	12/22/2016
11450	Change	Lostmans River Light 8	Fl R 2.5s 18ft 5M "8"	N 25 32' 33.510"	W 081 14' 59.048"	25.54264	-81.24973	LNM 50/16, 7th Dist	708	11450_1	12/22/2016
11450	Change	Broad Creek Light 6	Fl R 6s 18ft 5M "6"	N 25 26' 19.414"	W 081 12' 12.279"	25.43873	-81.20341	LNM 50/16, 7th Dist	708	11450_1	12/22/2016
11450	Change	NOAA Life Support Lighted Buoy Aquarius characteristics to:	Y Fl (4) Y 20s Priv PA	N 24 57' 00.160"	W 080 27' 11.900"	24.95004	-80.45331	LNM 49/16, 7th Dist	708	11450_1	12/1/2016
11450	Change	Fowey Rocks Light	Fl 10s 110ft 7M RACON (___)	N 25 35' 26.249"	W 080 05' 48.242"	25.59062	-80.09673	LNM 10/16, 7th Dist	708	11450_1	3/17/2016
11450	Change	Bullfrog Banks Light BB	Fl 6s 20ft 5M "BB"	N 24 50' 44.316"	W 081 20' 32.688"	24.84564	-81.34241	LNM 05/16, 7th Dist	708	11450_1	2/11/2016
11450	Delete	Tennessee Reef East Lighted Buoy 18	R "18" Fl R 2.5s	N 24 47' 32.496"	W 080 41' 36.228"	24.79236	-80.6934	LNM 51/15, 7th Dist	708	11450_1	12/31/2015
11450	Delete	Crocker Reef Buoy 16	R N "16"	N 24 54' 29.771"	W 080 31' 28.335"	24.90827	-80.52454	LNM 51/15, 7th Dist	708	11450_1	12/31/2015
11450	Delete	Alligator Reef Light	Fl (4) 60s 136ft 13M RACON (__-)	N 24 51' 06.435"	W 080 37' 07.857"	24.85179	-80.61885	LNM 36/15, 7th Dist	708	11450_1	9/17/2015
11450	Add	Abandoned Light House	TOWER (ABAND LT HO)	N 24 51' 06.435"	W 080 37' 07.857"	24.85179	-80.61885	LNM 36/15, 7th Dist	708	11450_1	9/17/2015
11450	Add	Alligator Reef Light	Fl (4) 60s 16ft 7M	N 24 51' 04.754"	W 080 37' 03.754"	24.85132	-80.61771	LNM 36/15, 7th Dist	708	11450_1	9/17/2015
11450	Delete	American Shoal Light	Fl (3) 15s 109ft 10M RACON (_-__)	N 24 31' 30.422"	W 081 31' 09.898"	24.52512	-81.51942	LNM 36/15, 7th Dist	708	11450_1	9/17/2015
11450	Add	Abandoned Light House	TOWER (ABAND LT HO)	N 24 31' 30.422"	W 081 31' 09.898"	24.52512	-81.51942	LNM 36/15, 7th Dist	708	11450_1	9/17/2015
11450	Add	American Shoal Light	Fl (4) 60s 19ft 7M	N 24 31' 32.493"	W 081 31' 02.576"	24.52569	-81.51738	LNM 36/15, 7th Dist	708	11450_1	9/17/2015
11450	Relocate	Sombrero Key Light	Fl (5) 60s 19ft 7M	N 24 37' 39.900"	W 081 06' 30.841"	24.62775	-81.10857	LNM 33/15, 7th Dist	708	11450_1	8/20/2015
11450	Delete	Sombrero Key Light	Fl (5) 60s 142ft 12M RACON (__)	N 24 37' 40.240"	W 081 06' 38.927"	24.62784	-81.11081	LNM 31/15, 7th Dist	708	11450_1	8/13/2015
11450	Add	Abandoned Light House	TOWER (ABAND LT HO)	N 24 37' 40.240"	W 081 06' 38.927"	24.62784	-81.11081	LNM 31/15, 7th Dist	708	11450_1	8/13/2015
11450	Add	Sombrero Key Light	Fl (5) 60s 19ft 7M	N 24 37' 40.080"	W 081 06' 31.260"	24.6278	-81.10868	LNM 31/15, 7th Dist	708	11450_1	8/13/2015
11450	Delete	Conch Reef Buoy 12	R N "12"	N 24 56' 58.475"	W 080 27' 26.208"	24.94958	-80.45728	LNM 28/15, 7th Dist	708	11450_1	7/23/2015
11450	Delete	Dixie Shoal Buoy 8	R N "8"	N 25 04' 39.563"	W 080 18' 43.110"	25.07766	-80.31197	LNM 28/15, 7th Dist	708	11450_1	7/23/2015
11450	Change	Arsenic Bank Light 1	Fl G 4s 16ft 5M "1"	N 24 52' 15.285"	W 080 53' 02.339"	24.87091	-80.88398	LNM 36/14, 7th Dist	708	11450_1	9/18/2014
11450	Change	Big Pine Shoal Light 22	Q R 18ft 4M "22"	N 24 34' 06.078"	W 081 19' 32.338"	24.56836	-81.32565	LNM 29/14, 7th Dist	708	11450_1	7/24/2014
11450	Delete	Carysfort Reef Light	Fl (3) 60s 100ft 13M RACON (_._.)	N 25 13' 18.735"	W 080 12' 41.106"	25.22187	-80.21142	LNM 26/14, 7th Dist	708	11450_1	7/17/2014
11450	Add	Abandoned Light House	TOWER (ABAND LT HO)	N 25 13' 18.735"	W 080 12' 41.106"	25.22187	-80.21142	LNM 26/14, 7th Dist	708	11450_1	7/17/2014
11450	Add	Carysfort Reef Light	Fl (3) 60s 40ft 13M	N 25 13' 36.890"	W 080 12' 33.221"	25.22691	-80.20923	LNM 26/14, 7th Dist	708	11450_1	7/17/2014
11450	Relocate	Moser Channel Light 17	Fl G 4s 16ft 4M "17"	N 24 48' 56.630"	W 081 09' 08.877"	24.81573	-81.15247	LNM 25/14, 7th Dist	708	11450_1	6/26/2014
11450	Relocate	Big Pine Shoal Light 22	Q R 18ft 6M "22"	N 24 34' 06.078"	W 081 19' 32.338"	24.56836	-81.32565	LNM 33/13, 7th Dist	708	11450_1	8/22/2013
11450	Delete	Triumph Reef Light 2TR	Fl R 2.5s 19ft 5M "2TR"	N 25 28' 45.778"	W 080 06' 54.714"	25.47938	-80.1152	LNM 19/13, 7th Dist	708	11450_1	5/23/2013
11450	Delete	Turtle Harbor Lighted Whistle Buoy 4	R "4" Fl R 6s  WHIS	N 25 17' 28.420"	W 080 09' 53.172"	25.29123	-80.16477	LNM 19/13, 7th Dist	708	11450_1	5/23/2013
11450	Change	Arsenic Bank Light 2	Fl R 4s 16ft 5M "2"	N 24 52' 17.629"	W 080 53' 11.059"	24.87156	-80.88641	LNM 18/13, 7th Dist	708	11450_1	5/23/2013
11450	Change	Oxfoot Bank Light 10	Fl R 4s 16ft 5M "10"	N 24 59' 15.103"	W 081 00' 41.100"	24.98753	-81.01141	LNM 18/13, 7th Dist	708	11450_1	5/23/2013
11450	Change	Schooner Bank Light 6	Fl R 4s 16ft 5M "6"	N 24 57' 26.404"	W 080 58' 47.410"	24.95733	-80.97984	LNM 18/13, 7th Dist	708	11450_1	5/23/2013
11450	Change	Sprigger Bank Light 5	Fl G 4s 16ft 5M "5"	N 24 54' 50.103"	W 080 56' 17.391"	24.91392	-80.93816	LNM 18/13, 7th Dist	708	11450_1	5/23/2013
11450	Add	Minimum Size (2mm sq.) Dotted Fish Haven and Label	Obstn Fish Haven (auth min 6 1/2 fms)	N 25 04' 11.000"	W 080 18' 43.100"	25.06972	-80.31197	LNM 46/12, 7th Dist	708	11450_1	11/7/2012
11450	Change	Elbow Reef Light 6	Fl R 2.5s 27ft 5M "6"	N 25 08' 40.362"	W 080 15' 29.864"	25.14454	-80.25829	LNM 04/12, 7th Dist	708	11450_1	2/9/2012
11462	Relocate	Mosquito Bank Light 35	Fl G 4s 37ft 5M "35"	N 25 04' 22.931"	W 080 23' 34.184"	25.07304	-80.39283	LNM 21/17, 7th Dist	351	11462_1	6/1/2017
11462	Relocate	Ocean Reef Harbor Entrance Light 2	Fl R 4s 16ft 5M "2"	N 25 18' 30.959"	W 080 16' 03.348"	25.3086	-80.26759	LNM 21/17, 7th Dist	351	11462_1	6/1/2017
11462	Add	Madeira Drive Canal Daybeacon 2	R "2" Priv	N 25 05' 10.740"	W 080 25' 06.940"	25.08632	-80.41859	LNM 05/17, 7th Dist	351	11462_1	2/9/2017
11462	Change	NOAA Life Support Lighted Buoy Aquarius characteristics to:	Y Fl (4) Y 20s Priv PA	N 24 57' 00.160"	W 080 27' 11.900"	24.95004	-80.45331	LNM 49/16, 7th Dist	351	11462_1	12/1/2016
11462	Relocate	Caesar Creek Daybeacon 12	R "12"	N 25 23' 04.574"	W 080 12' 53.502"	25.3846	-80.21486	LNM 43/16, 7th Dist	351	11462_1	11/3/2016
11462	Relocate	Caesar Creek Daybeacon 14	R "14"	N 25 23' 01.798"	W 080 13' 13.400"	25.38383	-80.22039	LNM 43/16, 7th Dist	351	11462_1	11/3/2016
11462	Change	Angelfish Creek Light 6	Fl R 4s 12ft 5M "6"	N 25 19' 56.915"	W 080 15' 14.191"	25.33248	-80.25394	LNM 39/16, 7th Dist	351	11462_1	10/6/2016
11462	Relocate	Caesar Creek Daybeacon 6	R "6"	N 25 23' 06.812"	W 080 11' 59.243"	25.38523	-80.19979	LNM 34/16, 7th Dist	351	11462_1	9/1/2016
11462	Relocate	Caesar Creek Daybeacon 7	G "7"	N 25 23' 00.693"	W 080 12' 27.285"	25.38353	-80.20758	LNM 32/16, 7th Dist	351	11462_1	8/18/2016
11462	Relocate	Caesar Creek Daybeacon 17	G "17"	N 25 23' 01.507"	W 080 13' 27.449"	25.38375	-80.22429	LNM 32/16, 7th Dist	351	11462_1	8/18/2016
11462	Relocate	Bowles Bank Light 8	Fl R 4s 16ft 5M "8"	N 25 30' 26.263"	W 080 08' 43.996"	25.5073	-80.14555	LNM 19/16, 7th Dist	351	11462_1	5/19/2016
11462	Change	Turtle Harbor West Shoal Preferred Channel Light	Fl (2+1) G 6s 16ft 4M	N 25 18' 15.647"	W 080 12' 50.269"	25.30435	-80.21397	LNM 12/16, 7th Dist	351	11462_1	3/31/2016
11462	Change	Fowey Rocks Light	Fl 10s 110ft 7M RACON (___)	N 25 35' 26.249"	W 080 05' 48.242"	25.59062	-80.09673	LNM 10/16, 7th Dist	351	11462_1	3/17/2016
11462	Change	Caesar Creek Daybeacon 17	G "17"	N 25 22' 59.525"	W 080 13' 29.478"	25.3832	-80.22485	LNM 07/16, 7th Dist	351	11462_1	2/25/2016
11462	Change	Caesar Creek Daybeacon 2	R "2"	N 25 23' 06.431"	W 080 11' 40.091"	25.38512	-80.19447	LNM 06/16, 7th Dist	351	11462_1	2/18/2016
11462	Change	Caesar Creek Daybeacon 6	R "6"	N 25 23' 08.599"	W 080 11' 59.134"	25.38572	-80.19976	LNM 06/16, 7th Dist	351	11462_1	2/18/2016
11462	Change	Caesar Creek Daybeacon 7	G "7"	N 25 22' 59.701"	W 080 12' 28.909"	25.38325	-80.20803	LNM 06/16, 7th Dist	351	11462_1	2/18/2016
11462	Change	Caesar Creek Daybeacon 12	R "12"	N 25 23' 03.300"	W 080 12' 55.136"	25.38425	-80.21532	LNM 06/16, 7th Dist	351	11462_1	2/18/2016
11462	Change	Caesar Creek Daybeacon 14	R "14"	N 25 22' 59.979"	W 080 13' 15.175"	25.38333	-80.22088	LNM 06/16, 7th Dist	351	11462_1	2/18/2016
11462	Delete	Crocker Reef Buoy 16	R N "16"	N 24 54' 29.771"	W 080 31' 28.335"	24.90827	-80.52454	LNM 51/15, 7th Dist	351	11462_1	12/31/2015
11462	Relocate	Key Largo Daybeacon 27	G "27"	N 25 15' 57.134"	W 080 15' 38.960"	25.26587	-80.26082	LNM 48/15, 7th Dist	351	11462_1	12/10/2015
11462	Change	Old Rhodes Key Light 22	Fl R 2.5s 12ft 5M "22"	N 25 20' 53.256"	W 080 12' 20.178"	25.34813	-80.2056	LNM 47/15, 7th Dist	351	11462_1	11/26/2015
11462	Change	Key Largo Light 32	Fl R 2.5s 16ft 5M "32"	N 25 10' 36.785"	W 080 20' 21.988"	25.17689	-80.33944	LNM 46/15, 7th Dist	351	11462_1	11/26/2015
11462	Delete	Alligator Reef Light	Fl (4) 60s 136ft 13M RACON (__-)	N 24 51' 06.435"	W 080 37' 07.857"	24.85179	-80.61885	LNM 36/15, 7th Dist	351	11462_1	9/17/2015
11462	Add	Abandoned Light House	TOWER (ABAND LT HO)	N 24 51' 06.435"	W 080 37' 07.857"	24.85179	-80.61885	LNM 36/15, 7th Dist	351	11462_1	9/17/2015
11462	Add	Alligator Reef Light	Fl (4) 60s 16ft 7M	N 24 51' 04.754"	W 080 37' 03.754"	24.85132	-80.61771	LNM 36/15, 7th Dist	351	11462_1	9/17/2015
11462	Change	Angelfish Creek Light 2	Fl R 4s 12ft 5M "2"	N 25 19' 42.390"	W 080 15' 00.720"	25.32844	-80.2502	LNM 36/15, 7th Dist	351	11462_1	9/17/2015
11462	Change	Elliott Key Light 20	Fl R 4s 16ft 5M "20"	N 25 23' 08.151"	W 080 11' 29.757"	25.3856	-80.1916	LNM 29/15, 7th Dist	351	11462_1	7/30/2015
11462	Delete	Conch Reef Buoy 12	R N "12"	N 24 56' 58.475"	W 080 27' 26.208"	24.94958	-80.45728	LNM 28/15, 7th Dist	351	11462_1	7/23/2015
11462	Delete	Dixie Shoal Buoy 8	R N "8"	N 25 04' 39.563"	W 080 18' 43.110"	25.07766	-80.31197	LNM 28/15, 7th Dist	351	11462_1	7/23/2015
11462	Change	Largo Sound Channel Light 2	Fl R 4s 16ft 5M "2"	N 25 05' 46.424"	W 080 23' 50.545"	25.09623	-80.39738	LNM 23/15, 7th Dist	351	11462_1	6/18/2015
11462	Change	Mosquito Bank Light 2	Fl R 2.5s 16ft 5M "2"	N 25 04' 36.059"	W 080 25' 38.197"	25.07668	-80.42728	LNM 18/15, 7th Dist	351	11462_1	5/14/2015
11462	Change	Snake Creek Light 2	Fl R 4s 16ft 5M "2"	N 24 56' 28.948"	W 080 34' 51.876"	24.94137	-80.58108	LNM 17/15, 7th Dist	351	11462_1	5/7/2015
11462	Change	Ocean Reef Harbor Entrance Light 2	Fl R 4s 16ft 5M "2"	N 25 18' 30.863"	W 080 16' 03.159"	25.30857	-80.26755	LNM 13/15, 7th Dist	351	11462_1	4/9/2015
11462	Add	Dangerous Wreck	PA	N 25 32' 30.000"	W 080 08' 36.000"	25.54167	-80.14333	LNM 44/10, 7th Dist	351	11462_1	4/9/2015
11462	Delete	Carysfort Reef Light	Fl (3) 60s 100ft 13M RACON (_._.)	N 25 13' 18.735"	W 080 12' 41.106"	25.22187	-80.21142	LNM 26/14, 7th Dist	351	11462_1	7/17/2014
11462	Add	Abandoned Light House	TOWER (ABAND LT HO)	N 25 13' 18.735"	W 080 12' 41.106"	25.22187	-80.21142	LNM 26/14, 7th Dist	351	11462_1	7/17/2014
11462	Add	Carysfort Reef Light	Fl (3) 60s 40ft 13M	N 25 13' 36.890"	W 080 12' 33.221"	25.22691	-80.20923	LNM 26/14, 7th Dist	351	11462_1	7/17/2014
11462	Change	Whale Harbor Light 1	Fl G 2.5s 16ft 5M "1"	N 24 55' 51.909"	W 080 35' 43.218"	24.93109	-80.59534	LNM 16/14, 7th Dist	351	11462_1	5/8/2014
11462	Relocate	Elliot Key Daybeacon 14	R "14"	N 25 27' 47.559"	W 080 10' 04.549"	25.46321	-80.16793	LNM 08/14, 7th Dist	351	11462_1	3/13/2014
11462	Relocate	Snake Creek Light 2	Fl R 4s 16ft 4M "2"	N 24 56' 28.948"	W 080 34' 51.876"	24.94137	-80.58108	LNM 08/14, 7th Dist	351	11462_1	3/13/2014
11462	Relocate	Whale Harbor Daybeacon 2	R "2"	N 24 55' 54.533"	W 080 35' 44.443"	24.93181	-80.59568	LNM 08/14, 7th Dist	351	11462_1	3/13/2014
11462	Relocate	Key Largo Daybeacon 29	G "29"	N 25 14' 16.645"	W 080 17' 00.438"	25.23796	-80.28345	LNM 31/13, 7th Dist	351	11462_1	8/19/2013
11462	Delete	Triumph Reef Light 2TR	Fl R 2.5s 19ft 5M "2TR"	N 25 28' 45.778"	W 080 06' 54.714"	25.47938	-80.1152	LNM 19/13, 7th Dist	351	11462_1	5/23/2013
11462	Delete	Turtle Harbor Lighted Whistle Buoy 4	R "4" Fl R 6s  WHIS	N 25 17' 28.420"	W 080 09' 53.172"	25.29123	-80.16477	LNM 19/13, 7th Dist	351	11462_1	5/23/2013
11408	Change	Depth Legend - Suwannee River-McGriff Pass, FL to:	1 1/2 FT MAR 2017	N 29 18' 20.600"	W 083 10' 58.800"	29.30572	-83.183	LNM 32/17, 7th Dist	172	11408_2	8/3/2017
11408	Change	Depth Note - NOTE F to:	NORTHWEST CHANNEL The controlling depth was 6 feet on centerline from the entrance to the main ship channel. May 2016 	N 29 07' 04.400"	W 083 06' 40.100"	29.11789	-83.11114	LNM 32/17, 7th Dist	173	11408_3	8/3/2017
11408	Change	Depth Legend - Suwannee River-McGriff Pass, FL to:	1 FT APR 2016	N 29 18' 20.600"	W 083 10' 58.800"	29.30572	-83.183	LNM 25/17, 7th Dist	172	11408_2	6/15/2017
11408	Change	Withlacoochee River Entrance Light 18A	Q R 14ft 4M "18A"	N 28 59' 02.780"	W 082 47' 29.029"	28.98411	-82.7914	LNM 43/16, 7th Dist	171	11408_1	11/3/2016
11408	Delete	Cross Florida Barge Canal Approach Lighted Buoy 2	R "2" Fl R 2.5s	N 28 55' 23.909"	W 083 11' 45.441"	28.92331	-83.19595	LNM 40/16, 7th Dist	171	11408_1	10/13/2016
11408	Change	Horseshoe Beach Approach Light 2	Fl R 4s 16ft 5M "2"	N 29 23' 16.188"	W 083 20' 24.430"	29.38783	-83.34012	LNM 23/16, 7th Dist	171	11408_1	6/16/2016
11408	Change	Cedar Keys South Bar Channel Light 2	Fl R 4s 16ft 5M "2"	N 29 07' 13.517"	W 082 58' 50.511"	29.12042	-82.9807	LNM 23/16, 7th Dist	173	11408_3	6/16/2016
11408	Change	Cedar Keys South Bar Channel Light 2	Fl R 4s 16ft 5M "2"	N 29 07' 13.517"	W 082 58' 50.511"	29.12042	-82.9807	LNM 23/16, 7th Dist	171	11408_1	6/16/2016
11408	Change	Cross Florida Greenway Light 19	Fl G 4s 16ft 5M "19"	N 28 56' 49.082"	W 082 52' 39.748"	28.94697	-82.87771	LNM 14/16, 7th Dist	171	11408_1	4/14/2016
11408	Change	Cedar Keys Northwest Channel Light 19	Fl G 4s 16ft 5M "19"	N 29 07' 08.057"	W 083 03' 06.291"	29.1189	-83.05175	LNM 11/16, 7th Dist	173	11408_3	3/24/2016
11408	Change	Cedar Keys Northwest Channel Light 9	Fl G 4s 16ft 5M "9"	N 29 08' 20.854"	W 083 04' 18.754"	29.13913	-83.07188	LNM 11/16, 7th Dist	173	11408_3	3/24/2016
11408	Change	Withlacoochee River Entrance Light 1	Q G 16ft 4M "1"	N 28 58' 08.266"	W 082 49' 43.326"	28.96896	-82.8287	LNM 38/15, 7th Dist	171	11408_1	9/24/2015
11408	Relocate	Cedar Keys Main Channel Daybeacon 22	R "22"	N 29 06' 53.776"	W 083 02' 17.329"	29.11494	-83.03815	LNM 32/15, 7th Dist	173	11408_3	8/13/2015
11408	Change	Cedar Keys Main Channel Light 1	Fl G 4s 16ft 5M "1"	N 29 04' 00.341"	W 083 04' 33.025"	29.06676	-83.07584	LNM 28/15, 7th Dist	173	11408_3	7/23/2015
11408	Change	Cedar Keys Main Channel Light 1	Fl G 4s 16ft 5M "1"	N 29 04' 00.341"	W 083 04' 33.025"	29.06676	-83.07584	LNM 28/15, 7th Dist	171	11408_1	7/23/2015
11408	Change	Cedar Keys Main Channel Light 14	Fl R 2.5s 16ft 5M "14"	N 29 06' 15.137"	W 083 03' 21.231"	29.1042	-83.0559	LNM 28/15, 7th Dist	173	11408_3	7/23/2015
11408	Change	Cedar Keys Main Channel Light 23	Fl G 4s 15ft 5M "23"	N 29 07' 00.377"	W 083 02' 19.371"	29.11677	-83.03871	LNM 23/15, 7th Dist	173	11408_3	6/18/2015
11408	Change	Cedar Keys Main Channel Light 27	Q G 17ft 4M "27"	N 29 07' 22.637"	W 083 02' 23.091"	29.12296	-83.03975	LNM 23/15, 7th Dist	173	11408_3	6/18/2015
11408	Change	Cedar Keys Main Channel Light 30	Q R 16ft 4M "30"	N 29 07' 19.133"	W 083 02' 40.483"	29.12198	-83.04458	LNM 23/15, 7th Dist	173	11408_3	6/18/2015
11498	Change	Mothers Arm Light 2	Q R 4M "2"	N 28 48' 59.859"	W 081 14' 33.780"	28.81663	-81.24271	LNM 34/17, 7th Dist	278	11498_2	8/31/2017
11498	Add	Bascule Bridge Label	RR BASCULE BRIDGE HOR CL 90 FT HOR CL 7 FT	N 28 50' 17.300"	W 081 19' 28.200"	28.83814	-81.3245	LNM 43/16, 7th Dist	277	11498_1	10/20/2016
11498	Add	Bascule Bridge Label	RR BASCULE BRIDGE HOR CL 90 FT HOR CL 7 FT	N 28 50' 17.300"	W 081 19' 28.200"	28.83814	-81.3245	LNM 43/16, 7th Dist	278	11498_2	10/20/2016
11498	Change	Alexander Island Light 113	Fl G 4s 17ft 5M "113"	N 28 50' 52.362"	W 081 21' 11.700"	28.84788	-81.35325	LNM 45/15, 7th Dist	277	11498_1	11/19/2015
11498	Change	Alexander Island Light 113	Fl G 4s 17ft 5M "113"	N 28 50' 52.362"	W 081 21' 11.700"	28.84788	-81.35325	LNM 45/15, 7th Dist	278	11498_2	11/19/2015
11498	Change	Sanford Cut Light 13	Fl G 4s 16ft 5M "13"	N 28 49' 01.686"	W 081 16' 10.080"	28.81713	-81.26947	LNM 44/15, 7th Dist	278	11498_2	11/12/2015
11498	Delete	Sanford Cut Light 5	Fl G 4s 16ft 4M "5"	N 28 49' 01.686"	W 081 16' 10.080"	28.81713	-81.26947	LNM 43/15, 7th Dist	278	11498_2	11/5/2015
11498	Add	Sanford Cut Light 13	Fl G 4s 16ft 4M "13"	N 28 49' 01.686"	W 081 16' 10.080"	28.81713	-81.26947	LNM 43/15, 7th Dist	278	11498_2	11/5/2015
11498	Change	Snake Creek Cutoff Light 79	Fl G 4s 17ft 5M "79"	N 28 55' 54.654"	W 081 21' 05.916"	28.93185	-81.35165	LNM 30/15, 7th Dist	277	11498_1	8/6/2015
11498	Delete	Woodruff Creek Buoy 7	G C "7"	N 28 48' 31.962"	W 081 13' 09.738"	28.80888	-81.21937	LNM 05/15, 7th Dist	278	11498_2	2/12/2015
11498	Change	Idlewilde Light 16	Q R 16ft 4M "16"	N 29 05' 54.255"	W 081 30' 09.012"	29.0984	-81.5025	LNM 04/15, 7th Dist	277	11498_1	2/5/2015
11498	Change	Lake Dexter Light 12	Fl R 4s 17ft 5M "12"	N 29 06' 44.763"	W 081 30' 25.705"	29.11243	-81.50714	LNM 04/15, 7th Dist	277	11498_1	2/5/2015
11498	Change	Lake Dexter Light 15	Fl G 4s 12ft 5M "15"	N 29 06' 07.112"	W 081 29' 58.933"	29.10198	-81.4997	LNM 04/15, 7th Dist	277	11498_1	2/5/2015
11498	Change	Beresford Cutoff Light 63	Fl G 4s 17ft 5M "63"	N 28 58' 25.368"	W 081 20' 46.794"	28.97371	-81.34633	LNM 04/15, 7th Dist	277	11498_1	2/5/2015
11498	Change	Happy Hill Light 41	Fl G 4s 17ft 5M "41"	N 28 59' 52.596"	W 081 22' 38.184"	28.99794	-81.37727	LNM 04/15, 7th Dist	277	11498_1	2/5/2015
11498	Change	Hermitage Point Light 35	Fl G 4s 17ft 5M "35"	N 29 01' 32.058"	W 081 23' 40.290"	29.02557	-81.39452	LNM 04/15, 7th Dist	277	11498_1	2/5/2015
11498	Change	Hermitage Point Light 39	Fl G 4s 17ft 5M "39"	N 29 01' 09.330"	W 081 23' 21.534"	29.01926	-81.38931	LNM 04/15, 7th Dist	277	11498_1	2/5/2015
11498	Change	Hontoun Island Light 60	Fl R 4s 12ft 5M "60"	N 28 58' 42.846"	W 081 20' 59.742"	28.97857	-81.34993	LNM 04/15, 7th Dist	277	11498_1	2/5/2015
11498	Change	Kimball Island Light 18	Fl R 4s 17ft 5M "18"	N 29 05' 43.136"	W 081 28' 21.648"	29.09532	-81.47268	LNM 04/15, 7th Dist	277	11498_1	2/5/2015
11498	Change	Pine Island Light 81	Fl G 4s 17ft 5M "81"	N 28 55' 22.812"	W 081 21' 07.596"	28.923	-81.35211	LNM 04/15, 7th Dist	277	11498_1	2/5/2015
11498	Change	Riverside Light 45	Fl G 4s 17ft 5M "45"	N 28 59' 37.722"	W 081 22' 15.264"	28.99381	-81.3709	LNM 04/15, 7th Dist	277	11498_1	2/5/2015
11498	Change	St Francis Light 26	Fl R 4s 17ft 5M "26"	N 29 02' 15.842"	W 081 25' 03.139"	29.03773	-81.41754	LNM 04/15, 7th Dist	277	11498_1	2/5/2015
11498	Change	Butchers Bend Light 109	Fl G 4s 17ft 5M "109"	N 28 51' 27.228"	W 081 21' 02.520"	28.85756	-81.3507	LNM 03/15, 7th Dist	277	11498_1	1/22/2015
11498	Change	Butchers Bend Light 109	Fl G 4s 17ft 5M "109"	N 28 51' 27.228"	W 081 21' 02.520"	28.85756	-81.3507	LNM 03/15, 7th Dist	278	11498_2	1/22/2015
11498	Change	Fort Florida Light 107	Fl G 4s 17ft 5M "107"	N 28 51' 47.814"	W 081 21' 07.836"	28.86328	-81.35218	LNM 03/15, 7th Dist	277	11498_1	1/22/2015
11498	Change	Fort Florida Light 107	Fl G 4s 17ft 5M "107"	N 28 51' 47.814"	W 081 21' 07.836"	28.86328	-81.35218	LNM 03/15, 7th Dist	278	11498_2	1/22/2015
11498	Change	High Bluff Light 92	Fl R 4s 17ft 5M "92"	N 28 53' 15.942"	W 081 21' 23.580"	28.88776	-81.35655	LNM 03/15, 7th Dist	277	11498_1	1/22/2015
11498	Change	Indian Flats Light 85	Fl G 4s 17ft 5M "85"	N 28 54' 24.930"	W 081 21' 34.230"	28.90693	-81.3595	LNM 03/15, 7th Dist	277	11498_1	1/22/2015
11498	Change	Manuel Landing Light 101	Fl G 4s 12ft 5M "101"	N 28 52' 11.394"	W 081 21' 44.556"	28.86983	-81.36237	LNM 03/15, 7th Dist	277	11498_1	1/22/2015
11498	Change	Manuel Landing Light 99	Fl G 4s 17ft 5M "99"	N 28 52' 17.832"	W 081 21' 35.184"	28.87162	-81.35977	LNM 03/15, 7th Dist	277	11498_1	1/22/2015
11498	Change	Palmetto Reach Light 93	Fl G 4s 17ft 5M "93"	N 28 53' 00.947"	W 081 21' 55.101"	28.8836	-81.3653	LNM 03/15, 7th Dist	277	11498_1	1/22/2015
11498	Change	Lake Monroe Light 115	Fl G 4s 12ft 5M "115"	N 28 50' 50.802"	W 081 20' 29.256"	28.84744	-81.34146	LNM 02/15, 7th Dist	277	11498_1	1/22/2015
11498	Change	Lake Monroe Light 115	Fl G 4s 12ft 5M "115"	N 28 50' 50.802"	W 081 20' 29.256"	28.84744	-81.34146	LNM 02/15, 7th Dist	278	11498_2	1/22/2015
11498	Change	Monroe Cut Light 2	Fl R 4s 16ft 5M "2"	N 28 49' 58.776"	W 081 18' 32.670"	28.83299	-81.30907	LNM 02/15, 7th Dist	278	11498_2	1/22/2015
11498	Change	Florida Bend Light 88	Fl R 4s 17ft 5M "88"	N 28 54' 02.392"	W 081 21' 29.800"	28.90067	-81.35828	LNM 46/14, 7th Dist	277	11498_1	11/27/2014
11498	Change	Hontoun Island Light 66	Fl R 4s 17ft 5M "66"	N 28 57' 57.018"	W 081 21' 03.030"	28.96584	-81.35085	LNM 32/14, 7th Dist	277	11498_1	8/21/2014
11498	Change	Kimball Island Light 20	Fl R 4s 17ft 5M "20"	N 29 05' 38.236"	W 081 27' 32.346"	29.09395	-81.45898	LNM 32/14, 7th Dist	277	11498_1	8/21/2014
11498	Change	Kimball Island Light 21	Fl G 4s 17ft 5M "21"	N 29 05' 19.110"	W 081 27' 24.786"	29.08864	-81.45689	LNM 32/14, 7th Dist	277	11498_1	8/21/2014
11498	Change	Revolving Bend Light 34	Fl R 4s 17ft 5M "34"	N 29 01' 46.746"	W 081 24' 00.822"	29.02965	-81.40023	LNM 15/14, 7th Dist	277	11498_1	5/1/2014
11487	Relocate	Upper Palatka Light 1	Fl G 4s 12ft 5M "1"	N 29 38' 34.407"	W 081 37' 22.185"	29.64289	-81.62283	LNM 05/17, 7th Dist	273	11487_1	2/9/2017
11487	Relocate	Palatka Light 48	Fl R 4s 12ft 5M "48"	N 29 39' 02.433"	W 081 37' 19.843"	29.65068	-81.62218	LNM 04/17, 7th Dist	273	11487_1	2/2/2017
11487	Change	Rice Creek Entrance Light 5	Fl G 2.5s 16ft 5M "5"	N 29 41' 45.240"	W 081 38' 53.040"	29.6959	-81.64806	LNM 15/16, 7th Dist	273	11487_1	4/21/2016
11487	Delete	Dancy Point Range Front Light	Q 14ft	N 29 42' 33.025"	W 081 34' 50.899"	29.70917	-81.5808	LNM 51/15, 7th Dist	273	11487_1	12/31/2015
11487	Delete	Dancy Point Range Rear Light	Iso 6s 34ft	N 29 42' 14.460"	W 081 35' 08.820"	29.70402	-81.58578	LNM 51/15, 7th Dist	273	11487_1	12/31/2015
11487	Delete	Forrester Point Light 41	Fl G 4s 12ft 5M "41"	N 29 42' 36.180"	W 081 37' 02.400"	29.71005	-81.61733	LNM 51/15, 7th Dist	273	11487_1	12/31/2015
11487	Add	Bodine Point Light 39	Fl G 2.5s 14ft 3M "39"	N 29 43' 32.330"	W 081 33' 51.250"	29.72565	-81.56424	LNM 51/15, 7th Dist	273	11487_1	12/31/2015
11487	Add	Dancy Point Light 41	Q G 12ft 3M "41"	N 29 42' 33.025"	W 081 34' 50.899"	29.70917	-81.5808	LNM 51/15, 7th Dist	273	11487_1	12/31/2015
11487	Add	Forrester Point Light 41A	Fl G 4s 12ft 5M "41A"	N 29 42' 36.180"	W 081 37' 02.400"	29.71005	-81.61733	LNM 51/15, 7th Dist	273	11487_1	12/31/2015
11487	Change	Rice Creek Light 9	Fl G 4s 16ft 5M "9"	N 29 42' 03.060"	W 081 39' 12.720"	29.70085	-81.65353	LNM 39/15, 7th Dist	273	11487_1	10/8/2015
11487	Change	Devils Elbow Light 4	Fl R 4s 16ft 5M "4"	N 29 38' 01.920"	W 081 36' 50.400"	29.63387	-81.614	LNM 37/15, 7th Dist	273	11487_1	9/24/2015
11487	Change	Forrester Point Light 42A	Fl R 2.5s 16ft 5M "42A"	N 29 41' 44.683"	W 081 38' 14.179"	29.69575	-81.63728	LNM 37/15, 7th Dist	273	11487_1	9/24/2015
11487	Change	Forrester Point Light 41	Fl G 4s 12ft 5M "41"	N 29 42' 36.180"	W 081 37' 02.400"	29.71005	-81.61733	LNM 37/15, 7th Dist	273	11487_1	9/24/2015
11487	Change	Masons Creek Light 38	Fl R 4s 16ft 5M "38"	N 29 44' 08.304"	W 081 33' 20.195"	29.73564	-81.55561	LNM 37/15, 7th Dist	273	11487_1	9/24/2015
11487	Change	Buffalo Bluff Light 29	Fl G 2.5s 12ft 5M "29"	N 29 35' 10.500"	W 081 40' 58.380"	29.58625	-81.68288	LNM 30/15, 7th Dist	273	11487_1	8/6/2015
11487	Change	Rat Island Light 15	Fl G 4s 12ft 5M "15"	N 29 35' 23.040"	W 081 37' 20.460"	29.58973	-81.62235	LNM 30/15, 7th Dist	273	11487_1	8/6/2015
11487	Change	Rat Island Light 15	Fl G 4s 12ft 5M "15"	N 29 35' 23.040"	W 081 37' 20.460"	29.58973	-81.62235	LNM 30/15, 7th Dist	274	11487_2	8/6/2015
11487	Change	Seven Sisters Island Light 30	Fl R 4s 16ft 5M "30"	N 29 34' 48.990"	W 081 41' 08.795"	29.58027	-81.68578	LNM 30/15, 7th Dist	273	11487_1	8/6/2015
11487	Change	Nine Mile Point Light 36	Fl R 2.5s 12ft 5M "36"	N 29 46' 27.840"	W 081 33' 09.600"	29.7744	-81.55267	LNM 21/15, 7th Dist	273	11487_1	6/4/2015
11487	Change	Murphy Island Light 23	Fl G 2.5s 16ft 5M "23"	N 29 35' 52.543"	W 081 39' 49.745"	29.59793	-81.66382	LNM 10/15, 7th Dist	273	11487_1	3/19/2015
11487	Change	Murphy Island Light 26	Fl R 4s 16ft 5M "26"	N 29 35' 31.987"	W 081 40' 22.947"	29.59222	-81.67304	LNM 10/15, 7th Dist	273	11487_1	3/19/2015
11487	Change	Crescent Lake Light 16	Fl R 4s 16ft 5M "16"	N 29 35' 30.900"	W 081 38' 03.720"	29.59192	-81.63437	LNM 04/15, 7th Dist	273	11487_1	2/5/2015
11487	Change	Crescent Lake Light 16	Fl R 4s 16ft 5M "16"	N 29 35' 30.900"	W 081 38' 03.720"	29.59192	-81.63437	LNM 04/15, 7th Dist	274	11487_2	2/5/2015
11487	Change	Rivercrest Light 10	Fl R 4s 16ft 5M "10"	N 29 37' 57.480"	W 081 35' 33.180"	29.63263	-81.59255	LNM 04/15, 7th Dist	273	11487_1	2/5/2015
11487	Change	Upper Palatka Light 2	Fl R 4s 16ft 5M "2"	N 29 38' 17.825"	W 081 37' 23.241"	29.63828	-81.62312	LNM 04/15, 7th Dist	273	11487_1	2/5/2015
11487	Change	Federal Point Light 37	Fl G 4s 17ft 5M "37"	N 29 45' 00.300"	W 081 32' 57.900"	29.75008	-81.54942	LNM 02/15, 7th Dist	273	11487_1	1/22/2015
11487	Change	Forrester Point Light 42	Fl R 4s 16ft 5M "42"	N 29 42' 28.560"	W 081 37' 56.100"	29.70793	-81.63225	LNM 02/15, 7th Dist	273	11487_1	1/22/2015
11487	Change	Lower Palatka Light 47	Fl G 4s 16ft 5M "47"	N 29 39' 22.260"	W 081 37' 02.580"	29.65618	-81.61739	LNM 02/15, 7th Dist	273	11487_1	1/22/2015
11487	Change	Rice Creek Entrance Channel Light 8	Fl R 4s 16ft 5M "8"	N 29 41' 57.480"	W 081 39' 06.960"	29.6993	-81.65193	LNM 02/14, 7th Dist	273	11487_1	1/30/2014
11487	Change	Overhead Power Cable Label	OVHD PWR CAB SAFE CL 90 FT	N 29 37' 17.550"	W 081 36' 17.200"	29.62154	-81.60477	LNM 42/13, 7th Dist	273	11487_1	10/10/2013
11487	Change	Murphy Island Light 19	Fl G 2.5s 12ft 5M "19"	N 29 35' 50.700"	W 081 38' 54.780"	29.59742	-81.64855	LNM 05/13, 7th Dist	273	11487_1	2/14/2013
11487	Relocate	Buffalo Bluff Light 28	Fl R 4s 16ft 5M "28"	N 29 35' 16.680"	W 081 41' 01.003"	29.58797	-81.68361	LNM 50/12, 7th Dist	273	11487_1	1/23/2013
11487	Relocate	Dancy Point Range Front Light	Q 14ft	N 29 42' 33.025"	W 081 34' 50.899"	29.70917	-81.5808	LNM 21/12, 7th Dist	273	11487_1	6/11/2012
11487	Relocate	Racy Point Cut Range Front Light	Q G 16ft	N 29 47' 50.643"	W 081 32' 59.799"	29.7974	-81.54994	LNM 21/12, 7th Dist	273	11487_1	6/11/2012
11487	Relocate	Racy Point Cut Range Rear Light	Iso G 6s 27ft	N 29 48' 00.589"	W 081 32' 59.601"	29.80016	-81.54989	LNM 21/12, 7th Dist	273	11487_1	6/11/2012
11487	Relocate	Racy Point Cut Range Rear Light	Iso G 6s 27ft	N 29 48' 00.589"	W 081 32' 59.601"	29.80016	-81.54989	LNM 21/12, 7th Dist	273	11487_1	6/11/2012
11487	Change	Dancy Point Range Front Light	Q 14ft	N 29 42' 33.025"	W 081 34' 50.899"	29.70917	-81.5808	LNM 21/12, 7th Dist	273	11487_1	6/11/2012
11487	Change	Racy Point Cut Range Rear Light	Iso G 6s 27ft	N 29 48' 00.589"	W 081 32' 59.601"	29.80016	-81.54989	LNM 21/12, 7th Dist	273	11487_1	6/11/2012
11487	Change	Palatka Light 44	Fl R 6s 12ft 5M "44"	N 29 40' 04.080"	W 081 37' 29.940"	29.6678	-81.62498	LNM 15/12, 7th Dist	273	11487_1	4/24/2012
11487	Relocate	Palatka Light 44	Fl R 6s 12ft 4M "44"	N 29 40' 04.080"	W 081 37' 29.940"	29.6678	-81.62498	LNM 14/12, 7th Dist	273	11487_1	4/10/2012
11487	Change	Palatka Light 44	Fl R 6s 12ft 5M "44"	N 29 40' 04.080"	W 081 37' 29.940"	29.6678	-81.62498	LNM 14/12, 7th Dist	273	11487_1	4/10/2012
11487	Change	Verdiere Point Light 40	Fl R 2.5s 12ft 5M "40"	N 29 43' 00.480"	W 081 34' 26.640"	29.7168	-81.57407	LNM 06/12, 7th Dist	273	11487_1	2/28/2012
11487	Change	Devils Elbow Light 6	Fl R 4s 16ft 5M "6"	N 29 38' 31.260"	W 081 36' 12.360"	29.64202	-81.60343	LNM 05/12, 7th Dist	273	11487_1	2/16/2012
11487	Change	San Mateo Light 12	Fl G 4s 16ft 5M "12"	N 29 36' 36.840"	W 081 35' 50.220"	29.61023	-81.59728	LNM 05/12, 7th Dist	273	11487_1	2/16/2012
11487	Change	San Mateo Light 12	Fl G 4s 16ft 5M "12"	N 29 36' 36.840"	W 081 35' 50.220"	29.61023	-81.59728	LNM 05/12, 7th Dist	274	11487_2	2/16/2012
11487	Change	Upper Palatka Light 1	Fl G 4s 12ft 5M "1"	N 29 38' 34.076"	W 081 37' 22.120"	29.6428	-81.62281	LNM 05/12, 7th Dist	273	11487_1	2/16/2012
11487	Change	Murphy Island Light 20	Fl R 4s 16ft 5M "20"	N 29 35' 55.477"	W 081 39' 04.207"	29.59874	-81.65117	LNM 05/12, 7th Dist	273	11487_1	2/16/2012
11487	Change	Murphy Island Light 22	Fl R 4s 16ft 5M "22"	N 29 35' 49.759"	W 081 39' 18.982"	29.59715	-81.65527	LNM 05/12, 7th Dist	273	11487_1	2/16/2012
11487	Change	Buffalo Bluff Light 28	Fl R 4s 16ft 5M "28"	N 29 35' 16.200"	W 081 41' 00.960"	29.58783	-81.6836	LNM 29/11, 7th Dist	273	11487_1	7/28/2011
11487	Change	Palatka Light 48	Fl R 4s 12ft 5M "48"	N 29 39' 02.280"	W 081 37' 19.800"	29.65063	-81.62217	LNM 29/11, 7th Dist	273	11487_1	7/28/2011
11487	Delete	Rice Creek Daybeacon 11	G "11"	N 29 42' 04.560"	W 081 39' 15.300"	29.70127	-81.65425	LNM 27/11, 7th Dist	273	11487_1	7/18/2011
11487	Delete	Rice Creek Daybeacon 13	G "13"	N 29 42' 04.200"	W 081 39' 32.460"	29.70117	-81.65902	LNM 27/11, 7th Dist	273	11487_1	7/18/2011
11487	Delete	Rice Creek Daybeacon 12	R "12"	N 29 42' 03.480"	W 081 39' 25.080"	29.70097	-81.65697	LNM 27/11, 7th Dist	273	11487_1	7/18/2011
11487	Delete	Rice Creek Daybeacon 14	R "14"	N 29 41' 53.460"	W 081 40' 02.520"	29.69818	-81.66737	LNM 27/11, 7th Dist	273	11487_1	7/18/2011
11487	Delete	Rice Creek Daybeacon 16	R "16"	N 29 41' 44.100"	W 081 40' 17.520"	29.69558	-81.67153	LNM 27/11, 7th Dist	273	11487_1	7/18/2011
11487	Delete	Rice Creek Daybeacon 12	R "12"	N 29 42' 03.480"	W 081 39' 25.080"	29.70097	-81.65697	LNM 25/11, 7th Dist	273	11487_1	6/28/2011
11487	Delete	Rice Creek Daybeacon 11	G "11"	N 29 42' 04.560"	W 081 39' 15.300"	29.70127	-81.65425	LNM 25/11, 7th Dist	273	11487_1	6/28/2011
11487	Delete	Rice Creek Daybeacon 13	G "13"	N 29 42' 04.200"	W 081 39' 32.460"	29.70117	-81.65902	LNM 25/11, 7th Dist	273	11487_1	6/28/2011
11487	Delete	Rice Creek Daybeacon 14	R "14"	N 29 41' 53.460"	W 081 40' 02.520"	29.69818	-81.66737	LNM 25/11, 7th Dist	273	11487_1	6/28/2011
11487	Delete	Rice Creek Daybeacon 16	R "16"	N 29 41' 44.100"	W 081 40' 17.520"	29.69558	-81.67153	LNM 25/11, 7th Dist	273	11487_1	6/28/2011
11487	Delete	Rice Creek Daybeacon 18	R "18"	N 29 41' 29.460"	W 081 40' 51.960"	29.69152	-81.6811	LNM 25/11, 7th Dist	273	11487_1	6/28/2011
11487	Add	Rice Creek Daybeacon 11	G "11"	N 29 42' 04.200"	W 081 39' 32.460"	29.70117	-81.65902	LNM 25/11, 7th Dist	273	11487_1	6/28/2011
11487	Change	Palatka Light 48	Fl R 4s 12ft 4M "48"	N 29 39' 02.280"	W 081 37' 19.800"	29.65063	-81.62217	LNM 17/11, 7th Dist	273	11487_1	5/2/2011
11487	Change	Palatka Light 48	Fl R 4s 12ft 5M "48"	N 29 39' 02.280"	W 081 37' 19.800"	29.65063	-81.62217	LNM 12/11, 7th Dist	273	11487_1	3/30/2011
11487	Relocate	Murphy Island Light 23	Fl G 2.5s 16ft 3M "23"	N 29 35' 52.543"	W 081 39' 49.745"	29.59793	-81.66382	LNM 07/07, 7th Dist	273	11487_1	3/19/2009
11487	Add	HURRICANES AND TROPICAL STORMS NOTE	Hurricanes, tropical storms and other major storms may cause considerable damage to marine structures, aids to navigation and moored vessels, resulting in submerged debris in unknown locations. Charted soundings, channel depths and shoreline may not reflect actual conditions following these storms. Fixed aids to navigation may have been damaged or destroyed. Buoys may have been moved from charted positions, damaged, sunk extinguished or otherwise made inoperative. Mariners should not rely upon the position or operation of an aid to navigation. Wrecks and submerged obstructions may have been displaced from charted locations. Pipelines may have become uncovered or moved. Mariners are urged to exercise extreme caution and are requested to report aids to navigation discrepancies and hazards to navigation to the nearest United States Coast Guard unit.	N 29 37' 11.000"	W 081 37' 27.000"	29.61972	-81.62417	LNM 15/06, 7th Dist	273	11487_1	2/13/2008
11460	Delete	Capron Shoal Buoy 10A	R N "10A"	N 27 26' 36.216"	W 080 13' 19.168"	27.44339	-80.22199	LNM 15/17, 7th Dist	375	11460_1	4/27/2017
11460	Change	Dotted Fish Haven Label	Obstn (6 1/2 fms)	N 25 59' 05.700"	W 080 05' 12.700"	25.98492	-80.08686	LNM 12/17, 7th Dist	375	11460_1	3/16/2017
11460	Add	Dashed Fish Haven Label	Fish Haven (auth min 4 1/4 fms)	N 26 52' 35.890"	W 080 01' 47.600"	26.87664	-80.02989	LNM 50/16, 7th Dist	375	11460_1	12/29/2016
11460	Add	Dotted Fish Haven PT 1 OF 4	Chart No. 1: K46.2	N 26 53' 06.000"	W 080 01' 23.000"	26.885	-80.02306	LNM 50/16, 7th Dist	375	11460_1	12/29/2016
11460	Add	Dotted Fish Haven PT 2 OF 4	Chart No. 1: K46.2	N 26 52' 06.000"	W 080 01' 23.000"	26.86833	-80.02306	LNM 50/16, 7th Dist	375	11460_1	12/29/2016
11460	Add	Dotted Fish Haven PT 3 OF 4	Chart No. 1: K46.2	N 26 52' 06.000"	W 080 02' 12.000"	26.86833	-80.03667	LNM 50/16, 7th Dist	375	11460_1	12/29/2016
11460	Add	Dotted Fish Haven PT 4 OF 4	Chart No. 1: K46.2	N 26 53' 06.000"	W 080 02' 12.000"	26.885	-80.03667	LNM 50/16, 7th Dist	375	11460_1	12/29/2016
11460	Change	NOAA Life Support Lighted Buoy Aquarius characteristics to:	Y Fl (4) Y 20s Priv PA	N 24 57' 00.160"	W 080 27' 11.900"	24.95004	-80.45331	LNM 49/16, 7th Dist	375	11460_1	12/1/2016
11460	Add	Dotted Fish Haven Label	Obstn Fish Haven (auth min 50 ft)	N 26 39' 51.000"	W 080 00' 49.500"	26.66417	-80.01375	LNM 31/16, 7th Dist	375	11460_1	7/28/2016
11460	Add	Dotted Fish Haven PT 1 OF 8	Chart No. 1: K46.2	N 26 39' 24.000"	W 080 02' 01.000"	26.65667	-80.03361	LNM 31/16, 7th Dist	375	11460_1	7/28/2016
11460	Add	Dotted Fish Haven PT 2 OF 8	Chart No. 1: K46.2	N 26 41' 19.000"	W 080 01' 51.000"	26.68861	-80.03083	LNM 31/16, 7th Dist	375	11460_1	7/28/2016
11460	Add	Dotted Fish Haven PT 3 OF 8	Chart No. 1: K46.2	N 26 41' 19.000"	W 080 01' 38.000"	26.68861	-80.02722	LNM 31/16, 7th Dist	375	11460_1	7/28/2016
11460	Add	Dotted Fish Haven PT 4 OF 8	Chart No. 1: K46.2	N 26 40' 48.000"	W 080 01' 40.000"	26.68	-80.02778	LNM 31/16, 7th Dist	375	11460_1	7/28/2016
11460	Add	Dotted Fish Haven PT 5 OF 8	Chart No. 1: K46.2	N 26 40' 48.000"	W 080 01' 13.000"	26.68	-80.02028	LNM 31/16, 7th Dist	375	11460_1	7/28/2016
11460	Add	Dotted Fish Haven PT 6 OF 8	Chart No. 1: K46.2	N 26 40' 21.000"	W 080 01' 13.000"	26.6725	-80.02028	LNM 31/16, 7th Dist	375	11460_1	7/28/2016
11460	Add	Dotted Fish Haven PT 7 OF 8	Chart No. 1: K46.2	N 26 40' 20.700"	W 080 00' 56.300"	26.67242	-80.01564	LNM 31/16, 7th Dist	375	11460_1	7/28/2016
11460	Add	Dotted Fish Haven PT 8 OF 8	Chart No. 1: K46.2	N 26 39' 23.500"	W 080 00' 59.300"	26.65653	-80.01647	LNM 31/16, 7th Dist	375	11460_1	7/28/2016
11460	Delete	Dotted Fish Haven PT 1 OF 6	Chart No. 1: K46.2	N 26 40' 29.940"	W 080 01' 41.960"	26.67498	-80.02832	LNM 31/16, 7th Dist	375	11460_1	7/28/2016
11460	Delete	Dotted Fish Haven PT 2 OF 6	Chart No. 1: K46.2	N 26 41' 19.030"	W 080 01' 42.270"	26.68862	-80.02841	LNM 31/16, 7th Dist	375	11460_1	7/28/2016
11460	Delete	Dotted Fish Haven PT 3 OF 6	Chart No. 1: K46.2	N 26 41' 19.000"	W 080 01' 38.000"	26.68861	-80.02722	LNM 31/16, 7th Dist	375	11460_1	7/28/2016
11460	Delete	Dotted Fish Haven PT 4 OF 6	Chart No. 1: K46.2	N 26 40' 48.000"	W 080 01' 40.000"	26.68	-80.02778	LNM 31/16, 7th Dist	375	11460_1	7/28/2016
11460	Delete	Dotted Fish Haven PT 5 OF 6	Chart No. 1: K46.2	N 26 40' 47.740"	W 080 01' 36.000"	26.67993	-80.02666	LNM 31/16, 7th Dist	375	11460_1	7/28/2016
11460	Delete	Dotted Fish Haven PT 6 OF 6	Chart No. 1: K46.2	N 26 40' 30.070"	W 080 01' 36.060"	26.67502	-80.02668	LNM 31/16, 7th Dist	375	11460_1	7/28/2016
11460	Add	Dotted Fish Haven Label	Obstn Fish Haven (auth min 10 ft)	N 26 40' 00.200"	W 080 01' 26.000"	26.66672	-80.02389	LNM 31/16, 7th Dist	375	11460_1	7/28/2016
11460	Add	Dotted Fish Haven PT 1 OF 4	Chart No. 1: K46.2	N 26 40' 20.700"	W 080 00' 56.300"	26.67242	-80.01564	LNM 31/16, 7th Dist	375	11460_1	7/28/2016
11460	Add	Dotted Fish Haven PT 2 OF 4	Chart No. 1: K46.2	N 26 40' 21.000"	W 080 00' 40.000"	26.6725	-80.01111	LNM 31/16, 7th Dist	375	11460_1	7/28/2016
11460	Add	Dotted Fish Haven PT 3 OF 4	Chart No. 1: K46.2	N 26 39' 23.000"	W 080 00' 41.000"	26.65639	-80.01139	LNM 31/16, 7th Dist	375	11460_1	7/28/2016
11460	Add	Dotted Fish Haven PT 4 OF 4	Chart No. 1: K46.2	N 26 39' 23.500"	W 080 00' 59.300"	26.65653	-80.01647	LNM 31/16, 7th Dist	375	11460_1	7/28/2016
11460	Change	Fowey Rocks Light	Fl 10s 110ft 7M RACON (___)	N 25 35' 26.249"	W 080 05' 48.242"	25.59062	-80.09673	LNM 10/16, 7th Dist	375	11460_1	3/17/2016
11460	Delete	Biscayne National Park North Lighted Buoy N	Y "N" Fl Y 2.5s	N 25 38' 44.473"	W 080 05' 22.160"	25.64569	-80.08949	LNM 06/16, 7th Dist	375	11460_1	2/18/2016
11460	Delete	Tennessee Reef East Lighted Buoy 18	R "18" Fl R 2.5s	N 24 47' 32.496"	W 080 41' 36.228"	24.79236	-80.6934	LNM 51/15, 7th Dist	375	11460_1	12/31/2015
11460	Delete	Crocker Reef Buoy 16	R N "16"	N 24 54' 29.771"	W 080 31' 28.335"	24.90827	-80.52454	LNM 51/15, 7th Dist	375	11460_1	12/31/2015
11460	Add	Minimum Size (2mm sq.) Dotted Fish Haven and Label	Obstn (1 fm), Chart No. 1 K46.2	N 27 19' 40.660"	W 080 13' 37.570"	27.32796	-80.2271	LNM 47/15, 7th Dist	375	11460_1	11/19/2015
11460	Add	Minimum Size (2mm sq.) Dotted Fish Haven and Label	Obstn (1 fm), Chart No. 1 K46.2	N 27 22' 31.150"	W 080 14' 58.960"	27.37532	-80.24971	LNM 47/15, 7th Dist	375	11460_1	11/19/2015
11460	Delete	Dotted Fish Haven Label	Obstn Fish Haven (8 1/4 fms)	N 28 23' 05.400"	W 080 17' 44.500"	28.38483	-80.29569	LNM 43/15, 7th Dist	375	11460_1	10/22/2015
11460	Add	Dotted Fish Haven Label	Obstn Fish Haven (auth min 8 fms)	N 28 23' 05.400"	W 080 17' 44.500"	28.38483	-80.29569	LNM 43/15, 7th Dist	375	11460_1	10/22/2015
11460	Add	Dotted Fish Haven PT 1 OF 8	Chart No. 1: K46.2	N 28 24' 44.130"	W 080 18' 46.730"	28.41226	-80.31298	LNM 43/15, 7th Dist	375	11460_1	10/22/2015
11460	Add	Dotted Fish Haven PT 2 OF 8	Chart No. 1: K46.2	N 28 24' 32.350"	W 080 18' 42.350"	28.40899	-80.31177	LNM 43/15, 7th Dist	375	11460_1	10/22/2015
11460	Add	Dotted Fish Haven PT 3 OF 8	Chart No. 1: K46.2	N 28 24' 30.400"	W 080 18' 56.700"	28.40845	-80.31575	LNM 43/15, 7th Dist	375	11460_1	10/22/2015
11460	Add	Dotted Fish Haven PT 4 OF 8	Chart No. 1: K46.2	N 28 21' 09.800"	W 080 17' 38.900"	28.35272	-80.29414	LNM 43/15, 7th Dist	375	11460_1	10/22/2015
11460	Add	Dotted Fish Haven PT 5 OF 8	Chart No. 1: K46.2	N 28 21' 32.200"	W 080 16' 29.800"	28.35894	-80.27495	LNM 43/15, 7th Dist	375	11460_1	10/22/2015
11460	Add	Dotted Fish Haven PT 6 OF 8	Chart No. 1: K46.2	N 28 21' 45.980"	W 080 16' 35.300"	28.36277	-80.27647	LNM 43/15, 7th Dist	375	11460_1	10/22/2015
11460	Add	Dotted Fish Haven PT 7 OF 8	Chart No. 1: K46.2	N 28 21' 49.500"	W 080 16' 29.700"	28.36375	-80.27492	LNM 43/15, 7th Dist	375	11460_1	10/22/2015
11460	Add	Dotted Fish Haven PT 8 OF 8	Chart No. 1: K46.2	N 28 24' 51.360"	W 080 17' 39.970"	28.41427	-80.29443	LNM 43/15, 7th Dist	375	11460_1	10/22/2015
11460	Delete	Dotted Fish Haven PT 1 OF 4	Chart No. 1: K46.2	N 28 24' 39.100"	W 080 18' 01.410"	28.41086	-80.30039	LNM 43/15, 7th Dist	375	11460_1	10/22/2015
11460	Delete	Dotted Fish Haven PT 2 OF 4	Chart No. 1: K46.2	N 28 24' 34.060"	W 080 19' 08.700"	28.40946	-80.31908	LNM 43/15, 7th Dist	375	11460_1	10/22/2015
11460	Delete	Dotted Fish Haven PT 3 OF 4	Chart No. 1: K46.2	N 28 21' 11.020"	W 080 17' 49.200"	28.35306	-80.297	LNM 43/15, 7th Dist	375	11460_1	10/22/2015
11460	Delete	Dotted Fish Haven PT 4 OF 4	Chart No. 1: K46.2	N 28 21' 42.030"	W 080 16' 53.250"	28.36168	-80.28146	LNM 43/15, 7th Dist	375	11460_1	10/22/2015
11460	Change	Protected Area Note - NOTE D THE OCULINA BANK (protected area: 50 CFR 622.220-622.227) to:	NOTE D THE OCULINA BANK (protected area: 50 CFR 622.220-622.227) The following restrictions apply within the Oculina Bank protected area: Fishing with bottom longlines, traps, pots, dredges and bottom trawls is prohibited. Additional restrictions apply within the Experimental closed area: Fishing for or retaining South Atlantic snapper-grouper in or from the closed area is prohibited. Any fish taken incidentally by hook-and-line must be released immediately by cutting the line without removing the fish from the water.	N 28 11' 47.000"	W 080 51' 49.000"	28.19639	-80.86361	LNM 42/15, 7th Dist	375	11460_1	10/22/2015
11460	Change	Protected Area Label	THE OCULINA BANK (protected area: 50 CFR 622.220-622.227; see note D)	N 27 34' 00.000"	W 079 50' 00.000"	27.56667	-79.83334	LNM 42/15, 7th Dist	375	11460_1	10/22/2015
11460	Change	Protected Area Label	THE OCULINA BANK (protected area: 50 CFR 622.220-622.227; see note D)	N 28 18' 00.000"	W 079 50' 00.000"	28.3	-79.83334	LNM 42/15, 7th Dist	375	11460_1	10/22/2015
11460	Add	Dotted Fish Haven PT 1 OF 4	Chart No. 1: K46.2	N 27 32' 25.190"	W 080 10' 37.470"	27.54033	-80.17708	LNM 42/15, 7th Dist	375	11460_1	10/15/2015
11460	Add	Dotted Fish Haven PT 2 OF 4	Chart No. 1: K46.2	N 27 32' 06.150"	W 080 11' 44.110"	27.53504	-80.19559	LNM 42/15, 7th Dist	375	11460_1	10/15/2015
11460	Add	Dotted Fish Haven PT 3 OF 4	Chart No. 1: K46.2	N 27 31' 06.740"	W 080 11' 22.750"	27.51854	-80.18965	LNM 42/15, 7th Dist	375	11460_1	10/15/2015
11460	Add	Dotted Fish Haven PT 4 OF 4	Chart No. 1: K46.2	N 27 31' 25.780"	W 080 10' 16.120"	27.52383	-80.17114	LNM 42/15, 7th Dist	375	11460_1	10/15/2015
11460	Add	Dotted Fish Haven Label	Obstn Fish Haven (4 1/2 fms rep)	N 27 31' 46.800"	W 080 10' 59.600"	27.52967	-80.18322	LNM 42/15, 7th Dist	375	11460_1	10/15/2015
11460	Change	Dotted Fish Haven Label to:	Obstn (8 fms)	N 27 23' 49.060"	W 080 01' 54.010"	27.39696	-80.03167	LNM 41/15, 7th Dist	375	11460_1	10/8/2015
11460	Add	Dotted Fish Haven Label	Obstn (10 fms)	N 27 23' 05.900"	W 080 01' 07.070"	27.38497	-80.01863	LNM 41/15, 7th Dist	375	11460_1	10/8/2015
11460	Add	Dotted Fish Haven PT 1 OF 3	(Chart No. 1: K46.2)	N 27 24' 45.590"	W 080 00' 19.270"	27.41266	-80.00536	LNM 41/15, 7th Dist	375	11460_1	10/8/2015
11460	Add	Dotted Fish Haven PT 2 OF 3	(Chart No. 1: K46.2)	N 27 24' 50.980"	W 080 00' 01.800"	27.41416	-80.0005	LNM 41/15, 7th Dist	375	11460_1	10/8/2015
11460	Add	Dotted Fish Haven PT 3 OF 3	(Chart No. 1: K46.2)	N 27 23' 56.400"	W 080 00' 01.190"	27.399	-80.00033	LNM 41/15, 7th Dist	375	11460_1	10/8/2015
11460	Delete	Dotted Fish Haven PT 1 OF 2	(Chart No. 1 K46.2)	N 27 24' 45.590"	W 080 00' 19.270"	27.41266	-80.00536	LNM 41/15, 7th Dist	375	11460_1	10/8/2015
11460	Delete	Dotted Fish Haven PT 2 OF 2	(Chart No. 1 K46.2)	N 27 23' 56.400"	W 080 00' 01.190"	27.399	-80.00033	LNM 41/15, 7th Dist	375	11460_1	10/8/2015
11460	Delete	Dotted Fish Haven PT 1 OF 4	Chart No. 1: K46.2	N 25 42' 49.680"	W 080 05' 12.010"	25.7138	-80.08667	LNM 40/15, 7th Dist	375	11460_1	10/8/2015
11460	Delete	Dotted Fish Haven PT 2 OF 4	Chart No. 1: K46.2	N 25 42' 49.490"	W 080 04' 11.730"	25.71375	-80.06992	LNM 40/15, 7th Dist	375	11460_1	10/8/2015
11460	Delete	Dotted Fish Haven PT 3 OF 4	Chart No. 1: K46.2	N 25 41' 20.690"	W 080 04' 11.430"	25.68908	-80.06984	LNM 40/15, 7th Dist	375	11460_1	10/8/2015
11460	Delete	Dotted Fish Haven PT 4 OF 4	Chart No. 1: K46.2	N 25 41' 20.500"	W 080 05' 12.200"	25.68903	-80.08672	LNM 40/15, 7th Dist	375	11460_1	10/8/2015
11460	Add	Dotted Fish Haven PT 1 OF 4	Chart No. 1: K46.2	N 25 42' 48.000"	W 080 05' 12.060"	25.71333	-80.08669	LNM 40/15, 7th Dist	375	11460_1	10/8/2015
11460	Add	Dotted Fish Haven PT 2 OF 4	Chart No. 1: K46.2	N 25 42' 47.940"	W 080 04' 11.940"	25.71332	-80.06998	LNM 40/15, 7th Dist	375	11460_1	10/8/2015
11460	Add	Dotted Fish Haven PT 3 OF 4	Chart No. 1: K46.2	N 25 41' 18.960"	W 080 04' 12.000"	25.6886	-80.07	LNM 40/15, 7th Dist	375	11460_1	10/8/2015
11460	Add	Dotted Fish Haven PT 4 OF 4	Chart No. 1: K46.2	N 25 41' 18.960"	W 080 05' 12.240"	25.6886	-80.08673	LNM 40/15, 7th Dist	375	11460_1	10/8/2015
11460	Delete	Dotted Fish Haven PT 1 OF 4	Chart No. 1: K46.2	N 25 42' 49.670"	W 080 05' 28.340"	25.7138	-80.0912	LNM 40/15, 7th Dist	375	11460_1	10/8/2015
11460	Delete	Dotted Fish Haven PT 2 OF 4	Chart No. 1: K46.2	N 25 42' 49.680"	W 080 05' 12.010"	25.7138	-80.08667	LNM 40/15, 7th Dist	375	11460_1	10/8/2015
11460	Delete	Dotted Fish Haven PT 3 OF 4	Chart No. 1: K46.2	N 25 41' 20.500"	W 080 05' 12.200"	25.68903	-80.08672	LNM 40/15, 7th Dist	375	11460_1	10/8/2015
11460	Delete	Dotted Fish Haven PT 4 OF 4	Chart No. 1: K46.2	N 25 41' 20.520"	W 080 05' 28.580"	25.68903	-80.09127	LNM 40/15, 7th Dist	375	11460_1	10/8/2015
11460	Add	Dotted Fish Haven PT 1 OF 4	Chart No. 1: K46.2	N 25 42' 48.000"	W 080 05' 30.960"	25.71333	-80.09193	LNM 40/15, 7th Dist	375	11460_1	10/8/2015
11460	Add	Dotted Fish Haven PT 2 OF 4	Chart No. 1: K46.2	N 25 42' 48.000"	W 080 05' 12.060"	25.71333	-80.08669	LNM 40/15, 7th Dist	375	11460_1	10/8/2015
11460	Add	Dotted Fish Haven PT 3 OF 4	Chart No. 1: K46.2	N 25 41' 18.960"	W 080 05' 12.240"	25.6886	-80.08673	LNM 40/15, 7th Dist	375	11460_1	10/8/2015
11460	Add	Dotted Fish Haven PT 4 OF 4	Chart No. 1: K46.2	N 25 41' 18.960"	W 080 05' 30.960"	25.6886	-80.09193	LNM 40/15, 7th Dist	375	11460_1	10/8/2015
11460	Delete	Alligator Reef Light	Fl (4) 60s 136ft 13M RACON (__-)	N 24 51' 06.435"	W 080 37' 07.857"	24.85179	-80.61885	LNM 36/15, 7th Dist	375	11460_1	9/17/2015
11460	Add	Abandoned Light House	TOWER (ABAND LT HO)	N 24 51' 06.435"	W 080 37' 07.857"	24.85179	-80.61885	LNM 36/15, 7th Dist	375	11460_1	9/17/2015
11460	Add	Alligator Reef Light	Fl (4) 60s 16ft 7M	N 24 51' 04.754"	W 080 37' 03.754"	24.85132	-80.61771	LNM 36/15, 7th Dist	375	11460_1	9/17/2015
11460	Delete	American Shoal Light	Fl (3) 15s 109ft 10M RACON (_-__)	N 24 31' 30.422"	W 081 31' 09.898"	24.52512	-81.51942	LNM 36/15, 7th Dist	375	11460_1	9/17/2015
11460	Add	Abandoned Light House	TOWER (ABAND LT HO)	N 24 31' 30.422"	W 081 31' 09.898"	24.52512	-81.51942	LNM 36/15, 7th Dist	375	11460_1	9/17/2015
11460	Add	American Shoal Light	Fl (4) 60s 19ft 7M	N 24 31' 32.493"	W 081 31' 02.576"	24.52569	-81.51738	LNM 36/15, 7th Dist	375	11460_1	9/17/2015
11460	Relocate	Sombrero Key Light	Fl (5) 60s 19ft 7M	N 24 37' 39.900"	W 081 06' 30.841"	24.62775	-81.10857	LNM 33/15, 7th Dist	375	11460_1	8/20/2015
11460	Delete	Sombrero Key Light	Fl (5) 60s 142ft 12M RACON (__)	N 24 37' 40.240"	W 081 06' 38.927"	24.62784	-81.11081	LNM 31/15, 7th Dist	375	11460_1	8/13/2015
11460	Add	Abandoned Light House	TOWER (ABAND LT HO)	N 24 37' 40.240"	W 081 06' 38.927"	24.62784	-81.11081	LNM 31/15, 7th Dist	375	11460_1	8/13/2015
11460	Add	Sombrero Key Light	Fl (5) 60s 19ft 7M	N 24 37' 40.080"	W 081 06' 31.260"	24.6278	-81.10868	LNM 31/15, 7th Dist	375	11460_1	8/13/2015
11460	Delete	Conch Reef Buoy 12	R N "12"	N 24 56' 58.475"	W 080 27' 26.208"	24.94958	-80.45728	LNM 28/15, 7th Dist	375	11460_1	7/23/2015
11460	Delete	Dixie Shoal Buoy 8	R N "8"	N 25 04' 39.563"	W 080 18' 43.110"	25.07766	-80.31197	LNM 28/15, 7th Dist	375	11460_1	7/23/2015
11460	Change	Stock Island Approach Channel Light 32	Fl R 2.5s 19ft 5M "32"	N 24 28' 28.951"	W 081 44' 31.725"	24.47471	-81.74215	LNM 22/15, 7th Dist	375	11460_1	6/4/2015
11460	Add	Miami Lighted Buoy M Magenta Circle	RW "M" Mo (A) RACON (--) AIS	N 25 46' 05.916"	W 080 04' 59.936"	25.76831	-80.08331	LNM 08/15, 7th Dist	375	11460_1	3/5/2015
11460	Add	Port Everglades Lighted Buoy PE Magenta Circle	RW "PE" Mo (A) RACON (-) AIS	N 26 05' 30.288"	W 080 04' 45.871"	26.09175	-80.07941	LNM 08/15, 7th Dist	375	11460_1	3/5/2015
11460	Add	Key West Entrance Lighted Whistle Buoy KW Magenta Circle	RW "KW" Mo (A) WHISTLE AIS	N 24 27' 25.815"	W 081 47' 59.974"	24.45717	-81.8	LNM 08/15, 7th Dist	375	11460_1	3/5/2015
11460	Add	St Lucie Entrance Lighted Buoy 2 Magenta Circle	R "2" Fl R 4s AIS	N 27 10' 01.178"	W 080 08' 23.008"	27.16699	-80.13972	LNM 08/15, 7th Dist	375	11460_1	3/5/2015
11460	Add	Lake Worth Lighted Buoy LW Magenta Circle	RW "LW" Mo (A) AIS	N 26 46' 21.577"	W 080 00' 36.215"	26.77266	-80.01006	LNM 08/15, 7th Dist	375	11460_1	3/5/2015
11460	Add	Minimum Size (2mm sq.) Dotted Fish Haven and Label	Obstn, Chart No. 1 K46.2	N 26 53' 43.000"	W 080 02' 57.000"	26.89528	-80.04916	LNM 46/14, 7th Dist	375	11460_1	11/20/2014
11460	Delete	Label	High Speed Ferry Route (see note F)	N 26 41' 40.000"	W 079 48' 01.000"	26.69444	-79.80028	LNM 37/14, 7th Dist	375	11460_1	9/18/2014
11460	Delete	Label	High Speed Ferry Route (see note F)	N 26 26' 03.700"	W 079 20' 58.100"	26.43436	-79.34947	LNM 37/14, 7th Dist	375	11460_1	9/18/2014
11460	Delete	Label	High Speed Ferry Route (see note F)	N 26 21' 54.600"	W 078 40' 53.600"	26.36517	-78.68156	LNM 37/14, 7th Dist	375	11460_1	9/18/2014
11460	Change	Minimum Size (2mm sq.) Dotted Fish Haven and Label	Obstn Fish Haven (auth min 6 fms), Chart No. 1 K46.2	N 27 05' 27.000"	W 080 01' 33.500"	27.09083	-80.02597	LNM 33/14, 7th Dist	375	11460_1	8/14/2014
11460	Delete	Note F	High speed ferries operate between Lake Worth Inlet and Freeport Harbor, Grand Bahama Island. Mariners are cautioned that these craft move very rapidly and may transit waterways at angles to the normal direction of traffic. Ferries may deviate from published routes.	N 26 13' 14.000"	W 080 21' 07.000"	26.22056	-80.35194	LNM 32/14, 7th Dist	375	11460_1	8/14/2014
11460	Change	Dotted Fish Haven Label	Obstns Fish Havens (1 fm)	N 26 11' 11.700"	W 080 05' 33.800"	26.18658	-80.09272	LNM 30/14, 7th Dist	375	11460_1	7/31/2014
11460	Change	Big Pine Shoal Light 22	Q R 18ft 4M "22"	N 24 34' 06.078"	W 081 19' 32.338"	24.56836	-81.32565	LNM 29/14, 7th Dist	375	11460_1	7/24/2014
11460	Delete	Carysfort Reef Light	Fl (3) 60s 100ft 13M RACON (_._.)	N 25 13' 18.735"	W 080 12' 41.106"	25.22187	-80.21142	LNM 26/14, 7th Dist	375	11460_1	7/17/2014
11460	Add	Abandoned Light House	TOWER (ABAND LT HO)	N 25 13' 18.735"	W 080 12' 41.106"	25.22187	-80.21142	LNM 26/14, 7th Dist	375	11460_1	7/17/2014
11460	Delete	Sand Key Light	Fl (2) 15s 109ft 11M RACON (_.)	N 24 27' 20.941"	W 081 52' 38.313"	24.45582	-81.87731	LNM 26/14, 7th Dist	375	11460_1	7/17/2014
11460	Add	Abandoned Light House	TOWER (ABAND LT HO)	N 24 27' 20.941"	W 081 52' 38.313"	24.45582	-81.87731	LNM 26/14, 7th Dist	375	11460_1	7/17/2014
11460	Add	Carysfort Reef Light	Fl (3) 60s 40ft 13M	N 25 13' 36.890"	W 080 12' 33.221"	25.22691	-80.20923	LNM 26/14, 7th Dist	375	11460_1	7/17/2014
11460	Add	Sand Key Light	Fl (2) 15s 40ft 13M	N 24 27' 20.941"	W 081 52' 38.313"	24.45582	-81.87731	LNM 26/14, 7th Dist	375	11460_1	7/17/2014
11460	Add	Restricted Area PT 1 OF 3	Chart No. 1: N2.1 or N2.2	N 28 35' 00.480"	W 080 34' 26.880"	28.58347	-80.57413	LNM 23/14, 7th Dist	375	11460_1	6/12/2014
11460	Add	Restricted Area PT 2 OF 3	Chart No. 1: N2.1 or N2.2	N 28 35' 42.960"	W 080 32' 56.280"	28.59527	-80.54897	LNM 23/14, 7th Dist	375	11460_1	6/12/2014
11460	Add	Restricted Area PT 3 OF 3	Chart No. 1: N2.1 or N2.2	N 28 39' 59.500"	W 080 36' 21.180"	28.66653	-80.60588	LNM 23/14, 7th Dist	375	11460_1	6/12/2014
11460	Add	Restricted Area Label	RESTRICTED AREA 334.525 (see note A)	N 28 37' 52.000"	W 080 35' 42.000"	28.63111	-80.595	LNM 23/14, 7th Dist	375	11460_1	6/12/2014
11460	Delete	Obstruction in Fathoms	7 Obstns       Chart No. 1: K41	N 26 19' 16.000"	W 080 03' 32.000"	26.32111	-80.05889	LNM 11/14, 7th Dist	375	11460_1	3/13/2014
11460	Delete	Non Dangerous Wreck	PA      Chart No. 1: K29	N 27 15' 58.320"	W 080 00' 59.460"	27.2662	-80.01652	LNM 02/14, 7th Dist	375	11460_1	1/16/2014
11460	Add	Minimum Size (2mm sq.) Dashed Fish Haven and Label	Fish Haven (auth min 19 fms), Chart No.1: K46.2	N 27 15' 58.320"	W 080 00' 59.460"	27.2662	-80.01652	LNM 02/14, 7th Dist	375	11460_1	1/16/2014
11460	Add	Dotted Fish Haven PT 1 OF 5	Chart No. 1: K46.2	N 26 47' 18.000"	W 080 01' 12.000"	26.78833	-80.02	LNM 02/14, 7th Dist	375	11460_1	1/9/2014
11460	Add	Dotted Fish Haven PT 2 OF 5	Chart No. 1: K46.2	N 26 48' 12.000"	W 080 01' 12.000"	26.80333	-80.02	LNM 02/14, 7th Dist	375	11460_1	1/9/2014
11460	Add	Dotted Fish Haven PT 3 OF 5	Chart No. 1: K46.2	N 26 48' 12.000"	W 079 59' 00.000"	26.80333	-79.98333	LNM 02/14, 7th Dist	375	11460_1	1/9/2014
11460	Add	Dotted Fish Haven PT 4 OF 5	Chart No. 1: K46.2	N 26 47' 00.000"	W 079 59' 00.000"	26.78333	-79.98333	LNM 02/14, 7th Dist	375	11460_1	1/9/2014
11460	Add	Dotted Fish Haven PT 5 OF 5	Chart No. 1: K46.2	N 26 47' 00.000"	W 080 00' 48.000"	26.78333	-80.01334	LNM 02/14, 7th Dist	375	11460_1	1/9/2014
11460	Delete	Dotted Fish Haven	Chart No. 1: K46.2	N 26 47' 37.000"	W 079 59' 19.000"	26.79361	-79.98861	LNM 02/14, 7th Dist	375	11460_1	1/9/2014
11460	Change	Dotted Fish Haven Label	Obstn Fish Haven (auth min 8  1/4 ft)	N 26 48' 00.000"	W 079 58' 01.000"	26.8	-79.96694	LNM 02/14, 7th Dist	375	11460_1	1/9/2014
11460	Delete	Dotted Fish Haven Label	Obstn Fish Haven (auth min 8 1/4 ft)	N 26 47' 42.000"	W 080 01' 00.000"	26.795	-80.01667	LNM 02/14, 7th Dist	375	11460_1	1/9/2014
11460	Delete	Dotted Fish Haven	Chart No. 1: K46.2	N 26 47' 42.000"	W 080 01' 00.000"	26.795	-80.01667	LNM 02/14, 7th Dist	375	11460_1	1/9/2014
11460	Change	Dotted Fish Haven Label	Obstn Fish Haven (auth min 3 1/4 fms)	N 26 57' 32.000"	W 080 03' 45.000"	26.95889	-80.0625	LNM 02/14, 7th Dist	375	11460_1	1/9/2014
11460	Delete	Wreck in Fathoms	7 Wk    Chart No. 1: K26	N 26 45' 38.600"	W 080 01' 14.300"	26.76072	-80.02064	LNM 51/13, 7th Dist	375	11460_1	12/13/2013
11460	Change	Dotted Fish Haven label	Obstn (5 fms)	N 27 26' 19.240"	W 080 09' 50.090"	27.43868	-80.16392	LNM 48/13, 7th Dist	375	11460_1	11/18/2013
11460	Relocate	Big Pine Shoal Light 22	Q R 18ft 6M "22"	N 24 34' 06.078"	W 081 19' 32.338"	24.56836	-81.32565	LNM 33/13, 7th Dist	375	11460_1	8/22/2013
11460	Delete	Triumph Reef Light 2TR	Fl R 2.5s 19ft 5M "2TR"	N 25 28' 45.778"	W 080 06' 54.714"	25.47938	-80.1152	LNM 19/13, 7th Dist	375	11460_1	5/24/2013
11460	Delete	Turtle Harbor Lighted Whistle Buoy 4	R "4" Fl R 6s  WHIS	N 25 17' 28.420"	W 080 09' 53.172"	25.29123	-80.16477	LNM 19/13, 7th Dist	375	11460_1	5/24/2013
11460	Delete	Navy Mooring Buoy	Y Strobe Navy	N 27 27' 58.000"	W 080 00' 02.000"	27.46611	-80.00056	WNM 08/13, NGA	375	11460_1	3/11/2013
11460	Delete	Dotted Fish Haven Label	Obstn Fish Haven (auth min 5 fms)	N 26 06' 50.000"	W 080 04' 09.000"	26.11389	-80.06917	LNM 09/13, 7th Dist	375	11460_1	2/21/2013
11460	Delete	Dotted Fish Haven	Chart No. 1: K46.2	N 26 06' 50.000"	W 080 04' 16.000"	26.11389	-80.07111	LNM 09/13, 7th Dist	375	11460_1	2/21/2013
11460	Delete	NOAA Data Lighted Buoy 41009	??	N 28 31' 09.000"	W 080 09' 59.000"	28.51917	-80.16639	LNM 03/13, 7th Dist	375	11460_1	2/11/2013
11460	Add	NOAA Data Lighted Buoy 41009	??	N 28 31' 18.000"	W 080 11' 18.000"	28.52167	-80.18833	LNM 03/13, 7th Dist	375	11460_1	2/11/2013
11460	Add	Minimum Size (2mm sq.) Dotted Fish Haven and Label	Obstn Fish Haven (auth min 6 1/2 fms)	N 25 04' 11.000"	W 080 18' 43.100"	25.06972	-80.31197	LNM 46/12, 7th Dist	375	11460_1	11/7/2012
11460	Delete	Wreck in Fathoms	10 Wk    	N 25 03' 58.200"	W 080 18' 45.000"	25.06617	-80.3125	LNM 46/12, 7th Dist	375	11460_1	11/7/2012
11460	Add	Dotted Fish Haven PT 1 OF 4	Chart No. 1: K46.2	N 26 46' 06.000"	W 080 01' 42.000"	26.76833	-80.02834	LNM 46/12, 7th Dist	375	11460_1	11/5/2012
11460	Add	Dotted Fish Haven PT 2 OF 4	Chart No. 1: K46.2	N 26 46' 06.000"	W 080 00' 53.000"	26.76833	-80.01472	LNM 46/12, 7th Dist	375	11460_1	11/5/2012
11460	Add	Dotted Fish Haven PT 3 OF 4	Chart No. 1: K46.2	N 26 45' 06.000"	W 080 00' 53.000"	26.75167	-80.01472	LNM 46/12, 7th Dist	375	11460_1	11/5/2012
11460	Add	Dotted Fish Haven PT 4 OF 4	Chart No. 1: K46.2	N 26 45' 06.000"	W 080 01' 42.000"	26.75167	-80.02834	LNM 46/12, 7th Dist	375	11460_1	11/5/2012
11460	Add	Dotted Fish Haven Label	Obstn Fish Haven (3 1/4 fms rep)	N 26 57' 32.000"	W 080 03' 45.000"	26.95889	-80.0625	LNM 43/12, 7th Dist	375	11460_1	10/17/2012
11460	Add	Dotted Fish Haven PT 1 OF 4	Chart No. 1: K46.2	N 26 58' 00.000"	W 080 04' 02.000"	26.96667	-80.06722	LNM 43/12, 7th Dist	375	11460_1	10/17/2012
11460	Add	Dotted Fish Haven PT 2 OF 4	Chart No. 1: K46.2	N 26 58' 00.000"	W 080 03' 28.000"	26.96667	-80.05778	LNM 43/12, 7th Dist	375	11460_1	10/17/2012
11460	Add	Dotted Fish Haven PT 3 OF 4	Chart No. 1: K46.2	N 26 57' 04.000"	W 080 03' 28.000"	26.95111	-80.05778	LNM 43/12, 7th Dist	375	11460_1	10/17/2012
11460	Add	Dotted Fish Haven PT 4 OF 4	Chart No. 1: K46.2	N 26 57' 04.000"	W 080 04' 02.000"	26.95111	-80.06722	LNM 43/12, 7th Dist	375	11460_1	10/17/2012
11453	Delete	Boot Key Harbor North Channel Daybeacon 5B	G "5B" PA	N 24 42' 29.800"	W 081 05' 28.200"	24.70828	-81.09116	LNM 11/16, 7th Dist	325	11453_1	3/24/2016
11453	Change	Bahia Honda Key Light 49A	Fl G 6s 20ft 5M "49A"	N 24 37' 29.946"	W 081 14' 08.442"	24.62498	-81.23568	LNM 42/15, 7th Dist	325	11453_1	10/29/2015
11453	Relocate	Sombrero Key Light	Fl (5) 60s 19ft 7M	N 24 37' 39.900"	W 081 06' 30.841"	24.62775	-81.10857	LNM 33/15, 7th Dist	325	11453_1	8/20/2015
11453	Delete	Sombrero Key Light	Fl (5) 60s 142ft 12M RACON (__)	N 24 37' 40.240"	W 081 06' 38.927"	24.62784	-81.11081	LNM 31/15, 7th Dist	325	11453_1	8/13/2015
11453	Add	Abandoned Light House	TOWER (ABAND LT HO)	N 24 37' 40.240"	W 081 06' 38.927"	24.62784	-81.11081	LNM 31/15, 7th Dist	325	11453_1	8/13/2015
11453	Add	Sombrero Key Light	Fl (5) 60s 19ft 7M	N 24 37' 40.080"	W 081 06' 31.260"	24.6278	-81.10868	LNM 31/15, 7th Dist	325	11453_1	8/13/2015
11453	Relocate	Pigeon Key Light 21	Fl G 4s 16ft 5M "21"	N 24 42' 55.022"	W 081 09' 06.098"	24.71528	-81.1517	LNM 22/15, 7th Dist	325	11453_1	6/4/2015
11453	Change	Moser Channel Light 13	Fl G 2.5s 16ft 5M "13"	N 24 45' 53.134"	W 081 10' 24.417"	24.76476	-81.17345	LNM 20/15, 7th Dist	325	11453_1	5/28/2015
11453	Change	Moser Channel Light 8	Fl R 6s 16ft 5M "8"	N 24 43' 21.855"	W 081 10' 13.252"	24.72274	-81.17035	LNM 20/15, 7th Dist	325	11453_1	5/28/2015
11453	Add	Sounding in Feet	27 Co Hd	N 24 40' 12.300"	W 081 01' 59.600"	24.67008	-81.03323	LNM 13/15, 7th Dist	325	11453_1	3/26/2015
11453	Change	Bamboo Key Light 13	Fl G 6s 16ft 5M "13"	N 24 46' 20.984"	W 081 01' 50.233"	24.7725	-81.03062	LNM 51/14, 7th Dist	325	11453_1	1/1/2015
11453	Change	East Turtle Shoal Light 45	Q G 20ft 4M "45"	N 24 43' 28.774"	W 080 55' 59.001"	24.72466	-80.93305	LNM 37/14, 7th Dist	325	11453_1	9/25/2014
11453	Relocate	Moser Channel Light 12	Fl R 2.5s 16ft 3M "12"	N 24 45' 14.881"	W 081 10' 15.776"	24.75413	-81.17105	LNM 26/14, 7th Dist	325	11453_1	7/17/2014
11453	Relocate	Moser Channel Light 10	Fl R 4s 16ft 5M "10"	N 24 44' 01.652"	W 081 10' 14.873"	24.73379	-81.1708	LNM 25/14, 7th Dist	325	11453_1	6/26/2014
11453	Relocate	Moser Channel Light 8	Fl R 6s 16ft 4M "8"	N 24 43' 21.855"	W 081 10' 13.252"	24.72274	-81.17035	LNM 25/14, 7th Dist	325	11453_1	6/26/2014
11453	Change	Pigeon Key Light 21	Fl G 4s 16ft 5M "21"	N 24 42' 55.227"	W 081 09' 06.108"	24.71534	-81.1517	LNM 17/14, 7th Dist	325	11453_1	5/8/2014
11453	Change	Sister Creek Light 2	Fl R 4s 16ft 5M "2"	N 24 41' 14.549"	W 081 05' 11.583"	24.68737	-81.08655	LNM 10/13, 7th Dist	325	11453_1	4/2/2013
11453	Change	Little Money Key Light 25	Fl G 4s 16ft 5M "25"	N 24 41' 46.453"	W 081 12' 26.827"	24.69624	-81.20745	LNM 09/13, 7th Dist	325	11453_1	3/18/2013
11453	Change	Boot Key Harbor Light 1	Fl G 4s 16ft 5M "1"	N 24 41' 58.705"	W 081 07' 12.240"	24.69964	-81.12006	LNM 42/12, 7th Dist	325	11453_1	11/13/2012
11453	Change	Moser Channel Light 10	Fl R 4s 16ft 5M "10"	N 24 44' 02.651"	W 081 10' 14.929"	24.73407	-81.17081	LNM 42/12, 7th Dist	325	11453_1	11/13/2012
11453	Add	Burnt Point Channel Daybeacon 3	G "3" Priv	N 24 45' 27.780"	W 080 59' 07.020"	24.75772	-80.98528	LNM 33/12, 7th Dist	325	11453_1	9/11/2012
11453	Add	Burnt Point Shoal Danger Daybeacon	W Bn Priv	N 24 45' 38.520"	W 080 59' 09.360"	24.7607	-80.98593	LNM 33/12, 7th Dist	325	11453_1	9/11/2012
11453	Change	Little Money Key Light 27	Fl G 2.5s 16ft 5M "27"	N 24 41' 57.267"	W 081 14' 17.172"	24.69924	-81.23811	LNM 03/12, 7th Dist	325	11453_1	1/30/2012
11453	Relocate	Fat Deer Key Daybeacon 48	R "48"	N 24 41' 30.013"	W 081 01' 29.293"	24.69167	-81.0248	LNM 03/12, 7th Dist	325	11453_1	1/30/2012
11453	Change	Sounding in Feet	13 for 3	N 24 42' 09.000"	W 081 10' 17.000"	24.7025	-81.17139	LNM 12/11, 7th Dist	325	11453_1	3/16/2011
11453	Add	Submarine Cable  PT 1 OF 2	Chart No. 1: L30.1	N 24 42' 38.700"	W 081 06' 33.400"	24.71075	-81.10928	LNM 03/11, 7th Dist	325	11453_1	1/18/2011
11453	Add	Submarine Cable  PT 2 OF 2	Chart No. 1: L30.1	N 24 42' 42.600"	W 081 06' 32.000"	24.71183	-81.10889	LNM 03/11, 7th Dist	325	11453_1	1/18/2011
11453	Add	Cable Area  PT 1 OF 6	Chart No. 1: L30.2	N 24 43' 47.000"	W 081 01' 13.400"	24.72972	-81.02039	LNM 03/11, 7th Dist	325	11453_1	1/18/2011
11453	Add	Cable Area  PT 2 OF 6	Chart No. 1: L30.2	N 24 43' 38.300"	W 081 01' 11.400"	24.72731	-81.01984	LNM 03/11, 7th Dist	325	11453_1	1/18/2011
11453	Add	Cable Area  PT 3 OF 6	Chart No. 1: L30.2	N 24 43' 38.500"	W 081 01' 10.400"	24.72736	-81.01955	LNM 03/11, 7th Dist	325	11453_1	1/18/2011
11453	Add	Cable Area  PT 4 OF 6	Chart No. 1: L30.2	N 24 43' 38.900"	W 081 01' 08.500"	24.72747	-81.01903	LNM 03/11, 7th Dist	325	11453_1	1/18/2011
11453	Add	Cable Area  PT 5 OF 6	Chart No. 1: L30.2	N 24 43' 39.000"	W 081 01' 07.800"	24.7275	-81.01884	LNM 03/11, 7th Dist	325	11453_1	1/18/2011
11453	Add	Cable Area  PT 6 OF 6	Chart No. 1: L30.2	N 24 43' 46.300"	W 081 01' 09.500"	24.72953	-81.0193	LNM 03/11, 7th Dist	325	11453_1	1/18/2011
11453	Relocate	Moser Channel Light 13	Fl G 2.5s 16ft 3M "13"	N 24 45' 53.134"	W 081 10' 24.417"	24.76476	-81.17345	LNM 33/09, 7th Dist	325	11453_1	8/26/2009
11453	Relocate	Sister Creek Daybeacon 8	R "8"	N 24 41' 29.729"	W 081 05' 17.359"	24.69159	-81.08816	LNM 06/09, 7th Dist	325	11453_1	2/19/2009
11453	Relocate	East Turtle Shoal Light 45	Fl G 4s 27ft 5M "45"	N 24 43' 28.774"	W 080 55' 59.001"	24.72466	-80.93305	LNM 25/08, 7th Dist	325	11453_1	9/26/2008
11453	Change	East Turtle Shoal Light 45	Q G 20ft 5M "45"	N 24 43' 28.774"	W 080 55' 59.001"	24.72466	-80.93305	LNM 25/08, 7th Dist	325	11453_1	9/26/2008
11453	Delete	Vaca Cut Daybeacon 5A	G "5A" Priv	N 24 43' 07.200"	W 081 01' 08.200"	24.71867	-81.01894	LNM 34/07, 7th Dist	325	11453_1	2/13/2008
11453	Add	Vaca Cut Daybeacon 5A	G "5A" Priv	N 24 43' 07.200"	W 081 01' 48.200"	24.71867	-81.03005	LNM 34/07, 7th Dist	325	11453_1	2/13/2008
11453	Add	Indigo Reef Daybeacon 1	G "1" Priv	N 24 44' 12.900"	W 081 01' 58.213"	24.73692	-81.03284	LNM 52/06, 7th Dist	325	11453_1	2/13/2008
11453	Add	Indigo Reef Daybeacon 2	R "2" Priv	N 24 44' 13.380"	W 081 02' 00.000"	24.73705	-81.03333	LNM 52/06, 7th Dist	325	11453_1	2/13/2008
11453	Add	Indigo Reef Daybeacon 3	G "3" Priv	N 24 44' 09.120"	W 081 02' 00.240"	24.73587	-81.0334	LNM 52/06, 7th Dist	325	11453_1	2/13/2008
11453	Add	Indigo Reef Daybeacon 5	G "5" Priv	N 24 44' 05.580"	W 081 01' 59.820"	24.73488	-81.03329	LNM 52/06, 7th Dist	325	11453_1	2/13/2008
11453	Add	Indigo Reef Daybeacon 6	R "6" Priv	N 24 44' 05.160"	W 081 02' 00.480"	24.73477	-81.03347	LNM 52/06, 7th Dist	325	11453_1	2/13/2008
11405	Change	Depth Legend - Panacea Harbor to:	5 FT FOR MID-WIDTH OF 50 FT DEC 2016	N 29 49' 03.800"	W 084 39' 37.100"	29.81772	-84.66031	LNM 29/17, 8th Dist	168	11405_1	7/13/2017
11405	Relocate	Florida Department of Agriculture Skipper Bay Oyster Farm Special Light I	Fl Y 2.5s "I"	N 30 02' 33.480"	W 084 21' 34.660"	30.04263	-84.35963	LNM 42/16, 8th Dist	168	11405_1	10/27/2016
11405	Delete	St Marks River Lighted Buoy SM	RW "SM" Mo (A)	N 30 01' 02.549"	W 084 10' 29.827"	30.01737	-84.17495	LNM 42/16, 8th Dist	168	11405_1	10/27/2016
11405	Add	Florida Department of Agriculture Skipper Bay Oyster Farm Special Light A	Fl Y 2.5s "A" Priv	N 30 02' 11.520"	W 084 21' 39.680"	30.03653	-84.36102	LNM 36/16, 8th Dist	168	11405_1	9/15/2016
11405	Add	Florida Department of Agriculture Skipper Bay Oyster Farm Special Light B	Fl Y 2.5s "B" Priv	N 30 02' 11.760"	W 084 21' 29.520"	30.0366	-84.3582	LNM 36/16, 8th Dist	168	11405_1	9/15/2016
11405	Add	Florida Department of Agriculture Skipper Bay Oyster Farm Special Light C	Fl Y 2.5s "C" Priv	N 30 02' 16.580"	W 084 21' 29.520"	30.03794	-84.3582	LNM 36/16, 8th Dist	168	11405_1	9/15/2016
11405	Add	Florida Department of Agriculture Skipper Bay Oyster Farm Special Light D	Fl Y 2.5s "D" Priv	N 30 02' 22.550"	W 084 21' 33.480"	30.0396	-84.3593	LNM 36/16, 8th Dist	168	11405_1	9/15/2016
11405	Add	Florida Department of Agriculture Skipper Bay Oyster Farm Special Light E	Fl Y 2.5s "E" Priv	N 30 02' 29.140"	W 084 21' 32.610"	30.04143	-84.35905	LNM 36/16, 8th Dist	168	11405_1	9/15/2016
11405	Add	Florida Department of Agriculture Skipper Bay Oyster Farm Special Light F	Fl Y 2.5s "F" Priv	N 30 02' 34.140"	W 084 21' 27.720"	30.04282	-84.3577	LNM 36/16, 8th Dist	168	11405_1	9/15/2016
11405	Add	Florida Department of Agriculture Skipper Bay Oyster Farm Special Light G	Fl Y 2.5s "G" Priv	N 30 02' 39.550"	W 084 21' 25.200"	30.04432	-84.357	LNM 36/16, 8th Dist	168	11405_1	9/15/2016
11405	Add	Florida Department of Agriculture Skipper Bay Oyster Farm Special Light H	Fl Y 2.5s "H" Priv	N 30 02' 40.230"	W 084 21' 29.520"	30.04451	-84.3582	LNM 36/16, 8th Dist	168	11405_1	9/15/2016
11405	Add	Florida Department of Agriculture Skipper Bay Oyster Farm Special Light I	Fl Y 2.5s "I" Priv	N 30 02' 32.400"	W 084 21' 30.290"	30.04233	-84.35841	LNM 36/16, 8th Dist	168	11405_1	9/15/2016
11405	Add	Florida Department of Agriculture Skipper Bay Oyster Farm Special Light J	Fl Y 2.5s "J" Priv	N 30 02' 29.000"	W 084 21' 37.730"	30.04139	-84.36048	LNM 36/16, 8th Dist	168	11405_1	9/15/2016
11405	Add	Florida Department of Agriculture Skipper Bay Oyster Farm Special Light K	Fl Y 2.5s "K" Priv	N 30 02' 23.710"	W 084 21' 38.420"	30.03992	-84.36067	LNM 36/16, 8th Dist	168	11405_1	9/15/2016
11405	Add	Florida Department of Agriculture Skipper Bay Oyster Farm Special Light L	Fl Y 2.5s "L" Priv	N 30 02' 16.550"	W 084 21' 39.600"	30.03793	-84.361	LNM 36/16, 8th Dist	168	11405_1	9/15/2016
11405	Change	Depth Legend - Panacea Harbor to:	4 1/2 FT BY 100 FT OCT 2015 	N 30 00' 25.100"	W 084 21' 49.600"	30.00697	-84.36378	LNM 21/16, 8th Dist	168	11405_1	5/19/2016
11405	Delete	Dog Island Reef West Buoy 2	R N "2"	N 29 48' 48.000"	W 084 31' 12.000"	29.81333	-84.52	LNM 09/16, 8th Dist	168	11405_1	3/10/2016
11448	Change	Harbor Key Bank Light 57	Fl G 4s 16ft 5M "57"	N 24 50' 24.030"	W 081 25' 44.595"	24.84001	-81.42905	LNM 11/17, 7th Dist	326	11448_1	3/16/2017
11448	Change	Bullfrog Banks Light BB	Fl 6s 20ft 5M "BB"	N 24 50' 44.316"	W 081 20' 32.688"	24.84564	-81.34241	LNM 05/16, 7th Dist	326	11448_1	2/11/2016
11448	Delete	Visible Wreck	PA     Chart No. 1: K24	N 24 39' 14.700"	W 081 25' 20.800"	24.65408	-81.42245	LNM 40/12, 7th Dist	326	11448_1	10/1/2012
11448	Delete	Newfound Harbor Channel Lighted Buoy A	W Or "A" Fl 2.5s Priv	N 24 39' 01.080"	W 081 22' 57.540"	24.6503	-81.38265	LNM 22/12, 7th Dist	326	11448_1	6/13/2012
11448	Delete	Newfound Harbor Channel Lighted Buoy B	W Or "B" Fl 4s Priv	N 24 39' 03.420"	W 081 22' 39.360"	24.65095	-81.3776	LNM 22/12, 7th Dist	326	11448_1	6/13/2012
11448	Add	Restricted Area PT 1 OF 4	Chart No. 1: N2.2	N 24 39' 59.500"	W 081 23' 10.100"	24.66653	-81.38614	LNM 46/10, 7th Dist	326	11448_1	11/8/2010
11448	Add	Restricted Area PT 2 OF 4	Chart No. 1: N2.2	N 24 40' 09.900"	W 081 22' 19.400"	24.66942	-81.37206	LNM 46/10, 7th Dist	326	11448_1	11/8/2010
11448	Add	Restricted Area PT 3 OF 4	Chart No. 1: N2.2	N 24 38' 58.800"	W 081 23' 19.700"	24.64967	-81.38881	LNM 46/10, 7th Dist	326	11448_1	11/8/2010
11448	Add	Restricted Area PT 4 OF 4	Chart No. 1: N2.2	N 24 39' 04.300"	W 081 22' 28.700"	24.65119	-81.37464	LNM 46/10, 7th Dist	326	11448_1	11/8/2010
11448	Add	Restricted Area Label	RESTRICTED AREA (see note B)	N 24 39' 34.000"	W 081 22' 45.000"	24.65944	-81.37917	LNM 46/10, 7th Dist	326	11448_1	11/8/2010
11448	Add	Restricted Area Note: Note B	NOTE B RESTRICTED AREA No anchoring by sailboats or other masted vessels due to the presence of high tension power lines.	N 24 39' 34.000"	W 081 22' 45.000"	24.65944	-81.37917	LNM 46/10, 7th Dist	326	11448_1	11/8/2010
11448	Change	Fixed Bridge Label	FIXED BRIDGE  HOR CL 89 FT  VERT CL 15 FT	N 24 39' 45.500"	W 081 28' 03.900"	24.66264	-81.46775	LNM 33/10, 7th Dist	326	11448_1	8/18/2010
11448	Add	Visible Wreck	PA     Chart No. 1: K24	N 24 39' 14.700"	W 081 25' 20.800"	24.65408	-81.42245	LNM 33/10, 7th Dist	326	11448_1	8/18/2010
11448	Add	Approximate Landmark	Markers    Chart No. 1: Q:91	N 24 42' 27.400"	W 081 26' 30.100"	24.70761	-81.4417	LNM 31/10, 7th Dist	326	11448_1	7/29/2010
11448	Add	Approximate Landmark	Markers    Chart No. 1: Q:91	N 24 40' 32.700"	W 081 25' 14.800"	24.67575	-81.42078	LNM 31/10, 7th Dist	326	11448_1	7/29/2010
11448	Add	Dangerous Wreck	PA      Chart No. 1: K28	N 24 39' 49.600"	W 081 26' 20.800"	24.66378	-81.43911	LNM 31/10, 7th Dist	326	11448_1	7/29/2010
11448	Add	Approximate Landmark	Markers    Chart No. 1: Q91	N 24 42' 29.400"	W 081 26' 26.900"	24.70817	-81.4408	LNM 31/10, 7th Dist	326	11448_1	7/29/2010
11448	Add	Approximate Landmark	Markers    Chart No. 1: Q:91	N 24 42' 31.200"	W 081 26' 24.700"	24.70867	-81.44019	LNM 31/10, 7th Dist	326	11448_1	7/29/2010
11448	Add	Approximate Landmark	Markers    Chart No. 1: Q:91	N 24 40' 30.900"	W 081 25' 15.300"	24.67525	-81.42091	LNM 31/10, 7th Dist	326	11448_1	7/29/2010
11448	Add	Pipe	Pipe PA     Chart No. 1: F22	N 24 39' 35.300"	W 081 27' 45.700"	24.65981	-81.46269	LNM 31/10, 7th Dist	326	11448_1	7/29/2010
11448	Add	Pipe	Pipe PA     Chart No. 1: F22	N 24 39' 14.800"	W 081 27' 43.000"	24.65411	-81.46194	LNM 31/10, 7th Dist	326	11448_1	7/29/2010
11448	Relocate	Bullfrog Banks Light BB	Fl 6s 20ft 5M "BB"	N 24 50' 44.316"	W 081 20' 32.688"	24.84564	-81.34241	LNM 36/09, 7th Dist	326	11448_1	9/17/2009
11448	Add	Bullfrog Banks Light BB	Fl 6s 20ft 5M "BB"	N 24 50' 44.167"	W 081 20' 34.009"	24.8456	-81.34278	LNM 25/09, 7th Dist	326	11448_1	7/6/2009
11448	Add	Ramrod Key Channel DB 11	G "11" Priv	N 24 38' 52.560"	W 081 24' 23.280"	24.64793	-81.40646	LNM 23/09, 7th Dist	326	11448_1	6/18/2009
11448	Add	Newfound Harbor Channel LB A	W Or "A" Fl 2.5s Priv	N 24 39' 01.080"	W 081 22' 57.540"	24.6503	-81.38265	LNM 19/09, 7th Dist	326	11448_1	6/1/2009
11448	Add	Newfound Harbor Channel LB B	W Or "B" Fl 4s Priv	N 24 39' 03.420"	W 081 22' 39.360"	24.65095	-81.3776	LNM 19/09, 7th Dist	326	11448_1	6/1/2009
11448	Delete	Cudjoe Channel Daybeacon 7	G "7" Priv	N 24 42' 50.000"	W 081 27' 43.000"	24.71389	-81.46194	LNM 05/07, 7th Dist	326	11448_1	2/13/2008
11448	Delete	Cudjoe Channel Daybeacon 8	R "8" Priv	N 24 43' 02.000"	W 081 27' 20.000"	24.71722	-81.45556	LNM 05/07, 7th Dist	326	11448_1	2/13/2008
11448	Add	Dolphin Marina Channel DB 4	R "4" Priv	N 24 39' 46.464"	W 081 23' 07.080"	24.66291	-81.3853	LNM 52/06, 7th Dist	326	11448_1	2/13/2008
11438	Delete	Fort Jefferson Buoy D	Y C "D"	N 24 36' 30.000"	W 082 58' 00.000"	24.60833	-82.96667	LNM 28/17, 7th Dist	331	11438_1	7/20/2017
11438	Delete	Fort Jefferson Buoy Q	Y C "Q"	N 24 35' 00.000"	W 082 52' 00.000"	24.58333	-82.86667	LNM 28/17, 7th Dist	331	11438_1	7/20/2017
11438	Delete	Fort Jefferson Lighted Buoy E	Y "E" Fl Y 6s	N 24 39' 00.000"	W 082 58' 00.000"	24.65	-82.96667	LNM 28/17, 7th Dist	331	11438_1	7/20/2017
11438	Delete	Fort Jefferson Buoy K 	Y "K" Fl Y 6s	N 24 43' 31.922"	W 082 47' 59.897"	24.72553	-82.79997	LNM 28/17, 7th Dist	331	11438_1	7/20/2017
11438	Delete	Fort Jefferson Lighted Buoy C	Y "C" Fl Y 4s	N 24 34' 00.000"	W 082 58' 00.000"	24.56667	-82.96667	LNM 23/17, 7th Dist	331	11438_1	6/22/2017
11438	Delete	Dangerous Wreck	PA      Chart No. 1: K28	N 24 38' 55.400"	W 082 47' 53.460"	24.64872	-82.79818	LNM 03/17, 7th Dist	331	11438_1	2/2/2017
11438	Add	Dangerous Wreck	Chart No. 1: K28	N 24 38' 51.969"	W 082 47' 54.998"	24.64777	-82.79861	LNM 03/17, 7th Dist	331	11438_1	2/2/2017
11438	Delete	Dry Tortugas Light	Fl 20s 151ft 20M RACON (_._)	N 24 38' 00.021"	W 082 55' 13.958"	24.63334	-82.92055	LNM 38/15, 7th Dist	331	11438_1	9/24/2015
11438	Add	Abandoned Light House	TOWER (ABAND LT HO)	N 24 38' 00.021"	W 082 55' 13.958"	24.63334	-82.92055	LNM 38/15, 7th Dist	331	11438_1	9/24/2015
11438	Add	Pulaski Shoal Light Magenta Circle	Fl 6s 56ft 9M AIS	N 24 41' 36.021"	W 082 46' 22.786"	24.69334	-82.77299	LNM 08/15, 7th Dist	331	11438_1	3/5/2015
11438	Relocate	Fort Jefferson Buoy N	Y N "N"	N 24 38' 14.782"	W 082 47' 11.722"	24.63744	-82.78659	LNM 46/14, 7th Dist	331	11438_1	11/27/2014
11438	Change	Dry Tortugas Southeast Channel Light 1	Fl G 2.5s 19ft 5M "1"	N 24 35' 37.100"	W 082 52' 25.470"	24.59364	-82.87374	LNM 09/14, 7th Dist	331	11438_1	3/13/2014
11438	Change	Dry Tortugas Southeast Channel Light 3	Fl G 4s 16ft 5M "3"	N 24 38' 19.445"	W 082 51' 40.826"	24.63873	-82.86134	LNM 20/13, 7th Dist	331	11438_1	5/30/2013
11415	Add	Scripps Wave Data Lighted Buoy CDIP STA 214	Y "CDIP STA 214" Fl (5) Y 20s Priv	N 27 35' 25.560"	W 082 55' 52.260"	27.59043	-82.93118	LNM 31/17, 7th Dist	2981	11415_1	8/24/2017
11415	Relocate	Johns Pass Channel Buoy 3	G C "3"	N 27 46' 37.651"	W 082 47' 19.546"	27.77712	-82.78876	LNM 24/17, 7th Dist	2981	11415_1	6/29/2017
11415	Delete	Pass-A-Grille Channel Light 6	Fl R 4s 16ft 5M "6"	N 27 40' 31.498"	W 082 44' 56.530"	27.67542	-82.74904	LNM 23/17, 7th Dist	2981	11415_1	6/22/2017
11415	Relocate	Pass-A-Grille Channel Daybeacon 7	G "7"	N 27 40' 31.498"	W 082 44' 56.530"	27.67542	-82.74904	LNM 23/17, 7th Dist	2981	11415_1	6/22/2017
11415	Change	Pass-A-Grille Channel Light 7	Q G 16ft 4M "7"	N 27 40' 31.498"	W 082 44' 56.530"	27.67542	-82.74904	LNM 23/17, 7th Dist	2981	11415_1	6/22/2017
11415	Add	Pass-A-Grille Channel Shoal Daybeacon	W Bn	N 27 40' 36.369"	W 082 44' 52.820"	27.67677	-82.74801	LNM 23/17, 7th Dist	2981	11415_1	6/22/2017
11415	Change	tabulation - TAMPA BAY ENTRANCE CHANNEL DEPTHS	tabulation - TAMPA BAY ENTRANCE CHANNEL DEPTHS	N 27 29' 41.000"	W 083 03' 13.000"	27.49472	-83.05361	LNM 25/17, 7th Dist	2981	11415_1	6/15/2017
11415	Add	Visible Wreck	PA	N 27 46' 36.960"	W 082 37' 31.500"	27.77693	-82.62542	LNM 16/17, 7th Dist	2981	11415_1	4/27/2017
11415	Change	Mullet Key Channel Range Front Light	Q 20ft	N 27 36' 50.999"	W 082 39' 56.131"	27.61417	-82.66559	LNM 13/17, 7th Dist	2981	11415_1	4/13/2017
11415	Change	Mullet Key Channel Range Rear Light	Iso 6s 78ft	N 27 36' 57.106"	W 082 39' 13.365"	27.61586	-82.65371	LNM 13/17, 7th Dist	2981	11415_1	4/13/2017
11415	Add	Mullet Key Channel Range Front Light Passing Light	Q 20ft 4M	N 27 36' 50.999"	W 082 39' 56.131"	27.61417	-82.66559	LNM 13/17, 7th Dist	2981	11415_1	4/13/2017
11415	Add	Mullet Key Channel Range Rear Light Passing Light	Q 40ft 4M	N 27 36' 57.106"	W 082 39' 13.365"	27.61586	-82.65371	LNM 13/17, 7th Dist	2981	11415_1	4/13/2017
11415	Relocate	Johns Pass Channel Buoy 3	G C "3"	N 27 46' 38.923"	W 082 47' 17.591"	27.77748	-82.78822	LNM 06/17, 7th Dist	2981	11415_1	2/23/2017
11415	Relocate	Sunshine Skyway Channel Daybeacon 11	G "11"	N 27 39' 17.295"	W 082 40' 56.388"	27.6548	-82.68233	LNM 52/16, 7th Dist	2981	11415_1	12/29/2016
11415	Delete	Anna Maria One Mile Fish Haven A	Y C "A" Priv	N 27 29' 17.000"	W 082 43' 45.000"	27.48806	-82.72916	LNM 20/16, 7th Dist	2981	11415_1	5/26/2016
11415	Delete	Anna Maria One Mile Fish Haven B	Y C "B" Priv	N 27 29' 30.000"	W 082 43' 48.000"	27.49167	-82.73	LNM 20/16, 7th Dist	2981	11415_1	5/26/2016
11415	Add	Passage Key Inlet Chartlet - revised hydrography, shoreline	Passage Key Inlet Chartlet - revised hydrography, shoreline	N 27 32' 00.000"	W 082 45' 00.000"	27.53333	-82.75	LNM 21/16, 7th Dist	2981	11415_1	5/19/2016
11415	Change	Depth Legend - St. Petersburg Harbor to:	17 1/2 FT AUG 2015	N 27 41' 16.000"	W 082 36' 32.600"	27.68778	-82.60905	LNM 21/16, 7th Dist	2981	11415_1	5/19/2016
11415	Change	Depth Legend - St. Petersburg Harbor to:	20 FT AUG 2015	N 27 45' 24.600"	W 082 36' 42.000"	27.75683	-82.61166	LNM 21/16, 7th Dist	2981	11415_1	5/19/2016
11415	Change	St Petersburg Channel Junction Light S	Fl (2+1) G 6s 16ft 4M "S"	N 27 45' 32.505"	W 082 36' 41.251"	27.75903	-82.61146	LNM 05/16, 7th Dist	2981	11415_1	2/11/2016
11415	Add	Sunshine Skyway Bridge V-AIS	V-AIS	N 27 37' 13.346"	W 082 39' 20.102"	27.62037	-82.65559	LNM 03/16, 7th Dist	2981	11415_1	1/28/2016
11415	Relocate	Manatee River Light 7	Q G 16ft 4M "7"	N 27 31' 50.008"	W 082 39' 02.595"	27.53056	-82.65072	LNM 50/15, 7th Dist	2981	11415_1	12/24/2015
11415	Add	Manatee River Daybeacon 5	G "5"	N 27 31' 56.640"	W 082 39' 39.920"	27.5324	-82.66109	LNM 50/15, 7th Dist	2981	11415_1	12/24/2015
11415	Relocate	Manatee River Daybeacon 10	R "10"	N 27 31' 37.085"	W 082 38' 38.706"	27.52697	-82.64409	LNM 50/15, 7th Dist	2981	11415_1	12/24/2015
11415	Relocate	Manatee River Daybeacon 9	G "9"	N 27 31' 45.231"	W 082 38' 53.594"	27.52923	-82.64822	LNM 50/15, 7th Dist	2981	11415_1	12/24/2015
11415	Change	Point Pinellas Channel Light 2	Fl R 2.5s 16ft 5M "2"	N 27 40' 59.921"	W 082 36' 28.976"	27.68331	-82.60805	LNM 34/15, 7th Dist	2981	11415_1	8/27/2015
11415	Change	Point Pinellas Channel Light 5	Fl G 4s 16ft 5M "5"	N 27 42' 30.030"	W 082 36' 37.464"	27.70834	-82.6104	LNM 31/15, 7th Dist	2981	11415_1	8/13/2015
11415	Change	tabulation - TAMPA BAY ENTRANCE CHANNEL DEPTHS	tabulation - TAMPA BAY ENTRANCE CHANNEL DEPTHS	N 27 29' 43.000"	W 083 03' 15.000"	27.49528	-83.05417	LNM 33/15, 7th Dist	2981	11415_1	8/13/2015
11415	Change	Manatee River Light 7	Q G 16ft 4M "7"	N 27 31' 49.965"	W 082 39' 02.451"	27.53055	-82.65068	LNM 29/15, 7th Dist	2981	11415_1	7/30/2015
11415	Change	Manatee River Light 29	Q G 14ft 4M "29"	N 27 30' 49.616"	W 082 30' 56.554"	27.51378	-82.51571	LNM 29/15, 7th Dist	2982	11415_2	7/30/2015
11415	Change	Siesta Key - Tampa Bay Light 62	Fl R 4s 16ft 5M "62"	N 27 31' 15.914"	W 082 41' 50.808"	27.52109	-82.69745	LNM 29/15, 7th Dist	2981	11415_1	7/30/2015
11415	Change	Anna Maria Sound Light 1	Fl G 6s 16ft 5M "1"	N 27 32' 03.394"	W 082 42' 47.776"	27.53428	-82.71327	LNM 28/15, 7th Dist	2981	11415_1	7/23/2015
11415	Change	Manatee River Light 7	Q G 16ft 5M "7"	N 27 31' 49.965"	W 082 39' 02.451"	27.53055	-82.65068	LNM 28/15, 7th Dist	2981	11415_1	7/23/2015
11415	Change	Manatee River Light 14	Fl R 4s 15ft 5M "14"	N 27 31' 02.907"	W 082 37' 07.975"	27.51747	-82.61888	LNM 28/15, 7th Dist	2981	11415_1	7/23/2015
11415	Change	Manatee River Light 29	Q G 14ft 5M "29"	N 27 30' 49.616"	W 082 30' 56.554"	27.51378	-82.51571	LNM 28/15, 7th Dist	2982	11415_2	7/23/2015
11415	Change	Siesta Key - Tampa Bay Light 51	Fl G 4s 16ft 5M "51"	N 27 29' 14.925"	W 082 41' 55.953"	27.48748	-82.69888	LNM 28/15, 7th Dist	2981	11415_1	7/23/2015
11415	Change	Southwest Channel Light 2 (Tampa Bay)	Fl R 2.5s 16ft 5M "2"	N 27 33' 26.198"	W 082 46' 05.538"	27.55728	-82.7682	LNM 28/15, 7th Dist	2981	11415_1	7/23/2015
11415	Change	Boca Ciega Bay Light 1	Fl G 4s 16ft 5M "1"	N 27 41' 44.382"	W 082 36' 50.149"	27.69566	-82.61393	LNM 26/15, 7th Dist	2981	11415_1	7/9/2015
11415	Change	Boca Ciega Bay Light 28	Fl R 4s 12ft 5M "28"	N 27 43' 18.542"	W 082 43' 26.094"	27.72182	-82.72392	LNM 26/15, 7th Dist	2981	11415_1	7/9/2015
11415	Change	Boca Ciega Bay Light 38	Fl R 4s 16ft 5M "38"	N 27 44' 38.224"	W 082 44' 17.143"	27.74395	-82.7381	LNM 26/15, 7th Dist	2981	11415_1	7/9/2015
11415	Change	Pass-A-Grille Channel Light 10	Fl R 4s 16ft 5M "10"	N 27 40' 52.474"	W 082 43' 55.417"	27.68124	-82.73206	LNM 26/15, 7th Dist	2981	11415_1	7/9/2015
11415	Change	St Petersburg Channel Light 11	Fl G 4s 16ft 5M "11"	N 27 45' 30.872"	W 082 37' 33.885"	27.75858	-82.62608	LNM 26/15, 7th Dist	2981	11415_1	7/9/2015
11492	Change	Fixed Bridge Label	FIXED BRIDGE HOR CL 90 FT VERT CL 45 FT	N 29 59' 04.140"	W 081 37' 07.520"	29.98448	-81.61876	LNM 13/17, 7th Dist	272	11492_2	3/23/2017
11492	Change	Bayard Point Light 24	Fl R 4s 19ft 5M "24"	N 29 56' 15.960"	W 081 36' 01.800"	29.93777	-81.6005	LNM 40/15, 7th Dist	272	11492_2	10/15/2015
11492	Change	Red Bay Point Light 22	Fl R 4s 18ft 5M "22"	N 29 58' 29.722"	W 081 36' 42.731"	29.97492	-81.61187	LNM 40/15, 7th Dist	272	11492_2	10/15/2015
11492	Add	Minimum Size (2mm sq.) Dotted Fish Haven and Label	Obstn Fish Haven (auth min 6 ft), Chart No. 1 K46.2	N 30 17' 58.350"	W 081 40' 17.390"	30.29954	-81.67149	LNM 34/15, 7th Dist	271	11492_1	8/20/2015
11492	Change	Christopher Point Light 5	Fl G 4s 16ft 5M "5"	N 30 15' 08.545"	W 081 39' 27.962"	30.25237	-81.65777	LNM 31/15, 7th Dist	271	11492_1	8/13/2015
11492	Change	New Switzerland Point Light 17	Fl G 4s 18ft 5M "17"	N 30 03' 40.260"	W 081 40' 23.580"	30.06118	-81.67322	LNM 31/15, 7th Dist	271	11492_1	8/13/2015
11492	Change	New Switzerland Point Light 17	Fl G 4s 18ft 5M "17"	N 30 03' 40.260"	W 081 40' 23.580"	30.06118	-81.67322	LNM 31/15, 7th Dist	272	11492_2	8/13/2015
11492	Change	Orange Park Light 10	Fl R 4s 16ft 5M "10"	N 30 09' 30.780"	W 081 41' 23.940"	30.15855	-81.68998	LNM 31/15, 7th Dist	271	11492_1	8/13/2015
11492	Change	Ragged Point Light 12	Fl R 4s 12ft 5M "12"	N 30 07' 14.387"	W 081 40' 48.015"	30.12066	-81.68001	LNM 31/15, 7th Dist	271	11492_1	8/13/2015
11492	Change	Solano Point Light 29	Fl G 2.5s 10ft 5M "29"	N 29 52' 27.180"	W 081 35' 16.740"	29.87422	-81.58798	LNM 28/15, 7th Dist	272	11492_2	7/23/2015
11492	Change	Solano Point Light 31	Fl G 2.5s 10ft 5M "31"	N 29 51' 47.880"	W 081 35' 00.360"	29.8633	-81.58344	LNM 28/15, 7th Dist	272	11492_2	7/23/2015
11492	Change	Winter Point Light 2	Fl R 4s 16ft 5M "2"	N 30 17' 37.687"	W 081 40' 38.112"	30.2938	-81.67725	LNM 24/15, 7th Dist	271	11492_1	6/25/2015
11492	Delete	Piney Point Light 7	Fl G 2.5s 16ft 3M "7"	N 30 13' 18.306"	W 081 39' 04.624"	30.22175	-81.65128	LNM 23/15, 7th Dist	271	11492_1	6/18/2015
11492	Delete	Switzerland Light 15	Fl G 2.5s 16ft 5M "15"	N 30 05' 55.587"	W 081 40' 16.966"	30.09877	-81.67138	LNM 23/15, 7th Dist	271	11492_1	6/18/2015
11492	Delete	Beauclerc Bluff Daybeacon 9	G "9"	N 30 12' 12.960"	W 081 39' 14.220"	30.2036	-81.65395	LNM 22/15, 7th Dist	271	11492_1	6/4/2015
11492	Add	Beauclerc Bluff Light 9	Fl G 2.5s 16ft 5M "9"	N 30 12' 12.960"	W 081 39' 14.220"	30.2036	-81.65395	LNM 22/15, 7th Dist	271	11492_1	6/4/2015
11492	Change	Popo Point Light 18	Fl R 2.5s 16ft 5M "18"	N 30 01' 26.700"	W 081 40' 33.060"	30.02408	-81.67585	LNM 21/15, 7th Dist	272	11492_2	6/4/2015
11492	Delete	Epping Forest Yacht Club Buoy 1	G C "1" Priv	N 30 14' 50.000"	W 081 38' 39.400"	30.24722	-81.64428	LNM 20/15, 7th Dist	271	11492_1	5/28/2015
11492	Delete	Epping Forest Yacht Club Buoy 2	R N "2" Priv	N 30 14' 48.500"	W 081 38' 38.000"	30.24681	-81.64389	LNM 20/15, 7th Dist	271	11492_1	5/28/2015
11492	Delete	Epping Forest Yacht Club Buoy 3	G C "3" Priv	N 30 14' 51.500"	W 081 38' 37.000"	30.24764	-81.64361	LNM 20/15, 7th Dist	271	11492_1	5/28/2015
11492	Delete	Epping Forest Yacht Club Buoy 4	R N "4" Priv	N 30 14' 49.000"	W 081 38' 35.800"	30.24694	-81.64328	LNM 20/15, 7th Dist	271	11492_1	5/28/2015
11492	Delete	Epping Forest Yacht Club Buoy 6	R N "6" Priv	N 30 14' 50.000"	W 081 38' 34.500"	30.24722	-81.64291	LNM 20/15, 7th Dist	271	11492_1	5/28/2015
11492	Change	Goodbys Creek Light 1	Fl G 6s 16ft 5M "1"	N 30 13' 02.040"	W 081 37' 30.180"	30.21723	-81.62505	LNM 04/15, 7th Dist	271	11492_1	2/5/2015
11492	Change	Picolata Flats Light 25	Fl G 4s 19ft 5M "25"	N 29 55' 14.005"	W 081 36' 02.266"	29.92056	-81.60063	LNM 03/15, 7th Dist	272	11492_2	1/22/2015
11492	Change	New Switzerland Point Light 17A	Fl G 6s 16ft 5M "17A"	N 30 02' 27.420"	W 081 40' 31.320"	30.04095	-81.67537	LNM 29/14, 7th Dist	271	11492_1	7/24/2014
11492	Change	New Switzerland Point Light 17A	Fl G 6s 16ft 5M "17A"	N 30 02' 27.420"	W 081 40' 31.320"	30.04095	-81.67537	LNM 29/14, 7th Dist	272	11492_2	7/24/2014
11492	Change	Winter Point Light 1	Fl G 4s 16ft 5M "1"	N 30 17' 48.754"	W 081 40' 24.668"	30.29688	-81.67352	LNM 25/14, 7th Dist	271	11492_1	6/26/2014
11492	Relocate	Winter Point Light 1	Fl G 4s 16ft 5M "1"	N 30 17' 48.754"	W 081 40' 24.668"	30.29688	-81.67352	LNM 25/14, 7th Dist	271	11492_1	6/26/2014
11492	Add	Ortega River Daybeacon 5	G "5" Priv	N 30 17' 05.570"	W 081 42' 05.770"	30.28488	-81.7016	LNM 20/14, 7th Dist	271	11492_1	5/29/2014
11492	Add	Ortega River Lighted Buoy 10	R "10" Fl R 6s Priv	N 30 16' 39.760"	W 081 42' 36.560"	30.27771	-81.71016	LNM 20/14, 7th Dist	271	11492_1	5/29/2014
11492	Add	Ortega River Lighted Buoy 11	G "11" Fl G 2.5s Priv	N 30 16' 31.140"	W 081 42' 42.180"	30.27532	-81.71172	LNM 20/14, 7th Dist	271	11492_1	5/29/2014
11492	Add	Ortega River Lighted Buoy 12	R "12" Fl R 4s Priv	N 30 16' 05.000"	W 081 43' 17.290"	30.26805	-81.72147	LNM 20/14, 7th Dist	271	11492_1	5/29/2014
11492	Add	Ortega River Lighted Buoy 13	G "13" Fl G 2.5s Priv	N 30 16' 13.440"	W 081 43' 04.740"	30.2704	-81.71799	LNM 20/14, 7th Dist	271	11492_1	5/29/2014
11492	Add	Ortega River Lighted Buoy 2	R "2" Fl R 2.5s Priv	N 30 17' 10.980"	W 081 42' 02.280"	30.28638	-81.70063	LNM 20/14, 7th Dist	271	11492_1	5/29/2014
11492	Add	Ortega River Lighted Buoy 4	R "4" Fl R 4s Priv	N 30 17' 07.810"	W 081 42' 14.740"	30.2855	-81.70409	LNM 20/14, 7th Dist	271	11492_1	5/29/2014
11492	Add	Ortega River Lighted Buoy 6	R "6" Fl R 6s Priv	N 30 16' 56.720"	W 081 42' 18.610"	30.28242	-81.70517	LNM 20/14, 7th Dist	271	11492_1	5/29/2014
11492	Add	Ortega River Lighted Buoy 7	G "7" Fl G 4s Priv	N 30 16' 57.070"	W 081 42' 12.220"	30.28252	-81.70339	LNM 20/14, 7th Dist	271	11492_1	5/29/2014
11492	Add	Ortega River Lighted Buoy 8	R "8" Fl R 2.5s Priv	N 30 16' 46.790"	W 081 42' 29.180"	30.27966	-81.70811	LNM 20/14, 7th Dist	271	11492_1	5/29/2014
11492	Add	Ortega River Lighted Buoy 9	G "9" Fl G 4s Priv	N 30 16' 39.840"	W 081 42' 25.220"	30.27773	-81.70701	LNM 20/14, 7th Dist	271	11492_1	5/29/2014
11492	Change	Ragged Point Light 13	Fl G 6s 12ft 5M "13"	N 30 07' 02.160"	W 081 40' 13.440"	30.11727	-81.6704	LNM 34/13, 7th Dist	271	11492_1	8/29/2013
11492	Change	Popo Point Light 19	Fl G 4s 16ft 5M "19"	N 30 01' 20.123"	W 081 40' 16.721"	30.02226	-81.67131	LNM 26/13, 7th Dist	272	11492_2	7/30/2013
11492	Add	Dangerous Wreck	PA (Rep 2012)    Chart No. 1: K28	N 29 59' 08.280"	W 081 38' 51.060"	29.98563	-81.64751	LNM 24/13, 7th Dist	272	11492_2	6/4/2013
11492	Change	Switzerland Light 15	5M "15"	N 30 05' 55.587"	W 081 40' 16.966"	30.09877	-81.67138	LNM 12/13, 7th Dist	271	11492_1	4/2/2013
11492	Change	Mandarin Point Light 11	Fl G 4s 16ft 5M "11"	N 30 09' 18.297"	W 081 40' 47.630"	30.15508	-81.67989	LNM 40/12, 7th Dist	271	11492_1	10/24/2012
11492	Change	Winter Point Light 3	Fl G 2.5s 16ft 5M "3"	N 30 16' 46.790"	W 081 40' 15.514"	30.27966	-81.67097	LNM 27/12, 7th Dist	271	11492_1	7/19/2012
11492	Relocate	Winter Point Light 3	Fl G 2.5s 16ft 5M "3"	N 30 16' 46.790"	W 081 40' 15.514"	30.27966	-81.67097	LNM 27/12, 7th Dist	271	11492_1	7/19/2012
11492	Relocate	Racy Point Cut Range Front Light	Q G 16ft	N 29 47' 50.643"	W 081 32' 59.799"	29.7974	-81.54994	LNM 21/12, 7th Dist	272	11492_2	6/11/2012
11492	Relocate	Racy Point Cut Range Rear Light	Iso G 6s 27ft	N 29 48' 00.589"	W 081 32' 59.601"	29.80016	-81.54989	LNM 21/12, 7th Dist	272	11492_2	6/11/2012
11492	Relocate	Tocoi Cut Range Front Light	Q 26ft	N 29 51' 47.769"	W 081 35' 00.218"	29.86327	-81.5834	LNM 21/12, 7th Dist	272	11492_2	6/11/2012
11492	Relocate	Tocoi Cut Range Rear Light	Iso 6s 48ft	N 29 52' 27.292"	W 081 35' 16.710"	29.87425	-81.58797	LNM 21/12, 7th Dist	272	11492_2	6/11/2012
11492	Relocate	Racy Point Cut Range Rear Light	Iso G 6s 27ft	N 29 48' 00.589"	W 081 32' 59.601"	29.80016	-81.54989	LNM 21/12, 7th Dist	272	11492_2	6/11/2012
11492	Change	Tocoi Cut Range Front Light	Q 26ft	N 29 51' 47.769"	W 081 35' 00.218"	29.86327	-81.5834	LNM 21/12, 7th Dist	272	11492_2	6/11/2012
11492	Relocate	Solano Point Light 31	Fl G 2.5s 10ft 3M "31"	N 29 51' 47.769"	W 081 35' 00.218"	29.86327	-81.5834	LNM 21/12, 7th Dist	272	11492_2	6/11/2012
11492	Relocate	Solano Point Light 29	Fl G 2.5s 10ft 3M "29"	N 29 52' 27.292"	W 081 35' 16.710"	29.87425	-81.58797	LNM 21/12, 7th Dist	272	11492_2	6/11/2012
11492	Change	Tocoi Cut Range Rear Light	Iso 6s 48ft	N 29 52' 27.292"	W 081 35' 16.710"	29.87425	-81.58797	LNM 21/12, 7th Dist	272	11492_2	6/11/2012
11492	Change	Racy Point Cut Range Rear Light	Iso G 6s 27ft	N 29 48' 00.589"	W 081 32' 59.601"	29.80016	-81.54989	LNM 21/12, 7th Dist	272	11492_2	6/11/2012
11492	Add	Goodbys Creek Channel Buoy 2	R N "2" Priv	N 30 13' 00.840"	W 081 37' 29.460"	30.2169	-81.62485	LNM 48/11, 7th Dist	271	11492_1	12/13/2011
11492	Change	Green Cove Springs Light 20	Fl R 4s 16ft 5M "20"	N 29 59' 49.316"	W 081 39' 07.560"	29.99703	-81.6521	LNM 41/11, 7th Dist	272	11492_2	10/26/2011
11492	Delete	Bridge Construction Label	Bridge under construction	N 30 18' 55.500"	W 081 40' 13.900"	30.31542	-81.67052	LNM 51/10, 7th Dist	271	11492_1	12/15/2010
11492	Delete	magenta note: CAUTION	CAUTION Fixed and floating obstructions, some submerged, may exist within the magenta tinted bridge construction area. Mariners are advised to proceed with caution.	N 30 15' 20.800"	W 081 45' 29.000"	30.25578	-81.75806	LNM 51/10, 7th Dist	271	11492_1	12/15/2010
11492	Delete	Bridge Construction PT 1 OF 2	None	N 30 18' 51.800"	W 081 39' 58.480"	30.31439	-81.66624	LNM 51/10, 7th Dist	271	11492_1	12/15/2010
11492	Delete	Bridge Construction PT 2 OF 2	None	N 30 18' 59.080"	W 081 40' 28.350"	30.31641	-81.67455	LNM 51/10, 7th Dist	271	11492_1	12/15/2010
11492	Delete	Romeo Point Dock Obstn Light	F R 8ft Priv	N 30 08' 52.965"	W 081 42' 39.542"	30.14805	-81.71098	LNM 37/10, 7th Dist	271	11492_1	9/19/2010
11492	Change	Ragged Point Light 13	Fl G 6s 12ft 4M "13"	N 30 07' 02.160"	W 081 40' 13.440"	30.11727	-81.6704	LNM 28/09, 7th Dist	271	11492_1	7/23/2009
11492	Relocate	Picolata Flats Light 25	Fl G 4s 19ft 4M "25"	N 29 55' 14.005"	W 081 36' 02.266"	29.92056	-81.60063	LNM 44/08, 7th Dist	272	11492_2	11/5/2008
11492	Relocate	Switzerland Light 15	Fl G 2.5s 16ft 3M "15"	N 30 05' 55.587"	W 081 40' 16.966"	30.09877	-81.67138	LNM 44/08, 7th Dist	271	11492_1	11/5/2008
11492	Relocate	Mandarin Point Light 11	Fl G 4s 16ft 4M "11"	N 30 09' 18.297"	W 081 40' 47.630"	30.15508	-81.67989	LNM 34/08, 7th Dist	271	11492_1	9/26/2008
11492	Change	Fixed Bridge	Chart No. 1: D22	N 30 06' 00.000"	W 081 44' 47.000"	30.1	-81.74639	LNM 19/07, 7th Dist	271	11492_1	2/13/2008
11492	Change	Fixed Bridge Label	FIXED BRIDGE HOR CL 55 FT VERT CL 9 FT	N 30 06' 00.000"	W 081 44' 47.000"	30.1	-81.74639	LNM 19/07, 7th Dist	271	11492_1	2/13/2008
11411	Change	Anclote River Light 9	Q G 16ft 4M "9"	N 28 10' 47.194"	W 082 48' 14.726"	28.17978	-82.80409	LNM 31/17, 7th Dist	192	11411_2	8/24/2017
11411	Relocate	Johns Pass Channel Buoy 3	G C "3"	N 27 46' 37.651"	W 082 47' 19.546"	27.77712	-82.78876	LNM 24/17, 7th Dist	191	11411_1	6/29/2017
11411	Delete	Pass-A-Grille Channel Light 6	Fl R 4s 16ft 5M "6"	N 27 40' 31.498"	W 082 44' 56.530"	27.67542	-82.74904	LNM 23/17, 7th Dist	191	11411_1	6/22/2017
11411	Relocate	Pass-A-Grille Channel Daybeacon 7	G "7"	N 27 40' 31.498"	W 082 44' 56.530"	27.67542	-82.74904	LNM 23/17, 7th Dist	191	11411_1	6/22/2017
11411	Change	Pass-A-Grille Channel Light 7	Q G 16ft 4M "7"	N 27 40' 31.498"	W 082 44' 56.530"	27.67542	-82.74904	LNM 23/17, 7th Dist	191	11411_1	6/22/2017
11411	Add	Pass-A-Grille Channel Shoal Daybeacon	W Bn	N 27 40' 36.369"	W 082 44' 52.820"	27.67677	-82.74801	LNM 23/17, 7th Dist	191	11411_1	6/22/2017
11411	Change	Mullet Key Channel Range Front Light	Q 20ft	N 27 36' 50.999"	W 082 39' 56.131"	27.61417	-82.66559	LNM 13/17, 7th Dist	191	11411_1	4/13/2017
11411	Change	Mullet Key Channel Range Rear Light	Iso 6s 78ft	N 27 36' 57.106"	W 082 39' 13.365"	27.61586	-82.65371	LNM 13/17, 7th Dist	191	11411_1	4/13/2017
11411	Add	Mullet Key Channel Range Front Light Passing Light	Q 20ft 4M	N 27 36' 50.999"	W 082 39' 56.131"	27.61417	-82.66559	LNM 13/17, 7th Dist	191	11411_1	4/13/2017
11411	Add	Mullet Key Channel Range Rear Light Passing Light	Q 40ft 4M	N 27 36' 57.106"	W 082 39' 13.365"	27.61586	-82.65371	LNM 13/17, 7th Dist	191	11411_1	4/13/2017
11411	Relocate	Johns Pass Channel Buoy 3	G C "3"	N 27 46' 38.923"	W 082 47' 17.591"	27.77748	-82.78822	LNM 06/17, 7th Dist	191	11411_1	2/23/2017
11451	Delete	Miami Anchorage Buoy B	Y N "B"	N 25 46' 22.686"	W 080 06' 09.240"	25.77297	-80.10257	LNM 33/17, 7th Dist	333	11451_1	8/31/2017
11451	Change	Depth Legend - Fisher Island Turning Basin, FL to:	48 FT OCT 2016	N 25 45' 56.500"	W 080 08' 31.600"	25.76569	-80.14211	Not Yet Published	340	11451_8	8/31/2017
11451	Delete	Sounding in Feet	49	N 25 45' 55.600"	W 080 08' 18.500"	25.76544	-80.13847	Not Yet Published	340	11451_8	8/31/2017
11451	Change	Depth Legend - Bar Cut, FL to:	51 1/2 FT MID-WIDTH OF 250 FT NOV 2016	N 25 45' 38.800"	W 080 07' 34.800"	25.76078	-80.12634	Not Yet Published	340	11451_8	8/31/2017
11451	Change	Depth Legend - Bar Cut, FL to:	51 1/2 FT MID-WIDTH OF 250 FT NOV 2016	N 25 45' 38.800"	W 080 07' 34.800"	25.76078	-80.12634	Not Yet Published	333	11451_1	8/31/2017
11451	Change	Depth Legend - Government Cut, FL to:	43 1/2 FT OCT 2016	N 25 45' 51.800"	W 080 08' 06.100"	25.76439	-80.13503	Not Yet Published	340	11451_8	8/31/2017
11451	Change	Depth Legend - Main Channel, FL to:	32 1/2 FT OCT 2016	N 25 46' 30.800"	W 080 09' 40.800"	25.77522	-80.16133	Not Yet Published	340	11451_8	8/31/2017
11451	Change	Depth Legend - Lummus Island Turning Basin, FL to:	26 1/2 FT OCT 2016	N 25 46' 01.500"	W 080 10' 01.500"	25.76708	-80.16708	Not Yet Published	340	11451_8	8/31/2017
11451	Change	Depth Legend - Dodge Island Cut, FL to:	27 1/2 FT OCT 2016	N 25 46' 17.100"	W 080 10' 24.900"	25.77142	-80.17358	Not Yet Published	340	11451_8	8/31/2017
11451	Change	Depth Legend - Outer Bar Cut, FL to:	52 FT MID-WIDTH OF 250-400 FT NOV 2016	N 25 45' 34.700"	W 080 06' 13.500"	25.75964	-80.10375	Not Yet Published	333	11451_1	8/31/2017
11451	Change	Depth Legend - South Ship Channel, FL to:	45 FT OCT 2016	N 25 45' 55.000"	W 080 09' 11.600"	25.76528	-80.15322	Not Yet Published	340	11451_8	8/31/2017
11451	Change	Depth Legend - Widerner to:	46 FT 	N 25 45' 27.700"	W 080 06' 52.700"	25.75769	-80.11464	Not Yet Published	333	11451_1	8/31/2017
11451	Add	Channel Reach Separation Line PT 1 OF 3	Channel Reach Separation Line	N 25 45' 53.090"	W 080 08' 17.900"	25.76475	-80.13831	Not Yet Published	340	11451_8	8/31/2017
11451	Add	Channel Reach Separation Line PT 2 OF 3	Channel Reach Separation Line	N 25 45' 53.160"	W 080 08' 15.160"	25.76477	-80.13754	Not Yet Published	340	11451_8	8/31/2017
11451	Add	Channel Reach Separation Line PT 3 OF 3	Channel Reach Separation Line	N 25 45' 50.560"	W 080 08' 08.400"	25.76404	-80.13567	Not Yet Published	340	11451_8	8/31/2017
11451	Add	Channel Reach Separation Line PT 1 OF 2	Channel Reach Separation Line	N 25 45' 53.160"	W 080 08' 15.160"	25.76477	-80.13754	Not Yet Published	340	11451_8	8/31/2017
11451	Add	Channel Reach Separation Line PT 2 OF 2	Channel Reach Separation Line	N 25 45' 57.690"	W 080 08' 13.040"	25.76603	-80.13696	Not Yet Published	340	11451_8	8/31/2017
11451	Add	Depth Legend - Widener Miami Harbor, FL to:	33 FT OCT 2016 	N 25 45' 52.700"	W 080 08' 15.200"	25.76464	-80.13756	Not Yet Published	340	11451_8	8/31/2017
11451	Delete	Channel Reach Separation Line PT 1 OF 2	Channel Reach Separation Line	N 25 46' 23.340"	W 080 10' 34.190"	25.77315	-80.17616	Not Yet Published	340	11451_8	8/31/2017
11451	Delete	Channel Reach Separation Line PT 2 OF 2	Channel Reach Separation Line	N 25 46' 19.780"	W 080 10' 36.060"	25.77216	-80.17668	Not Yet Published	340	11451_8	8/31/2017
11451	Add	Sounding in Feet	37	N 25 45' 52.600"	W 080 09' 06.400"	25.76461	-80.15178	Not Yet Published	340	11451_8	8/31/2017
11451	Change	Depth Legend - Fisher Island, FL to:	33 FT OCT 2016	N 25 45' 52.000"	W 080 08' 35.000"	25.76444	-80.14306	Not Yet Published	340	11451_8	8/31/2017
11451	Delete	Channel Reach Separation Line PT 1 OF 2	Channel Reach Separation Line	N 25 45' 53.090"	W 080 08' 17.900"	25.76475	-80.13831	Not Yet Published	340	11451_8	8/31/2017
11451	Delete	Channel Reach Separation Line PT 2 OF 2	Channel Reach Separation Line	N 25 45' 58.580"	W 080 08' 15.310"	25.76627	-80.13759	Not Yet Published	340	11451_8	8/31/2017
11451	Add	Channel Limits PT 1 OF 2	Chart No. 1: I20	N 25 46' 25.120"	W 080 10' 48.470"	25.77364	-80.18013	Not Yet Published	340	11451_8	8/31/2017
11451	Add	Channel Limits PT 2 OF 2	Chart No. 1: I20	N 25 46' 19.780"	W 080 10' 36.060"	25.77216	-80.17668	Not Yet Published	340	11451_8	8/31/2017
11451	Delete	Sounding in Feet	7	N 25 46' 09.240"	W 080 08' 34.150"	25.76923	-80.14282	LNM 35/17, 7th Dist	340	11451_8	8/24/2017
11451	Add	Sounding in Feet	6	N 25 46' 08.800"	W 080 08' 32.000"	25.76911	-80.14222	LNM 35/17, 7th Dist	340	11451_8	8/24/2017
11451	Add	Sounding in Feet	8	N 25 46' 07.600"	W 080 08' 30.000"	25.76878	-80.14167	LNM 35/17, 7th Dist	340	11451_8	8/24/2017
11451	Add	Sounding in Feet	6	N 25 46' 09.600"	W 080 08' 34.100"	25.76933	-80.14281	LNM 35/17, 7th Dist	340	11451_8	8/24/2017
11451	Add	Anchorage Area A Point 3 of 4	Anchorage Area A 110.188 (see note A)	N 25 46' 31.443"	W 080 05' 27.069"	25.7754	-80.09085	LNM 31/17, 7th Dist	333	11451_1	8/24/2017
11451	Add	Anchorage Area A Point 4 of 4	Anchorage Area A 110.188 (see note A)	N 25 46' 31.557"	W 080 05' 37.868"	25.77543	-80.09385	LNM 31/17, 7th Dist	333	11451_1	8/24/2017
11451	Add	Anchorage Area B Point 3 of 4	Anchorage Area B 110.188 (see note A)	N 25 46' 32.712"	W 080 04' 28.387"	25.77575	-80.07455	LNM 31/17, 7th Dist	333	11451_1	8/24/2017
11451	Add	Anchorage Area B Point 4 of 4	Anchorage Area B 110.188 (see note A)	N 25 46' 43.770"	W 080 05' 02.360"	25.77883	-80.08399	LNM 31/17, 7th Dist	333	11451_1	8/24/2017
11451	Change	Flamingo Channel Light 9	Fl G 4s 16ft 5M "9" Priv	N 25 07' 25.234"	W 080 55' 46.746"	25.12368	-80.92965	LNM 31/17, 7th Dist	338	11451_6	8/24/2017
11451	Change	Flamingo Channel Daybeacon 12	R "12" Priv	N 25 07' 49.047"	W 080 55' 38.905"	25.13029	-80.92747	LNM 31/17, 7th Dist	338	11451_6	8/24/2017
11451	Change	Flamingo Channel Daybeacon 14	R "14" Priv	N 25 08' 12.603"	W 080 55' 32.087"	25.13684	-80.92558	LNM 31/17, 7th Dist	338	11451_6	8/24/2017
11451	Change	Flamingo Channel Light 15	Fl G 2.5s 16ft 4M "15" Priv	N 25 08' 24.064"	W 080 55' 26.596"	25.14002	-80.92406	LNM 31/17, 7th Dist	338	11451_6	8/24/2017
11451	Change	Flamingo Channel Daybeacon 16	R "16" Priv	N 25 08' 19.649"	W 080 55' 27.422"	25.13879	-80.92429	LNM 31/17, 7th Dist	338	11451_6	8/24/2017
11451	Change	Flamingo Channel Daybeacon 18	R "18" Priv	N 25 08' 25.076"	W 080 55' 19.261"	25.1403	-80.92202	LNM 31/17, 7th Dist	338	11451_6	8/24/2017
11451	Add	Anchorage Area A Point 1 of 4	Anchorage Area A 110.188 (see note A)	N 25 47' 51.000"	W 080 05' 37.230"	25.7975	-80.09367	LNM 31/17, 7th Dist	333	11451_1	8/24/2017
11451	Add	Anchorage Area A Point 2 of 4	Anchorage Area A 110.188 (see note A)	N 25 47' 51.050"	W 080 05' 26.470"	25.79751	-80.09068	LNM 31/17, 7th Dist	333	11451_1	8/24/2017
11451	Add	Anchorage Area B Point 1 of 4	Anchorage Area B 110.188 (see note A)	N 25 47' 50.180"	W 080 04' 59.770"	25.79727	-80.08327	LNM 31/17, 7th Dist	333	11451_1	8/24/2017
11451	Add	Anchorage Area B Point 2 of 4	Anchorage Area B 110.188 (see note A)	N 25 47' 02.610"	W 080 04' 20.650"	25.78406	-80.0724	LNM 31/17, 7th Dist	333	11451_1	8/24/2017
11451	Delete	Anchorage Area Point 1 of 3	Anchorage Area	N 25 47' 50.450"	W 080 05' 50.040"	25.79735	-80.09724	LNM 31/17, 7th Dist	333	11451_1	8/24/2017
11451	Delete	Anchorage Area Point 2 of 3	Anchorage Area	N 25 46' 25.420"	W 080 06' 09.460"	25.77373	-80.10263	LNM 31/17, 7th Dist	333	11451_1	8/24/2017
11451	Delete	Anchorage Area Point 3 of 3	Anchorage Area	N 25 46' 05.950"	W 080 04' 21.220"	25.76832	-80.07256	LNM 31/17, 7th Dist	333	11451_1	8/24/2017
11451	Relocate	Miami Turning Basin Articulated Light B	Art "B" Iso 6s	N 25 47' 10.628"	W 080 10' 54.572"	25.78629	-80.18182	LNM 30/17, 7th Dist	340	11451_8	8/24/2017
11451	Relocate	Miami Turning Basin Articulated Light D	Art "D" Iso 6s	N 25 47' 01.329"	W 080 11' 05.971"	25.7837	-80.18499	LNM 30/17, 7th Dist	340	11451_8	8/24/2017
11451	Delete	Dinner Key Mooring Field 4 Lighted Buoy AA	Y "AA" Fl 4s Priv	N 25 43' 00.135"	W 080 13' 00.849"	25.7167	-80.2169	LNM 30/17, 7th Dist	336	11451_4	8/24/2017
11451	Add	Dinner Key Mooring Field 4 Lighted Buoy AA	Y "AA" Fl 4s Priv	N 25 43' 08.110"	W 080 13' 50.950"	25.71892	-80.23082	LNM 30/17, 7th Dist	336	11451_4	8/24/2017
11451	Add	Dinner Key Mooring Field 4 Buoy BB	Y C "BB" Priv	N 25 43' 04.980"	W 080 13' 49.330"	25.71805	-80.23037	LNM 30/17, 7th Dist	336	11451_4	8/24/2017
11451	Add	Dinner Key Mooring Field 4 Buoy CC	Y C "CC" Priv	N 25 43' 01.850"	W 080 13' 47.710"	25.71718	-80.22992	LNM 30/17, 7th Dist	336	11451_4	8/24/2017
11451	Delete	Dinner Key Mooring Field 4 Lighted Buoy DD	Y "DD" Fl 2.5s Priv	N 25 42' 00.979"	W 080 13' 00.768"	25.70027	-80.21688	LNM 30/17, 7th Dist	336	11451_4	8/24/2017
11451	Delete	Dinner Key Mooring Field 4 Lighted Buoy DD	Y "DD" Fl 2.5s Priv	N 25 42' 00.979"	W 080 13' 00.768"	25.70027	-80.21688	LNM 30/17, 7th Dist	333	11451_1	8/24/2017
11451	Add	Dinner Key Mooring Field 4 Lighted Buoy DD	Y "DD" Fl 2.5s Priv	N 25 42' 58.750"	W 080 13' 46.090"	25.71632	-80.22947	LNM 30/17, 7th Dist	336	11451_4	8/24/2017
11451	Add	Dinner Key Mooring Field 4 Buoy EE	Y C "EE" Priv	N 25 42' 58.860"	W 080 13' 49.910"	25.71635	-80.23053	LNM 30/17, 7th Dist	336	11451_4	8/24/2017
11451	Add	Dinner Key Mooring Field 4 Lighted Buoy FF	Y "FF" Q Y Priv	N 25 42' 58.970"	W 080 13' 52.790"	25.71638	-80.23133	LNM 30/17, 7th Dist	336	11451_4	8/24/2017
11451	Add	Dinner Key Mooring Field 4 Lighted Buoy GG	Y "GG" Fl 4s Priv	N 25 43' 01.310"	W 080 13' 55.270"	25.71703	-80.23202	LNM 30/17, 7th Dist	336	11451_4	8/24/2017
11451	Add	Dinner Key Mooring Field 4 Buoy HH	Y C "HH" Priv	N 25 43' 03.290"	W 080 13' 54.590"	25.71758	-80.23183	LNM 30/17, 7th Dist	336	11451_4	8/24/2017
11451	Add	Dinner Key Mooring Field 4 Buoy II	Y C "II" Priv	N 25 43' 05.230"	W 080 13' 53.870"	25.71812	-80.23163	LNM 30/17, 7th Dist	336	11451_4	8/24/2017
11451	Relocate	Deering Channel Daybeacon 6	R "6" Priv	N 25 44' 15.400"	W 080 12' 14.700"	25.73761	-80.20409	LNM 27/17, 7th Dist	333	11451_1	7/13/2017
11451	Relocate	Lummus Island Turning Basin Light E	Fl Y 4s 16ft 4M "E"	N 25 46' 02.589"	W 080 10' 14.014"	25.76739	-80.17056	LNM 25/17, 7th Dist	340	11451_8	6/29/2017
11451	Relocate	Lummus Island Turning Basin Light E	Fl Y 4s 16ft 4M "E"	N 25 46' 02.554"	W 080 10' 13.523"	25.76738	-80.17043	LNM 22/17, 7th Dist	340	11451_8	6/22/2017
11451	Relocate	Angelfish Creek Daybeacon 12	R "12"	N 25 20' 07.104"	W 080 16' 41.489"	25.33531	-80.27819	LNM 21/17, 7th Dist	337	11451_5	6/1/2017
11451	Relocate	Angelfish Creek Daybeacon 12	R "12"	N 25 20' 07.104"	W 080 16' 41.489"	25.33531	-80.27819	LNM 21/17, 7th Dist	334	11451_2	6/1/2017
11451	Relocate	Mosquito Bank Light 35	Fl G 4s 37ft 5M "35"	N 25 04' 22.931"	W 080 23' 34.184"	25.07304	-80.39283	LNM 21/17, 7th Dist	339	11451_7	6/1/2017
11451	Relocate	Ocean Reef Harbor Entrance Light 2	Fl R 4s 16ft 5M "2"	N 25 18' 30.959"	W 080 16' 03.348"	25.3086	-80.26759	LNM 21/17, 7th Dist	337	11451_5	6/1/2017
11451	Relocate	Ocean Reef Harbor Entrance Light 2	Fl R 4s 16ft 5M "2"	N 25 18' 30.959"	W 080 16' 03.348"	25.3086	-80.26759	LNM 21/17, 7th Dist	334	11451_2	6/1/2017
11451	Relocate	Biscayne Flats Daybeacon 3	G "3"	N 25 39' 49.911"	W 080 11' 01.169"	25.66386	-80.18365	LNM 17/17, 7th Dist	333	11451_1	5/4/2017
11451	Relocate	Lummus Island Turning Basin Light B	Fl Y 4s 16ft 4M "B"	N 25 45' 53.860"	W 080 09' 58.338"	25.76496	-80.16621	LNM 13/17, 7th Dist	340	11451_8	4/13/2017
11451	Add	Bent Light	Fl 4s 25ft Priv	N 25 45' 11.048"	W 080 06' 28.821"	25.75307	-80.10801	LNM 13/17, 7th Dist	333	11451_1	4/13/2017
11451	Add	Madeira Drive Canal Daybeacon 2	R "2" Priv	N 25 05' 10.740"	W 080 25' 06.940"	25.08632	-80.41859	LNM 05/17, 7th Dist	339	11451_7	2/9/2017
11451	Change	Miami Main Channel Lighted Buoy 10	R "10" Fl R 2.5s	N 25 45' 34.904"	W 080 07' 16.078"	25.7597	-80.12113	LNM 04/17, 7th Dist	333	11451_1	2/2/2017
11451	Change	Miami Main Channel Lighted Buoy 12	R "12" Q R	N 25 45' 39.563"	W 080 07' 28.837"	25.76099	-80.12468	LNM 04/17, 7th Dist	333	11451_1	2/2/2017
11451	Change	Miami Main Channel Lighted Buoy 8	R "8" Q R	N 25 45' 30.958"	W 080 06' 58.262"	25.7586	-80.11618	LNM 04/17, 7th Dist	333	11451_1	2/2/2017
11425	Delete	Big Sarasota Pass Shoal Daybeacon D	W "D" Priv	N 27 16' 58.469"	W 082 34' 03.900"	27.28291	-82.56775	LNM 29/17, 7th Dist	161	11425_3	8/3/2017
11425	Delete	Big Sarasota Pass Shoal Daybeacon A	W "A" Priv	N 27 15' 58.000"	W 082 33' 53.000"	27.26611	-82.56472	LNM 29/17, 7th Dist	161	11425_3	8/3/2017
11425	Delete	Big Sarasota Pass Shoal Daybeacon B	W "B" Priv	N 27 16' 21.000"	W 082 34' 14.000"	27.2725	-82.57056	LNM 29/17, 7th Dist	161	11425_3	8/3/2017
11425	Relocate	Gasparilla Island Daybeacon 1	G "1" Priv	N 26 47' 17.700"	W 082 15' 21.420"	26.78825	-82.25595	LNM 29/17, 7th Dist	158	11425_1	8/3/2017
11425	Relocate	Gasparilla Island Daybeacon 2	R "2" Priv	N 26 47' 18.890"	W 082 15' 22.430"	26.78858	-82.25623	LNM 29/17, 7th Dist	158	11425_1	8/3/2017
11425	Change	New Pass Entrance Light NP	Q 16ft 4M "NP"	N 27 18' 55.113"	W 082 35' 53.168"	27.31531	-82.5981	LNM 26/17, 7th Dist	161	11425_3	6/29/2017
11425	Change	New Pass Entrance Light 7	Q 16ft 4M "7"	N 27 19' 40.886"	W 082 35' 17.541"	27.32802	-82.5882	LNM 26/17, 7th Dist	161	11425_3	6/29/2017
11425	Delete	Gasparilla Sound Channel Daybeacon 22	R "22"	N 26 49' 40.876"	W 082 16' 17.459"	26.82802	-82.27151	LNM 26/17, 7th Dist	158	11425_1	6/29/2017
11425	Add	Bay Heights Daybeacon 1	G "1" Priv	N 26 56' 38.829"	W 082 21' 12.141"	26.94412	-82.35337	LNM 25/17, 7th Dist	158	11425_1	6/29/2017
11425	Relocate	Siesta Key - Tampa Bay Buoy 38A	R N "38A"	N 27 26' 14.177"	W 082 40' 28.084"	27.43727	-82.67447	LNM 16/17, 7th Dist	161	11425_3	4/27/2017
11425	Relocate	Siesta Key - Tampa Bay Buoy 39	G C "39"	N 27 26' 13.981"	W 082 40' 29.237"	27.43722	-82.67479	LNM 16/17, 7th Dist	161	11425_3	4/27/2017
11425	Delete	Gasparilla Island Light	Iso 6s 105ft 10M	N 26 44' 31.275"	W 082 15' 48.377"	26.74202	-82.26344	LNM 15/17, 7th Dist	158	11425_1	4/27/2017
11425	Delete	Longboat Pass Daybeacon 1	G "1"	N 27 26' 05.560"	W 082 41' 50.380"	27.43488	-82.69733	LNM 12/17, 7th Dist	161	11425_3	4/27/2017
11425	Delete	Longboat Pass Daybeacon 2	R "2"	N 27 25' 56.232"	W 082 41' 40.045"	27.43229	-82.69446	LNM 12/17, 7th Dist	161	11425_3	4/27/2017
11425	Delete	Longboat Pass Daybeacon 3	G "3"	N 27 26' 24.900"	W 082 41' 40.510"	27.44025	-82.69459	LNM 12/17, 7th Dist	161	11425_3	4/27/2017
11425	Relocate	Longboat Pass Danger Shoal Light	Q 16ft 4M	N 27 25' 50.877"	W 082 41' 50.851"	27.4308	-82.69746	LNM 10/17, 7th Dist	161	11425_3	3/16/2017
11425	Change	New Pass Channel Light NP	Mo (A) 16ft 6M "NP"	N 27 18' 55.113"	W 082 35' 53.168"	27.31531	-82.5981	LNM 06/17, 7th Dist	161	11425_3	2/23/2017
11425	Delete	Longboat Pass Approach Light LP	Mo (A) 16ft 6M "LP"	N 27 25' 50.747"	W 082 41' 40.341"	27.43076	-82.69454	LNM 05/17, 7th Dist	161	11425_3	2/9/2017
11425	Add	Longboat Pass Channel Approach Lighted Buoy LP	RW "LP" Mo (A)	N 27 26' 06.005"	W 082 42' 10.046"	27.435	-82.70279	LNM 05/17, 7th Dist	161	11425_3	2/9/2017
11425	Add	Longboat Pass Danger Shoal Light	Q 16ft 4M	N 27 25' 50.747"	W 082 41' 40.341"	27.43076	-82.69454	LNM 05/17, 7th Dist	161	11425_3	2/9/2017
11425	Delete	Depth Note - BOCA GRANDE CHANNEL to:	BOCA GRANDE CHANNEL (entering from seaward) Surveyed Oct. 2014 Left quarter...8.0 ft, Middle half...8.0 ft, Right quarter...11.7 ft, Widener...18.5 ft	N 26 43' 33.000"	W 082 17' 39.700"	26.72583	-82.29436	LNM 03/17, 7th Dist	158	11425_1	1/12/2017
11425	Delete	Note	(see note)	N 26 41' 28.500"	W 082 18' 10.700"	26.69125	-82.30297	LNM 03/17, 7th Dist	158	11425_1	1/12/2017
11425	Add	Note	(see note E)	N 26 41' 28.500"	W 082 18' 10.700"	26.69125	-82.30297	LNM 03/17, 7th Dist	158	11425_1	1/12/2017
11425	Delete	Channel Limits PT 1 OF 6	Chart No. 1: I20	N 26 41' 20.980"	W 082 18' 23.910"	26.68916	-82.30664	LNM 03/17, 7th Dist	158	11425_1	1/12/2017
11425	Delete	Channel Limits PT 2 OF 6	Chart No. 1: I20	N 26 41' 58.470"	W 082 17' 53.920"	26.69958	-82.29831	LNM 03/17, 7th Dist	158	11425_1	1/12/2017
11425	Delete	Channel Limits PT 3 OF 6	Chart No. 1: I20	N 26 42' 33.960"	W 082 16' 19.800"	26.70943	-82.27216	LNM 03/17, 7th Dist	158	11425_1	1/12/2017
11425	Delete	Channel Limits PT 4 OF 6	Chart No. 1: I20	N 26 41' 19.200"	W 082 18' 21.000"	26.68867	-82.30583	LNM 03/17, 7th Dist	158	11425_1	1/12/2017
11425	Delete	Channel Limits PT 5 OF 6	Chart No. 1: I20	N 26 41' 56.170"	W 082 17' 51.400"	26.69894	-82.29761	LNM 03/17, 7th Dist	158	11425_1	1/12/2017
11425	Delete	Channel Limits PT 6 OF 6	Chart No. 1: I20	N 26 42' 31.340"	W 082 16' 18.370"	26.70871	-82.27177	LNM 03/17, 7th Dist	158	11425_1	1/12/2017
11425	Add	Note	(see note E)	N 26 42' 41.040"	W 082 16' 22.210"	26.7114	-82.27283	LNM 03/17, 7th Dist	158	11425_1	1/12/2017
11425	Delete	Channel Limits PT 1 OF 2	Chart No. 1: I20	N 26 41' 44.390"	W 082 18' 00.840"	26.69566	-82.30023	LNM 03/17, 7th Dist	158	11425_1	1/12/2017
11425	Delete	Channel Limits PT 2 OF 2	Chart No. 1: I20	N 26 42' 02.020"	W 082 17' 35.930"	26.70056	-82.29331	LNM 03/17, 7th Dist	158	11425_1	1/12/2017
11426	Relocate	Jug Creek Channel Daybeacon 1	G "1" Priv	N 26 42' 06.209"	W 082 10' 55.653"	26.70173	-82.18213	LNM 35/17, 7th Dist	371	11426_1	Not Yet
11426	Relocate	Jug Creek Channel Daybeacon 2	R "2" Priv	N 26 42' 05.363"	W 082 10' 55.948"	26.70149	-82.18221	LNM 35/17, 7th Dist	371	11426_1	Not Yet
11426	Delete	Channel Limits PT 1 OF 5	Chart No. 1: I20	N 26 27' 59.830"	W 081 58' 02.990"	26.46662	-81.9675	LNM 35/17, 7th Dist	371	11426_1	8/24/2017
11426	Delete	Channel Limits PT 2 OF 5	Chart No. 1: I20	N 26 27' 52.760"	W 081 58' 12.250"	26.46465	-81.97007	LNM 35/17, 7th Dist	371	11426_1	8/24/2017
11426	Delete	Channel Limits PT 3 OF 5	Chart No. 1: I20	N 26 27' 57.780"	W 081 58' 01.880"	26.46605	-81.96719	LNM 35/17, 7th Dist	371	11426_1	8/24/2017
11426	Delete	Channel Limits PT 4 OF 5	Chart No. 1: I20	N 26 27' 56.910"	W 081 58' 04.250"	26.46581	-81.96785	LNM 35/17, 7th Dist	371	11426_1	8/24/2017
11426	Delete	Channel Limits PT 5 OF 5	Chart No. 1: I20	N 26 27' 51.540"	W 081 58' 11.300"	26.46432	-81.9698	LNM 35/17, 7th Dist	371	11426_1	8/24/2017
11426	Relocate	New Pass Buoy 4	R N  "4" Priv	N 26 22' 39.596"	W 081 52' 09.958"	26.37767	-81.86943	LNM 31/17, 7th Dist	371	11426_1	8/24/2017
11426	Relocate	New Pass Lighted Buoy 1	G "1" Fl G 2.5s Priv	N 26 22' 27.831"	W 081 52' 34.683"	26.3744	-81.8763	LNM 31/17, 7th Dist	371	11426_1	8/24/2017
11426	Relocate	New Pass Lighted Buoy 2	R "2" Fl R 2.5s Priv	N 26 22' 31.591"	W 081 52' 25.805"	26.37544	-81.87383	LNM 31/17, 7th Dist	371	11426_1	8/24/2017
11426	Add	Matlacha Pass Daybeacon 38A	R "38A" Priv	N 26 35' 20.407"	W 082 03' 57.754"	26.589	-82.06604	LNM 31/17, 7th Dist	371	11426_1	8/24/2017
11426	Relocate	Gasparilla Island Daybeacon 1	G "1" Priv	N 26 47' 17.700"	W 082 15' 21.420"	26.78825	-82.25595	LNM 29/17, 7th Dist	371	11426_1	8/3/2017
11426	Relocate	Gasparilla Island Daybeacon 2	R "2" Priv	N 26 47' 18.890"	W 082 15' 22.430"	26.78858	-82.25623	LNM 29/17, 7th Dist	371	11426_1	8/3/2017
11426	Delete	Bunche Beach Channel Daybeacon 1	G "1" Priv	N 26 28' 01.000"	W 081 57' 50.000"	26.46694	-81.96389	LNM 29/17, 7th Dist	371	11426_1	8/3/2017
11426	Relocate	Pine Island Sound Daybeacon 38	R "38"	N 26 32' 58.724"	W 082 10' 02.657"	26.54965	-82.1674	LNM 24/17, 7th Dist	371	11426_1	6/22/2017
11426	Relocate	Matlacha Pass Daybeacon 7	G "7" Priv	N 26 30' 26.458"	W 082 03' 36.750"	26.50735	-82.06021	LNM 21/17, 7th Dist	371	11426_1	6/1/2017
11426	Delete	Gasparilla Island Light	Iso 6s 105ft 10M	N 26 44' 31.275"	W 082 15' 48.377"	26.74202	-82.26344	LNM 15/17, 7th Dist	371	11426_1	4/27/2017
11426	Relocate	Caloosahatchee River Light 101	Q G 16ft 4M "101"	N 26 30' 40.214"	W 082 00' 59.499"	26.51117	-82.01653	LNM 10/17, 7th Dist	371	11426_1	3/16/2017
11426	Change	San Carlos Bay Channel Light 4	Q R 16ft 4M "4"	N 26 27' 06.751"	W 081 58' 40.591"	26.45188	-81.97794	LNM 07/17, 7th Dist	371	11426_1	2/23/2017
11426	Add	Obstruction	Obstn PA (rep 12 ft)         Chart No. 1: K40	N 26 18' 49.680"	W 082 01' 25.740"	26.3138	-82.02382	LNM 07/17, 7th Dist	371	11426_1	2/23/2017
11426	Delete	Depth Note - BOCA GRANDE CHANNEL to:	BOCA GRANDE CHANNEL (entering from seaward) Surveyed Oct. 2014 Left quarter...8.0 ft, Middle half...8.0 ft, Right quarter...11.7 ft, Widener...18.5 ft	N 26 40' 38.600"	W 082 24' 07.000"	26.67739	-82.40195	LNM 03/17, 7th Dist	371	11426_1	1/12/2017
11426	Delete	Channel Limits PT 1 OF 6	Chart No. 1: I20	N 26 41' 20.980"	W 082 18' 23.910"	26.68916	-82.30664	LNM 03/17, 7th Dist	371	11426_1	1/12/2017
11426	Delete	Channel Limits PT 2 OF 6	Chart No. 1: I20	N 26 41' 58.470"	W 082 17' 53.920"	26.69958	-82.29831	LNM 03/17, 7th Dist	371	11426_1	1/12/2017
11426	Delete	Channel Limits PT 3 OF 6	Chart No. 1: I20	N 26 42' 33.960"	W 082 16' 19.800"	26.70943	-82.27216	LNM 03/17, 7th Dist	371	11426_1	1/12/2017
11426	Delete	Channel Limits PT 4 OF 6	Chart No. 1: I20	N 26 41' 19.200"	W 082 18' 21.000"	26.68867	-82.30583	LNM 03/17, 7th Dist	371	11426_1	1/12/2017
11426	Delete	Channel Limits PT 5 OF 6	Chart No. 1: I20	N 26 41' 56.170"	W 082 17' 51.400"	26.69894	-82.29761	LNM 03/17, 7th Dist	371	11426_1	1/12/2017
11426	Delete	Channel Limits PT 6 OF 6	Chart No. 1: I20	N 26 42' 31.340"	W 082 16' 18.370"	26.70871	-82.27177	LNM 03/17, 7th Dist	371	11426_1	1/12/2017
11426	Delete	Channel Limits PT 1 OF 2	Chart No. 1: I20	N 26 41' 44.390"	W 082 18' 00.840"	26.69566	-82.30023	LNM 03/17, 7th Dist	371	11426_1	1/12/2017
11426	Delete	Channel Limits PT 2 OF 2	Chart No. 1: I20	N 26 42' 02.020"	W 082 17' 35.930"	26.70056	-82.29331	LNM 03/17, 7th Dist	371	11426_1	1/12/2017
11426	Change	Pine Island Sound Light 23	Fl G 4s 16ft 5M "23"	N 26 29' 17.160"	W 082 07' 37.095"	26.4881	-82.12697	LNM 38/16, 7th Dist	371	11426_1	9/29/2016
11426	Change	Jug Creek Shoal Light 8	Fl R 4s 16ft 5M "8"	N 26 42' 15.956"	W 082 11' 03.545"	26.70443	-82.18432	LNM 32/16, 7th Dist	371	11426_1	8/18/2016
11426	Relocate	Pine Island Sound Light 76	Fl R 2.5s 15ft 5M "76"	N 26 42' 28.730"	W 082 14' 31.693"	26.70798	-82.24213	LNM 21/16, 7th Dist	371	11426_1	6/2/2016
11426	Relocate	Pine Island Sound Daybeacon 4	R "4"	N 26 30' 04.981"	W 082 02' 06.494"	26.50138	-82.03514	LNM 21/16, 7th Dist	371	11426_1	6/2/2016
11426	Add	South Bridge Waterway Daybeacon 4	R "4" Priv	N 26 56' 43.600"	W 082 02' 27.000"	26.94544	-82.04083	LNM 15/16, 7th Dist	372	11426_2	4/21/2016
11426	Add	South Bridge Waterway Daybeacon 6	R "6" Priv	N 26 56' 43.400"	W 082 02' 22.200"	26.94539	-82.0395	LNM 15/16, 7th Dist	372	11426_2	4/21/2016
11426	Add	South Bridge Waterway Daybeacon 8	R "8" Priv	N 26 56' 43.300"	W 082 02' 18.700"	26.94536	-82.03853	LNM 15/16, 7th Dist	372	11426_2	4/21/2016
11446	Add	Obstruction in Feet	18 Obstn       Chart No. 1: K41	N 24 27' 29.900"	W 081 52' 06.000"	24.45831	-81.86833	LNM 12/17, 7th Dist	330	11446_1	3/16/2017
11446	Change	Boca Chica Channel Light 16	Fl R 4s 16ft 5M "16"	N 24 34' 24.024"	W 081 42' 41.549"	24.57334	-81.71154	LNM 49/16, 7th Dist	330	11446_1	12/15/2016
11446	Add	Tug Tilly Lighted Buoy T	RB "T" Fl (2) 5s	N 24 31' 13.213"	W 081 49' 52.678"	24.52034	-81.8313	LNM 36/16, 7th Dist	330	11446_1	9/15/2016
11446	Change	Boca Chica Channel Light 8	Fl R 4s 16ft 5M "8"	N 24 33' 45.023"	W 081 43' 03.850"	24.56251	-81.71774	LNM 34/16, 7th Dist	330	11446_1	9/1/2016
11446	Delete	Dangerous Wreck	PA	N 24 30' 35.156"	W 081 50' 27.322"	24.50977	-81.84092	LNM 30/16, 7th Dist	330	11446_1	7/28/2016
11446	Change	Key West Main Channel Cut A Range Rear Light	Iso 6s 50ft	N 24 33' 35.977"	W 081 50' 20.610"	24.55999	-81.83906	LNM 24/16, 7th Dist	330	11446_1	6/30/2016
11446	Relocate	Key West Main Channel Cut A Range Front Light	Q 35ft	N 24 33' 12.007"	W 081 50' 02.428"	24.55334	-81.83401	LNM 23/16, 7th Dist	330	11446_1	6/16/2016
11446	Change	Key West Main Channel Cut A Range Front Light	Q 10ft	N 24 33' 12.007"	W 081 50' 02.428"	24.55334	-81.83401	LNM 23/16, 7th Dist	330	11446_1	6/16/2016
11446	Change	Garrison Bight Channel Light 8	Fl R 4s 12ft 5M "8"	N 24 35' 39.947"	W 081 48' 01.585"	24.59443	-81.80044	LNM 12/16, 7th Dist	330	11446_1	3/31/2016
11446	Change	Key West Northwest Channel Jetty Light A	Q Y 18ft 4M "A"	N 24 38' 27.737"	W 081 53' 34.035"	24.64104	-81.89278	LNM 11/16, 7th Dist	330	11446_1	3/24/2016
11446	Delete	Cow Key Obstruction Daybeacon 1	G "1"	N 24 34' 42.000"	W 081 45' 18.000"	24.57833	-81.755	LNM 11/16, 7th Dist	330	11446_1	3/24/2016
11446	Delete	Fleming Key Buoy 1	G C "1"	N 24 34' 31.421"	W 081 48' 03.828"	24.5754	-81.80106	LNM 06/16, 7th Dist	330	11446_1	2/18/2016
11446	Change	Key West Main Channel Turning Basin Light 27	Fl G 4s 16ft 5M "27"	N 24 34' 02.078"	W 081 48' 28.277"	24.56724	-81.80785	LNM 49/15, 7th Dist	330	11446_1	12/17/2015
11446	Add	Visible Wreck	PA	N 24 32' 43.320"	W 081 45' 54.180"	24.54537	-81.76505	LNM 49/15, 7th Dist	330	11446_1	12/17/2015
11446	Delete	Double Line Pier PT 1 OF 4	Chart No. 1: F14	N 24 33' 18.920"	W 081 48' 36.270"	24.55526	-81.81007	LNM 47/15, 7th Dist	330	11446_1	11/19/2015
11446	Delete	Double Line Pier PT 2 OF 4	Chart No. 1: F14	N 24 33' 19.950"	W 081 48' 35.520"	24.55554	-81.80987	LNM 47/15, 7th Dist	330	11446_1	11/19/2015
11446	Delete	Double Line Pier PT 3 OF 4	Chart No. 1: F14	N 24 33' 19.700"	W 081 48' 35.000"	24.55547	-81.80972	LNM 47/15, 7th Dist	330	11446_1	11/19/2015
11446	Delete	Double Line Pier PT 4 OF 4	Chart No. 1: F14	N 24 33' 18.580"	W 081 48' 35.600"	24.55516	-81.80989	LNM 47/15, 7th Dist	330	11446_1	11/19/2015
11446	Add	Double Line Pier PT 1 OF 2	Chart No. 1: F14	N 24 33' 19.000"	W 081 48' 36.500"	24.55528	-81.81014	LNM 47/15, 7th Dist	330	11446_1	11/19/2015
11446	Add	Double Line Pier PT 2 OF 2	Chart No. 1: F14	N 24 33' 18.600"	W 081 48' 35.600"	24.55517	-81.80989	LNM 47/15, 7th Dist	330	11446_1	11/19/2015
11446	Add	Dolphin	Dol   Chart No. 1: F20	N 24 33' 13.800"	W 081 48' 40.800"	24.55383	-81.81133	LNM 47/15, 7th Dist	330	11446_1	11/19/2015
11446	Delete	American Shoal Light	Fl (3) 15s 109ft 10M RACON (_-__)	N 24 31' 30.422"	W 081 31' 09.898"	24.52512	-81.51942	LNM 36/15, 7th Dist	330	11446_1	9/17/2015
11446	Add	Abandoned Light House	TOWER (ABAND LT HO)	N 24 31' 30.422"	W 081 31' 09.898"	24.52512	-81.51942	LNM 36/15, 7th Dist	330	11446_1	9/17/2015
11446	Delete	Key West Southwest Channel Buoy 4	R N "4"	N 24 29' 32.649"	W 081 53' 25.646"	24.4924	-81.89046	LNM 28/15, 7th Dist	330	11446_1	7/23/2015
11446	Change	Stock Island Approach Channel Light 32	Fl R 2.5s 19ft 5M "32"	N 24 28' 28.951"	W 081 44' 31.725"	24.47471	-81.74215	LNM 22/15, 7th Dist	330	11446_1	6/4/2015
11446	Relocate	Garrison Bight Channel Daybeacon 10	R "10"	N 24 35' 44.537"	W 081 47' 57.542"	24.59571	-81.79932	LNM 22/15, 7th Dist	330	11446_1	6/4/2015
11446	Delete	Fort Taylor Southwest Obstruction Daybeacon	W Bn Priv	N 24 32' 40.000"	W 081 48' 42.000"	24.54445	-81.81167	LNM 21/15, 7th Dist	330	11446_1	6/4/2015
11446	Change	Garrison Bight Channel Light 17	Fl G 4s 13ft 5M "17"	N 24 35' 32.605"	W 081 47' 35.473"	24.59239	-81.79319	LNM 14/15, 7th Dist	330	11446_1	4/16/2015
11446	Change	Garrison Bight Channel Light 13	Fl G 4s 16ft 5M "13"	N 24 35' 49.532"	W 081 47' 51.095"	24.59709	-81.79752	LNM 08/15, 7th Dist	330	11446_1	3/5/2015
11446	Add	Key West Main Channel Lighted Buoy 15 Magenta Circle	G "15" Fl G 4s AIS	N 24 32' 55.235"	W 081 48' 55.915"	24.54868	-81.81553	LNM 08/15, 7th Dist	330	11446_1	3/5/2015
11446	Add	Key West Main Channel Lighted Buoy 23 Magenta Circle	G "23" Fl G 4s AIS	N 24 33' 37.096"	W 081 48' 35.080"	24.5603	-81.80975	LNM 08/15, 7th Dist	330	11446_1	3/5/2015
11446	Add	Key West Main Channel Lighted Buoy 8 Magenta Circle	R "8" Q R AIS	N 24 30' 59.314"	W 081 48' 15.570"	24.51648	-81.80432	LNM 08/15, 7th Dist	330	11446_1	3/5/2015
11446	Add	Key West Main Channel Lighted Buoy 9 Magenta Circle	G "9" Fl G 4s AIS	N 24 31' 42.813"	W 081 49' 00.191"	24.52856	-81.81672	LNM 08/15, 7th Dist	330	11446_1	3/5/2015
11446	Change	Nine-Foot Shoal Light	Fl 2.5s 18ft 5M	N 24 34' 09.069"	W 081 33' 06.768"	24.56919	-81.55188	LNM 06/15, 7th Dist	330	11446_1	2/19/2015
11446	Change	Key West Northwest Channel Light 14	Fl R 6s 16ft 5M "14"	N 24 35' 26.007"	W 081 51' 12.645"	24.59056	-81.85352	LNM 52/14, 7th Dist	330	11446_1	1/8/2015
11446	Add	Visible Wreck	PA	N 24 31' 13.199"	W 081 49' 50.819"	24.52033	-81.83078	LNM 49/14, 7th Dist	330	11446_1	12/18/2014
11446	Add	Visible Wreck	PA	N 24 33' 03.540"	W 081 43' 27.360"	24.55098	-81.72427	LNM 48/14, 7th Dist	330	11446_1	12/11/2014
11446	Delete	Sounding in Feet	23	N 24 33' 04.500"	W 081 48' 32.000"	24.55125	-81.80889	LNM 49/14, 7th Dist	330	11446_1	12/4/2014
11446	Add	Sounding in Feet	34	N 24 33' 04.500"	W 081 48' 32.000"	24.55125	-81.80889	LNM 49/14, 7th Dist	330	11446_1	12/4/2014
11446	Change	Key West Northwest Channel Light 18	Fl R 2.5s 16ft 5M "18"	N 24 33' 28.234"	W 081 49' 42.757"	24.55784	-81.82854	LNM 46/14, 7th Dist	330	11446_1	11/27/2014
11446	Delete	Restricted Area PT 1 OF 5	Chart No. 1: N2.1 or N2.2	N 24 35' 43.220"	W 081 41' 58.300"	24.59534	-81.69953	LNM 46/14, 7th Dist	330	11446_1	11/20/2014
11446	Delete	Restricted Area PT 2 OF 5	Chart No. 1: N2.1 or N2.2	N 24 35' 45.380"	W 081 41' 53.660"	24.59594	-81.69824	LNM 46/14, 7th Dist	330	11446_1	11/20/2014
11446	Delete	Restricted Area PT 3 OF 5	Chart No. 1: N2.1 or N2.2	N 24 35' 33.200"	W 081 41' 47.180"	24.59256	-81.69644	LNM 46/14, 7th Dist	330	11446_1	11/20/2014
11446	Delete	Restricted Area PT 4 OF 5	Chart No. 1: N2.1 or N2.2	N 24 35' 25.180"	W 081 41' 39.510"	24.59033	-81.69431	LNM 46/14, 7th Dist	330	11446_1	11/20/2014
11446	Delete	Restricted Area PT 5 OF 5	Chart No. 1: N2.1 or N2.2	N 24 35' 18.220"	W 081 41' 38.290"	24.58839	-81.69397	LNM 46/14, 7th Dist	330	11446_1	11/20/2014
11446	Change	Restricted Zone Label	DANGER ZONE 334.610 (see note A)	N 24 35' 42.120"	W 081 41' 29.900"	24.59503	-81.69164	LNM 46/14, 7th Dist	330	11446_1	11/20/2014
11446	Add	Danger Zone PT 1 OF 4	Chart No. 1: N1.2 or N2.2	N 24 35' 43.400"	W 081 41' 58.180"	24.59539	-81.69949	LNM 46/14, 7th Dist	330	11446_1	11/20/2014
11446	Add	Danger Zone PT 2 OF 4	Chart No. 1: N1.2 or N2.2	N 24 36' 25.040"	W 081 41' 57.520"	24.60696	-81.69931	LNM 46/14, 7th Dist	330	11446_1	11/20/2014
11446	Add	Danger Zone PT 3 OF 4	Chart No. 1: N1.2 or N2.2	N 24 36' 18.860"	W 081 41' 25.540"	24.60524	-81.69043	LNM 46/14, 7th Dist	330	11446_1	11/20/2014
11446	Add	Danger Zone PT 4 OF 4	Chart No. 1: N1.2 or N2.2	N 24 35' 29.840"	W 081 41' 48.760"	24.59162	-81.69688	LNM 46/14, 7th Dist	330	11446_1	11/20/2014
11446	Delete	Danger Zone PT 1 OF 4	Chart No. 1: N1.2 or N2.2	N 24 35' 43.710"	W 081 41' 58.810"	24.59547	-81.69967	LNM 46/14, 7th Dist	330	11446_1	11/20/2014
11446	Delete	Danger Zone PT 2 OF 4	Chart No. 1: N1.2 or N2.2	N 24 36' 23.570"	W 081 41' 58.100"	24.60655	-81.69947	LNM 46/14, 7th Dist	330	11446_1	11/20/2014
11446	Delete	Danger Zone PT 3 OF 4	Chart No. 1: N1.2 or N2.2	N 24 36' 17.450"	W 081 41' 26.300"	24.60485	-81.69064	LNM 46/14, 7th Dist	330	11446_1	11/20/2014
11446	Delete	Danger Zone PT 4 OF 4	Chart No. 1: N1.2 or N2.2	N 24 35' 29.310"	W 081 41' 48.900"	24.59147	-81.69691	LNM 46/14, 7th Dist	330	11446_1	11/20/2014
11446	Change	Garrison Bight Channel Light 21	Fl G 4s 16ft 5M "21"	N 24 33' 53.642"	W 081 46' 55.621"	24.5649	-81.78212	LNM 32/14, 7th Dist	330	11446_1	8/21/2014
11446	Relocate	Key West Main Channel Turning Basin Light 27	Fl G 4s 16ft 4M "27"	N 24 34' 02.078"	W 081 48' 28.277"	24.56724	-81.80785	LNM 28/14, 7th Dist	330	11446_1	7/24/2014
11446	Delete	Sand Key Light	Fl (2) 15s 109ft 11M RACON (_.)	N 24 27' 20.941"	W 081 52' 38.313"	24.45582	-81.87731	LNM 26/14, 7th Dist	330	11446_1	7/17/2014
11446	Add	Abandoned Light House	TOWER (ABAND LT HO)	N 24 27' 20.941"	W 081 52' 38.313"	24.45582	-81.87731	LNM 26/14, 7th Dist	330	11446_1	7/17/2014
11446	Add	Sand Key Light	Fl (2) 15s 40ft 13M	N 24 27' 20.941"	W 081 52' 38.313"	24.45582	-81.87731	LNM 26/14, 7th Dist	330	11446_1	7/17/2014
11446	Add	Visible Wreck	PA	N 24 30' 35.580"	W 081 50' 27.240"	24.50988	-81.8409	LNM 20/14, 7th Dist	330	11446_1	5/29/2014
11446	Delete	Calda Channel Shoal Daybeacon	W Bn	N 24 36' 19.673"	W 081 48' 22.513"	24.60546	-81.80625	LNM 15/14, 7th Dist	330	11446_1	5/1/2014
11446	Add	Calda Channel Daybeacon 20A	R "20A"	N 24 36' 19.673"	W 081 48' 22.513"	24.60546	-81.80625	LNM 15/14, 7th Dist	330	11446_1	5/1/2014
11446	Relocate	Calda Channel Buoy 20	R N "20"	N 24 36' 22.214"	W 081 48' 21.322"	24.60617	-81.80592	LNM 14/14, 7th Dist	330	11446_1	4/17/2014
11446	Change	Key West Northwest Channel Light 19	Fl G 4s 16ft 5M "19"	N 24 33' 40.473"	W 081 49' 14.129"	24.56124	-81.82059	LNM 14/14, 7th Dist	330	11446_1	4/17/2014
11446	Delete	Fleming Key Daybeacon 6	R "6" 	N 24 34' 29.850"	W 081 47' 58.150"	24.57496	-81.79948	LNM 02/14, 7th Dist	330	11446_1	1/30/2014
11446	Delete	Fleming Key Range Front Daybeacon	RW Bn PA Navy	N 24 34' 34.000"	W 081 47' 46.300"	24.57611	-81.7962	LNM 02/14, 7th Dist	330	11446_1	1/30/2014
11446	Delete	Fleming Key Range Rear Daybeacon	RW Bn PA Navy	N 24 34' 34.500"	W 081 47' 45.200"	24.57625	-81.79589	LNM 02/14, 7th Dist	330	11446_1	1/30/2014
11446	Add	Fleming Key Buoy 1	G C "1"	N 24 34' 31.421"	W 081 48' 03.828"	24.5754	-81.80106	LNM 02/14, 7th Dist	330	11446_1	1/30/2014
11446	Add	Dangerous Wreck 	Masts PA	N 24 30' 31.200"	W 081 44' 24.180"	24.50867	-81.74005	LNM 39/13, 7th Dist	330	11446_1	10/11/2013
11446	Relocate	Key West Main Channel Daybeacon 21	G "21"	N 24 33' 40.343"	W 081 48' 41.122"	24.56121	-81.81142	LNM 33/13, 7th Dist	330	11446_1	8/22/2013
11446	Change	Key West Northwest Channel Light 15A	Fl G 4s 14ft 5M "15A"	N 24 34' 54.987"	W 081 50' 24.966"	24.58194	-81.84027	LNM 31/13, 7th Dist	330	11446_1	8/19/2013
11446	Delete	Key West Southwest Channel Buoy D	RW C "D"	N 24 30' 25.537"	W 081 52' 22.835"	24.50709	-81.87301	LNM 27/13, 7th Dist	330	11446_1	8/15/2013
11446	Delete	Key West Southwest Channel Buoy E	RW C "E"	N 24 31' 11.534"	W 081 51' 02.333"	24.51987	-81.85065	LNM 27/13, 7th Dist	330	11446_1	8/15/2013
11446	Delete	Key West Southwest Channel Buoy F	RW C "F"	N 24 32' 01.533"	W 081 49' 46.832"	24.53376	-81.82967	LNM 27/13, 7th Dist	330	11446_1	8/15/2013
11446	Delete	Sand Key Preferred Channel Buoy	RG N	N 24 30' 34.736"	W 081 50' 25.433"	24.50965	-81.8404	LNM 27/13, 7th Dist	330	11446_1	8/15/2013
11446	Change	Garrison Bight Channel Approach Light 2	Fl R 16ft 16ft 5M "2"	N 24 35' 04.020"	W 081 48' 16.751"	24.58445	-81.80465	LNM 26/13, 7th Dist	330	11446_1	7/30/2013
11446	Change	Safe Harbor Channel Light 3	Fl G 6s 5M "3"	N 24 32' 47.905"	W 081 43' 59.423"	24.54664	-81.73317	LNM 22/13, 7th Dist	330	11446_1	6/20/2013
11446	Change	Calda Channel Light 1	Fl G 4s 16ft 5M "1"	N 24 37' 48.055"	W 081 49' 34.071"	24.63001	-81.82613	LNM 21/13, 7th Dist	330	11446_1	6/4/2013
11446	Change	Key West Northwest Channel Light 10	Fl R 4s 12ft 5M "10"	N 24 36' 54.581"	W 081 52' 34.256"	24.61516	-81.87618	LNM 21/13, 7th Dist	330	11446_1	6/4/2013
11446	Change	Safe Harbor Channel Light 4	Fl R 2.5s 16ft 5M "4"	N 24 33' 06.084"	W 081 43' 59.394"	24.55169	-81.73316	LNM 20/13, 7th Dist	330	11446_1	5/30/2013
11446	Delete	Fleming Key Daybeacon 2	R "2" PA Navy	N 24 34' 29.850"	W 081 47' 58.150"	24.57496	-81.79948	LNM 18/13, 7th Dist	330	11446_1	5/30/2013
11446	Add	Fleming Key Daybeacon 6	R "6"	N 24 34' 29.850"	W 081 47' 58.150"	24.57496	-81.79948	LNM 18/13, 7th Dist	330	11446_1	5/30/2013
11446	Change	Boca Chica Channel Light 1	Fl G 4s 16ft 5M "1"	N 24 32' 46.728"	W 081 43' 34.479"	24.54631	-81.72624	LNM 13/13, 7th Dist	330	11446_1	4/8/2013
11446	Change	Garrison Bight Channel Light 3	Fl G 4s 16ft 5M "3"	N 24 35' 21.867"	W 081 48' 16.049"	24.58941	-81.80446	LNM 13/13, 7th Dist	330	11446_1	4/8/2013
11401	Change	Depth Legend - Bob Sikes Pass to:	3 FT FOR A MID-WIDTH OF 50-100 FT JAN 2017	N 29 36' 55.500"	W 084 57' 35.900"	29.61542	-84.95997	LNM 29/17, 8th Dist	167	11401_1	7/13/2017
11401	Delete	St George Island Range Rear Light	Iso G 6s 36ft	N 29 37' 46.802"	W 084 58' 03.741"	29.62967	-84.9677	LNM 20/17, 8th Dist	167	11401_1	6/1/2017
11401	Delete	St George Island Range Front Light	Q G 20ft	N 29 37' 28.773"	W 084 57' 53.942"	29.62466	-84.96498	LNM 20/17, 8th Dist	167	11401_1	6/1/2017
11401	Change	Depth Legend - Two Mile Extension and Parallel Channel to:	1 FT BY 100 FT AUG 2016	N 29 42' 44.900"	W 085 01' 01.500"	29.71247	-85.01708	LNM 05/17, 8th Dist	167	11401_1	2/2/2017
11401	Change	Depth Legend - Two Mile Extension and Parallel Channel to:	3 FT FOR MID 50 FT AUG 2016	N 29 42' 49.500"	W 084 59' 41.000"	29.71375	-84.99472	LNM 05/17, 8th Dist	167	11401_1	2/2/2017
11401	Change	Depth Note - APALACHICOLA BAY TWO MILE ENTRANCE CHANNEL to:	APALACHICOLA BAY TWO MILE ENTRANCE CHANNEL The controlling depth was 5 feet for a width of 100 feet from Lt. "1" to buoy "4", thence 2 feet to the apex. Aug 2016	N 29 43' 55.000"	W 085 03' 34.500"	29.73195	-85.05959	LNM 05/17, 8th Dist	167	11401_1	2/2/2017
11401	Relocate	Port St. Joe Lighted Mooring Buoy	Fl 2.5s Priv	N 29 48' 32.580"	W 085 30' 22.340"	29.80905	-85.5062	LNM 43/16, 8th Dist	167	11401_1	11/3/2016
11401	Delete	St George Island Daybeacon 3	G "3" Ra Ref	N 29 37' 17.483"	W 084 57' 49.263"	29.62152	-84.96368	LNM 15/16, 8th Dist	167	11401_1	4/21/2016
11401	Delete	St George Island Daybeacon 4	R "4" Ra Ref	N 29 37' 18.775"	W 084 57' 45.672"	29.62188	-84.96268	LNM 15/16, 8th Dist	167	11401_1	4/21/2016
11401	Add	ST GEORGE ISLAND LIGHTED BUOY 3	G "3" Fl G 2.5s	N 29 37' 07.222"	W 084 57' 44.027"	29.61867	-84.96223	LNM 15/16, 8th Dist	167	11401_1	4/21/2016
11401	Add	ST GEORGE ISLAND LIGHTED BUOY 4	R "4" Fl R 2.5s	N 29 37' 07.408"	W 084 57' 42.223"	29.61872	-84.96173	LNM 15/16, 8th Dist	167	11401_1	4/21/2016
11401	Add	ST GEORGE ISLAND LIGHTED BUOY 5	G "5" Fl G 4s	N 29 37' 19.710"	W 084 57' 50.007"	29.62214	-84.96389	LNM 15/16, 8th Dist	167	11401_1	4/21/2016
11401	Add	ST GEORGE ISLAND LIGHTED BUOY 6	R "6" Fl R 4s 	N 29 37' 20.193"	W 084 57' 48.114"	29.62228	-84.96336	LNM 15/16, 8th Dist	167	11401_1	4/21/2016
11401	Delete	Two Mile Channel Daybeacon 9	G "9"	N 29 42' 44.261"	W 085 00' 48.453"	29.7123	-85.01346	LNM 47/15, 8th Dist	167	11401_1	12/10/2015
11401	Add	Two Mile Channel Buoy 9	G C "9"	N 29 42' 44.264"	W 085 00' 48.508"	29.7123	-85.01347	LNM 47/15, 8th Dist	167	11401_1	12/10/2015
11401	Delete	Fixed Bridge	Chart No. 1: D22	N 29 43' 26.630"	W 084 58' 35.770"	29.72406	-84.9766	LNM 44/15, 8th Dist	167	11401_1	10/29/2015
11401	Add	Fixed Bridge PT 1 OF 8	Chart No. 1: D22	N 29 43' 25.550"	W 084 58' 50.700"	29.72376	-84.98075	LNM 44/15, 8th Dist	167	11401_1	10/29/2015
11401	Add	Fixed Bridge PT 2 OF 8	Chart No. 1: D22	N 29 43' 25.670"	W 084 58' 48.190"	29.7238	-84.98005	LNM 44/15, 8th Dist	167	11401_1	10/29/2015
11401	Add	Fixed Bridge PT 3 OF 8	Chart No. 1: D22	N 29 43' 28.610"	W 084 58' 37.870"	29.72461	-84.97719	LNM 44/15, 8th Dist	167	11401_1	10/29/2015
11401	Add	Fixed Bridge PT 4 OF 8	Chart No. 1: D22	N 29 43' 32.720"	W 084 58' 23.810"	29.72576	-84.97328	LNM 44/15, 8th Dist	167	11401_1	10/29/2015
11401	Add	Fixed Bridge PT 5 OF 8	Chart No. 1: D22	N 29 43' 32.100"	W 084 58' 23.610"	29.72558	-84.97323	LNM 44/15, 8th Dist	167	11401_1	10/29/2015
11401	Add	Fixed Bridge PT 6 OF 8	Chart No. 1: D22	N 29 43' 28.000"	W 084 58' 37.620"	29.72445	-84.97712	LNM 44/15, 8th Dist	167	11401_1	10/29/2015
11401	Add	Fixed Bridge PT 7 OF 8	Chart No. 1: D22	N 29 43' 25.020"	W 084 58' 48.020"	29.72362	-84.98	LNM 44/15, 8th Dist	167	11401_1	10/29/2015
11401	Add	Fixed Bridge PT 8 OF 8	Chart No. 1: D22	N 29 43' 24.870"	W 084 58' 50.470"	29.72358	-84.98068	LNM 44/15, 8th Dist	167	11401_1	10/29/2015
11401	Change	Depth Legend - Two Mile Extension and Parallel Channel to:	1 FT BY 500 FT JUL 2015	N 29 42' 44.900"	W 085 01' 01.500"	29.71247	-85.01708	LNM 41/15, 8th Dist	167	11401_1	10/8/2015
11401	Change	Depth Legend - Two Mile Extension and Parallel Channels to:	1 FT BY 100 FT AUG 2014	N 29 42' 44.900"	W 085 01' 01.500"	29.71247	-85.01708	LNM 28/15, 8th Dist	167	11401_1	7/16/2015
11401	Change	Depth Note - APALACHICOLA BAY TWO MILE ENTRANCE CHANNEL to:	The controlling depth was 5 feet for a width of 100 feet from Lt. "1" to buoy "4", thence 2 feet to the apex.  Aug. 2014	N 29 43' 55.000"	W 085 03' 34.500"	29.73195	-85.05959	LNM 28/15, 8th Dist	167	11401_1	7/16/2015
11401	Change	Depth Legend - Bob Sikes Pass to:	2 FT FOR A MID-WIDTH OF 50-100 FT JAN 2015	N 29 36' 55.500"	W 084 57' 35.900"	29.61542	-84.95997	LNM 19/15, 8th Dist	167	11401_1	5/14/2015
11401	Change	East Point Channel Daybeacon 4	R "4" Ra Ref	N 29 44' 18.063"	W 084 52' 24.166"	29.73835	-84.87338	LNM 17/15, 8th Dist	167	11401_1	5/7/2015
11401	Delete	Dangerous Wreck	PA (Chart No 1: K-28) 	N 29 38' 03.000"	W 085 18' 00.000"	29.63417	-85.3	LNM 08/15, 8th Dist	167	11401_1	3/5/2015
11401	Add	Dangerous Wreck 	PA (Chart No 1: K-28) 	N 29 38' 03.000"	W 085 18' 00.000"	29.63417	-85.3	LNM 07/15, 8th Dist	167	11401_1	2/26/2015
11472	Delete	Sewalls Point Channel Daybeacon 2	R "2" Priv PA	N 27 10' 18.900"	W 080 11' 19.320"	27.17192	-80.1887	LNM 35/17, 7th Dist	2931	11472_3	Not Yet
11472	Delete	Sewalls Point Channel Daybeacon 3	G "3" PA Priv	N 27 10' 15.000"	W 080 11' 31.350"	27.17083	-80.19204	LNM 35/17, 7th Dist	2931	11472_3	Not Yet
11472	Delete	Sewalls Point Channel Daybeacon 4	R "4" Priv PA	N 27 10' 18.960"	W 080 11' 22.480"	27.17193	-80.18958	LNM 35/17, 7th Dist	2931	11472_3	Not Yet
11472	Change	Depth Legend - Lake Worth Inlet Southern Turning Basin to:	30 1/2 FT FEB 2017	N 26 46' 06.000"	W 080 02' 55.000"	26.76833	-80.04861	LNM 35/17, 7th Dist	298	11472_7	8/24/2017
11472	Change	Depth Legend - Lake Worth Inlet Entrance Channel to:	32 1/2 FT FEB 2017	N 26 46' 20.000"	W 080 01' 53.000"	26.77222	-80.03139	LNM 35/17, 7th Dist	298	11472_7	8/24/2017
11472	Change	Depth Legend - Lake Warth Inlet Inner Channel to:	33 FT FEB 2017	N 26 46' 15.000"	W 080 02' 31.000"	26.77083	-80.04195	LNM 35/17, 7th Dist	298	11472_7	8/24/2017
11472	Delete	Manatee Pocket Channel Daybeacon 19	G "19" Priv	N 27 08' 56.400"	W 080 11' 37.680"	27.149	-80.1938	LNM 31/17, 7th Dist	2931	11472_3	8/24/2017
11472	Change	Depth Legend - Turning Basin, Fort Pierce Harbor to:	16 FT NOV 2016	N 27 27' 38.000"	W 080 19' 15.000"	27.46056	-80.32083	LNM 32/17, 7th Dist	293	11472_2	8/3/2017
11472	Delete	Sounding in Feet	17	N 27 27' 37.970"	W 080 19' 08.260"	27.46055	-80.31896	LNM 32/17, 7th Dist	293	11472_2	8/3/2017
11472	Delete	Obstruction in Feet	5 Obstn       Chart No. 1: K41	N 27 27' 34.650"	W 080 19' 09.310"	27.45963	-80.31925	LNM 32/17, 7th Dist	293	11472_2	8/3/2017
11472	Delete	Sounding in Feet	14	N 27 27' 30.120"	W 080 19' 13.120"	27.45837	-80.32031	LNM 32/17, 7th Dist	293	11472_2	8/3/2017
11472	Delete	Sounding in Feet	11	N 27 27' 33.540"	W 080 19' 10.510"	27.45932	-80.31959	LNM 32/17, 7th Dist	293	11472_2	8/3/2017
11472	Change	Depth Legend - Entrance Range, Fort Pierce Harbor, FL to:	22 FT NOV 2016	N 27 28' 19.300"	W 080 17' 14.200"	27.47203	-80.28728	LNM 32/17, 7th Dist	293	11472_2	8/3/2017
11472	Change	Depth Legend - Entrance Range, Fort Pierce Harbor, FL to:	22 FT NOV 2016	N 27 28' 19.300"	W 080 17' 14.200"	27.47203	-80.28728	LNM 32/17, 7th Dist	292	11472_4	8/3/2017
11472	Change	Depth Legend - Inner Range, Fort Pierce Harbor, FL to:	20 1/2 FT NOV 2016	N 27 27' 59.700"	W 080 18' 25.400"	27.46658	-80.30705	LNM 32/17, 7th Dist	293	11472_2	8/3/2017
11472	Delete	Banana River Daybeacon 4	R "4"	N 28 10' 39.426"	W 080 37' 04.764"	28.17762	-80.61799	LNM 25/17, 7th Dist	291	11472_1	6/29/2017
11472	Add	Banana River Buoy 4	R N "4"	N 28 10' 39.422"	W 080 37' 04.824"	28.17762	-80.618	LNM 25/17, 7th Dist	291	11472_1	6/29/2017
11472	Relocate	Banana River Daybeacon 1	G "1"	N 28 08' 30.750"	W 080 36' 12.888"	28.14187	-80.60358	LNM 11/17, 7th Dist	291	11472_1	3/16/2017
11472	Change	Depth Legend - Lake Worth Inlet Southern Turning Basin to:	31 1/2 FT JUL 2016	N 26 46' 06.000"	W 080 02' 55.000"	26.76833	-80.04861	LNM 12/17, 7th Dist	298	11472_7	3/16/2017
11472	Change	Depth Legend - Lake Worth Inlet Entrance Channel to:	35 FT JUL 2016	N 26 46' 20.000"	W 080 01' 53.000"	26.77222	-80.03139	LNM 12/17, 7th Dist	298	11472_7	3/16/2017
11472	Add	Dotted Fish Haven PT 1 OF 4	Chart No. 1: K46.2	N 26 47' 53.000"	W 080 02' 48.000"	26.79806	-80.04667	LNM 12/17, 7th Dist	295	11472_9	3/16/2017
11472	Add	Dotted Fish Haven PT 2 OF 4	Chart No. 1: K46.2	N 26 47' 16.000"	W 080 02' 43.000"	26.78778	-80.04528	LNM 12/17, 7th Dist	295	11472_9	3/16/2017
11472	Add	Dotted Fish Haven PT 3 OF 4	Chart No. 1: K46.2	N 26 47' 53.000"	W 080 02' 38.000"	26.79806	-80.04389	LNM 12/17, 7th Dist	295	11472_9	3/16/2017
11472	Add	Dotted Fish Haven PT 4 OF 4	Chart No. 1: K46.2	N 26 47' 16.000"	W 080 02' 36.000"	26.78778	-80.04333	LNM 12/17, 7th Dist	295	11472_9	3/16/2017
11472	Add	Dotted Fish Haven Label	Obstn Fish Haven (auth min 6 ft)	N 26 47' 33.700"	W 080 02' 41.300"	26.79269	-80.04481	LNM 12/17, 7th Dist	295	11472_9	3/16/2017
11472	Delete	Sounding in Feet	6	N 26 47' 23.700"	W 080 02' 36.600"	26.78992	-80.0435	LNM 12/17, 7th Dist	295	11472_9	3/16/2017
11472	Relocate	Lake Worth North Daybeacon 43	G "43"	N 26 46' 19.841"	W 080 02' 58.395"	26.77218	-80.04955	LNM 06/17, 7th Dist	298	11472_7	2/23/2017
11472	Change	St Lucie River Light 13A	Fl G 4s 16ft 5M "13A"	N 27 10' 29.605"	W 080 11' 50.579"	27.17489	-80.19738	LNM 05/17, 7th Dist	2931	11472_3	2/9/2017
11472	Change	St Lucie River Light 14	Fl R 4s 14ft 5M "14"	N 27 10' 34.742"	W 080 11' 46.593"	27.17632	-80.19627	LNM 05/17, 7th Dist	2931	11472_3	2/9/2017
11472	Change	St Lucie River Light 15	Fl G 4s 14ft 5M "15"	N 27 10' 48.555"	W 080 11' 44.859"	27.18015	-80.19579	LNM 05/17, 7th Dist	2931	11472_3	2/9/2017
11472	Change	St Lucie River Light 7	Fl G 4s 16ft 5M "7"	N 27 09' 54.329"	W 080 11' 29.640"	27.16509	-80.19157	LNM 05/17, 7th Dist	2931	11472_3	2/9/2017
11472	Change	Indian River (South Section) Light 76	Fl R 4s 12ft 5M "76"	N 27 46' 11.443"	W 080 25' 47.039"	27.76985	-80.42973	LNM 05/17, 7th Dist	291	11472_1	2/9/2017
11472	Change	Indian River (South Section) Light 76	Fl R 4s 12ft 5M "76"	N 27 46' 11.443"	W 080 25' 47.039"	27.76985	-80.42973	LNM 05/17, 7th Dist	292	11472_4	2/9/2017
11472	Add	Dotted Fish Haven PT 2 OF 4	Chart No. 1: K46.2	N 26 46' 58.890"	W 080 02' 27.170"	26.78303	-80.04088	LNM 05/17, 7th Dist	298	11472_7	2/2/2017
11472	Add	Dotted Fish Haven Label	Obstn Fish Haven (auth min 2 ft)	N 26 46' 57.800"	W 080 02' 31.600"	26.78272	-80.04211	LNM 05/17, 7th Dist	298	11472_7	2/2/2017
11472	Add	Dotted Fish Haven PT 1 OF 4	Chart No. 1: K46.2	N 26 46' 58.890"	W 080 02' 36.270"	26.78303	-80.04341	LNM 05/17, 7th Dist	298	11472_7	2/2/2017
11472	Add	Dotted Fish Haven PT 3 OF 4	Chart No. 1: K46.2	N 26 46' 56.670"	W 080 02' 27.170"	26.78241	-80.04088	LNM 05/17, 7th Dist	298	11472_7	2/2/2017
11472	Add	Dotted Fish Haven PT 4 OF 4	Chart No. 1: K46.2	N 26 46' 56.670"	W 080 02' 36.270"	26.78241	-80.04341	LNM 05/17, 7th Dist	298	11472_7	2/2/2017
11472	Add	Dotted Fish Haven Label	Obstn Fish Haven (auth min 6 ft)	N 26 45' 00.000"	W 080 02' 36.000"	26.75	-80.04333	LNM 05/17, 7th Dist	298	11472_7	2/2/2017
11472	Add	Dotted Fish Haven Label	Obstn Fish Haven (auth min 6 ft)	N 26 45' 00.000"	W 080 02' 36.000"	26.75	-80.04333	LNM 05/17, 7th Dist	299	11472_8	2/2/2017
11472	Delete	Sounding in Feet	20	N 26 45' 01.500"	W 080 02' 34.000"	26.75042	-80.04278	LNM 05/17, 7th Dist	298	11472_7	2/2/2017
11472	Delete	Sounding in Feet	20	N 26 45' 01.500"	W 080 02' 34.000"	26.75042	-80.04278	LNM 05/17, 7th Dist	299	11472_8	2/2/2017
11472	Add	Dotted Fish Haven PT 1 OF 4	Chart No. 1: K46.2	N 26 45' 04.000"	W 080 02' 39.000"	26.75111	-80.04417	LNM 05/17, 7th Dist	298	11472_7	2/2/2017
11472	Add	Dotted Fish Haven PT 1 OF 4	Chart No. 1: K46.2	N 26 45' 04.000"	W 080 02' 39.000"	26.75111	-80.04417	LNM 05/17, 7th Dist	299	11472_8	2/2/2017
11472	Add	Dotted Fish Haven PT 2 OF 4	Chart No. 1: K46.2	N 26 44' 56.000"	W 080 02' 39.000"	26.74889	-80.04417	LNM 05/17, 7th Dist	298	11472_7	2/2/2017
11472	Add	Dotted Fish Haven PT 2 OF 4	Chart No. 1: K46.2	N 26 44' 56.000"	W 080 02' 39.000"	26.74889	-80.04417	LNM 05/17, 7th Dist	299	11472_8	2/2/2017
11472	Add	Dotted Fish Haven PT 3 OF 4	Chart No. 1: K46.2	N 26 44' 56.000"	W 080 02' 33.000"	26.74889	-80.0425	LNM 05/17, 7th Dist	298	11472_7	2/2/2017
11472	Add	Dotted Fish Haven PT 3 OF 4	Chart No. 1: K46.2	N 26 44' 56.000"	W 080 02' 33.000"	26.74889	-80.0425	LNM 05/17, 7th Dist	299	11472_8	2/2/2017
11472	Add	Dotted Fish Haven PT 4 OF 4	Chart No. 1: K46.2	N 26 45' 04.000"	W 080 02' 33.000"	26.75111	-80.0425	LNM 05/17, 7th Dist	298	11472_7	2/2/2017
11472	Add	Dotted Fish Haven PT 4 OF 4	Chart No. 1: K46.2	N 26 45' 04.000"	W 080 02' 33.000"	26.75111	-80.0425	LNM 05/17, 7th Dist	299	11472_8	2/2/2017
11472	Change	Indian River (South Section) Light 229	Fl G 4s 12ft 5M "229"	N 27 11' 58.991"	W 080 11' 13.992"	27.19972	-80.18722	LNM 50/16, 7th Dist	294	11472_5	12/22/2016
11472	Relocate	Melbourne Channel Light 7	Q G 12ft 4M	N 28 04' 32.131"	W 080 35' 57.282"	28.07559	-80.59924	LNM 50/16, 7th Dist	291	11472_1	12/22/2016
11472	Relocate	Great Pocket Light 14	Fl R 4s 12ft 3M "14"	N 27 08' 28.419"	W 080 09' 44.180"	27.14123	-80.16227	LNM 49/16, 7th Dist	294	11472_5	12/15/2016
11472	Relocate	Jupiter Inlet Buoy 2	R N "2"	N 26 56' 50.333"	W 080 04' 50.171"	26.94732	-80.0806	LNM 49/16, 7th Dist	295	11472_9	12/15/2016
11472	Relocate	Jupiter Inlet Light 1	Fl G 4s 16ft 5M "1"	N 26 56' 45.480"	W 080 04' 47.564"	26.94597	-80.07988	LNM 49/16, 7th Dist	295	11472_9	12/15/2016
11472	Change	Great Pocket Light 14	Fl R 4s 12ft 5M "14"	N 27 08' 28.419"	W 080 09' 44.180"	27.14123	-80.16227	LNM 49/16, 7th Dist	294	11472_5	12/15/2016
11472	Delete	Sounding in Feet	87	N 26 52' 52.800"	W 080 01' 27.200"	26.88133	-80.02422	LNM 50/16, 7th Dist	295	11472_9	12/8/2016
11472	Delete	Sounding in Feet	70	N 26 52' 51.500"	W 080 02' 11.300"	26.88097	-80.03647	LNM 50/16, 7th Dist	295	11472_9	12/8/2016
11472	Add	Dotted Fish Haven Label	Obstn Fish Haven (auth min 25 ft)	N 26 52' 35.890"	W 080 01' 47.600"	26.87664	-80.02989	LNM 50/16, 7th Dist	295	11472_9	12/8/2016
11472	Delete	Sounding in Feet	79	N 26 52' 27.700"	W 080 01' 35.500"	26.87436	-80.02653	LNM 50/16, 7th Dist	295	11472_9	12/8/2016
11472	Delete	Sounding in Feet	74	N 26 52' 37.300"	W 080 01' 56.400"	26.87703	-80.03233	LNM 50/16, 7th Dist	295	11472_9	12/8/2016
11472	Delete	Sounding in Feet	77	N 26 52' 11.000"	W 080 01' 50.900"	26.86972	-80.03081	LNM 50/16, 7th Dist	295	11472_9	12/8/2016
11472	Add	Dotted Fish Haven PT 1 OF 4	Chart No. 1: K46.2	N 26 53' 06.000"	W 080 01' 23.000"	26.885	-80.02306	LNM 50/16, 7th Dist	295	11472_9	12/8/2016
11472	Add	Dotted Fish Haven PT 2 OF 4	Chart No. 1: K46.2	N 26 52' 06.000"	W 080 01' 23.000"	26.86833	-80.02306	LNM 50/16, 7th Dist	295	11472_9	12/8/2016
11472	Add	Dotted Fish Haven PT 3 OF 4	Chart No. 1: K46.2	N 26 52' 06.000"	W 080 02' 12.000"	26.86833	-80.03667	LNM 50/16, 7th Dist	295	11472_9	12/8/2016
11472	Add	Dotted Fish Haven PT 4 OF 4	Chart No. 1: K46.2	N 26 53' 06.000"	W 080 02' 12.000"	26.885	-80.03667	LNM 50/16, 7th Dist	295	11472_9	12/8/2016
11472	Delete	Sounding in Feet	81	N 26 52' 54.200"	W 080 01' 46.200"	26.88172	-80.0295	LNM 50/16, 7th Dist	295	11472_9	12/8/2016
11472	Change	Depth Legend - LAKE WORTH INLET SOUTHERN TURNING BASIN to:	27 SEP 2015	N 26 46' 06.000"	W 080 02' 55.000"	26.76833	-80.04861	LNM 43/16, 7th Dist	298	11472_7	10/20/2016
11472	Change	Depth Legend - LAKE WORTH INLET NORTHERN TURNING BASIN to:	19 FT SEP 2015	N 26 46' 14.000"	W 080 03' 00.000"	26.77056	-80.05	LNM 43/16, 7th Dist	298	11472_7	10/20/2016
11472	Change	Depth Legend - LAKE WORTH INLET INNER CHANNEL to:	32 1/2 FT SEP 2015	N 26 46' 20.000"	W 080 01' 53.000"	26.77222	-80.03139	LNM 43/16, 7th Dist	298	11472_7	10/20/2016
11472	Change	Depth Legend - LAKE WORTH INLET ENTRANCE CHANNEL to:	33 1/2 FT SEP 2015	N 26 46' 15.000"	W 080 02' 31.000"	26.77083	-80.04195	LNM 43/16, 7th Dist	298	11472_7	10/20/2016
11472	Relocate	St Lucie Inlet Light 4	Fl R 2.5s 16ft 5M "4"	N 27 10' 03.289"	W 080 08' 56.177"	27.16758	-80.14894	LNM 36/16, 7th Dist	294	11472_5	9/15/2016
11472	Add	Dotted Fish Haven Label	Obstn Fish Haven (auth min 50 ft)	N 26 40' 06.530"	W 080 00' 47.670"	26.66848	-80.01324	LNM 31/16, 7th Dist	296	11472_10	7/28/2016
11472	Add	Dotted Fish Haven PT 2 OF 8	Chart No. 1: K46.2	N 26 41' 19.000"	W 080 01' 51.000"	26.68861	-80.03083	LNM 31/16, 7th Dist	296	11472_10	7/28/2016
11472	Add	Dotted Fish Haven PT 3 OF 8	Chart No. 1: K46.2	N 26 41' 19.000"	W 080 01' 38.000"	26.68861	-80.02722	LNM 31/16, 7th Dist	296	11472_10	7/28/2016
11472	Add	Dotted Fish Haven PT 4 OF 8	Chart No. 1: K46.2	N 26 40' 48.000"	W 080 01' 40.000"	26.68	-80.02778	LNM 31/16, 7th Dist	296	11472_10	7/28/2016
11472	Add	Dotted Fish Haven PT 5 OF 8	Chart No. 1: K46.2	N 26 40' 48.000"	W 080 01' 13.000"	26.68	-80.02028	LNM 31/16, 7th Dist	296	11472_10	7/28/2016
11472	Add	Dotted Fish Haven PT 6 OF 8	Chart No. 1: K46.2	N 26 40' 21.000"	W 080 01' 13.000"	26.6725	-80.02028	LNM 31/16, 7th Dist	296	11472_10	7/28/2016
11472	Add	Dotted Fish Haven PT 7 OF 8	Chart No. 1: K46.2	N 26 40' 20.700"	W 080 00' 56.300"	26.67242	-80.01564	LNM 31/16, 7th Dist	296	11472_10	7/28/2016
11472	Add	Dotted Fish Haven PT 2 OF 4	Chart No. 1: K46.2	N 26 40' 20.700"	W 080 00' 56.300"	26.67242	-80.01564	LNM 31/16, 7th Dist	296	11472_10	7/28/2016
11472	Add	Dotted Fish Haven PT 3 OF 4	Chart No. 1: K46.2	N 26 40' 21.000"	W 080 00' 40.000"	26.6725	-80.01111	LNM 31/16, 7th Dist	296	11472_10	7/28/2016
11472	Delete	Obstruction in Feet PT 1 OF 4	Obstn (rep 17 ft)       Chart No. 1: K41	N 26 40' 53.220"	W 080 01' 48.530"	26.68145	-80.03014	LNM 31/16, 7th Dist	296	11472_10	7/28/2016
11472	Delete	Obstruction in Feet PT 2 OF 4	Obstn (rep 17 ft)       Chart No. 1: K41	N 26 40' 48.630"	W 080 01' 49.570"	26.68018	-80.03043	LNM 31/16, 7th Dist	296	11472_10	7/28/2016
11472	Delete	Obstruction in Feet PT 3 OF 4	Obstn (rep 17 ft)       Chart No. 1: K41	N 26 40' 48.790"	W 080 01' 51.960"	26.68022	-80.0311	LNM 31/16, 7th Dist	296	11472_10	7/28/2016
11472	Delete	Obstruction in Feet PT 4 OF 4	Obstn (rep 17 ft)       Chart No. 1: K41	N 26 40' 53.180"	W 080 01' 50.210"	26.68144	-80.03062	LNM 31/16, 7th Dist	296	11472_10	7/28/2016
11472	Delete	Dotted Fish Haven PT 1 OF 6	Chart No. 1: K46.2	N 26 40' 29.940"	W 080 01' 41.960"	26.67498	-80.02832	LNM 31/16, 7th Dist	296	11472_10	7/28/2016
11472	Delete	Dotted Fish Haven PT 2 OF 6	Chart No. 1: K46.2	N 26 41' 19.030"	W 080 01' 42.270"	26.68862	-80.02841	LNM 31/16, 7th Dist	296	11472_10	7/28/2016
11472	Delete	Dotted Fish Haven PT 3 OF 6	Chart No. 1: K46.2	N 26 41' 19.000"	W 080 01' 38.000"	26.68861	-80.02722	LNM 31/16, 7th Dist	296	11472_10	7/28/2016
11472	Delete	Dotted Fish Haven PT 4 OF 6	Chart No. 1: K46.2	N 26 40' 48.000"	W 080 01' 40.000"	26.68	-80.02778	LNM 31/16, 7th Dist	296	11472_10	7/28/2016
11472	Delete	Dotted Fish Haven PT 5 OF 6	Chart No. 1: K46.2	N 26 40' 47.740"	W 080 01' 36.000"	26.67993	-80.02666	LNM 31/16, 7th Dist	296	11472_10	7/28/2016
11472	Delete	Dotted Fish Haven PT 6 OF 6	Chart No. 1: K46.2	N 26 40' 30.070"	W 080 01' 36.060"	26.67502	-80.02668	LNM 31/16, 7th Dist	296	11472_10	7/28/2016
11472	Add	Dotted Fish Haven Label	Obstn Fish Haven (auth min 10 ft)	N 26 40' 00.200"	W 080 01' 26.000"	26.66672	-80.02389	LNM 31/16, 7th Dist	296	11472_10	7/28/2016
11472	Add	Dotted Fish Haven PT 1 OF 8	Chart No. 1: K46.2	N 26 40' 00.400"	W 080 01' 57.880"	26.66678	-80.03275	LNM 31/16, 7th Dist	296	11472_10	7/28/2016
11472	Add	Dotted Fish Haven PT 8 OF 8	Chart No. 1: K46.2	N 26 39' 56.560"	W 080 00' 57.540"	26.66571	-80.01598	LNM 31/16, 7th Dist	296	11472_10	7/28/2016
11472	Add	Dotted Fish Haven PT 1 OF 4	Chart No. 1: K46.2	N 26 39' 56.560"	W 080 00' 57.540"	26.66571	-80.01598	LNM 31/16, 7th Dist	296	11472_10	7/28/2016
11472	Add	Dotted Fish Haven PT 4 OF 4	Chart No. 1: K46.2	N 26 39' 55.420"	W 080 00' 40.490"	26.66539	-80.01125	LNM 31/16, 7th Dist	296	11472_10	7/28/2016
11472	Change	Lake Worth Creek Light 8	Fl R 4s 16ft 5M "8"	N 26 56' 42.321"	W 080 05' 24.147"	26.94509	-80.09004	LNM 25/16, 7th Dist	297	11472_6	6/30/2016
11472	Change	Lake Worth Creek Light 8	Fl R 4s 16ft 5M "8"	N 26 56' 42.321"	W 080 05' 24.147"	26.94509	-80.09004	LNM 25/16, 7th Dist	295	11472_9	6/30/2016
11472	Relocate	Indian River (South Section) Daybeacon 166	R "166"	N 27 33' 59.570"	W 080 21' 02.187"	27.56655	-80.35061	LNM 23/16, 7th Dist	292	11472_4	6/16/2016
11472	Relocate	Indian River (South Section) Light 164	Fl R 4s 16ft 5M "164"	N 27 34' 09.527"	W 080 21' 07.848"	27.56931	-80.35218	LNM 23/16, 7th Dist	292	11472_4	6/16/2016
11472	Relocate	Indian River (South Section) Light 192	Fl R 4s 16ft 5M "192"	N 27 25' 26.568"	W 080 18' 14.260"	27.42405	-80.30396	LNM 23/16, 7th Dist	292	11472_4	6/16/2016
11472	Add	Dotted Fish Haven PT 1 OF 4	Chart No. 1: K46.2	N 26 41' 24.000"	W 080 02' 39.000"	26.69	-80.04417	LNM 25/16, 7th Dist	296	11472_10	6/16/2016
11472	Add	Dotted Fish Haven PT 2 OF 4	Chart No. 1: K46.2	N 26 41' 08.000"	W 080 02' 39.000"	26.68556	-80.04417	LNM 25/16, 7th Dist	296	11472_10	6/16/2016
11472	Add	Dotted Fish Haven PT 3 OF 4	Chart No. 1: K46.2	N 26 41' 08.000"	W 080 02' 45.000"	26.68556	-80.04583	LNM 25/16, 7th Dist	296	11472_10	6/16/2016
11472	Add	Dotted Fish Haven PT 4 OF 4	Chart No. 1: K46.2	N 26 41' 24.000"	W 080 02' 45.000"	26.69	-80.04583	LNM 25/16, 7th Dist	296	11472_10	6/16/2016
11472	Add	Dotted Fish Haven Label	Obstn Fish Haven	N 26 41' 16.000"	W 080 02' 42.000"	26.68778	-80.045	LNM 25/16, 7th Dist	296	11472_10	6/16/2016
11472	Change	Lake Worth Inlet Light 12	Fl R 4s 12ft 5M "12"	N 26 46' 11.020"	W 080 02' 51.748"	26.76973	-80.04771	LNM 22/16, 7th Dist	298	11472_7	6/9/2016
11472	Change	Lake Worth North Light 36	Fl R 4s 16ft 5M "36"	N 26 47' 12.750"	W 080 02' 45.900"	26.78687	-80.04608	LNM 22/16, 7th Dist	298	11472_7	6/9/2016
11472	Change	Lake Worth North Light 36	Fl R 4s 16ft 5M "36"	N 26 47' 12.750"	W 080 02' 45.900"	26.78687	-80.04608	LNM 22/16, 7th Dist	295	11472_9	6/9/2016
11472	Change	Singer Island Channel Light 5	Fl G 4s 16ft 5M "5"	N 26 46' 53.433"	W 080 02' 29.080"	26.78151	-80.04141	LNM 22/16, 7th Dist	298	11472_7	6/9/2016
11472	Relocate	Lake Worth Inlet Light 12	Fl R 4s 12ft 5M "12"	N 26 46' 11.020"	W 080 02' 51.748"	26.76973	-80.04771	LNM 22/16, 7th Dist	298	11472_7	6/9/2016
11472	Relocate	Indian River (South Section) Daybeacon 109	G "109"	N 27 43' 27.711"	W 080 23' 45.309"	27.72436	-80.39592	LNM 20/16, 7th Dist	292	11472_4	5/26/2016
11472	Relocate	Indian River (South Section) Daybeacon 59	G "59"	N 27 51' 38.978"	W 080 28' 54.575"	27.86083	-80.48183	LNM 20/16, 7th Dist	291	11472_1	5/26/2016
11472	Relocate	Indian River (South Section) Daybeacon 73	G "73"	N 27 47' 07.515"	W 080 26' 23.757"	27.78542	-80.43993	LNM 20/16, 7th Dist	291	11472_1	5/26/2016
11472	Relocate	Indian River (South Section) Daybeacon 83	G "83"	N 27 45' 32.392"	W 080 24' 41.696"	27.759	-80.41158	LNM 20/16, 7th Dist	292	11472_4	5/26/2016
11472	Relocate	Indian River (South Section) Daybeacon 34A	R "34A"	N 27 56' 13.819"	W 080 31' 27.332"	27.93717	-80.52426	LNM 19/16, 7th Dist	291	11472_1	5/19/2016
11472	Relocate	Indian River (South Section) Light 53	Fl G 4s 12ft 5M "53"	N 27 53' 18.496"	W 080 29' 39.197"	27.88847	-80.49422	LNM 19/16, 7th Dist	291	11472_1	5/19/2016
11472	Add	Shoaling reported	Shoaling rep to 4ft PA	N 27 27' 21.246"	W 080 19' 03.408"	27.4559	-80.31761	LNM 18/16, 7th Dist	293	11472_2	5/12/2016
11472	Relocate	Hobe Sound Light 43	Fl G 4s 16ft 5M "43"	N 27 00' 28.812"	W 080 05' 42.618"	27.008	-80.09517	LNM 17/16, 7th Dist	294	11472_5	5/5/2016
11472	Relocate	Indian River (South Section) Light 21	Fl G 4s 12ft 4M "21"	N 27 59' 28.290"	W 080 32' 23.585"	27.99119	-80.53989	LNM 17/16, 7th Dist	291	11472_1	5/5/2016
11472	Relocate	South Jupiter Narrows Daybeacon 28	R "28"	N 27 04' 59.883"	W 080 07' 49.275"	27.0833	-80.13036	LNM 17/16, 7th Dist	294	11472_5	5/5/2016
11472	Change	St Lucie River Light 13	Fl G 4s 16ft 5M "13"	N 27 10' 18.184"	W 080 11' 47.593"	27.17172	-80.19656	LNM 11/16, 7th Dist	2931	11472_3	3/24/2016
11472	Change	Lake Worth Inlet Light 11	Fl G 4s 16ft 5M "11"	N 26 46' 07.674"	W 080 02' 40.216"	26.7688	-80.0445	LNM 04/16, 7th Dist	298	11472_7	1/28/2016
11472	Add	Note - SEDIMENT TRAPS to:	Sediment traps  are  designed   to  delay  shoaling of  the  navigable   portion  of   a  channel  by   trapping   advancing littoral  material.  Sediment traps may shoal at a rapid rate spilling over into the adjacent navigation channel, therefore, mariners should exercise caution when operating near them.     	N 26 51' 02.290"	W 080 02' 53.710"	26.85064	-80.04826	LNM 03/16, 7th Dist	295	11472_9	1/14/2016
11472	Add	Channel Limits PT 1 OF 6	Settling Basin (see note)    Chart No. 1: I20	N 26 46' 22.560"	W 080 01' 51.740"	26.77293	-80.03104	LNM 03/16, 7th Dist	298	11472_7	1/14/2016
11472	Add	Channel Limits PT 1 OF 6	Settling Basin (see note)    Chart No. 1: I20	N 26 46' 22.560"	W 080 01' 51.740"	26.77293	-80.03104	LNM 03/16, 7th Dist	295	11472_9	1/14/2016
11472	Add	Channel Limits PT 2 OF 6	Settling Basin (see note)    Chart No. 1: I20	N 26 46' 23.050"	W 080 01' 51.700"	26.77307	-80.03103	LNM 03/16, 7th Dist	298	11472_7	1/14/2016
11472	Add	Channel Limits PT 2 OF 6	Settling Basin (see note)    Chart No. 1: I20	N 26 46' 23.050"	W 080 01' 51.700"	26.77307	-80.03103	LNM 03/16, 7th Dist	295	11472_9	1/14/2016
11472	Add	Channel Limits PT 3 OF 6	Settling Basin (see note)    Chart No. 1: I20	N 26 46' 22.960"	W 080 01' 48.340"	26.77304	-80.0301	LNM 03/16, 7th Dist	298	11472_7	1/14/2016
11472	Add	Channel Limits PT 3 OF 6	Settling Basin (see note)    Chart No. 1: I20	N 26 46' 22.960"	W 080 01' 48.340"	26.77304	-80.0301	LNM 03/16, 7th Dist	295	11472_9	1/14/2016
11472	Add	Channel Limits PT 4 OF 6	Settling Basin (see note)    Chart No. 1: I20	N 26 46' 30.430"	W 080 01' 48.160"	26.77512	-80.03004	LNM 03/16, 7th Dist	298	11472_7	1/14/2016
11472	Add	Channel Limits PT 4 OF 6	Settling Basin (see note)    Chart No. 1: I20	N 26 46' 30.430"	W 080 01' 48.160"	26.77512	-80.03004	LNM 03/16, 7th Dist	295	11472_9	1/14/2016
11472	Add	Channel Limits PT 5 OF 6	Settling Basin (see note)    Chart No. 1: I20	N 26 46' 30.270"	W 080 01' 42.090"	26.77508	-80.02836	LNM 03/16, 7th Dist	298	11472_7	1/14/2016
11472	Add	Channel Limits PT 5 OF 6	Settling Basin (see note)    Chart No. 1: I20	N 26 46' 30.270"	W 080 01' 42.090"	26.77508	-80.02836	LNM 03/16, 7th Dist	295	11472_9	1/14/2016
11472	Add	Channel Limits PT 6 OF 6	Settling Basin (see note)    Chart No. 1: I20	N 26 46' 22.330"	W 080 01' 42.370"	26.77287	-80.02843	LNM 03/16, 7th Dist	298	11472_7	1/14/2016
11472	Add	Channel Limits PT 6 OF 6	Settling Basin (see note)    Chart No. 1: I20	N 26 46' 22.330"	W 080 01' 42.370"	26.77287	-80.02843	LNM 03/16, 7th Dist	295	11472_9	1/14/2016
11472	Delete	Sounding in Feet	All soundings and depth curves inside the Settling Basin.	N 26 46' 26.670"	W 080 01' 45.390"	26.77407	-80.02927	LNM 03/16, 7th Dist	298	11472_7	1/14/2016
11472	Delete	Sounding in Feet	All soundings and depth curves inside the Settling Basin.	N 26 46' 26.670"	W 080 01' 45.390"	26.77407	-80.02927	LNM 03/16, 7th Dist	295	11472_9	1/14/2016
11472	Add	Note - SEDIMENT TRAPS to:	Sediment traps are designed to delay shoaling of the navigable portion of a channel by trapping advancing littoral material. Sediment traps may shoal at a rapid rate spilling over into the adjacent navigation channel, therefore, mariners should exercise caution when operating near them. 	N 26 46' 46.970"	W 080 02' 07.980"	26.77971	-80.03555	LNM 03/16, 7th Dist	298	11472_7	1/14/2016
11472	Change	Depth Legend to: 32 FT JUN 2015	32 FT JUN 2015	N 26 46' 15.000"	W 080 02' 31.000"	26.77083	-80.04195	LNM 03/16, 7th Dist	298	11472_7	1/14/2016
11472	Change	Depth Legend to: 33 FT JUN 2015	33 FT JUN 2015	N 26 46' 20.000"	W 080 01' 53.000"	26.77222	-80.03139	LNM 03/16, 7th Dist	298	11472_7	1/14/2016
11472	Add	Obstruction in Feet	10 Obstn       Chart No. 1: K41	N 26 46' 12.918"	W 080 01' 59.928"	26.77025	-80.03331	LNM 03/16, 7th Dist	298	11472_7	1/14/2016
11472	Change	Lake Worth North Light 27	Fl G 4s 12ft 5M "27"	N 26 49' 36.566"	W 080 03' 14.996"	26.82682	-80.05417	LNM 51/15, 7th Dist	295	11472_9	12/31/2015
11472	Relocate	Jupiter Sound Daybeacon 57	G "57"	N 26 57' 53.322"	W 080 04' 51.858"	26.96481	-80.08107	LNM 47/15, 7th Dist	295	11472_9	11/26/2015
11472	Change	Indian River (South Section) Light 28	Fl R 4s 16ft 5M "28"	N 27 57' 33.806"	W 080 31' 58.583"	27.95939	-80.53294	LNM 47/15, 7th Dist	291	11472_1	11/26/2015
11472	Change	Indian River (South Section) Light 44	Fl R 4s 12ft 5M "44"	N 27 54' 45.370"	W 080 30' 52.961"	27.9126	-80.51471	LNM 47/15, 7th Dist	291	11472_1	11/26/2015
11472	Change	Indian River (South Section) Light 51	Fl G 4s 16ft 5M "51"	N 27 53' 59.591"	W 080 30' 05.279"	27.89989	-80.50146	LNM 47/15, 7th Dist	291	11472_1	11/26/2015
11472	Change	Indian River (South Section) Light 53	Fl G 4s 12ft 5M "53"	N 27 53' 18.339"	W 080 29' 39.051"	27.88843	-80.49418	LNM 47/15, 7th Dist	291	11472_1	11/26/2015
11472	Change	Indian River (South Section) Light 60	Fl R 4s 12ft 5M "60"	N 27 51' 37.432"	W 080 28' 56.328"	27.8604	-80.48232	LNM 47/15, 7th Dist	291	11472_1	11/26/2015
11472	Add	Dotted Fish Haven Label	Obstn Fish Haven (auth min 6 ft)	N 27 22' 31.150"	W 080 14' 58.960"	27.37532	-80.24971	LNM 47/15, 7th Dist	294	11472_5	11/19/2015
11472	Add	Dotted Fish Haven PT 1 OF 4	Chart No. 1: K46.2	N 27 22' 43.460"	W 080 15' 04.440"	27.37874	-80.25124	LNM 47/15, 7th Dist	294	11472_5	11/19/2015
11472	Add	Dotted Fish Haven PT 2 OF 4	Chart No. 1: K46.2	N 27 22' 18.670"	W 080 14' 51.650"	27.37185	-80.24768	LNM 47/15, 7th Dist	294	11472_5	11/19/2015
11472	Add	Dotted Fish Haven PT 3 OF 4	Chart No. 1: K46.2	N 27 22' 18.060"	W 080 14' 53.060"	27.37168	-80.24807	LNM 47/15, 7th Dist	294	11472_5	11/19/2015
11472	Add	Dotted Fish Haven PT 4 OF 4	Chart No. 1: K46.2	N 27 22' 42.850"	W 080 15' 05.850"	27.37857	-80.25163	LNM 47/15, 7th Dist	294	11472_5	11/19/2015
11472	Add	Dotted Fish Haven PT 1 OF 4	Chart No. 1: K46.2	N 27 19' 45.150"	W 080 13' 37.780"	27.32921	-80.22716	LNM 47/15, 7th Dist	294	11472_5	11/19/2015
11472	Add	Dotted Fish Haven PT 2 OF 4	Chart No. 1: K46.2	N 27 19' 36.740"	W 080 13' 34.750"	27.32687	-80.22632	LNM 47/15, 7th Dist	294	11472_5	11/19/2015
11472	Add	Dotted Fish Haven PT 3 OF 4	Chart No. 1: K46.2	N 27 19' 35.990"	W 080 13' 37.360"	27.32666	-80.22704	LNM 47/15, 7th Dist	294	11472_5	11/19/2015
11472	Add	Dotted Fish Haven PT 4 OF 4	Chart No. 1: K46.2	N 27 19' 44.400"	W 080 13' 40.400"	27.329	-80.22789	LNM 47/15, 7th Dist	294	11472_5	11/19/2015
11472	Add	Dotted Fish Haven Label	Obstn Fish Haven (auth min 6 ft)	N 27 19' 40.660"	W 080 13' 37.570"	27.32796	-80.2271	LNM 47/15, 7th Dist	294	11472_5	11/19/2015
11472	Change	Lake Worth Creek Light 11	Fl G 4s 16ft 5M "11"	N 26 56' 27.617"	W 080 05' 10.738"	26.941	-80.08632	LNM 44/15, 7th Dist	297	11472_6	11/12/2015
11472	Change	Lake Worth Creek Light 11	Fl G 4s 16ft 5M "11"	N 26 56' 27.617"	W 080 05' 10.738"	26.941	-80.08632	LNM 44/15, 7th Dist	295	11472_9	11/12/2015
11472	Change	Indian River (South Section) Light 223	Fl G 4s 16ft 5M "223"	N 27 13' 49.135"	W 080 12' 18.369"	27.23032	-80.2051	LNM 42/15, 7th Dist	294	11472_5	10/29/2015
11472	Change	Indian River (South Section) Light 231	Fl G 4s 12ft 5M "231"	N 27 11' 27.292"	W 080 11' 05.340"	27.19091	-80.18481	LNM 42/15, 7th Dist	2931	11472_3	10/29/2015
11472	Change	Indian River (South Section) Light 233	Fl G 4s 12ft 5M "233"	N 27 11' 00.541"	W 080 11' 02.223"	27.18348	-80.18395	LNM 42/15, 7th Dist	2931	11472_3	10/29/2015
11472	Change	Indian River (South Section) Light 236	Q R 16ft 4M "236"	N 27 10' 37.060"	W 080 11' 06.295"	27.17696	-80.18508	LNM 42/15, 7th Dist	2931	11472_3	10/29/2015
11472	Change	Indian River (South Section) Light 79	Fl G 4s 16ft 5M "79"	N 27 45' 54.521"	W 080 25' 11.559"	27.76514	-80.41988	LNM 41/15, 7th Dist	292	11472_4	10/22/2015
11472	Change	Indian River (South Section) Light 89	Fl G 4s 16ft 5M "89"	N 27 45' 19.223"	W 080 24' 08.228"	27.75534	-80.40228	LNM 41/15, 7th Dist	292	11472_4	10/22/2015
11472	Change	Indian River (South Section) Light 96	Fl R 4s 16ft 5M "96"	N 27 44' 36.317"	W 080 24' 01.322"	27.74342	-80.40037	LNM 41/15, 7th Dist	292	11472_4	10/22/2015
11472	Change	Indian River (South Section) Light 99	Fl G 4s 16ft 5M "99"	N 27 44' 25.533"	W 080 23' 49.213"	27.74043	-80.397	LNM 41/15, 7th Dist	292	11472_4	10/22/2015
11472	Change	Lake Park Marina Light 3	Fl G 2.5s 16ft 5M "3"	N 26 47' 34.898"	W 080 02' 59.545"	26.79303	-80.04987	LNM 41/15, 7th Dist	295	11472_9	10/22/2015
11472	Change	Vero Beach Channel Light 2	Fl R 4s 16ft 5M "2"	N 27 39' 13.856"	W 080 22' 19.444"	27.65385	-80.37207	LNM 41/15, 7th Dist	292	11472_4	10/22/2015
11472	Change	Lake Park Marina Light 12	Fl R 2.5s 16ft 5M "12"	N 26 47' 22.371"	W 080 03' 00.666"	26.78955	-80.05019	LNM 40/15, 7th Dist	295	11472_9	10/15/2015
11472	Change	Indian River (South Section) Light 14	Fl R 4s 12ft 5M "14"	N 28 02' 19.296"	W 080 34' 03.870"	28.03869	-80.56774	LNM 39/15, 7th Dist	291	11472_1	10/8/2015
11472	Change	Indian River (South Section) Light 105	Fl G 4s 12ft 5M "105"	N 27 44' 00.417"	W 080 23' 39.255"	27.73345	-80.39423	LNM 38/15, 7th Dist	292	11472_4	9/24/2015
11472	Change	Indian River (South Section) Light 112	Fl R 4s 16ft 5M "112"	N 27 43' 03.006"	W 080 23' 45.383"	27.7175	-80.39594	LNM 38/15, 7th Dist	292	11472_4	9/24/2015
11472	Change	Indian River (South Section) Light 118	Fl R 4s 16ft 5M "118"	N 27 42' 20.605"	W 080 23' 33.081"	27.70572	-80.39252	LNM 38/15, 7th Dist	292	11472_4	9/24/2015
11472	Change	Indian River (South Section) Light 134	Fl R 4s 16ft 5M "134"	N 27 40' 07.633"	W 080 22' 56.415"	27.66879	-80.38234	LNM 38/15, 7th Dist	292	11472_4	9/24/2015
11472	Change	Indian River (South Section) Light 141	Fl G 4s 16ft 5M "141"	N 27 38' 51.915"	W 080 22' 18.759"	27.64775	-80.37188	LNM 38/15, 7th Dist	292	11472_4	9/24/2015
11472	Change	Indian River (South Section) Light 153	Fl G 4s 12ft 5M "153"	N 27 36' 47.424"	W 080 21' 48.782"	27.61317	-80.36355	LNM 38/15, 7th Dist	292	11472_4	9/24/2015
11472	Change	Indian River (South Section) Light 157	Fl G 4s 16ft 5M "157"	N 27 35' 38.574"	W 080 21' 20.969"	27.59405	-80.35583	LNM 38/15, 7th Dist	292	11472_4	9/24/2015
11472	Change	Indian River (South Section) Light 172	Fl R 4s 16ft 5M "172"	N 27 32' 05.583"	W 080 20' 32.532"	27.53488	-80.34237	LNM 38/15, 7th Dist	292	11472_4	9/24/2015
11472	Change	Indian River (South Section) Light 175	Fl G 4s 16ft 5M "175"	N 27 30' 19.991"	W 080 20' 02.246"	27.50555	-80.33395	LNM 38/15, 7th Dist	292	11472_4	9/24/2015
11472	Relocate	Jupiter Sound Daybeacon 57	G "57"	N 26 57' 53.331"	W 080 04' 51.903"	26.96481	-80.08109	LNM 37/15, 7th Dist	295	11472_9	9/24/2015
11472	Change	Indian River (South Section) Light 121	Fl G 4s 16ft 5M "121"	N 27 41' 47.583"	W 080 23' 18.781"	27.69655	-80.38855	LNM 37/15, 7th Dist	292	11472_4	9/24/2015
11472	Change	Indian River (South Section) Light 82	Fl R 4s 12ft 4M "82"	N 27 45' 30.617"	W 080 24' 49.077"	27.7585	-80.41364	LNM 37/15, 7th Dist	292	11472_4	9/24/2015
11472	Change	Lake Worth North Light 42	Fl R 4s 16ft 5M "42"	N 26 46' 24.353"	W 080 03' 00.909"	26.77343	-80.05025	LNM 36/15, 7th Dist	298	11472_7	9/17/2015
11472	Change	Lake Worth Sound Light 1	Q G 12ft 4M "1"	N 26 45' 55.196"	W 080 02' 57.091"	26.76533	-80.04919	LNM 36/15, 7th Dist	298	11472_7	9/17/2015
11472	Change	Lake Worth Sound Light 5	Fl G 4s 16ft 5M "5"	N 26 44' 36.460"	W 080 02' 50.587"	26.74346	-80.04739	LNM 36/15, 7th Dist	299	11472_8	9/17/2015
11472	Change	Indian River (South Section) Light 124	Fl R 4s 16ft 5M "124"	N 27 41' 31.380"	W 080 23' 17.283"	27.69205	-80.38814	LNM 36/15, 7th Dist	292	11472_4	9/17/2015
11472	Change	Indian River (South Section) Light 127	Fl G 4s 12ft 5M "127"	N 27 40' 49.535"	W 080 22' 59.853"	27.68043	-80.38329	LNM 36/15, 7th Dist	292	11472_4	9/17/2015
11472	Relocate	Indian River (South Section) Light 124	Fl R 4s 16ft 5M "124"	N 27 41' 31.380"	W 080 23' 17.283"	27.69205	-80.38814	LNM 36/15, 7th Dist	292	11472_4	9/17/2015
11472	Add	Causeway Cove Daybeacon 2	R "2" Priv	N 27 27' 21.760"	W 080 18' 48.520"	27.45605	-80.31348	LNM 35/15, 7th Dist	293	11472_2	9/10/2015
11472	Add	Causeway Cove North Shoal Daybeacon A	W "A" Priv	N 27 27' 23.130"	W 080 18' 46.350"	27.45642	-80.31287	LNM 35/15, 7th Dist	293	11472_2	9/10/2015
11472	Add	Causeway Cove North Shoal Daybeacon B	W "B" Priv	N 27 27' 24.180"	W 080 18' 43.700"	27.45672	-80.31214	LNM 35/15, 7th Dist	293	11472_2	9/10/2015
11472	Add	Causeway Cove North Shoal Daybeacon C	W "C" Priv	N 27 27' 24.770"	W 080 18' 40.120"	27.45688	-80.31114	LNM 35/15, 7th Dist	293	11472_2	9/10/2015
11472	Add	Causeway Cove South Shoal Daybeacon A	W "A" Priv	N 27 27' 27.750"	W 080 18' 45.940"	27.45771	-80.31276	LNM 35/15, 7th Dist	293	11472_2	9/10/2015
11472	Add	Causeway Cove South Shoal Daybeacon B	W "B" Priv	N 27 27' 22.470"	W 080 18' 42.720"	27.45624	-80.31187	LNM 35/15, 7th Dist	293	11472_2	9/10/2015
11472	Add	Causeway Cove South Shoal Daybeacon C	W "C" Priv	N 27 27' 22.590"	W 080 18' 39.160"	27.45628	-80.31087	LNM 35/15, 7th Dist	293	11472_2	9/10/2015
11472	Add	Low Water Area	low water area, minimum size dotted circle and green tint	N 26 57' 03.300"	W 080 06' 23.200"	26.95092	-80.10645	LNM 35/15, 7th Dist	297	11472_6	9/3/2015
11472	Add	Low Water Area PT 1 OF 6	low water area and green tint	N 26 56' 59.950"	W 080 06' 20.910"	26.94999	-80.10581	LNM 35/15, 7th Dist	297	11472_6	9/3/2015
11472	Add	Low Water Area PT 2 OF 6	low water area and green tint	N 26 56' 59.910"	W 080 06' 14.490"	26.94997	-80.10403	LNM 35/15, 7th Dist	297	11472_6	9/3/2015
11472	Add	Low Water Area PT 3 OF 6	low water area and green tint	N 26 56' 59.390"	W 080 06' 13.930"	26.94983	-80.10387	LNM 35/15, 7th Dist	297	11472_6	9/3/2015
11472	Add	Low Water Area PT 4 OF 6	low water area and green tint	N 26 56' 58.780"	W 080 06' 14.620"	26.94966	-80.10406	LNM 35/15, 7th Dist	297	11472_6	9/3/2015
11472	Add	Low Water Area PT 5 OF 6	low water area and green tint	N 26 56' 59.140"	W 080 06' 21.130"	26.94976	-80.10587	LNM 35/15, 7th Dist	297	11472_6	9/3/2015
11472	Add	Low Water Area PT 6 OF 6	low water area and green tint	N 26 56' 59.650"	W 080 06' 21.130"	26.9499	-80.10587	LNM 35/15, 7th Dist	297	11472_6	9/3/2015
11472	Change	Lake Worth South Light 12	Fl R 4s 12ft 5M "12"	N 26 42' 54.514"	W 080 02' 50.564"	26.71514	-80.04738	LNM 34/15, 7th Dist	299	11472_8	8/27/2015
11472	Change	Lake Worth South Light 17	Fl G 4s 12ft 5M "17"	N 26 41' 23.006"	W 080 02' 47.468"	26.68972	-80.04652	LNM 34/15, 7th Dist	296	11472_10	8/27/2015
11472	Change	Lake Worth South Light 9	Fl G 4s 16ft 5M "9"	N 26 43' 25.419"	W 080 02' 47.674"	26.72373	-80.04658	LNM 34/15, 7th Dist	299	11472_8	8/27/2015
11472	Change	Indian River (South Section) Light 202	Fl R 4s 16ft 5M "202"	N 27 21' 19.123"	W 080 16' 29.106"	27.35531	-80.27475	LNM 33/15, 7th Dist	294	11472_5	8/20/2015
11472	Change	St Lucie Inlet Light 9	Fl G 4s 14ft 5M "9"	N 27 09' 56.918"	W 080 09' 47.846"	27.16581	-80.16329	LNM 27/15, 7th Dist	2931	11472_3	7/16/2015
11472	Relocate	Riverside Marina (Ft Pierce) Daybeacon 2	R "2" Priv	N 27 28' 50.593"	W 080 19' 43.675"	27.48072	-80.3288	LNM 25/15, 7th Dist	293	11472_2	7/2/2015
11472	Relocate	New Port Cove Marine Center Daybeacon 1	G "1" Priv	N 26 46' 46.022"	W 080 02' 45.477"	26.77945	-80.04597	LNM 25/15, 7th Dist	298	11472_7	7/2/2015
11472	Change	Indian River (South Section) Light 85	Fl G 4s 16ft 5M "85"	N 27 45' 30.082"	W 080 24' 19.723"	27.75836	-80.40548	LNM 23/15, 7th Dist	292	11472_4	6/18/2015
11472	Add	Accurate Landmark	STACK    Chart No. 1: E1	N 26 45' 55.170"	W 080 03' 08.810"	26.76533	-80.05244	LNM 24/15, 7th Dist	298	11472_7	6/11/2015
11472	Add	Accurate Landmark	STACK    Chart No. 1: E1	N 26 45' 55.170"	W 080 03' 08.810"	26.76533	-80.05244	LNM 24/15, 7th Dist	295	11472_9	6/11/2015
11472	Add	Accurate Landmark	STACK    Chart No. 1: E1	N 26 45' 55.190"	W 080 03' 12.160"	26.76533	-80.05338	LNM 24/15, 7th Dist	298	11472_7	6/11/2015
11472	Add	Accurate Landmark	STACK    Chart No. 1: E1	N 26 45' 55.190"	W 080 03' 12.160"	26.76533	-80.05338	LNM 24/15, 7th Dist	295	11472_9	6/11/2015
11472	Delete	Accurate Landmark	Chart No. 1: E1	N 26 45' 55.640"	W 080 03' 09.380"	26.76546	-80.0526	LNM 24/15, 7th Dist	295	11472_9	6/11/2015
11472	Delete	Accurate Landmark	STACKS    Chart No. 1: E1	N 26 45' 55.720"	W 080 03' 07.570"	26.76548	-80.0521	LNM 24/15, 7th Dist	295	11472_9	6/11/2015
11472	Add	Accurate Landmark	STACK    Chart No. 1: E1	N 26 45' 55.190"	W 080 03' 10.490"	26.76533	-80.05292	LNM 24/15, 7th Dist	298	11472_7	6/11/2015
11472	Add	Accurate Landmark	STACK    Chart No. 1: E1	N 26 45' 55.190"	W 080 03' 10.490"	26.76533	-80.05292	LNM 24/15, 7th Dist	295	11472_9	6/11/2015
11472	Change	St Lucie River Light 21	Fl G 4s 16ft 5M "21"	N 27 12' 49.690"	W 080 12' 54.226"	27.2138	-80.21507	LNM 19/15, 7th Dist	294	11472_5	5/21/2015
11472	Relocate	Lake Worth North Light 34	Fl R 2.5s 16ft 3M "34"	N 26 47' 35.054"	W 080 02' 47.877"	26.79307	-80.04663	LNM 18/15, 7th Dist	295	11472_9	5/14/2015
11472	Change	Lake Worth North Light 34	Fl R 2.5s 16ft 5M "34"	N 26 47' 35.054"	W 080 02' 47.877"	26.79307	-80.04663	LNM 18/15, 7th Dist	295	11472_9	5/14/2015
11472	Add	Visible Wreck	Chart No. 1: K24	N 26 46' 45.200"	W 080 02' 57.200"	26.77922	-80.04922	LNM 18/15, 7th Dist	298	11472_7	4/30/2015
11472	Change	Indian River (South Section) Light 33	Fl G 4s 16ft 5M "33"	N 27 56' 44.820"	W 080 31' 31.714"	27.94578	-80.52547	LNM 16/15, 7th Dist	291	11472_1	4/30/2015
11472	Relocate	Loxahatchee River Light 12	Fl R 6s 2M "12" Priv	N 26 57' 01.920"	W 080 06' 21.840"	26.95053	-80.10606	LNM 12/15, 7th Dist	297	11472_6	4/2/2015
11472	Relocate	Loxahatchee River Light 14	Fl R 6s "14" Priv	N 26 57' 04.080"	W 080 06' 28.920"	26.95113	-80.10803	LNM 12/15, 7th Dist	297	11472_6	4/2/2015
11472	Change	Loxahatchee River Light 12	Fl R 6s 6ft "12" Priv	N 26 57' 01.920"	W 080 06' 21.840"	26.95053	-80.10606	LNM 12/15, 7th Dist	297	11472_6	4/2/2015
11472	Add	Approximate Landmark	Signs    Chart No. 1: E1	N 27 41' 11.980"	W 080 23' 06.950"	27.68666	-80.38526	LNM 13/15, 7th Dist	292	11472_4	3/26/2015
11472	Add	Approximate Landmark	Sign    Chart No. 1: E1	N 27 38' 59.810"	W 080 22' 26.990"	27.64995	-80.37416	LNM 13/15, 7th Dist	292	11472_4	3/26/2015
11472	Add	Approximate Landmark	Signs    Chart No. 1: E1	N 27 37' 55.140"	W 080 22' 18.950"	27.63198	-80.37193	LNM 13/15, 7th Dist	292	11472_4	3/26/2015
11472	Add	Approximate Landmark	Signs    Chart No. 1: E1	N 27 41' 10.240"	W 080 23' 13.060"	27.68618	-80.38696	LNM 13/15, 7th Dist	292	11472_4	3/26/2015
11472	Add	Approximate Landmark	Signs    Chart No. 1: E ??	N 27 37' 55.110"	W 080 22' 12.600"	27.63198	-80.37016	LNM 13/15, 7th Dist	292	11472_4	3/26/2015
11472	Delete	Dangerous Wreck	PA      Chart No. 1: K28	N 26 46' 20.240"	W 080 02' 12.640"	26.77229	-80.03684	LNM 12/15, 7th Dist	298	11472_7	3/26/2015
11472	Change	Jupiter Inlet Light 1	Fl G 4s 16ft 5M "1"	N 26 56' 45.577"	W 080 04' 47.619"	26.94599	-80.0799	LNM 11/15, 7th Dist	295	11472_9	3/19/2015
11472	Change	St Lucie River Light 17	Fl G 4s 16ft 5M "17"	N 27 10' 57.179"	W 080 11' 43.216"	27.18255	-80.19534	LNM 10/15, 7th Dist	2931	11472_3	3/19/2015
11472	Add	St Lucie Entrance Lighted Buoy 2 Magenta Circle	R "2" Fl R 4s AIS	N 27 10' 01.178"	W 080 08' 23.008"	27.16699	-80.13972	LNM 08/15, 7th Dist	294	11472_5	3/5/2015
11472	Add	Lake Worth Lighted Buoy LW Magenta Circle	RW "LW" Mo (A) AIS	N 26 46' 21.577"	W 080 00' 36.215"	26.77266	-80.01006	LNM 08/15, 7th Dist	295	11472_9	3/5/2015
11472	Add	Lake Worth Inlet Lighted Buoy 3 Magenta Circle	G "3" Fl G 4s AIS	N 26 46' 15.990"	W 080 01' 46.428"	26.77111	-80.02956	LNM 08/15, 7th Dist	298	11472_7	3/5/2015
11472	Add	Lake Worth Inlet Lighted Buoy 3 Magenta Circle	G "3" Fl G 4s AIS	N 26 46' 15.990"	W 080 01' 46.428"	26.77111	-80.02956	LNM 08/15, 7th Dist	295	11472_9	3/5/2015
11472	Add	Fort Pierce Inlet Lighted Buoy 5 Magenta Circle	G "5" Fl G 4s AIS	N 27 28' 19.940"	W 080 17' 00.440"	27.47221	-80.28345	LNM 08/15, 7th Dist	292	11472_4	3/5/2015
11472	Add	Fort Pierce Inlet Lighted Buoy 6 Magenta Circle	R "6" Fl R 4s AIS	N 27 28' 24.591"	W 080 16' 55.743"	27.4735	-80.28215	LNM 08/15, 7th Dist	292	11472_4	3/5/2015
11472	Change	Indian River (South Section) Light 214	Fl R 4s 16ft 5M "214"	N 27 17' 13.794"	W 080 14' 15.966"	27.28716	-80.23777	LNM 08/15, 7th Dist	294	11472_5	3/5/2015
11472	Change	Lake Worth North Light 39	Fl G 4s 12ft 5M "39"	N 26 46' 47.860"	W 080 02' 42.593"	26.77996	-80.04517	LNM 08/15, 7th Dist	298	11472_7	3/5/2015
11472	Change	Depth Legend - Lake Worth Turning Basin to:	31 FT SEP 2014	N 26 46' 06.000"	W 080 02' 59.000"	26.76833	-80.04972	LNM 08/15, 7th Dist	298	11472_7	3/5/2015
11472	Change	Depth Legend - Lake Worth Inlet Channel to:	33 FT SEP 2014	N 26 46' 15.000"	W 080 02' 31.000"	26.77083	-80.04195	LNM 08/15, 7th Dist	298	11472_7	3/5/2015
11472	Change	Depth Legend - Lake Worth Inlet Entrance Channel to:	25 FT SEP 2014	N 26 46' 20.000"	W 080 01' 53.000"	26.77222	-80.03139	LNM 08/15, 7th Dist	298	11472_7	3/5/2015
11472	Change	Indian River (South Section) Light 146	Fl R 4s 12ft 5M "146"	N 27 38' 09.251"	W 080 22' 19.578"	27.6359	-80.37211	LNM 06/15, 7th Dist	292	11472_4	2/19/2015
11472	Change	Melbourne Channel Light 7	Q G 12ft 4M "7"	N 28 04' 32.034"	W 080 35' 57.396"	28.07557	-80.59927	LNM 06/15, 7th Dist	291	11472_1	2/19/2015
11472	Change	Jupiter Inlet Light 4	Fl R 4s 16ft 5M "4"	N 26 56' 52.297"	W 080 05' 18.580"	26.94786	-80.08849	LNM 04/15, 7th Dist	297	11472_6	2/5/2015
11472	Change	Jupiter Inlet Light 4	Fl R 4s 16ft 5M "4"	N 26 56' 52.297"	W 080 05' 18.580"	26.94786	-80.08849	LNM 04/15, 7th Dist	295	11472_9	2/5/2015
11472	Add	Loxahatchee River South Channel Daybeacon 1	G "1" Priv	N 26 56' 52.680"	W 080 05' 40.860"	26.94797	-80.09468	LNM 04/15, 7th Dist	297	11472_6	2/5/2015
11472	Add	Loxahatchee River South Channel Daybeacon 10	R "10" Priv	N 26 56' 46.920"	W 080 06' 03.480"	26.94637	-80.10097	LNM 04/15, 7th Dist	297	11472_6	2/5/2015
11472	Add	Loxahatchee River South Channel Daybeacon 11	G "11" Priv	N 26 56' 46.440"	W 080 06' 09.240"	26.94623	-80.10257	LNM 04/15, 7th Dist	297	11472_6	2/5/2015
11472	Add	Loxahatchee River South Channel Daybeacon 12	R "12" Priv	N 26 56' 46.920"	W 080 06' 09.300"	26.94637	-80.10258	LNM 04/15, 7th Dist	297	11472_6	2/5/2015
11472	Add	Loxahatchee River South Channel Daybeacon 13	G "13" Priv	N 26 56' 43.920"	W 080 06' 15.240"	26.94553	-80.10423	LNM 04/15, 7th Dist	297	11472_6	2/5/2015
11472	Add	Loxahatchee River South Channel Daybeacon 14	R "14" Priv	N 26 56' 45.960"	W 080 06' 15.840"	26.9461	-80.1044	LNM 04/15, 7th Dist	297	11472_6	2/5/2015
11472	Add	Loxahatchee River South Channel Daybeacon 16	R "16" Priv	N 26 56' 48.240"	W 080 06' 21.480"	26.94673	-80.10596	LNM 04/15, 7th Dist	297	11472_6	2/5/2015
11472	Add	Loxahatchee River South Channel Daybeacon 17	G "17" Priv	N 26 56' 46.740"	W 080 06' 25.140"	26.94632	-80.10699	LNM 04/15, 7th Dist	297	11472_6	2/5/2015
11472	Add	Loxahatchee River South Channel Daybeacon 18	R "18" Priv	N 26 56' 51.300"	W 080 06' 27.720"	26.94758	-80.1077	LNM 04/15, 7th Dist	297	11472_6	2/5/2015
11472	Add	Loxahatchee River South Channel Daybeacon 2	R "2" Priv	N 26 56' 53.100"	W 080 05' 41.160"	26.94808	-80.09476	LNM 04/15, 7th Dist	297	11472_6	2/5/2015
11472	Add	Loxahatchee River South Channel Daybeacon 3	G "3" Priv	N 26 56' 50.100"	W 080 05' 45.120"	26.94725	-80.09586	LNM 04/15, 7th Dist	297	11472_6	2/5/2015
11472	Add	Loxahatchee River South Channel Daybeacon 4	R "4" Priv	N 26 56' 50.520"	W 080 05' 45.360"	26.94737	-80.09593	LNM 04/15, 7th Dist	297	11472_6	2/5/2015
11472	Add	Loxahatchee River South Channel Daybeacon 6	R "6" Priv	N 26 56' 48.180"	W 080 05' 50.640"	26.94672	-80.0974	LNM 04/15, 7th Dist	297	11472_6	2/5/2015
11472	Add	Loxahatchee River South Channel Daybeacon 7	G "7" Priv	N 26 56' 45.600"	W 080 05' 57.060"	26.946	-80.09918	LNM 04/15, 7th Dist	297	11472_6	2/5/2015
11472	Add	Loxahatchee River South Channel Daybeacon 8	R "8" Priv	N 26 56' 46.080"	W 080 05' 57.120"	26.94613	-80.0992	LNM 04/15, 7th Dist	297	11472_6	2/5/2015
11472	Add	Loxahatchee River South Channel Daybeacon 9	G "9" Priv	N 26 56' 46.440"	W 080 06' 03.480"	26.94623	-80.10097	LNM 03/80, 7th Dist	297	11472_6	2/5/2015
11472	Relocate	Lake Worth South Daybeacon 8	R "8"	N 26 43' 49.534"	W 080 02' 50.579"	26.73043	-80.04739	LNM 47/14, 7th Dist	299	11472_8	12/4/2014
11472	Delete	Sounding in Feet	28	N 26 53' 34.200"	W 080 02' 50.100"	26.89283	-80.04725	LNM 46/14, 7th Dist	295	11472_9	11/20/2014
11472	Delete	Sounding in Feet	25	N 26 53' 45.100"	W 080 02' 59.300"	26.89586	-80.0498	LNM 46/14, 7th Dist	295	11472_9	11/20/2014
11472	Delete	Sounding in Feet	23	N 26 53' 25.700"	W 080 02' 57.500"	26.89047	-80.04931	LNM 46/14, 7th Dist	295	11472_9	11/20/2014
11472	Delete	Sounding in Feet	22	N 26 53' 56.200"	W 080 03' 07.600"	26.89894	-80.05211	LNM 46/14, 7th Dist	295	11472_9	11/20/2014
11472	Add	Minimum Size (2mm sq.) Dotted Fish Haven and Label PT 1 OF 4	Obstn Fish Haven (auth min 7 ft), Chart No. 1 K46.2	N 26 54' 02.000"	W 080 02' 49.000"	26.90055	-80.04694	LNM 46/14, 7th Dist	295	11472_9	11/20/2014
11472	Add	Minimum Size (2mm sq.) Dotted Fish Haven and Label PT 2 OF 4	Obstn Fish Haven (auth min 7 ft), Chart No. 1 K46.2	N 26 53' 31.000"	W 080 02' 37.000"	26.89194	-80.04361	LNM 46/14, 7th Dist	295	11472_9	11/20/2014
11472	Add	Minimum Size (2mm sq.) Dotted Fish Haven and Label PT 3 OF 4	Obstn Fish Haven (auth min 7 ft), Chart No. 1 K46.2	N 26 53' 23.000"	W 080 03' 04.000"	26.88972	-80.05111	LNM 46/14, 7th Dist	295	11472_9	11/20/2014
11472	Add	Minimum Size (2mm sq.) Dotted Fish Haven and Label PT 4 OF 4	Obstn Fish Haven (auth min 7 ft), Chart No. 1 K46.2	N 26 53' 54.000"	W 080 03' 16.000"	26.89833	-80.05444	LNM 46/14, 7th Dist	295	11472_9	11/20/2014
11472	Delete	Sounding in Feet	31	N 26 53' 57.300"	W 080 02' 49.500"	26.89925	-80.04708	LNM 46/14, 7th Dist	295	11472_9	11/20/2014
11472	Change	Indian River (South Section) Light 63	Fl G 4s 16ft 5M "63"	N 27 50' 46.635"	W 080 28' 24.636"	27.84629	-80.47351	LNM 42/14, 7th Dist	291	11472_1	10/30/2014
11472	Change	Indian River (South Section) Light 92	Fl R 4s 16ft 5M "92"	N 27 44' 54.298"	W 080 24' 09.979"	27.74842	-80.40277	LNM 42/14, 7th Dist	292	11472_4	10/30/2014
11472	Add	St Lucie River Buoy 17A	G C "17A"	N 27 11' 02.467"	W 080 11' 49.336"	27.18402	-80.19704	LNM 40/14, 7th Dist	2931	11472_3	10/16/2014
11472	Change	Indian River (South Section) Light 7	Fl G 4s 12ft 5M "7"	N 28 04' 05.664"	W 080 34' 58.554"	28.06824	-80.58293	LNM 39/14, 7th Dist	291	11472_1	10/9/2014
11472	Delete	Label	High Speed Ferry Route (see note E)	N 26 45' 52.000"	W 080 01' 46.000"	26.76444	-80.02944	LNM 37/14, 7th Dist	298	11472_7	9/18/2014
11472	Delete	Label	High Speed Ferry Route (see note E)	N 26 45' 56.000"	W 080 00' 31.000"	26.76556	-80.00861	LNM 37/14, 7th Dist	295	11472_9	9/18/2014
11472	Relocate	St Lucie River Buoy 6A	R N "6A"	N 27 09' 54.662"	W 080 11' 24.895"	27.16518	-80.19025	LNM 35/14, 7th Dist	2931	11472_3	9/11/2014
11472	Change	St Lucie River Light 11	Fl G 4s 14ft 5M "11"	N 27 10' 03.409"	W 080 11' 38.330"	27.16761	-80.19398	LNM 32/14, 7th Dist	2931	11472_3	8/21/2014
11472	Change	Indian River (South Section) Light 82	Fl R 4s 12ft 5M "82"	N 27 45' 30.617"	W 080 24' 49.077"	27.7585	-80.41364	LNM 32/14, 7th Dist	292	11472_4	8/21/2014
11472	Delete	Note E	High speed ferries operate between Lake Worth Inlet and Freeport Harbor, Grand Bahama Island. Mariners are cautioned that these craft move very rapidly and may transit waterways at angles to the normal direction of traffic. Ferries may deviate from published routes.	N 26 47' 03.000"	W 080 03' 40.000"	26.78417	-80.06111	LNM 34/14, 7th Dist	295	11472_9	8/21/2014
11472	Change	Indian River (South Section) Light 159	Fl G 4s 16ft 5M "159"	N 27 35' 24.770"	W 080 21' 17.007"	27.59021	-80.35472	LNM 28/14, 7th Dist	292	11472_4	7/24/2014
11472	Change	Indian River (South Section) Light 110	Fl R 4s 16ft 5M "110"	N 27 43' 24.011"	W 080 23' 48.484"	27.72334	-80.3968	LNM 25/14, 7th Dist	292	11472_4	6/26/2014
11472	Change	Indian River (South Section) Light 192	Fl R 4s 16ft 5M "192"	N 27 25' 26.742"	W 080 18' 14.211"	27.4241	-80.30395	LNM 23/14, 7th Dist	292	11472_4	6/19/2014
11472	Delete	Great Pocket Shoal Daybeacon	W Bn	N 27 09' 52.483"	W 080 10' 46.946"	27.16458	-80.17971	LNM 22/14, 7th Dist	2931	11472_3	6/12/2014
11472	Change	Indian River (South Section) Light 48	Fl R 4s 16ft 5M "48"	N 27 54' 12.681"	W 080 30' 30.189"	27.90352	-80.50838	LNM 22/14, 7th Dist	291	11472_1	6/12/2014
11472	Change	Indian River (South Section) Light 57	Fl G 4s 12ft 5M "57"	N 27 52' 13.196"	W 080 29' 06.701"	27.87033	-80.48519	LNM 19/14, 7th Dist	291	11472_1	5/22/2014
11472	Change	Indian River (South Section) Light 38	Fl R 4s 16ft 5M "38"	N 27 55' 40.921"	W 080 31' 20.672"	27.92803	-80.52241	LNM 17/14, 7th Dist	291	11472_1	5/8/2014
11472	Change	Depth Legend - LAKE WORTH INLET, PALM BEACH 	32 FT NOV 2013	N 26 46' 20.680"	W 080 01' 53.350"	26.77241	-80.03149	LNM 16/14, 7th Dist	298	11472_7	4/17/2014
11472	Change	Depth Legend - TAYLOR CREEK 	7 FEET 2007-2013	N 27 27' 59.700"	W 080 19' 36.300"	27.46658	-80.32675	LNM 16/14, 7th Dist	293	11472_2	4/17/2014
11472	Add	Obstruction in Feet	6 Obstn       Chart No. 1: K41	N 27 28' 02.540"	W 080 19' 21.430"	27.46737	-80.32262	LNM 16/14, 7th Dist	293	11472_2	4/17/2014
11472	Change	Depth Legend - TAYLOR CREEK 	7 FT 2007-2013	N 27 27' 59.700"	W 080 19' 36.300"	27.46658	-80.32675	LNM 16/14, 7th Dist	293	11472_2	4/17/2014
11472	Add	Queens Cove Daybeacon 1A	G "1A" Priv	N 27 30' 55.260"	W 080 19' 59.520"	27.51535	-80.3332	LNM 10/14, 7th Dist	292	11472_4	3/27/2014
11472	Add	Queens Cove Daybeacon 2A	R "2A" Priv	N 27 30' 54.660"	W 080 19' 59.290"	27.51518	-80.33314	LNM 10/14, 7th Dist	292	11472_4	3/27/2014
11463	Relocate	Angelfish Creek Daybeacon 12	R "12"	N 25 20' 07.104"	W 080 16' 41.489"	25.33531	-80.27819	LNM 21/17, 7th Dist	2928	11463_1	6/1/2017
11463	Relocate	Ocean Reef Harbor Entrance Light 2	Fl R 4s 16ft 5M "2"	N 25 18' 30.959"	W 080 16' 03.348"	25.3086	-80.26759	LNM 21/17, 7th Dist	2928	11463_1	6/1/2017
11400	Relocate	Anclote Anchorage South Entrance Light 3	Fl G 4s 16ft 5M "3"	N 28 08' 18.493"	W 082 50' 52.622"	28.13847	-82.84795	LNM 44/16, 7th Dist	177	11400_1	11/3/2016
11400	Change	Anclote Anchorage South Entrance Light 3	Fl G 4s 16ft 5M "3"	N 28 08' 18.493"	W 082 50' 52.622"	28.13847	-82.84795	LNM 44/16, 7th Dist	177	11400_1	11/3/2016
11400	Delete	St Marks River Lighted Buoy SM	RW "SM" Mo (A)	N 30 01' 02.549"	W 084 10' 29.827"	30.01737	-84.17495	LNM 42/16, 8th Dist	177	11400_1	10/27/2016
11400	Delete	Cross Florida Barge Canal Approach Lighted Buoy 2	R "2" Fl R 2.5s	N 28 55' 23.909"	W 083 11' 45.441"	28.92331	-83.19595	LNM 40/16, 7th Dist	177	11400_1	10/13/2016
11400	Add	Submerged Wreck	PA	N 27 47' 18.360"	W 083 06' 37.020"	27.78843	-83.11028	LNM 30/16, 7th Dist	177	11400_1	7/28/2016
11400	Delete	Dog Island Reef West Buoy 2	R N "2"	N 29 48' 48.000"	W 084 31' 12.000"	29.81333	-84.52	LNM 09/16, 8th Dist	177	11400_1	3/10/2016
11400	Relocate	South Shoal Lighted Buoy 26	FL R 6s "26"	N 29 47' 57.166"	W 084 20' 41.718"	29.79921	-84.34492	LNM 32/15, 8th Dist	177	11400_1	8/27/2015
11400	Add	Wreck in Fathoms	2 3/4 Wk    Chart No. 1: K26	N 27 55' 58.377"	W 082 55' 07.013"	27.93288	-82.91862	LNM 34/15, 7th Dist	177	11400_1	8/20/2015
11400	Relocate	USF COMPS Lighted Buoy C12	Y "C12" Fl Y 4s Priv	N 27 30' 17.460"	W 083 44' 28.200"	27.50485	-83.74117	LNM 25/15, 7th Dist	177	11400_1	7/2/2015
11400	Add	Tampa Bay Lighted Buoy T Magenta Circle	RW "T" Mo (A) RACON (-) AIS	N 27 35' 18.731"	W 083 00' 42.547"	27.58854	-83.01182	LNM 08/15, 7th Dist	177	11400_1	3/5/2015
11400	Add	Obstruction	Obstn PA Rep (2014)         Chart No. 1: K40	N 27 36' 09.840"	W 083 02' 08.460"	27.60273	-83.03568	LNM 47/14, 7th Dist	177	11400_1	11/20/2014
11400	Delete	Minimum Size (2mm sq.) Dotted Fish Haven and Label	Obstn Fish Haven (auth min 3 1/4 fms), Chart No. 1 K46.2	N 29 19' 49.100"	W 083 26' 19.130"	29.33031	-83.43864	LNM 47/14, 7th Dist	177	11400_1	11/20/2014
11400	Add	Minimum Size (2mm sq.) Dotted Fish Haven and Label	Obstn Fish Haven (auth min 3 fms), Chart No. 1 K46.2	N 29 19' 41.140"	W 083 26' 15.060"	29.32809	-83.43752	LNM 47/14, 7th Dist	177	11400_1	11/20/2014
11400	Add	Minimum Size (2mm sq.) Dotted Fish Haven and Label	Obstn Fish Haven (auth min 15 ft), Chart No. 1 K46.2	N 30 00' 03.180"	W 084 09' 06.710"	30.00088	-84.15186	LNM 49/14, 8th Dist	177	11400_1	11/20/2014
11400	Delete	Minimum Size (2mm sq.) Dotted Fish Haven and Label	Obstn Fish Haven (approx min 15 ft), Chart No. 1 K46.2	N 30 00' 12.940"	W 084 08' 56.410"	30.0036	-84.149	LNM 49/14, 8th Dist	177	11400_1	11/20/2014
11400	Add	Visible Wreck	PA	N 27 39' 02.000"	W 082 45' 30.000"	27.65055	-82.75833	LNM 23/14, 7th Dist	177	11400_1	6/19/2014
11400	Delete	USF COMPS Lighted Buoy C14	Y "C14" Fl Y 4s Priv	N 28 18' 39.000"	W 083 18' 20.340"	28.31083	-83.30565	LNM 22/14, 7th Dist	177	11400_1	6/12/2014
11400	Delete	USF COMPS Lighted Buoy C16	Y "C16" Fl Y 4s Priv	N 27 27' 29.460"	W 084 13' 05.460"	27.45818	-84.21819	LNM 22/14, 7th Dist	177	11400_1	6/12/2014
11400	Change	Cedar Keys Northwest Channel Approach Light 2	Fl R 2.5s 16ft 5M "2"	N 29 08' 28.944"	W 083 07' 51.189"	29.14137	-83.13088	LNM 22/14, 7th Dist	177	11400_1	6/12/2014
11400	Change	Anclote Anchorage North Entrance Light 4	Fl R 6s 15ft 5M "4"	N 28 14' 44.311"	W 082 49' 57.051"	28.24564	-82.83251	LNM 20/14, 7th Dist	177	11400_1	5/29/2014
11400	Add	Visible Wreck	PA	N 27 56' 12.000"	W 082 56' 12.000"	27.93667	-82.93667	LNM 20/14, 7th Dist	177	11400_1	5/29/2014
11400	Add	Non Dangerous Wreck	PA      Chart No. 1: K29	N 29 08' 16.200"	W 085 26' 58.800"	29.13783	-85.44967	LNM 12/14, 8th Dist	177	11400_1	4/3/2014
11400	Change	USF COMPS Lighted Buoy C12	Y "C12" Fl Y 4s Priv	N 27 29' 54.000"	W 083 43' 18.000"	27.49833	-83.72166	LNM 33/13, 7th Dist	177	11400_1	8/22/2013
11400	Change	USF COMPS Lighted Buoy C16	Y "C16" Fl Y 4s Priv	N 27 27' 29.460"	W 084 13' 05.460"	27.45818	-84.21819	LNM 33/13, 7th Dist	177	11400_1	8/22/2013
11400	Change	USF COMPS Lighted Buoy C14	Y "C14" Fl Y 4s Priv	N 28 18' 39.000"	W 083 18' 20.340"	28.31083	-83.30565	LNM 33/13, 7th Dist	177	11400_1	8/22/2013
11400	Add	Obstruction in Fathoms	3 1/2 Obstn PA       Chart No. 1: K41	N 29 54' 09.100"	W 085 28' 26.700"	29.90253	-85.47408	LNM 20/13, 8th Dist	177	11400_1	5/8/2013
11400	Change	U.S. Air Force Instrumentation Tower Light N6	Q 120ft "N6" HORN Air Force	N 29 24' 54.000"	W 084 20' 42.000"	29.415	-84.345	LNM 44/12, 8th Dist	177	11400_1	11/2/2012
11400	Change	U.S. Air Force Instrumentation Tower Light N7	Q 120ft "N7" HORN Air Force	N 29 39' 54.000"	W 084 22' 12.000"	29.665	-84.37	LNM 44/12, 8th Dist	177	11400_1	11/2/2012
11400	Change	U.S. Air Force Instrumentation Tower Light N5	Q 120ft "N5" HORN Air Force	N 29 17' 54.000"	W 084 36' 42.000"	29.29833	-84.61166	LNM 44/12, 8th Dist	177	11400_1	11/2/2012
11400	Change	U.S. Air Force Instrumentation Tower Light N3	Q 120ft "N3" HORN Air Force	N 29 32' 18.000"	W 084 37' 00.000"	29.53833	-84.61667	LNM 44/12, 8th Dist	177	11400_1	11/2/2012
11400	Change	U.S. Air Force Instrumentation Tower Light N4	Q 160ft "N4" HORN Air Force	N 29 24' 42.000"	W 084 51' 24.000"	29.41167	-84.85667	LNM 44/12, 8th Dist	177	11400_1	11/2/2012
11400	Relocate	St Marks Light and River Range Rear Light	Oc 4s 80ft 8M	N 30 04' 25.725"	W 084 10' 46.689"	30.07381	-84.17963	LNM 35/12, 8th Dist	177	11400_1	8/29/2012
11400	Change	St Marks Light and River Range Rear Light to Oc W 4s, 80 Ft., 8NM	Oc 4s 80ft 8M	N 30 04' 25.725"	W 084 10' 46.689"	30.07381	-84.17963	LNM 35/12, 8th Dist	177	11400_1	8/29/2012
11400	Change	South Shoal Lighted Buoy 26	R "26" Fl R 6s	N 29 47' 57.166"	W 084 20' 14.718"	29.79921	-84.33743	LNM 33/12, 8th Dist	177	11400_1	8/23/2012
11400	Relocate	South Shoal Lighted Buoy 26	R "26" Fl R 6s	N 29 47' 57.166"	W 084 20' 14.718"	29.79921	-84.33743	LNM 33/12, 8th Dist	177	11400_1	8/23/2012
11400	Change	Carrabell Channel Lighted Buoy 2	R "2" Fl R 4s	N 29 44' 32.767"	W 084 39' 12.146"	29.74244	-84.65337	LNM 32/12, 8th Dist	177	11400_1	8/13/2012
11400	Relocate	Carrabell Channel Lighted Buoy 2	R "2" Fl R 4s	N 29 44' 32.767"	W 084 39' 12.146"	29.74244	-84.65337	LNM 32/12, 8th Dist	177	11400_1	8/13/2012
11400	Relocate	St Marks Light and River Range Rear Light	Oc 4s 82ft 8M	N 30 04' 25.724"	W 084 10' 46.688"	30.07381	-84.17963	LNM 24/12, 8th Dist	177	11400_1	6/19/2012
11400	Change	Obstruction	Obstn PA (cov 2 1/2 fms) Rep 2011         Chart No. 1: K40	N 29 43' 15.900"	W 085 28' 31.800"	29.72108	-85.4755	LNM 20/12, 8th Dist	177	11400_1	5/7/2012
11400	Change	Anclote Anchorage South Entrance Light 1	Fl G 2.5s 16ft 5M "1"	N 28 08' 17.009"	W 082 51' 57.369"	28.13806	-82.86594	LNM 22/11, 7th Dist	177	11400_1	6/8/2011
11400	Delete	St George Island Wreck Lighted Buoy WR	R "WR" Q R Priv	N 29 35' 48.000"	W 085 00' 00.000"	29.59667	-85	LNM 13/11, 8th Dist	177	11400_1	4/4/2011
11400	Add	Obstruction	Obstn PA (cov 3 1/4 fms) Rep 2011         Chart No. 1: K40	N 29 43' 15.600"	W 085 28' 31.800"	29.721	-85.4755	LNM 08/11, 8th Dist	177	11400_1	3/1/2011
11400	Add	Visible Wreck	PA     Chart No. 1: K24	N 28 58' 46.200"	W 083 12' 35.580"	28.9795	-83.20988	LNM 34/10, 7th Dist	177	11400_1	8/27/2010
11400	Delete	Obstruction	Obstn         Chart No. 1: K40	N 29 53' 56.690"	W 085 27' 48.530"	29.89908	-85.46348	LNM 22/10, 8th Dist	177	11400_1	6/2/2010
11400	Add	Dotted Fish Haven PT 1 OF 4	Chart No. 1: K46.2	N 29 54' 17.190"	W 085 26' 58.050"	29.90478	-85.44946	LNM 22/10, 8th Dist	177	11400_1	6/2/2010
11400	Add	Dotted Fish Haven PT 2 OF 4	Chart No. 1: K46.2	N 29 54' 13.380"	W 085 26' 55.200"	29.90372	-85.44867	LNM 22/10, 8th Dist	177	11400_1	6/2/2010
11400	Add	Dotted Fish Haven PT 3 OF 4	Chart No. 1: K46.2	N 29 53' 45.820"	W 085 28' 07.600"	29.89606	-85.46878	LNM 22/10, 8th Dist	177	11400_1	6/2/2010
11400	Add	Dotted Fish Haven PT 4 OF 4	Chart No. 1: K46.2	N 29 56' 21.300"	W 085 29' 59.900"	29.93925	-85.49997	LNM 22/10, 8th Dist	177	11400_1	6/2/2010
11400	Delete	Dotted Fish Haven PT 1 OF 3	Chart No. 1: K46.2	N 29 54' 17.190"	W 085 26' 58.050"	29.90478	-85.44946	LNM 22/10, 8th Dist	177	11400_1	6/2/2010
11400	Delete	Dotted Fish Haven PT 2 OF 3	Chart No. 1: K46.2	N 29 53' 51.990"	W 085 28' 05.330"	29.89778	-85.46815	LNM 22/10, 8th Dist	177	11400_1	6/2/2010
11400	Delete	Dotted Fish Haven PT 3 OF 3	Chart No. 1: K46.2	N 29 56' 24.170"	W 085 29' 56.480"	29.94005	-85.49902	LNM 22/10, 8th Dist	177	11400_1	6/2/2010
11400	Add	Obstruction	Obstn Aquaculture Area         Chart No. 1: K40	N 29 46' 23.940"	W 084 19' 28.320"	29.77332	-84.32453	LNM 06/10, 7th Dist	177	11400_1	2/24/2010
11400	Change	Anclote Anchorage S. Ent. Light 1	Fl G 2.5s 16ft 4M "1"	N 28 08' 17.009"	W 082 51' 57.369"	28.13806	-82.86594	LNM 04/10, 7th Dist	177	11400_1	2/3/2010
11400	Relocate	Cedar Keys NW Channel App Lt 2	Fl R 2.5s 16ft 4M "2"	N 29 08' 28.944"	W 083 07' 51.189"	29.14137	-83.13088	LNM 39/09, 7th Dist	177	11400_1	10/8/2009
11400	Add	Dotted Fish Haven PT 1 OF 4	None	N 29 44' 13.100"	W 085 29' 25.700"	29.73697	-85.49047	LNM 40/09, 8th Dist	177	11400_1	10/8/2009
11400	Add	Dotted Fish Haven PT 2 OF 4	None	N 29 44' 12.300"	W 085 28' 17.200"	29.73675	-85.47144	LNM 40/09, 8th Dist	177	11400_1	10/8/2009
11400	Add	Dotted Fish Haven PT 3 OF 4	None	N 29 43' 12.900"	W 085 28' 17.200"	29.72025	-85.47144	LNM 40/09, 8th Dist	177	11400_1	10/8/2009
11400	Add	Dotted Fish Haven PT 4 OF 4	None	N 29 43' 12.900"	W 085 29' 25.700"	29.72025	-85.49047	LNM 40/09, 8th Dist	177	11400_1	10/8/2009
11400	Add	Dotted Fish Haven Label	Obstn Fish Haven (auth min 40 ft)	N 29 43' 43.260"	W 085 28' 51.020"	29.72868	-85.48084	LNM 40/09, 8th Dist	177	11400_1	10/8/2009
11400	Add	Sounding in Fathoms 	7	N 27 35' 32.000"	W 083 04' 35.000"	27.59222	-83.07639	LNM 39/09, 7th Dist	177	11400_1	10/1/2009
11400	Change	U.S. Air Force Instrumentation Tower Light O	TR Q 120ft 5M "O" HORN Air Force	N 29 32' 18.000"	W 084 37' 00.000"	29.53833	-84.61667	LNM 34/09, 8th Dist	177	11400_1	9/3/2009
11400	Add	Sounding in Fathoms	9 1/4	N 27 35' 42.000"	W 083 11' 06.000"	27.595	-83.185	WNM 24/09, NGA	177	11400_1	6/18/2009
11400	Add	Sounding in Fathoms	9 1/2	N 27 33' 54.000"	W 083 10' 54.000"	27.565	-83.18166	WNM 24/09, NGA	177	11400_1	6/18/2009
11400	Add	Sounding in Fathoms	12	N 27 32' 30.000"	W 083 14' 30.000"	27.54167	-83.24167	WNM 24/09, NGA	177	11400_1	6/18/2009
11400	Add	Sounding in Fathoms	16	N 27 27' 42.000"	W 083 26' 42.000"	27.46167	-83.445	WNM 24/09, NGA	177	11400_1	6/18/2009
11400	Add	Sounding in Fathoms	11	N 27 34' 36.000"	W 083 08' 54.000"	27.57667	-83.14833	WNM 24/09, NGA	177	11400_1	6/18/2009
11400	Change	Dotted Fish Haven Label	Obstn Fish Haven (auth min 3 1/2 fms)	N 27 43' 22.500"	W 082 58' 30.100"	27.72292	-82.97503	LNM 23/09, 7th Dist	177	11400_1	6/18/2009
11400	Change	Dotted Fish Haven Label	Obstn Fish Haven (auth min 3 1/2 fms)	N 28 02' 59.500"	W 083 00' 44.800"	28.04986	-83.01244	LNM 23/09, 7th Dist	177	11400_1	6/18/2009
11400	Relocate	NOAA ODAS Lighted Buoy 42036	Y ODAS "42036" Fl (4) Y 20s PA	N 28 30' 00.000"	W 084 31' 00.000"	28.5	-84.51667	LNM 20/09, 7th Dist	177	11400_1	6/1/2009
11400	Add	St. George Lighthouse	Fl 6s 76ft Priv	N 29 39' 46.580"	W 084 51' 46.330"	29.66294	-84.86287	LNM 17/09, 8th Dist	177	11400_1	5/7/2009
11400	Add	USF COMPS Lighted Buoy C12	Y "C12" Fl Y 12s Priv	N 27 29' 54.000"	W 083 43' 18.000"	27.49833	-83.72166	LNM 52/08, 7th Dist	177	11400_1	1/3/2009
11400	Add	USF COMPS Lighted Buoy C14	Y "C14" Fl Y 12s Priv	N 28 18' 39.000"	W 083 18' 20.340"	28.31083	-83.30565	LNM 52/08, 7th Dist	177	11400_1	1/3/2009
11400	Add	USF COMPS Lighted Buoy C16	Y "C16" Fl Y 12s Priv	N 27 27' 29.460"	W 084 13' 05.460"	27.45818	-84.21819	LNM 52/08, 7th Dist	177	11400_1	1/3/2009
11400	Change	Homosassa Bay Entrance Light 2	Fl R 4s 16ft 4M "2"	N 28 41' 25.500"	W 082 48' 38.897"	28.69042	-82.81081	Not Yet Published	177	11400_1	12/4/2008
11400	Change	Anclote Anchorage N Entrance Light 2	Fl R 2.5s 16ft 4M "2"	N 28 15' 03.211"	W 082 52' 54.231"	28.25089	-82.88173	LNM 32/08, 7th Dist	177	11400_1	9/26/2008
11400	Change	Anclote Anchorage N Entrance Light 4	Fl R 6s 15ft 3M "4"	N 28 14' 44.311"	W 082 49' 57.051"	28.24564	-82.83251	LNM 32/08, 7th Dist	177	11400_1	9/26/2008
11400	Delete	Cape St George Shoal Buoy 1	G C "1"	N 29 33' 21.913"	W 084 58' 17.160"	29.55609	-84.97144	LNM 51/07, 8th Dist	177	11400_1	2/13/2008
11400	Relocate	Cape San Blas Shoal Inner Buoy 3	G C "3"	N 29 38' 20.754"	W 085 22' 35.701"	29.6391	-85.37659	LNM 46/07, 8th Dist	177	11400_1	2/13/2008
11400	Add	Minimum Size (2mm sq.) Dotted Fish Haven and Label	Obstn Fish Haven (auth min 7 3/4 ft), Chart No. 1 K46.2	N 27 41' 41.700"	W 083 17' 29.100"	27.69492	-83.29142	LNM 34/07, 7th Dist	177	11400_1	2/13/2008
11400	Add	Dangerous Wreck	PA	N 29 46' 06.000"	W 083 58' 12.000"	29.76833	-83.97	LNM 26/07, 8th Dist	177	11400_1	2/13/2008
11400	Add	Dotted Fish Haven PT 1 OF 4	Chart No. 1: K46.2	N 29 40' 04.200"	W 084 30' 03.400"	29.66783	-84.50095	LNM 12/07, 8th Dist	177	11400_1	2/13/2008
11400	Add	Dotted Fish Haven PT 2 OF 4	Chart No. 1: K46.2	N 29 40' 04.200"	W 084 29' 56.600"	29.66783	-84.49905	LNM 12/07, 8th Dist	177	11400_1	2/13/2008
11400	Add	Dotted Fish Haven PT 3 OF 4	Chart No. 1: K46.2	N 29 39' 04.200"	W 084 29' 56.600"	29.65117	-84.49905	LNM 12/07, 8th Dist	177	11400_1	2/13/2008
11400	Add	Dotted Fish Haven PT 4 OF 4	Chart No. 1: K46.2	N 29 39' 04.200"	W 084 30' 03.400"	29.65117	-84.50095	LNM 12/07, 8th Dist	177	11400_1	2/13/2008
11400	Add	Dotted Fish Haven Label	Obstn Fish Haven (auth min 4 1/2 fms)	N 29 39' 34.000"	W 084 30' 00.000"	29.65944	-84.5	LNM 12/07, 8th Dist	177	11400_1	2/13/2008
11400	Change	Sounding in Fathoms 	9 1/4	N 29 41' 59.970"	W 084 21' 58.480"	29.69999	-84.36624	LNM 51/06, 7th Dist	177	11400_1	2/13/2008
11400	Add	Pile	Piles PA     Chart No. 1: F22	N 28 21' 56.000"	W 082 45' 05.000"	28.36555	-82.75139	LNM 51/06, 7th Dist	177	11400_1	2/13/2008
11400	Add	Pile	pile     Chart No. 1: F22	N 28 21' 38.000"	W 082 44' 52.000"	28.36056	-82.74778	LNM 51/06, 7th Dist	177	11400_1	2/13/2008
11400	Relocate	Homosassa Bay Entrance Light 2	Fl R 4s 16ft 5M "2"	N 28 41' 25.500"	W 082 48' 38.897"	28.69042	-82.81081	LNM 47/06, 7th Dist	177	11400_1	2/13/2008
11400	Delete	Cape San Blas Outer Shoal Lighted Bell Buoy 30	R Fl R 6s "30" BELL	N 29 28' 31.791"	W 085 29' 49.715"	29.4755	-85.49715	LNM 36/06, 8th Dist	177	11400_1	2/13/2008
11400	Delete	Dangerous Wreck	PA (5 3/4 fms rep)                 Chart No. 1: K28	N 29 12' 00.006"	W 083 52' 00.054"	29.2	-83.86668	LNM 26/06, 7th Dist	177	11400_1	2/13/2008
11400	Add	Dangerous Wreck	PA (5 3/4 fms rep)         Chart No. 1: K28	N 29 12' 06.000"	W 083 52' 54.000"	29.20167	-83.88167	LNM 26/06, 7th Dist	177	11400_1	2/13/2008
11400	Add	Dangerous Wreck	5 3/4 fms rep	N 29 12' 00.006"	W 083 52' 00.054"	29.2	-83.86668	LNM 16/06, 7th Dist	177	11400_1	2/13/2008
11400	Add	Southwest Channel Ent LBB 1	G "1" Fl G 2.5s BELL	N 27 32' 19.783"	W 082 48' 35.943"	27.53883	-82.80998	LNM 16/06, 7th Dist	177	11400_1	2/13/2008
11400	Delete	Southwest Channel Ent LBB 1	G "1" Fl G 2.5s BELL	N 27 32' 31.127"	W 082 47' 53.367"	27.54198	-82.79816	LNM 16/06, 7th Dist	177	11400_1	2/13/2008
11400	Add	HURRICANES AND TROPICAL STORMS NOTE	Hurricanes, tropical storms and other major storms may cause considerable damage to marine structures, aids to navigation and moored vessels, resulting in submerged debris in unknown locations. Charted soundings, channel depths and shoreline may not reflect actual conditions following these storms. Fixed aids to navigation may have been damaged or destroyed. Buoys may have been moved from charted positions, damaged, sunk extinguished or otherwise made inoperative. Mariners should not rely upon the position or operation of an aid to navigation. Wrecks and submerged obstructions may have been displaced from charted locations. Pipelines may have become uncovered or moved. Mariners are urged to exercise extreme caution and are requested to report aids to navigation discrepancies and hazards to navigation to the nearest United States Coast Guard unit.	N 29 31' 27.000"	W 082 25' 31.000"	29.52417	-82.42528	LNM 15/06, 7th Dist	177	11400_1	2/13/2008
11480	Delete	Savannah River Entrance Channel Special Purpose Lighted Buoy	Y Fl Y 4s Priv	N 31 59' 30.000"	W 080 44' 06.000"	31.99167	-80.735	LNM 29/17, 7th Dist	376	11480_1	8/3/2017
11480	Add	Cable Area  PT 2 OF 4	Chart No. 1: L30.2	N 30 28' 48.000"	W 080 00' 54.000"	30.48	-80.015	LNM 25/17, 7th Dist	376	11480_1	6/15/2017
11480	Add	Cable Area  PT 1 OF 4	Chart No. 1: L30.2	N 30 28' 48.000"	W 080 22' 30.000"	30.48	-80.375	LNM 25/17, 7th Dist	376	11480_1	6/15/2017
11480	Add	Cable Area  PT 3 OF 4	Chart No. 1: L30.2	N 30 03' 00.000"	W 080 06' 36.000"	30.05	-80.11	LNM 25/17, 7th Dist	376	11480_1	6/15/2017
11480	Add	Cable Area  PT 4 OF 4	Chart No. 1: L30.2	N 30 03' 00.000"	W 080 29' 00.000"	30.05	-80.48333	LNM 25/17, 7th Dist	376	11480_1	6/15/2017
11480	Add	Submarine Cable  PT 1 OF 10	Chart No. 1: L30.1	N 30 22' 19.980"	W 081 17' 02.900"	30.37222	-81.28414	LNM 25/17, 7th Dist	376	11480_1	6/15/2017
11480	Add	Submarine Cable  PT 2 OF 10	Chart No. 1: L30.1	N 30 20' 34.280"	W 081 07' 45.720"	30.34286	-81.12936	LNM 25/17, 7th Dist	376	11480_1	6/15/2017
11480	Add	Submarine Cable  PT 3 OF 10	Chart No. 1: L30.1	N 30 20' 48.160"	W 081 06' 24.610"	30.34671	-81.10683	LNM 25/17, 7th Dist	376	11480_1	6/15/2017
11480	Add	Submarine Cable  PT 4 OF 10	Chart No. 1: L30.1	N 30 20' 32.580"	W 081 05' 01.180"	30.34238	-81.08366	LNM 25/17, 7th Dist	376	11480_1	6/15/2017
11480	Add	Submarine Cable  PT 5 OF 10	Chart No. 1: L30.1	N 30 19' 47.320"	W 081 03' 11.990"	30.32981	-81.05333	LNM 25/17, 7th Dist	376	11480_1	6/15/2017
11480	Add	Submarine Cable  PT 6 OF 10	Chart No. 1: L30.1	N 30 18' 28.590"	W 080 56' 33.740"	30.30794	-80.9427	LNM 25/17, 7th Dist	376	11480_1	6/15/2017
11480	Add	Submarine Cable  PT 7 OF 10	Chart No. 1: L30.1	N 30 16' 00.310"	W 080 50' 17.080"	30.26675	-80.83808	LNM 25/17, 7th Dist	376	11480_1	6/15/2017
11480	Add	Submarine Cable  PT 8 OF 10	Chart No. 1: L30.1	N 30 12' 20.900"	W 080 33' 42.690"	30.2058	-80.56186	LNM 25/17, 7th Dist	376	11480_1	6/15/2017
11480	Add	Submarine Cable  PT 9 OF 10	Chart No. 1: L30.1	N 30 11' 26.430"	W 080 31' 48.070"	30.19068	-80.53002	LNM 25/17, 7th Dist	376	11480_1	6/15/2017
11480	Add	Submarine Cable  PT 10 OF 10	Chart No. 1: L30.1	N 30 10' 31.330"	W 080 27' 06.190"	30.17537	-80.45172	LNM 25/17, 7th Dist	376	11480_1	6/15/2017
11480	Delete	Nassau Sound Approach Buoy 6A	R N "6A" AIS	N 30 29' 23.952"	W 081 22' 50.791"	30.48999	-81.38078	LNM 14/17, 7th Dist	376	11480_1	4/13/2017
11480	Add	Submerged Buoy	dashed line circle and label: Subm buoy	N 30 28' 48.000"	W 080 00' 54.000"	30.48	-80.015	LNM 48/16, 7th Dist	376	11480_1	11/24/2016
11480	Add	Submerged Buoy	dashed line circle and label: Subm buoy	N 30 28' 48.000"	W 080 22' 30.000"	30.48	-80.375	LNM 48/16, 7th Dist	376	11480_1	11/24/2016
11480	Add	Submerged Buoy	dashed line circle and label: Subm buoy	N 30 03' 00.000"	W 080 06' 36.000"	30.05	-80.11	LNM 48/16, 7th Dist	376	11480_1	11/24/2016
11480	Add	Submerged Buoy	dashed line circle and label: Subm buoy	N 30 03' 00.000"	W 080 29' 00.000"	30.05	-80.48333	LNM 48/16, 7th Dist	376	11480_1	11/24/2016
11480	Delete	Non-Dangerous Obstruction	Subm buoy	N 30 28' 48.000"	W 080 29' 00.000"	30.48	-80.48333	WNM 46/10, NGA	376	11480_1	8/25/2016
11480	Delete	Non-Dangerous Obstruction	Subm buoy	N 30 28' 48.000"	W 080 06' 36.000"	30.48	-80.11	WNM 46/10, NGA	376	11480_1	8/25/2016
11480	Delete	Non-Dangerous Obstruction	Subm buoy	N 30 03' 00.000"	W 080 06' 36.000"	30.05	-80.11	WNM 46/10, NGA	376	11480_1	8/25/2016
11480	Delete	Non-Dangerous Obstruction	Subm buoy	N 30 03' 00.000"	W 080 29' 00.000"	30.05	-80.48333	WNM 46/10, NGA	376	11480_1	8/25/2016
11480	Add	Sounding in Fathoms 	7 1/4	N 32 32' 59.291"	W 079 40' 32.524"	32.5498	-79.6757	LNM 25/16, 7th Dist	376	11480_1	6/16/2016
11480	Add	Obstruction in Fathoms	6 Obstn       Chart No. 1: K41	N 32 33' 01.500"	W 079 46' 55.300"	32.55042	-79.78203	LNM 52/15, 7th Dist	376	11480_1	12/24/2015
11480	Change	St Marys Entrance Lighted Buoy STM	RW "STM" Mo (A) AIS	N 30 42' 54.032"	W 081 14' 38.648"	30.71501	-81.24407	LNM 48/15, 7th Dist	376	11480_1	12/10/2015
11480	Add	Wreck in Fathoms	4 3/4 Wk    Chart No. 1: K26	N 32 33' 27.174"	W 079 42' 03.384"	32.55755	-79.70094	LNM 48/15, 7th Dist	376	11480_1	11/26/2015
11480	Add	Depth Note - Mayport to:	Dump Site (dredged material) (see note S) Depths from survey of 2007-2008	N 30 19' 29.900"	W 081 17' 45.000"	30.32497	-81.29583	LNM 47/15, 7th Dist	376	11480_1	11/19/2015
11480	Delete	Dump Site	dump site, (use Chart No. 1: N1.1)	N 30 21' 02.100"	W 081 18' 09.200"	30.35058	-81.30256	LNM 47/15, 7th Dist	376	11480_1	11/19/2015
11480	Add	Dump Site PT 1 OF 6	dump site, (use Chart No. 1: N1.1)	N 30 21' 30.840"	W 081 18' 33.300"	30.35857	-81.30925	LNM 47/15, 7th Dist	376	11480_1	11/19/2015
11480	Add	Dump Site PT 2 OF 6	dump site, (use Chart No. 1: N1.1)	N 30 21' 30.840"	W 081 17' 25.320"	30.35857	-81.29037	LNM 47/15, 7th Dist	376	11480_1	11/19/2015
11480	Add	Dump Site PT 3 OF 6	dump site, (use Chart No. 1: N1.1)	N 30 20' 30.900"	W 081 17' 25.320"	30.34192	-81.29037	LNM 47/15, 7th Dist	376	11480_1	11/19/2015
11480	Add	Dump Site PT 4 OF 6	dump site, (use Chart No. 1: N1.1)	N 30 20' 30.900"	W 081 17' 00.720"	30.34192	-81.28353	LNM 47/15, 7th Dist	376	11480_1	11/19/2015
11480	Add	Dump Site PT 5 OF 6	dump site, (use Chart No. 1: N1.1)	N 30 17' 49.740"	W 081 17' 00.720"	30.29715	-81.28353	LNM 47/15, 7th Dist	376	11480_1	11/19/2015
11480	Add	Dump Site PT 6 OF 6	dump site, (use Chart No. 1: N1.1)	N 30 17' 49.740"	W 081 18' 33.300"	30.29715	-81.30925	LNM 47/15, 7th Dist	376	11480_1	11/19/2015
11480	Delete	Depth Note - Mayport to:	Dump Site (dredged material) (see note S) Depths from survey of 2007	N 30 21' 02.100"	W 081 18' 09.200"	30.35058	-81.30256	LNM 47/15, 7th Dist	376	11480_1	11/19/2015
11480	Add	Submarine Cable  PT 1 OF 7	Chart No. 1: L30.1	N 30 23' 28.430"	W 081 23' 39.420"	30.39123	-81.39429	LNM 43/15, 7th Dist	376	11480_1	10/22/2015
11480	Add	Submarine Cable  PT 7 OF 7	Chart No. 1: L30.1	N 30 22' 19.980"	W 081 17' 02.900"	30.37222	-81.28414	LNM 43/15, 7th Dist	376	11480_1	10/22/2015
11480	Add	Submarine Cable  PT 6 OF 7	Chart No. 1: L30.1	N 30 23' 02.790"	W 081 20' 49.150"	30.38411	-81.34698	LNM 43/15, 7th Dist	376	11480_1	10/22/2015
11480	Add	Submarine Cable  PT 5 OF 7	Chart No. 1: L30.1	N 30 23' 15.170"	W 081 21' 31.510"	30.38755	-81.35875	LNM 43/15, 7th Dist	376	11480_1	10/22/2015
11480	Add	Submarine Cable  PT 4 OF 7	Chart No. 1: L30.1	N 30 23' 21.480"	W 081 22' 05.970"	30.3893	-81.36832	LNM 43/15, 7th Dist	376	11480_1	10/22/2015
11480	Add	Submarine Cable  PT 3 OF 7	Chart No. 1: L30.1	N 30 23' 22.700"	W 081 22' 29.250"	30.38964	-81.37479	LNM 43/15, 7th Dist	376	11480_1	10/22/2015
11480	Add	Submarine Cable  PT 2 OF 7	Chart No. 1: L30.1	N 30 23' 22.040"	W 081 23' 00.850"	30.38946	-81.38357	LNM 43/15, 7th Dist	376	11480_1	10/22/2015
11480	Change	Protected Area Label	THE OCULINA BANK (protected area: 50 CFR 622.220-622.227; see note F)	N 28 30' 53.000"	W 079 52' 59.000"	28.51472	-79.88306	LNM 42/15, 7th Dist	376	11480_1	10/15/2015
11480	Add	Obstruction in Fathoms	5 3/4 Obstn       Chart No. 1: K41	N 29 09' 14.040"	W 080 57' 26.040"	29.1539	-80.95723	LNM 40/15, 7th Dist	376	11480_1	10/8/2015
11480	Add	Obstruction in Fathoms	4 1/2 Obstns     Chart No. 1: K41	N 29 02' 27.420"	W 080 52' 57.600"	29.04095	-80.88267	LNM 40/15, 7th Dist	376	11480_1	10/8/2015
11480	Delete	Obstruction in Fathoms	6 1/2 Obstn       Chart No. 1: K41	N 29 02' 40.400"	W 080 52' 45.300"	29.04456	-80.87925	LNM 40/15, 7th Dist	376	11480_1	10/8/2015
11480	Add	Obstruction in Fathoms	8 Obstn       Chart No. 1: K41	N 32 36' 58.871"	W 079 35' 57.311"	32.61635	-79.59925	LNM 35/15, 7th Dist	376	11480_1	8/27/2015
11480	Add	Dangerous Wreck	PA	N 31 05' 14.400"	W 081 08' 14.400"	31.08733	-81.13734	LNM 18/15, 7th Dist	376	11480_1	5/14/2015
11480	Delete	Sounding in Fathoms 	54	N 32 08' 10.500"	W 079 08' 27.300"	32.13625	-79.14091	LNM 13/15, 7th Dist	376	11480_1	3/26/2015
11480	Delete	Sounding in Fathoms 	66	N 32 02' 41.200"	W 079 10' 19.300"	32.04478	-79.17203	LNM 13/15, 7th Dist	376	11480_1	3/26/2015
11480	Delete	Sounding in Fathoms 	62	N 32 05' 25.200"	W 079 08' 24.800"	32.09033	-79.14022	LNM 13/15, 7th Dist	376	11480_1	3/26/2015
11480	Add	Dashed Fish Haven Label	Fish Haven "MPA" (rep 33 1/4 fms)	N 32 06' 05.900"	W 079 09' 34.900"	32.10164	-79.15969	LNM 13/15, 7th Dist	376	11480_1	3/26/2015
11480	Delete	Sounding in Fathoms 	50	N 32 05' 45.000"	W 079 12' 08.000"	32.09583	-79.20222	LNM 13/15, 7th Dist	376	11480_1	3/26/2015
11480	Add	Dashed Fish Haven PT 1 OF 4	Chart No. 1: K46.2	N 32 09' 39.000"	W 079 09' 12.000"	32.16083	-79.15334	LNM 13/15, 7th Dist	376	11480_1	3/26/2015
11480	Add	Dashed Fish Haven PT 2 OF 4	Chart No. 1: K46.2	N 32 07' 09.300"	W 079 05' 35.700"	32.11925	-79.09325	LNM 13/15, 7th Dist	376	11480_1	3/26/2015
11480	Add	Dashed Fish Haven PT 3 OF 4	Chart No. 1: K46.2	N 32 02' 21.600"	W 079 09' 58.500"	32.03933	-79.16625	LNM 13/15, 7th Dist	376	11480_1	3/26/2015
11480	Add	Dashed Fish Haven PT 4 OF 4	Chart No. 1: K46.2	N 32 05' 02.400"	W 079 13' 34.500"	32.084	-79.22625	LNM 13/15, 7th Dist	376	11480_1	3/26/2015
11480	Change	St Simons Lighted Buoy STS	RW "STS" Mo (A)	N 31 02' 48.999"	W 081 14' 25.200"	31.04694	-81.24033	LNM 09/15, 7th Dist	376	11480_1	3/12/2015
11480	Add	Cape Canaveral Danger Zone Buoy A Magenta Circle	Y C "A" AIS	N 28 44' 42.000"	W 080 37' 51.000"	28.745	-80.63084	LNM 08/15, 7th Dist	376	11480_1	3/5/2015
11480	Add	Nassau Sound Approach Buoy 6A Magenta Circle	R N "6A" AIS	N 30 29' 23.952"	W 081 22' 50.791"	30.48999	-81.38078	LNM 08/15, 7th Dist	376	11480_1	3/5/2015
11480	Add	St Johns Lighted Buoy STJ Magenta Circle	RW "STJ" Mo (A) AIS	N 30 23' 35.368"	W 081 19' 08.398"	30.39316	-81.319	LNM 08/15, 7th Dist	376	11480_1	3/5/2015
11480	Add	Obstruction in Fathoms	9 Obstn       Chart No. 1: K41	N 30 28' 49.890"	W 081 16' 44.840"	30.48052	-81.27912	LNM 04/15, 7th Dist	376	11480_1	1/29/2015
11480	Relocate	Fripp Island Lighted Buoy E	Y "E" Fl Y 4s Priv	N 32 16' 47.160"	W 080 24' 24.900"	32.27977	-80.40691	LNM 03/15, 7th Dist	376	11480_1	1/22/2015
11480	Add	Obstruction in Fathoms	6 3/4 Obstns       Chart No. 1: K41	N 30 23' 43.730"	W 081 21' 56.890"	30.39548	-81.36581	LNM 03/15, 7th Dist	376	11480_1	1/22/2015
11480	Add	Submarine Cable  PT 1 OF 12	Chart No. 1: L30.1	N 30 17' 49.140"	W 081 23' 25.980"	30.29698	-81.39055	LNM 51/14, 7th Dist	376	11480_1	12/18/2014
11480	Add	Submarine Cable  PT 2 OF 12	Chart No. 1: L30.1	N 30 17' 51.630"	W 081 21' 19.330"	30.29767	-81.35537	LNM 51/14, 7th Dist	376	11480_1	12/18/2014
11480	Add	Submarine Cable  PT 3 OF 12	Chart No. 1: L30.1	N 30 15' 29.120"	W 081 14' 21.420"	30.25809	-81.23928	LNM 51/14, 7th Dist	376	11480_1	12/18/2014
11480	Add	Submarine Cable  PT 4 OF 12	Chart No. 1: L30.1	N 30 14' 12.670"	W 081 06' 13.810"	30.23685	-81.10384	LNM 51/14, 7th Dist	376	11480_1	12/18/2014
11480	Add	Submarine Cable  PT 5 OF 12	Chart No. 1: L30.1	N 29 54' 20.970"	W 080 41' 54.120"	29.90582	-80.69836	LNM 51/14, 7th Dist	376	11480_1	12/18/2014
11480	Add	Submarine Cable  PT 6 OF 12	Chart No. 1: L30.1	N 29 46' 48.020"	W 080 29' 56.520"	29.78001	-80.49903	LNM 51/14, 7th Dist	376	11480_1	12/18/2014
11480	Add	Submarine Cable  PT 7 OF 12	Chart No. 1: L30.1	N 29 44' 01.970"	W 080 21' 29.110"	29.73388	-80.35809	LNM 51/14, 7th Dist	376	11480_1	12/18/2014
11480	Add	Submarine Cable  PT 8 OF 12	Chart No. 1: L30.1	N 29 45' 42.020"	W 080 17' 43.780"	29.76167	-80.29549	LNM 51/14, 7th Dist	376	11480_1	12/18/2014
11480	Add	Submarine Cable  PT 9 OF 12	Chart No. 1: L30.1	N 29 42' 21.560"	W 079 27' 31.130"	29.70599	-79.45865	LNM 51/14, 7th Dist	376	11480_1	12/18/2014
11480	Add	Submarine Cable  PT 10 OF 12	Chart No. 1: L30.1	N 29 33' 52.460"	W 078 34' 45.870"	29.56457	-78.57941	LNM 51/14, 7th Dist	376	11480_1	12/18/2014
11480	Add	Submarine Cable  PT 11 OF 12	Chart No. 1: L30.1	N 29 34' 37.010"	W 078 29' 40.010"	29.57695	-78.49445	LNM 51/14, 7th Dist	376	11480_1	12/18/2014
11480	Add	Submarine Cable  PT 12 OF 12	Chart No. 1: L30.1	N 29 25' 53.400"	W 078 07' 03.170"	29.4315	-78.11755	LNM 51/14, 7th Dist	376	11480_1	12/18/2014
11480	Delete	Georgia Fish Haven Buoy A	Y N "A" Priv	N 30 55' 55.100"	W 081 16' 10.500"	30.93197	-81.26958	LNM 46/14, 7th Dist	376	11480_1	11/27/2014
11480	Delete	Georgia Fish Haven Buoy ALT	Y N "ALT" Priv	N 31 18' 38.900"	W 081 09' 23.100"	31.31081	-81.15642	LNM 46/14, 7th Dist	376	11480_1	11/27/2014
11480	Delete	Georgia Fish Haven Buoy CDH	Y N "CDH" Priv	N 30 50' 44.800"	W 081 09' 50.900"	30.84578	-81.16414	LNM 46/14, 7th Dist	376	11480_1	11/27/2014
11480	Delete	Georgia Fish Haven Buoy CAT	Y N "CAT" Priv	N 31 40' 14.860"	W 080 58' 33.210"	31.67079	-80.97589	LNM 46/14, 7th Dist	376	11480_1	11/27/2014
11480	Delete	Georgia Fish Haven Buoy DUA	Y N "DUA" Priv	N 31 46' 46.100"	W 080 54' 11.300"	31.77947	-80.90314	LNM 46/14, 7th Dist	376	11480_1	11/27/2014
11480	Delete	Georgia Fish Haven Buoy F	Y N "F" Priv	N 31 05' 56.200"	W 081 12' 48.500"	31.09894	-81.21347	LNM 46/14, 7th Dist	376	11480_1	11/27/2014
11480	Delete	Georgia Fish Haven Buoy G	Y N "G" Priv	N 30 58' 14.800"	W 080 58' 48.200"	30.97078	-80.98006	LNM 46/14, 7th Dist	376	11480_1	11/27/2014
11480	Delete	Georgia Fish Haven Buoy JY	Y N "JY" Priv	N 31 36' 06.600"	W 080 47' 28.200"	31.60183	-80.79117	LNM 46/14, 7th Dist	376	11480_1	11/27/2014
11480	Delete	Georgia Fish Haven Buoy KBY	Y N "KBY" Priv	N 30 46' 35.400"	W 081 17' 18.540"	30.7765	-81.28848	LNM 46/14, 7th Dist	376	11480_1	11/27/2014
11480	Delete	Georgia Fish Haven Buoy KC	Y N "KC" Priv	N 31 50' 46.800"	W 080 46' 43.000"	31.84633	-80.77861	LNM 46/14, 7th Dist	376	11480_1	11/27/2014
11480	Delete	Georgia Fish Haven Buoy KTK	Y N "KTK" Priv	N 31 31' 21.440"	W 081 01' 22.760"	31.52262	-81.02299	LNM 46/14, 7th Dist	376	11480_1	11/27/2014
11480	Delete	Georgia Fish Haven Buoy SAV	Y N "SAV" Priv	N 31 55' 15.700"	W 080 47' 12.500"	31.92103	-80.7868	LNM 46/14, 7th Dist	376	11480_1	11/27/2014
11480	Delete	Georgia Fish Haven Buoy SFC	Y N "SFC" Priv	N 31 00' 23.200"	W 081 02' 24.300"	31.00644	-81.04008	LNM 46/14, 7th Dist	376	11480_1	11/27/2014
11480	Delete	Georgia Fish Haven Buoy DRH	Y N "DRH" Priv	N 31 17' 54.000"	W 080 58' 54.000"	31.29833	-80.98167	LNM 46/14, 7th Dist	376	11480_1	11/27/2014
11480	Change	St Johns Lighted Buoy STJ	RW "STJ" Mo (A)	N 30 23' 35.368"	W 081 19' 08.398"	30.39316	-81.319	LNM 37/14, 7th Dist	376	11480_1	9/25/2014
11480	Add	Submarine Cable  PT 1 OF 11	Chart No. 1: L30.1	N 30 18' 27.690"	W 081 23' 31.330"	30.30769	-81.39204	LNM 32/14, 7th Dist	376	11480_1	8/14/2014
11480	Add	Submarine Cable  PT 2 OF 11	Chart No. 1: L30.1	N 30 18' 27.540"	W 081 22' 09.920"	30.30765	-81.36942	LNM 32/14, 7th Dist	376	11480_1	8/14/2014
11480	Add	Submarine Cable  PT 3 OF 11	Chart No. 1: L30.1	N 30 18' 14.650"	W 081 20' 47.320"	30.30407	-81.34648	LNM 32/14, 7th Dist	376	11480_1	8/14/2014
11480	Add	Submarine Cable  PT 4 OF 11	Chart No. 1: L30.1	N 30 17' 31.270"	W 081 18' 52.920"	30.29202	-81.3147	LNM 32/14, 7th Dist	376	11480_1	8/14/2014
11480	Add	Submarine Cable  PT 5 OF 11	Chart No. 1: L30.1	N 30 17' 31.540"	W 081 16' 36.350"	30.2921	-81.27676	LNM 32/14, 7th Dist	376	11480_1	8/14/2014
11480	Add	Submarine Cable  PT 6 OF 11	Chart No. 1: L30.1	N 30 17' 42.670"	W 081 15' 24.820"	30.29519	-81.2569	LNM 32/14, 7th Dist	376	11480_1	8/14/2014
11480	Add	Submarine Cable  PT 7 OF 11	Chart No. 1: L30.1	N 30 17' 37.900"	W 081 13' 44.070"	30.29386	-81.2289	LNM 32/14, 7th Dist	376	11480_1	8/14/2014
11480	Add	Submarine Cable  PT 8 OF 11	Chart No. 1: L30.1	N 30 17' 18.760"	W 081 12' 20.570"	30.28854	-81.20571	LNM 32/14, 7th Dist	376	11480_1	8/14/2014
11480	Add	Submarine Cable  PT 9 OF 11	Chart No. 1: L30.1	N 30 15' 13.430"	W 081 06' 47.270"	30.25373	-81.11313	LNM 32/14, 7th Dist	376	11480_1	8/14/2014
11480	Add	Submarine Cable  PT 10 OF 11	Chart No. 1: L30.1	N 30 11' 44.330"	W 081 01' 39.370"	30.19565	-81.0276	LNM 32/14, 7th Dist	376	11480_1	8/14/2014
11480	Add	Submarine Cable  PT 11 OF 11	Chart No. 1: L30.1	N 29 54' 40.600"	W 080 41' 29.590"	29.91128	-80.69155	LNM 32/14, 7th Dist	376	11480_1	8/14/2014
11480	Add	Scripps Wave Lighted Buoy D	Y "D" Fl (5) Y 20s Priv	N 30 42' 32.080"	W 081 17' 31.780"	30.70891	-81.29216	LNM 26/14, 7th Dist	376	11480_1	7/3/2014
11480	Add	Restricted Area PT 1 OF 4	Chart No. 1: N2.1 or N2.2	N 28 35' 00.480"	W 080 34' 26.880"	28.58347	-80.57413	LNM 23/14, 7th Dist	376	11480_1	6/12/2014
11480	Add	Restricted Area PT 2 OF 4	Chart No. 1: N2.1 or N2.2	N 28 35' 42.960"	W 080 32' 56.280"	28.59527	-80.54897	LNM 23/14, 7th Dist	376	11480_1	6/12/2014
11480	Add	Restricted Area PT 3 OF 4	Chart No. 1: N2.1 or N2.2	N 28 43' 33.960"	W 080 39' 05.640"	28.7261	-80.65157	LNM 23/14, 7th Dist	376	11480_1	6/12/2014
11480	Add	Restricted Area PT 4 OF 4	Chart No. 1: N2.1 or N2.2	N 28 43' 33.960"	W 080 41' 11.340"	28.7261	-80.68649	LNM 23/14, 7th Dist	376	11480_1	6/12/2014
11480	Add	Restricted Area Label	RESTRICTED AREA 334.525 (see note A)	N 28 39' 27.000"	W 080 37' 08.000"	28.6575	-80.61889	LNM 23/14, 7th Dist	376	11480_1	6/12/2014
11480	Relocate	Tybee Lighted Buoy T	RW "T" Mo (A) RACON (__.)	N 31 57' 52.061"	W 080 43' 09.543"	31.96446	-80.71931	LNM 21/14, 7th Dist	376	11480_1	6/5/2014
11480	Delete	Gong Buoy	G "1S" Fl G 4s GONG	N 32 34' 34.300"	W 079 57' 13.300"	32.57619	-79.9537	Not Yet Published	376	11480_1	3/27/2014
11480	Relocate	Sapelo Sound Offshore Lighted Buoy S	Y "S" Fl Y 6s	N 31 28' 30.232"	W 080 54' 33.713"	31.47507	-80.90936	LNM 47/13, 7th Dist	376	11480_1	12/6/2013
11480	Add	Dangerous Wreck	PA	N 31 53' 25.180"	W 080 51' 14.430"	31.89033	-80.85401	LNM 25/13, 7th Dist	376	11480_1	9/30/2013
11480	Change	Navy Tower M1/R1	TOWER HORN	N 31 03' 00.000"	W 080 26' 59.400"	31.05	-80.44984	LNM 32/13, 7th Dist	376	11480_1	8/19/2013
11480	Change	Navy Tower M2/R6	TOWER HORN	N 31 32' 00.100"	W 080 14' 00.000"	31.53336	-80.23333	LNM 32/13, 7th Dist	376	11480_1	8/19/2013
11480	Change	Navy Tower R2/R10	TOWER HORN	N 31 22' 29.900"	W 080 33' 59.500"	31.37497	-80.56653	LNM 32/13, 7th Dist	376	11480_1	8/19/2013
11480	Change	Navy Tower R32/R9	TOWER HORN	N 31 13' 00.100"	W 080 06' 59.700"	31.21669	-80.11658	LNM 32/13, 7th Dist	376	11480_1	8/19/2013
11480	Change	Navy Tower R4	TOWER HORN	N 30 47' 59.800"	W 080 18' 59.900"	30.79994	-80.31664	LNM 32/13, 7th Dist	376	11480_1	8/19/2013
11480	Change	Navy Tower R5	TOWER HORN	N 30 56' 30.400"	W 080 44' 59.700"	30.94178	-80.74992	LNM 32/13, 7th Dist	376	11480_1	8/19/2013
11480	Change	Navy Tower R7	TOWER HORN	N 31 49' 00.400"	W 080 16' 29.500"	31.81678	-80.27486	LNM 32/13, 7th Dist	376	11480_1	8/19/2013
11480	Change	Navy Tower R8	TOWER HORN	N 31 37' 59.800"	W 079 55' 30.000"	31.63328	-79.925	LNM 32/13, 7th Dist	376	11480_1	8/19/2013
11480	Relocate	NOAA Data Lighted Buoy 41008	Y ODAS "41008" Fl (4) Y 20s	N 31 23' 59.906"	W 080 52' 05.264"	31.39997	-80.86813	LNM 05/13, 7th Dist	376	11480_1	2/14/2013
11480	Delete	NOAA Data Lighted Buoy 41009	??	N 28 31' 09.000"	W 080 09' 59.000"	28.51917	-80.16639	LNM 03/13, 7th Dist	376	11480_1	2/11/2013
11480	Add	NOAA Data Lighted Buoy 41009	??	N 28 31' 18.000"	W 080 11' 18.000"	28.52167	-80.18833	LNM 03/13, 7th Dist	376	11480_1	2/11/2013
11480	Delete	Georgia Fish Haven Buoy CCA-JL	Y N "CCA-JL" Priv	N 31 43' 30.000"	W 080 41' 12.000"	31.725	-80.68667	LNM 45/12, 7th Dist	376	11480_1	12/12/2012
11480	Delete	recommended two-way route PT 1 OF 6	None	N 31 02' 34.600"	W 080 51' 36.800"	31.04294	-80.86022	LNM 38/12, 7th Dist	376	11480_1	9/12/2012
11480	Delete	recommended two-way route PT 2 OF 6	None	N 31 04' 07.300"	W 081 12' 38.000"	31.0687	-81.21056	LNM 38/12, 7th Dist	376	11480_1	9/12/2012
11480	Delete	recommended two-way route PT 3 OF 6	None	N 31 00' 35.500"	W 080 51' 36.000"	31.00986	-80.86	LNM 38/12, 7th Dist	376	11480_1	9/12/2012
11480	Delete	recommended two-way route PT 4 OF 6	None	N 31 02' 05.000"	W 081 12' 14.000"	31.03472	-81.20389	LNM 38/12, 7th Dist	376	11480_1	9/12/2012
11480	Delete	recommended two-way route PT 5 OF 6	None	N 31 02' 05.000"	W 081 12' 14.000"	31.03472	-81.20389	LNM 38/12, 7th Dist	376	11480_1	9/12/2012
11480	Delete	recommended two-way route PT 6 OF 6	None	N 31 00' 04.000"	W 081 09' 46.000"	31.00111	-81.16278	LNM 38/12, 7th Dist	376	11480_1	9/12/2012
11480	Add	recommended two-way route PT 1 OF 6	None	N 31 05' 09.200"	W 080 51' 36.000"	31.08589	-80.86	LNM 38/12, 7th Dist	376	11480_1	9/12/2012
11480	Add	recommended two-way route PT 2 OF 6	None	N 31 02' 05.000"	W 081 12' 14.000"	31.03472	-81.20389	LNM 38/12, 7th Dist	376	11480_1	9/12/2012
11480	Add	recommended two-way route PT 3 OF 6	None	N 31 02' 55.000"	W 080 51' 36.000"	31.04861	-80.86	LNM 38/12, 7th Dist	376	11480_1	9/12/2012
11480	Add	recommended two-way route PT 4 OF 6	None	N 31 00' 42.000"	W 081 10' 00.000"	31.01167	-81.16666	LNM 38/12, 7th Dist	376	11480_1	9/12/2012
11480	Add	recommended two-way route PT 5 OF 6	None	N 31 00' 07.400"	W 081 10' 00.000"	31.00206	-81.16666	LNM 38/12, 7th Dist	376	11480_1	9/12/2012
11480	Add	recommended two-way route PT 6 OF 6	None	N 31 00' 04.000"	W 081 09' 46.000"	31.00111	-81.16278	LNM 38/12, 7th Dist	376	11480_1	9/12/2012
11480	Relocate	St Helena Sound Entrance Buoy 1	G C "1"	N 32 21' 39.600"	W 080 18' 27.910"	32.361	-80.30775	LNM 29/12, 7th Dist	376	11480_1	7/24/2012
11480	Change	Training Wall Range Front Light	Q 16ft	N 30 23' 46.574"	W 081 28' 38.663"	30.39627	-81.47741	LNM 16/12, 7th Dist	376	11480_1	7/24/2012
11480	Delete	Georgia Fish Haven Buoy L	Y N "L" Priv	N 31 45' 30.802"	W 080 36' 29.354"	31.75856	-80.60815	LNM 10/12, 7th Dist	376	11480_1	3/28/2012
11480	Relocate	Charleston Entrance Lighted Buoy C	RW "C" Mo (A) RACON (-.-)	N 32 37' 04.843"	W 079 35' 29.709"	32.61801	-79.59158	LNM 10/12, 7th Dist	376	11480_1	3/28/2012
11480	Add	Obstruction in Fathoms	7 Obstn       Chart No. 1: K41	N 30 43' 37.946"	W 081 20' 28.867"	30.72721	-81.34135	LNM 11/12, 7th Dist	376	11480_1	3/7/2012
11480	Delete	CCOOPS Lighted Buoy E	Y "E" Fl Y 5s Priv	N 32 16' 46.269"	W 080 24' 33.780"	32.27952	-80.40939	LNM 07/12, 7th Dist	376	11480_1	3/1/2012
11480	Add	Fripp Island Lighted Buoy E	Y "E" Fl Y 4s Priv	N 32 16' 46.269"	W 080 24' 33.780"	32.27952	-80.40939	LNM 07/12, 7th Dist	376	11480_1	3/1/2012
11480	Delete	CCOOPS Lighted Buoy D	Y "D" Fl Y 5s Priv	N 32 30' 10.440"	W 079 19' 48.240"	32.5029	-79.33006	LNM 06/12, 7th Dist	376	11480_1	2/28/2012
11480	Delete	Grays Reef National Marine Sanctuary private buoy "D"	Y N "D" Priv	N 31 21' 45.000"	W 080 49' 42.000"	31.3625	-80.82833	LNM 07/12, 7th Dist	376	11480_1	2/9/2012
11480	Delete	Grays Reef National Marine Sanctuary private buoy "C"	Y N "C"	N 31 25' 15.000"	W 080 49' 42.000"	31.42083	-80.82833	LNM 07/12, 7th Dist	376	11480_1	2/9/2012
11480	Delete	Grays Reef National Marine Sanctuary private buoy "A"	Y N "A" Priv	N 31 21' 45.000"	W 080 55' 18.000"	31.3625	-80.92167	LNM 07/12, 7th Dist	376	11480_1	2/9/2012
11480	Delete	Grays Reef National Marine Sanctuary private buoy "B"	Y N "B" Priv	N 31 25' 15.000"	W 080 55' 18.000"	31.42083	-80.92167	LNM 07/12, 7th Dist	376	11480_1	2/9/2012
11480	Add	research area PT 1 OF 4	None	N 31 21' 45.800"	W 080 55' 16.300"	31.36272	-80.9212	LNM 07/12, 7th Dist	376	11480_1	2/9/2012
11480	Add	research area PT 2 OF 4	None	N 31 23' 04.000"	W 080 55' 16.300"	31.38445	-80.9212	LNM 07/12, 7th Dist	376	11480_1	2/9/2012
11480	Add	research area PT 3 OF 4	None	N 31 23' 04.000"	W 080 49' 41.300"	31.38445	-80.82814	LNM 07/12, 7th Dist	376	11480_1	2/9/2012
11480	Add	research area PT 4 OF 4	None	N 31 21' 45.800"	W 080 49' 41.300"	31.36272	-80.82814	LNM 07/12, 7th Dist	376	11480_1	2/9/2012
11480	Change	NOTE G	NOTE G Grays Reef National Marine Sanctuary (protected area: 15 CFR 922.90; see note A) and Research Area (prohibited area: 15 CFR 922.94; see note A)	N 31 22' 47.300"	W 081 31' 42.300"	31.3798	-81.52842	LNM 07/12, 7th Dist	376	11480_1	2/9/2012
11480	Delete	Obstruction in Fathoms	6  1/4 Obstn       Chart No. 1: K41	N 31 56' 52.080"	W 080 41' 11.370"	31.9478	-80.68649	LNM 44/11, 7th Dist	376	11480_1	10/31/2011
11480	Delete	Dotted Fish Haven Label PT 1 OF 5	Obstn Fish Haven	N 31 01' 18.000"	W 081 03' 24.000"	31.02167	-81.05666	LNM 32/11, 7th Dist	376	11480_1	8/9/2011
11480	Delete	Dotted Fish Haven Label PT 2 OF 5	Obstn Fish Haven	N 31 01' 18.000"	W 081 01' 24.000"	31.02167	-81.02333	LNM 32/11, 7th Dist	376	11480_1	8/9/2011
11480	Delete	Dotted Fish Haven Label PT 3 OF 5	Obstn Fish Haven	N 30 59' 48.000"	W 081 01' 24.000"	30.99667	-81.02333	LNM 32/11, 7th Dist	376	11480_1	8/9/2011
11480	Delete	Dotted Fish Haven Label PT 4 OF 5	Obstn Fish Haven	N 30 59' 24.000"	W 081 02' 06.000"	30.99	-81.035	LNM 32/11, 7th Dist	376	11480_1	8/9/2011
11480	Delete	Dotted Fish Haven Label PT 5 OF 5	Obstn Fish Haven	N 30 59' 48.000"	W 081 03' 24.000"	30.99667	-81.05666	LNM 32/11, 7th Dist	376	11480_1	8/9/2011
11480	Add	Dotted Fish Haven Label	Obstn Fish Haven (auth min 4 1/2 fms)	N 31 00' 03.000"	W 081 02' 24.000"	31.00083	-81.04	LNM 32/11, 7th Dist	376	11480_1	8/9/2011
11480	Delete	Dotted Fish Haven Label	Obstn Fish Haven (auth min 4 1/2 fms)	N 31 00' 33.000"	W 081 02' 24.000"	31.00917	-81.04	LNM 32/11, 7th Dist	376	11480_1	8/9/2011
11480	Add	Dotted Fish Haven PT 1 OF 4	Chart No. 1: K46.2	N 31 00' 48.000"	W 081 03' 24.000"	31.01333	-81.05666	LNM 32/11, 7th Dist	376	11480_1	8/9/2011
11480	Add	Dotted Fish Haven PT 2 OF 4	Chart No. 1: K46.2	N 31 00' 48.000"	W 081 01' 24.000"	31.01333	-81.02333	LNM 32/11, 7th Dist	376	11480_1	8/9/2011
11480	Add	Dotted Fish Haven PT 3 OF 4	Chart No. 1: K46.2	N 30 59' 18.000"	W 081 01' 24.000"	30.98833	-81.02333	LNM 32/11, 7th Dist	376	11480_1	8/9/2011
11480	Add	Dotted Fish Haven PT 4 OF 4	Chart No. 1: K46.2	N 30 59' 18.000"	W 081 03' 24.000"	30.98833	-81.05666	LNM 32/11, 7th Dist	376	11480_1	8/9/2011
11480	Delete	Sounding in Fathoms 	6	N 30 41' 52.300"	W 081 13' 03.500"	30.69786	-81.21764	LNM 22/11, 7th Dist	376	11480_1	5/24/2011
11480	Add	Obstruction in Fathoms	7 Obstn       	N 31 00' 11.840"	W 081 09' 18.840"	31.00329	-81.15524	LNM 10/11, 7th Dist	376	11480_1	3/1/2011
11486	Add	Obstruction in Feet	35 Obstn       Chart No. 1: K41	N 29 09' 14.040"	W 080 57' 26.040"	29.1539	-80.95723	LNM 40/15, 7th Dist	286	11486_1	10/8/2015
11486	Add	Obstruction in Feet	35 Obstn       Chart No. 1: K41	N 29 09' 03.300"	W 080 57' 19.920"	29.15092	-80.95554	LNM 40/15, 7th Dist	286	11486_1	10/8/2015
11486	Add	Obstruction in Feet	37 Obstn       Chart No. 1: K41	N 29 09' 06.000"	W 080 57' 13.080"	29.15167	-80.95364	LNM 40/15, 7th Dist	286	11486_1	10/8/2015
11486	Add	Dotted Fish Haven PT 1 OF 6	Chart No. 1: K46.2	N 29 09' 14.530"	W 080 57' 08.330"	29.15404	-80.95232	LNM 40/15, 7th Dist	286	11486_1	10/8/2015
11486	Add	Dotted Fish Haven PT 2 OF 6	Chart No. 1: K46.2	N 29 09' 22.280"	W 080 57' 13.240"	29.15619	-80.95367	LNM 40/15, 7th Dist	286	11486_1	10/8/2015
11486	Add	Dotted Fish Haven PT 3 OF 6	Chart No. 1: K46.2	N 29 09' 15.000"	W 080 57' 28.190"	29.15417	-80.95783	LNM 40/15, 7th Dist	286	11486_1	10/8/2015
11486	Add	Dotted Fish Haven PT 4 OF 6	Chart No. 1: K46.2	N 29 09' 01.880"	W 080 57' 19.890"	29.15052	-80.95553	LNM 40/15, 7th Dist	286	11486_1	10/8/2015
11486	Add	Dotted Fish Haven PT 5 OF 6	Chart No. 1: K46.2	N 29 09' 05.910"	W 080 57' 11.610"	29.15164	-80.95322	LNM 40/15, 7th Dist	286	11486_1	10/8/2015
11486	Add	Dotted Fish Haven PT 6 OF 6	Chart No. 1: K46.2	N 29 09' 11.280"	W 080 57' 15.000"	29.15313	-80.95417	LNM 40/15, 7th Dist	286	11486_1	10/8/2015
11486	Add	Obstruction in Feet	37 Obstn       Chart No. 1: K41	N 29 09' 11.220"	W 080 57' 16.200"	29.15312	-80.9545	LNM 40/15, 7th Dist	286	11486_1	10/8/2015
11486	Delete	Sounding in Feet	44	N 29 09' 12.300"	W 080 57' 23.800"	29.15342	-80.95661	LNM 40/15, 7th Dist	286	11486_1	10/8/2015
11486	Add	Dotted Fish Haven Label	Obstn Fish Haven (auth min 39 ft)	N 29 09' 12.140"	W 080 57' 18.190"	29.15337	-80.95506	LNM 40/15, 7th Dist	286	11486_1	10/8/2015
11486	Change	Fixed Bridge PT 1 OF 2	Chart No. 1: D22	N 29 13' 59.100"	W 081 01' 10.500"	29.23308	-81.01958	LNM 30/11, 7th Dist	286	11486_1	8/9/2011
11486	Change	Fixed Bridge PT 2 OF 2	Chart No. 1: D22	N 29 13' 46.200"	W 081 01' 29.600"	29.2295	-81.02489	LNM 30/11, 7th Dist	286	11486_1	8/9/2011
11486	Add	Fixed Bridge PT 1 OF 2	Chart No. 1: D22	N 29 28' 39.900"	W 081 08' 09.100"	29.47775	-81.13586	LNM 30/11, 7th Dist	286	11486_1	8/9/2011
11486	Add	Fixed Bridge PT 2 OF 2	Chart No. 1: D22	N 29 28' 37.500"	W 081 08' 15.700"	29.47708	-81.1377	LNM 30/11, 7th Dist	286	11486_1	8/9/2011
11486	Delete	Fixed Bridge Label	FIXED BRIDGE HOR CL 125 FT VERT CL 65 FT	N 29 28' 28.000"	W 081 08' 23.000"	29.47445	-81.13972	LNM 30/11, 7th Dist	286	11486_1	8/9/2011
11486	Add	Fixed Bridge Label	FIXED BRIDGE HOR CL 125 FT VERT CL 65 FT	N 29 28' 39.300"	W 081 08' 12.300"	29.47758	-81.13675	LNM 30/11, 7th Dist	286	11486_1	8/9/2011
11486	Delete	Fixed Bridge PT 1 OF 2	Chart No. 1: D22	N 29 28' 36.000"	W 081 08' 07.600"	29.47667	-81.13544	LNM 30/11, 7th Dist	286	11486_1	8/9/2011
11486	Delete	Fixed Bridge PT 2 OF 2	Chart No. 1: D22	N 29 28' 33.300"	W 081 08' 15.300"	29.47592	-81.13758	LNM 30/11, 7th Dist	286	11486_1	8/9/2011
11486	Change	Fixed Bridge Label	TWIN FIXED BRIDGES HOR CL 125 FT VERT CL 65 FT	N 29 13' 49.800"	W 081 01' 16.800"	29.2305	-81.02133	LNM 30/11, 7th Dist	286	11486_1	8/9/2011
11467	Delete	Miami Anchorage Buoy A	Y N "A"	N 25 48' 20.702"	W 080 05' 42.532"	25.80575	-80.09515	LNM 33/17, 7th Dist	316	11467_6	8/31/2017
11467	Delete	Miami Anchorage Buoy B	Y N "B"	N 25 46' 22.686"	W 080 06' 09.240"	25.77297	-80.10257	LNM 33/17, 7th Dist	316	11467_6	8/31/2017
11467	Change	Depth Legend - Fisher Island Turning Basin, FL to:	48 FT OCT 2016	N 25 45' 56.500"	W 080 08' 31.600"	25.76569	-80.14211	Not Yet Published	319	11467_9	8/31/2017
11467	Delete	Sounding in Feet	49	N 25 45' 55.600"	W 080 08' 18.500"	25.76544	-80.13847	Not Yet Published	319	11467_9	8/31/2017
11467	Change	Depth Legend - Bar Cut, FL to:	51 1/2 FT MID-WIDTH OF 250 FT NOV 2016	N 25 45' 38.800"	W 080 07' 34.800"	25.76078	-80.12634	Not Yet Published	319	11467_9	8/31/2017
11467	Change	Depth Legend - Bar Cut, FL to:	51 1/2 FT MID-WIDTH OF 250 FT NOV 2016	N 25 45' 38.800"	W 080 07' 34.800"	25.76078	-80.12634	Not Yet Published	316	11467_6	8/31/2017
11467	Change	Depth Legend - Government Cut, FL to:	43 1/2 FT OCT 2016	N 25 45' 51.800"	W 080 08' 06.100"	25.76439	-80.13503	Not Yet Published	319	11467_9	8/31/2017
11467	Change	Depth Legend - Main Channel, FL to:	32 1/2 FT OCT 2016	N 25 46' 30.800"	W 080 09' 40.800"	25.77522	-80.16133	Not Yet Published	319	11467_9	8/31/2017
11467	Change	Depth Legend - Lummus Island Turning Basin, FL to:	26 1/2 FT OCT 2016	N 25 46' 01.500"	W 080 10' 01.500"	25.76708	-80.16708	Not Yet Published	319	11467_9	8/31/2017
11467	Change	Depth Legend - Dodge Island Cut, FL to:	27 1/2 FT OCT 2016	N 25 46' 17.100"	W 080 10' 24.900"	25.77142	-80.17358	Not Yet Published	319	11467_9	8/31/2017
11467	Change	Depth Legend - Outer Bar Cut, FL to:	52 FT MID-WIDTH OF 250-400 FT NOV 2016	N 25 45' 34.700"	W 080 06' 13.500"	25.75964	-80.10375	Not Yet Published	316	11467_6	8/31/2017
11467	Change	Depth Legend - South Ship Channel, FL to:	45 FT OCT 2016	N 25 45' 55.000"	W 080 09' 11.600"	25.76528	-80.15322	Not Yet Published	319	11467_9	8/31/2017
11467	Change	Depth Legend - Widerner to:	46 FT 	N 25 45' 27.700"	W 080 06' 52.700"	25.75769	-80.11464	Not Yet Published	316	11467_6	8/31/2017
11467	Add	Channel Reach Separation Line PT 1 OF 3	Channel Reach Separation Line	N 25 45' 53.090"	W 080 08' 17.900"	25.76475	-80.13831	Not Yet Published	319	11467_9	8/31/2017
11467	Add	Channel Reach Separation Line PT 1 OF 3	Channel Reach Separation Line	N 25 45' 53.090"	W 080 08' 17.900"	25.76475	-80.13831	Not Yet Published	316	11467_6	8/31/2017
11467	Add	Channel Reach Separation Line PT 2 OF 3	Channel Reach Separation Line	N 25 45' 53.160"	W 080 08' 15.160"	25.76477	-80.13754	Not Yet Published	319	11467_9	8/31/2017
11467	Add	Channel Reach Separation Line PT 2 OF 3	Channel Reach Separation Line	N 25 45' 53.160"	W 080 08' 15.160"	25.76477	-80.13754	Not Yet Published	316	11467_6	8/31/2017
11467	Add	Channel Reach Separation Line PT 3 OF 3	Channel Reach Separation Line	N 25 45' 50.560"	W 080 08' 08.400"	25.76404	-80.13567	Not Yet Published	319	11467_9	8/31/2017
11467	Add	Channel Reach Separation Line PT 3 OF 3	Channel Reach Separation Line	N 25 45' 50.560"	W 080 08' 08.400"	25.76404	-80.13567	Not Yet Published	316	11467_6	8/31/2017
11467	Add	Channel Reach Separation Line PT 1 OF 2	Channel Reach Separation Line	N 25 45' 53.160"	W 080 08' 15.160"	25.76477	-80.13754	Not Yet Published	319	11467_9	8/31/2017
11467	Add	Channel Reach Separation Line PT 1 OF 2	Channel Reach Separation Line	N 25 45' 53.160"	W 080 08' 15.160"	25.76477	-80.13754	Not Yet Published	316	11467_6	8/31/2017
11467	Add	Channel Reach Separation Line PT 2 OF 2	Channel Reach Separation Line	N 25 45' 57.690"	W 080 08' 13.040"	25.76603	-80.13696	Not Yet Published	319	11467_9	8/31/2017
11467	Add	Channel Reach Separation Line PT 2 OF 2	Channel Reach Separation Line	N 25 45' 57.690"	W 080 08' 13.040"	25.76603	-80.13696	Not Yet Published	316	11467_6	8/31/2017
11467	Add	Depth Legend - Widener Miami Harbor, FL to:	33 FT OCT 2016 	N 25 45' 52.700"	W 080 08' 15.200"	25.76464	-80.13756	Not Yet Published	319	11467_9	8/31/2017
11467	Delete	Channel Reach Separation Line PT 1 OF 2	Channel Reach Separation Line	N 25 46' 23.340"	W 080 10' 34.190"	25.77315	-80.17616	Not Yet Published	319	11467_9	8/31/2017
11467	Delete	Channel Reach Separation Line PT 1 OF 2	Channel Reach Separation Line	N 25 46' 23.340"	W 080 10' 34.190"	25.77315	-80.17616	Not Yet Published	316	11467_6	8/31/2017
11467	Delete	Channel Reach Separation Line PT 2 OF 2	Channel Reach Separation Line	N 25 46' 19.780"	W 080 10' 36.060"	25.77216	-80.17668	Not Yet Published	319	11467_9	8/31/2017
11467	Delete	Channel Reach Separation Line PT 2 OF 2	Channel Reach Separation Line	N 25 46' 19.780"	W 080 10' 36.060"	25.77216	-80.17668	Not Yet Published	316	11467_6	8/31/2017
11467	Delete	Sounding in Feet	48	N 25 45' 39.100"	W 080 07' 28.400"	25.76086	-80.12456	Not Yet Published	319	11467_9	8/31/2017
11467	Delete	Sounding in Feet	48	N 25 45' 39.100"	W 080 07' 28.400"	25.76086	-80.12456	Not Yet Published	316	11467_6	8/31/2017
11467	Add	Sounding in Feet	37	N 25 45' 52.600"	W 080 09' 06.400"	25.76461	-80.15178	Not Yet Published	319	11467_9	8/31/2017
11467	Change	Depth Legend - Fisher Island, FL to:	33 FT OCT 2016	N 25 45' 52.000"	W 080 08' 35.000"	25.76444	-80.14306	Not Yet Published	319	11467_9	8/31/2017
11467	Delete	Channel Reach Separation Line PT 1 OF 2	Channel Reach Separation Line	N 25 45' 53.090"	W 080 08' 17.900"	25.76475	-80.13831	Not Yet Published	319	11467_9	8/31/2017
11467	Delete	Channel Reach Separation Line PT 1 OF 2	Channel Reach Separation Line	N 25 45' 53.090"	W 080 08' 17.900"	25.76475	-80.13831	Not Yet Published	316	11467_6	8/31/2017
11467	Delete	Channel Reach Separation Line PT 2 OF 2	Channel Reach Separation Line	N 25 45' 58.580"	W 080 08' 15.310"	25.76627	-80.13759	Not Yet Published	319	11467_9	8/31/2017
11467	Delete	Channel Reach Separation Line PT 2 OF 2	Channel Reach Separation Line	N 25 45' 58.580"	W 080 08' 15.310"	25.76627	-80.13759	Not Yet Published	316	11467_6	8/31/2017
11467	Add	Channel Limits PT 1 OF 2	Chart No. 1: I20	N 25 46' 25.120"	W 080 10' 48.470"	25.77364	-80.18013	Not Yet Published	319	11467_9	8/31/2017
11467	Add	Channel Limits PT 1 OF 2	Chart No. 1: I20	N 25 46' 25.120"	W 080 10' 48.470"	25.77364	-80.18013	Not Yet Published	316	11467_6	8/31/2017
11467	Add	Channel Limits PT 2 OF 2	Chart No. 1: I20	N 25 46' 19.780"	W 080 10' 36.060"	25.77216	-80.17668	Not Yet Published	319	11467_9	8/31/2017
11467	Add	Channel Limits PT 2 OF 2	Chart No. 1: I20	N 25 46' 19.780"	W 080 10' 36.060"	25.77216	-80.17668	Not Yet Published	316	11467_6	8/31/2017
11467	Delete	SFOMF Restricted Area Lighted Buoy A	W Or "A" Fl (2) 12s Priv	N 26 05' 30.120"	W 080 06' 15.300"	26.0917	-80.10425	LNM 33/17, 7th Dist	313	11467_2	8/31/2017
11467	Delete	SFOMF Restricted Area Lighted Buoy A	W Or "A" Fl (2) 12s Priv	N 26 05' 30.120"	W 080 06' 15.300"	26.0917	-80.10425	LNM 33/17, 7th Dist	312	11467_5	8/31/2017
11467	Delete	SFOMF Restricted Area Lighted Buoy B	W Or "B" Fl (2) 6s Priv	N 26 05' 30.180"	W 080 06' 00.480"	26.09172	-80.10014	LNM 33/17, 7th Dist	313	11467_2	8/31/2017
11467	Delete	SFOMF Restricted Area Lighted Buoy B	W Or "B" Fl (2) 6s Priv	N 26 05' 30.180"	W 080 06' 00.480"	26.09172	-80.10014	LNM 33/17, 7th Dist	312	11467_5	8/31/2017
11467	Delete	SFOMF Restricted Area Lighted Buoy D	W Or "D" Fl 2s Priv	N 26 04' 45.180"	W 080 05' 00.420"	26.07922	-80.08345	LNM 33/17, 7th Dist	312	11467_5	8/31/2017
11467	Delete	SFOMF Restricted Area Lighted Buoy E	W Or "E" Fl 4s Priv	N 26 04' 14.820"	W 080 05' 03.240"	26.07078	-80.08424	LNM 33/17, 7th Dist	312	11467_5	8/31/2017
11467	Delete	SFOMF Restricted Area Lighted Buoy F	W Or "F" Fl 6s Priv	N 26 03' 30.000"	W 080 05' 29.700"	26.05833	-80.09158	LNM 33/17, 7th Dist	312	11467_5	8/31/2017
11467	Delete	SFOMF Restricted Area Lighted Buoy H	W Or "H" Fl 6s Priv	N 26 03' 30.180"	W 080 06' 00.540"	26.05838	-80.10015	LNM 33/17, 7th Dist	312	11467_5	8/31/2017
11467	Delete	Sounding in Feet	7	N 25 46' 09.240"	W 080 08' 34.150"	25.76923	-80.14282	LNM 35/17, 7th Dist	319	11467_9	8/24/2017
11467	Add	Sounding in Feet	6	N 25 46' 08.800"	W 080 08' 32.000"	25.76911	-80.14222	LNM 35/17, 7th Dist	319	11467_9	8/24/2017
11467	Add	Sounding in Feet	8	N 25 46' 07.600"	W 080 08' 30.000"	25.76878	-80.14167	LNM 35/17, 7th Dist	319	11467_9	8/24/2017
11467	Add	Sounding in Feet	6	N 25 46' 09.600"	W 080 08' 34.100"	25.76933	-80.14281	LNM 35/17, 7th Dist	319	11467_9	8/24/2017
11467	Add	Anchorage Area A Point 1 of 4	Anchorage Area A 110.188 (see note A)	N 25 47' 57.687"	W 080 05' 37.225"	25.79936	-80.09367	LNM 31/17, 7th Dist	316	11467_6	8/24/2017
11467	Add	Anchorage Area A Point 2 of 4	Anchorage Area A 110.188 (see note A)	N 25 47' 57.341"	W 080 05' 26.466"	25.79926	-80.09068	LNM 31/17, 7th Dist	316	11467_6	8/24/2017
11467	Add	Anchorage Area A Point 3 of 4	Anchorage Area A 110.188 (see note A)	N 25 46' 31.443"	W 080 05' 27.069"	25.7754	-80.09085	LNM 31/17, 7th Dist	316	11467_6	8/24/2017
11467	Add	Anchorage Area A Point 4 of 4	Anchorage Area A 110.188 (see note A)	N 25 46' 31.557"	W 080 05' 37.868"	25.77543	-80.09385	LNM 31/17, 7th Dist	316	11467_6	8/24/2017
11467	Delete	Anchorage Area Point 1 of 4	Anchorage Area	N 25 48' 10.820"	W 080 04' 43.510"	25.80301	-80.07875	LNM 31/17, 7th Dist	316	11467_6	8/24/2017
11467	Delete	Anchorage Area Point 2 of 4	Anchorage Area	N 25 48' 21.130"	W 080 05' 42.590"	25.80587	-80.09516	LNM 31/17, 7th Dist	316	11467_6	8/24/2017
11467	Delete	Anchorage Area Point 3 of 4	Anchorage Area	N 25 46' 21.980"	W 080 06' 09.190"	25.77277	-80.10255	LNM 31/17, 7th Dist	316	11467_6	8/24/2017
11467	Delete	Anchorage Area Point 4 of 4	Anchorage Area	N 25 46' 12.330"	W 080 05' 16.450"	25.77009	-80.08791	LNM 31/17, 7th Dist	316	11467_6	8/24/2017
11467	Add	Anchorage Area B Point 1 of 3	Anchorage Area B 110.188 (see note A)	N 25 48' 11.060"	W 080 04' 42.790"	25.80307	-80.07855	LNM 31/17, 7th Dist	316	11467_6	8/24/2017
11467	Add	Anchorage Area B Point 2 of 3	Anchorage Area B 110.188 (see note A)	N 25 48' 13.841"	W 080 04' 59.155"	25.80384	-80.0831	LNM 31/17, 7th Dist	316	11467_6	8/24/2017
11467	Add	Anchorage Area B Point 3 of 3	Anchorage Area B 110.188 (see note A)	N 25 47' 04.560"	W 080 05' 01.610"	25.7846	-80.08378	LNM 31/17, 7th Dist	316	11467_6	8/24/2017
11467	Relocate	Miami Turning Basin Articulated Light B	Art "B" Iso 6s	N 25 47' 10.628"	W 080 10' 54.572"	25.78629	-80.18182	LNM 30/17, 7th Dist	319	11467_9	8/24/2017
11467	Relocate	Miami Turning Basin Articulated Light D	Art "D" Iso 6s	N 25 47' 01.329"	W 080 11' 05.971"	25.7837	-80.18499	LNM 30/17, 7th Dist	319	11467_9	8/24/2017
11467	Delete	Dinner Key Mooring Field 4 Lighted Buoy AA	Y "AA" Fl 4s Priv	N 25 43' 00.135"	W 080 13' 00.849"	25.7167	-80.2169	LNM 30/17, 7th Dist	320	11467_10	8/24/2017
11467	Delete	Dinner Key Mooring Field 4 Lighted Buoy AA	Y "AA" Fl 4s Priv	N 25 43' 00.135"	W 080 13' 00.849"	25.7167	-80.2169	LNM 30/17, 7th Dist	316	11467_6	8/24/2017
11467	Add	Dinner Key Mooring Field 4 Lighted Buoy AA	Y "AA" Fl 4s Priv	N 25 43' 08.110"	W 080 13' 50.950"	25.71892	-80.23082	LNM 30/17, 7th Dist	320	11467_10	8/24/2017
11467	Add	Dinner Key Mooring Field 4 Buoy BB	Y C "BB" Priv	N 25 43' 04.980"	W 080 13' 49.330"	25.71805	-80.23037	LNM 30/17, 7th Dist	320	11467_10	8/24/2017
11467	Add	Dinner Key Mooring Field 4 Buoy CC	Y C "CC" Priv	N 25 43' 01.850"	W 080 13' 47.710"	25.71718	-80.22992	LNM 30/17, 7th Dist	320	11467_10	8/24/2017
11467	Delete	Dinner Key Mooring Field 4 Lighted Buoy DD	Y "DD" Fl 2.5s Priv	N 25 42' 00.979"	W 080 13' 00.768"	25.70027	-80.21688	LNM 30/17, 7th Dist	320	11467_10	8/24/2017
11467	Delete	Dinner Key Mooring Field 4 Lighted Buoy DD	Y "DD" Fl 2.5s Priv	N 25 42' 00.979"	W 080 13' 00.768"	25.70027	-80.21688	LNM 30/17, 7th Dist	316	11467_6	8/24/2017
11467	Add	Dinner Key Mooring Field 4 Lighted Buoy DD	Y "DD" Fl 2.5s Priv	N 25 42' 58.750"	W 080 13' 46.090"	25.71632	-80.22947	LNM 30/17, 7th Dist	320	11467_10	8/24/2017
11467	Add	Dinner Key Mooring Field 4 Buoy EE	Y C "EE" Priv	N 25 42' 58.860"	W 080 13' 49.910"	25.71635	-80.23053	LNM 30/17, 7th Dist	320	11467_10	8/24/2017
11467	Add	Dinner Key Mooring Field 4 Lighted Buoy FF	Y "FF" Q Y Priv	N 25 42' 58.970"	W 080 13' 52.790"	25.71638	-80.23133	LNM 30/17, 7th Dist	320	11467_10	8/24/2017
11467	Add	Dinner Key Mooring Field 4 Lighted Buoy GG	Y "GG" Fl 4s Priv	N 25 43' 01.310"	W 080 13' 55.270"	25.71703	-80.23202	LNM 30/17, 7th Dist	320	11467_10	8/24/2017
11467	Add	Dinner Key Mooring Field 4 Buoy HH	Y C "HH" Priv	N 25 43' 03.290"	W 080 13' 54.590"	25.71758	-80.23183	LNM 30/17, 7th Dist	320	11467_10	8/24/2017
11467	Add	Dinner Key Mooring Field 4 Buoy II	Y C "II" Priv	N 25 43' 05.230"	W 080 13' 53.870"	25.71812	-80.23163	LNM 30/17, 7th Dist	320	11467_10	8/24/2017
11467	Relocate	Deering Channel Daybeacon 6	R "6" Priv	N 25 44' 15.400"	W 080 12' 14.700"	25.73761	-80.20409	LNM 27/17, 7th Dist	316	11467_6	7/13/2017
11467	Change	tabulation - PORT EVERGLADES CHANNEL DEPTHS	tabulation - PORT EVERGLADES CHANNEL DEPTHS	N 26 35' 34.000"	W 080 00' 03.000"	26.59278	-80.00083	LNM 27/17, 7th Dist	311	11467_1	7/6/2017
11467	Change	channel reach name to	MAIN TURNING BASIN	N 26 05' 37.500"	W 080 07' 06.000"	26.09375	-80.11833	LNM 27/17, 7th Dist	313	11467_2	7/6/2017
11467	Delete	Channel Limits PT 1 OF 7	Chart No. 1: I20	N 26 05' 24.950"	W 080 06' 53.720"	26.09026	-80.11492	LNM 27/17, 7th Dist	312	11467_5	7/6/2017
11467	Delete	Channel Limits PT 2 OF 7	Chart No. 1: I20	N 26 05' 12.190"	W 080 06' 49.110"	26.08672	-80.11364	LNM 27/17, 7th Dist	312	11467_5	7/6/2017
11467	Delete	Channel Limits PT 3 OF 7	Chart No. 1: I20	N 26 03' 53.960"	W 080 06' 51.150"	26.06499	-80.11421	LNM 27/17, 7th Dist	312	11467_5	7/6/2017
11467	Delete	Channel Limits PT 4 OF 7	Chart No. 1: I20	N 26 03' 53.890"	W 080 06' 52.460"	26.06497	-80.11457	LNM 27/17, 7th Dist	312	11467_5	7/6/2017
11467	Delete	Channel Limits PT 5 OF 7	Chart No. 1: I20	N 26 05' 09.360"	W 080 06' 50.590"	26.08593	-80.11405	LNM 27/17, 7th Dist	312	11467_5	7/6/2017
11467	Delete	Channel Limits PT 6 OF 7	Chart No. 1: I20	N 26 05' 14.440"	W 080 06' 51.460"	26.08735	-80.1143	LNM 27/17, 7th Dist	312	11467_5	7/6/2017
11467	Delete	Channel Limits PT 7 OF 7	Chart No. 1: I20	N 26 05' 24.040"	W 080 06' 54.940"	26.09001	-80.11526	LNM 27/17, 7th Dist	312	11467_5	7/6/2017
11467	Add	Channel Limits PT 1 OF 6	Chart No. 1: I20	N 26 05' 27.190"	W 080 06' 50.940"	26.09089	-80.11415	LNM 27/17, 7th Dist	313	11467_2	7/6/2017
11467	Add	Channel Limits PT 2 OF 6	Chart No. 1: I20	N 26 05' 10.380"	W 080 06' 45.750"	26.08622	-80.11271	LNM 27/17, 7th Dist	313	11467_2	7/6/2017
11467	Add	Channel Limits PT 3 OF 6	Chart No. 1: I20	N 26 05' 07.990"	W 080 06' 46.210"	26.08555	-80.11284	LNM 27/17, 7th Dist	313	11467_2	7/6/2017
11467	Add	Channel Limits PT 4 OF 6	Chart No. 1: I20	N 26 05' 08.400"	W 080 06' 50.640"	26.08567	-80.11407	LNM 27/17, 7th Dist	313	11467_2	7/6/2017
11467	Add	Channel Limits PT 5 OF 6	Chart No. 1: I20	N 26 05' 10.110"	W 080 06' 50.220"	26.08614	-80.11395	LNM 27/17, 7th Dist	313	11467_2	7/6/2017
11467	Add	Channel Limits PT 6 OF 6	Chart No. 1: I20	N 26 05' 24.130"	W 080 06' 54.580"	26.09004	-80.11516	LNM 27/17, 7th Dist	313	11467_2	7/6/2017
11467	Delete	Channel Limits PT 1 OF 4	Chart No. 1: I20	N 26 04' 01.380"	W 080 06' 50.850"	26.06705	-80.11413	LNM 27/17, 7th Dist	314	11467_3	7/6/2017
11467	Delete	Channel Limits PT 2 OF 4	Chart No. 1: I20	N 26 03' 53.960"	W 080 06' 51.150"	26.06499	-80.11421	LNM 27/17, 7th Dist	314	11467_3	7/6/2017
11467	Delete	Channel Limits PT 3 OF 4	Chart No. 1: I20	N 26 03' 53.890"	W 080 06' 52.460"	26.06497	-80.11457	LNM 27/17, 7th Dist	314	11467_3	7/6/2017
11467	Delete	Channel Limits PT 4 OF 4	Chart No. 1: I20	N 26 04' 01.460"	W 080 06' 52.280"	26.06707	-80.11452	LNM 27/17, 7th Dist	314	11467_3	7/6/2017
11467	Add	Channel Limits PT 1 OF 12	Chart No. 1: I20	N 26 05' 27.190"	W 080 06' 50.940"	26.09089	-80.11415	LNM 27/17, 7th Dist	312	11467_5	7/6/2017
11467	Add	Channel Limits PT 2 OF 12	Chart No. 1: I20	N 26 05' 10.380"	W 080 06' 45.750"	26.08622	-80.11271	LNM 27/17, 7th Dist	312	11467_5	7/6/2017
11467	Add	Channel Limits PT 3 OF 12	Chart No. 1: I20	N 26 04' 46.680"	W 080 06' 49.320"	26.07963	-80.1137	LNM 27/17, 7th Dist	312	11467_5	7/6/2017
11467	Add	Channel Limits PT 4 OF 12	Chart No. 1: I20	N 26 03' 53.890"	W 080 06' 50.610"	26.06497	-80.11406	LNM 27/17, 7th Dist	312	11467_5	7/6/2017
11467	Add	Channel Limits PT 5 OF 12	Chart No. 1: I20	N 26 03' 53.930"	W 080 06' 52.490"	26.06498	-80.11458	LNM 27/17, 7th Dist	312	11467_5	7/6/2017
11467	Add	Channel Limits PT 6 OF 12	Chart No. 1: I20	N 26 03' 53.970"	W 080 06' 54.710"	26.06499	-80.1152	LNM 27/17, 7th Dist	312	11467_5	7/6/2017
11467	Add	Channel Limits PT 7 OF 12	Chart No. 1: I20	N 26 04' 21.810"	W 080 06' 53.920"	26.07273	-80.11497	LNM 27/17, 7th Dist	312	11467_5	7/6/2017
11467	Add	Channel Limits PT 8 OF 12	Chart No. 1: I20	N 26 04' 21.810"	W 080 06' 54.270"	26.07273	-80.11507	LNM 27/17, 7th Dist	312	11467_5	7/6/2017
11467	Add	Channel Limits PT 9 OF 12	Chart No. 1: I20	N 26 04' 42.830"	W 080 06' 53.880"	26.07856	-80.11497	LNM 27/17, 7th Dist	312	11467_5	7/6/2017
11467	Add	Channel Limits PT 10 OF 12	Chart No. 1: I20	N 26 04' 42.830"	W 080 06' 54.490"	26.07856	-80.11514	LNM 27/17, 7th Dist	312	11467_5	7/6/2017
11467	Add	Channel Limits PT 11 OF 12	Chart No. 1: I20	N 26 05' 10.110"	W 080 06' 50.220"	26.08614	-80.11395	LNM 27/17, 7th Dist	312	11467_5	7/6/2017
11467	Add	Channel Limits PT 12 OF 12	Chart No. 1: I20	N 26 05' 24.130"	W 080 06' 54.580"	26.09004	-80.11516	LNM 27/17, 7th Dist	312	11467_5	7/6/2017
11467	Add	soundings inside channel PT 1 OF 2	soundings inside channel	N 26 05' 25.370"	W 080 06' 52.800"	26.09038	-80.11467	LNM 27/17, 7th Dist	313	11467_2	7/6/2017
11467	Add	soundings inside channel PT 2 OF 2	soundings inside channel	N 26 05' 08.410"	W 080 06' 48.250"	26.08567	-80.1134	LNM 27/17, 7th Dist	313	11467_2	7/6/2017
11467	Change	channel reach name	INNER ENTRANCE CHANNEL	N 26 05' 37.000"	W 080 06' 30.500"	26.09361	-80.10847	LNM 27/17, 7th Dist	313	11467_2	7/6/2017
11467	Add	Channel Limits PT 1 OF 4	Chart No. 1: I20	N 26 04' 23.180"	W 080 06' 54.390"	26.0731	-80.1151	LNM 27/17, 7th Dist	312	11467_5	7/6/2017
11467	Add	Channel Limits PT 2 OF 4	Chart No. 1: I20	N 26 04' 23.090"	W 080 07' 05.340"	26.07308	-80.11815	LNM 27/17, 7th Dist	312	11467_5	7/6/2017
11467	Add	Channel Limits PT 3 OF 4	Chart No. 1: I20	N 26 04' 29.460"	W 080 07' 05.470"	26.07485	-80.11819	LNM 27/17, 7th Dist	312	11467_5	7/6/2017
11467	Add	Channel Limits PT 4 OF 4	Chart No. 1: I20	N 26 04' 29.550"	W 080 06' 54.240"	26.07487	-80.11507	LNM 27/17, 7th Dist	312	11467_5	7/6/2017
11467	Delete	Channel Limits PT 1 OF 6	Chart No. 1: I20	N 26 05' 24.950"	W 080 06' 53.720"	26.09026	-80.11492	LNM 27/17, 7th Dist	313	11467_2	7/6/2017
11467	Delete	Channel Limits PT 2 OF 6	Chart No. 1: I20	N 26 05' 12.190"	W 080 06' 49.110"	26.08672	-80.11364	LNM 27/17, 7th Dist	313	11467_2	7/6/2017
11467	Delete	Channel Limits PT 3 OF 6	Chart No. 1: I20	N 26 05' 08.300"	W 080 06' 49.100"	26.08564	-80.11364	LNM 27/17, 7th Dist	313	11467_2	7/6/2017
11467	Delete	Channel Limits PT 4 OF 6	Chart No. 1: I20	N 26 05' 09.360"	W 080 06' 50.590"	26.08593	-80.11405	LNM 27/17, 7th Dist	313	11467_2	7/6/2017
11467	Delete	Channel Limits PT 5 OF 6	Chart No. 1: I20	N 26 05' 14.440"	W 080 06' 51.460"	26.08735	-80.1143	LNM 27/17, 7th Dist	313	11467_2	7/6/2017
11467	Delete	Channel Limits PT 6 OF 6	Chart No. 1: I20	N 26 05' 24.040"	W 080 06' 54.940"	26.09001	-80.11526	LNM 27/17, 7th Dist	313	11467_2	7/6/2017
11467	Add	Channel Limits PT 1 OF 5	Chart No. 1: I20	N 26 04' 01.360"	W 080 06' 50.540"	26.06705	-80.11404	LNM 27/17, 7th Dist	314	11467_3	7/6/2017
11467	Add	Channel Limits PT 2 OF 5	Chart No. 1: I20	N 26 03' 53.890"	W 080 06' 50.610"	26.06497	-80.11406	LNM 27/17, 7th Dist	314	11467_3	7/6/2017
11467	Add	Channel Limits PT 3 OF 5	Chart No. 1: I20	N 26 03' 53.930"	W 080 06' 52.490"	26.06498	-80.11458	LNM 27/17, 7th Dist	314	11467_3	7/6/2017
11467	Add	Channel Limits PT 4 OF 5	Chart No. 1: I20	N 26 03' 53.970"	W 080 06' 54.710"	26.06499	-80.1152	LNM 27/17, 7th Dist	314	11467_3	7/6/2017
11467	Add	Channel Limits PT 5 OF 5	Chart No. 1: I20	N 26 04' 01.710"	W 080 06' 54.470"	26.06714	-80.11513	LNM 27/17, 7th Dist	314	11467_3	7/6/2017
11467	Relocate	Lummus Island Turning Basin Light E	Fl Y 4s 16ft 4M "E"	N 25 46' 02.589"	W 080 10' 14.014"	25.76739	-80.17056	LNM 25/17, 7th Dist	319	11467_9	6/29/2017
11467	Change	Depth Legend - New River to:	8 FT JUN 2016	N 26 06' 54.000"	W 080 07' 26.300"	26.115	-80.12397	LNM 25/17, 7th Dist	313	11467_2	6/15/2017
11467	Add	Depth Legend - New River to:	8 FT JUN 2016	N 26 06' 42.500"	W 080 07' 10.700"	26.1118	-80.11964	LNM 25/17, 7th Dist	313	11467_2	6/15/2017
11467	Add	magenta reach separator PT 1 OF 4	magenta reach separator	N 26 06' 48.250"	W 080 07' 09.390"	26.1134	-80.11928	LNM 25/17, 7th Dist	313	11467_2	6/15/2017
11467	Add	magenta reach separator PT 2 OF 4	magenta reach separator	N 26 06' 49.430"	W 080 07' 11.170"	26.11373	-80.11977	LNM 25/17, 7th Dist	313	11467_2	6/15/2017
11467	Add	magenta reach separator PT 3 OF 4	magenta reach separator	N 26 06' 37.520"	W 080 07' 11.080"	26.11042	-80.11974	LNM 25/17, 7th Dist	313	11467_2	6/15/2017
11467	Add	magenta reach separator PT 4 OF 4	magenta reach separator	N 26 06' 36.380"	W 080 07' 12.150"	26.11011	-80.12004	LNM 25/17, 7th Dist	313	11467_2	6/15/2017
11467	Relocate	Lummus Island Turning Basin Light E	Fl Y 4s 16ft 4M "E"	N 25 46' 02.554"	W 080 10' 13.523"	25.76738	-80.17043	LNM 22/17, 7th Dist	319	11467_9	6/22/2017
11467	Relocate	Biscayne Flats Daybeacon 3	G "3"	N 25 39' 49.911"	W 080 11' 01.169"	25.66386	-80.18365	LNM 17/17, 7th Dist	316	11467_6	5/4/2017
11467	Relocate	Biscayne Bay Buoy 7B	G C "7B"	N 25 54' 04.527"	W 080 07' 54.009"	25.90126	-80.13167	LNM 17/17, 7th Dist	318	11467_8	5/4/2017
11467	Relocate	Miami Beach Channel Daybeacon 20	R "20"	N 25 49' 09.663"	W 080 08' 25.050"	25.81935	-80.14029	LNM 17/17, 7th Dist	316	11467_6	5/4/2017
11467	Relocate	Port Everglades Light 7	Fl G 2.5s 16ft 5M "7"	N 26 05' 33.853"	W 080 06' 31.754"	26.09274	-80.10882	LNM 17/17, 7th Dist	313	11467_2	5/4/2017
11467	Relocate	Port Everglades Light 7	Fl G 2.5s 16ft 5M "7"	N 26 05' 33.853"	W 080 06' 31.754"	26.09274	-80.10882	LNM 17/17, 7th Dist	312	11467_5	5/4/2017
11467	Relocate	Lummus Island Turning Basin Light B	Fl Y 4s 16ft 4M "B"	N 25 45' 53.860"	W 080 09' 58.338"	25.76496	-80.16621	LNM 13/17, 7th Dist	319	11467_9	4/13/2017
11467	Add	Bent Light	Fl 4s 25ft Priv	N 25 45' 11.048"	W 080 06' 28.821"	25.75307	-80.10801	LNM 13/17, 7th Dist	316	11467_6	4/13/2017
11467	Change	tabulation - PORT EVERGLADES CHANNEL DEPTHS	tabulation - PORT EVERGLADES CHANNEL DEPTHS	N 26 35' 23.530"	W 080 00' 05.070"	26.58987	-80.00141	LNM 15/17, 7th Dist	311	11467_1	4/6/2017
11467	Change	Minimum Size (2mm sq.) Dotted Fish Haven and Label	Obstn Fish Haven (auth min 40 ft), Chart No. 1 K46.2	N 25 59' 05.794"	W 080 05' 12.766"	25.98494	-80.08688	LNM 12/17, 7th Dist	312	11467_5	3/16/2017
11467	Relocate	Lake Boca Raton Light 65	Fl G 4s 16ft 5M "65"	N 26 20' 46.977"	W 080 04' 29.360"	26.34638	-80.07482	LNM 09/17, 7th Dist	311	11467_1	3/2/2017
11467	Relocate	Lake Wyman Light 56	Fl R 4s 16ft 5M "56"	N 26 22' 27.606"	W 080 04' 24.148"	26.37433	-80.07337	LNM 09/17, 7th Dist	311	11467_1	3/2/2017
11467	Change	Depth Note - MIAMI RIVER to:	MIAMI RIVER to: The controlling depths were 17 feet for a width of 150 feet from the Intracoastal Waterway to South Fork Miami River; thence 16 1/2 feet for a width of 125 feet to Tamiami Canal; thence 16 feet for a width of 90 feet to the Seaboard Coast Line (SCL) Railroad bridge; thence 6 1/2 feet for a mid-width of 45 feet to the dam at the 36th St. bridge. Jul 2000 - Aug 2012	N 25 37' 26.880"	W 080 07' 45.280"	25.62413	-80.12924	LNM 08/17, 7th Dist	316	11467_6	2/16/2017
11467	Change	Miami Main Channel Lighted Buoy 10	R "10" Fl R 2.5s	N 25 45' 34.904"	W 080 07' 16.078"	25.7597	-80.12113	LNM 04/17, 7th Dist	316	11467_6	2/2/2017
11467	Change	Miami Main Channel Lighted Buoy 12	R "12" Q R	N 25 45' 39.563"	W 080 07' 28.837"	25.76099	-80.12468	LNM 04/17, 7th Dist	319	11467_9	2/2/2017
11467	Change	Miami Main Channel Lighted Buoy 12	R "12" Q R	N 25 45' 39.563"	W 080 07' 28.837"	25.76099	-80.12468	LNM 04/17, 7th Dist	316	11467_6	2/2/2017
11467	Change	Miami Main Channel Lighted Buoy 8	R "8" Q R	N 25 45' 30.958"	W 080 06' 58.262"	25.7586	-80.11618	LNM 04/17, 7th Dist	316	11467_6	2/2/2017
11459	Change	Depth Legend - Lake Worth Inlet Southern Turning Basin to:	30 1/2 FT FEB 2017	N 26 46' 06.000"	W 080 02' 55.000"	26.76833	-80.04861	LNM 35/17, 7th Dist	358	11459_2	Not Yet
11459	Change	Depth Legend - Lake Worth Inlet Southern Turning Basin to:	30 1/2 FT FEB 2017	N 26 46' 06.000"	W 080 02' 55.000"	26.76833	-80.04861	LNM 35/17, 7th Dist	353	11459_1	Not Yet
11459	Change	tabulation - Lake Worth Inlet Channel Depths	tabulation - Lake Worth Inlet Channel Depths	N 26 50' 10.000"	W 080 02' 30.000"	26.83611	-80.04166	LNM 35/17, 7th Dist	353	11459_1	Not Yet
11459	Add	Dotted Fish Haven Label	Obstn Fish Haven (auth min 2 ft)	N 26 46' 57.800"	W 080 02' 31.600"	26.78272	-80.04211	LNM 18/17, 7th Dist	353	11459_1	5/11/2017
11459	Add	Dotted Fish Haven PT 1 OF 4	Chart No. 1: K46.2	N 26 45' 04.000"	W 080 02' 33.000"	26.75111	-80.0425	LNM 18/17, 7th Dist	353	11459_1	5/11/2017
11459	Add	Dotted Fish Haven PT 2 OF 4	Chart No. 1: K46.2	N 26 45' 04.000"	W 080 02' 39.000"	26.75111	-80.04417	LNM 18/17, 7th Dist	353	11459_1	5/11/2017
11459	Add	Dotted Fish Haven PT 3 OF 4	Chart No. 1: K46.2	N 26 44' 56.000"	W 080 02' 39.000"	26.74889	-80.04417	LNM 18/17, 7th Dist	353	11459_1	5/11/2017
11459	Add	Dotted Fish Haven PT 4 OF 4	Chart No. 1: K46.2	N 26 44' 56.000"	W 080 02' 33.000"	26.74889	-80.0425	LNM 18/17, 7th Dist	353	11459_1	5/11/2017
11459	Add	Dotted Fish Haven PT 1 OF 14	Chart No. 1: K46.2	N 26 46' 58.520"	W 080 02' 27.170"	26.78292	-80.04088	LNM 18/17, 7th Dist	353	11459_1	5/11/2017
11459	Add	Dotted Fish Haven PT 2 OF 14	Chart No. 1: K46.2	N 26 46' 57.490"	W 080 02' 27.430"	26.78264	-80.04095	LNM 18/17, 7th Dist	353	11459_1	5/11/2017
11459	Add	Dotted Fish Haven PT 3 OF 14	Chart No. 1: K46.2	N 26 46' 56.670"	W 080 02' 28.460"	26.78241	-80.04124	LNM 18/17, 7th Dist	353	11459_1	5/11/2017
11459	Add	Dotted Fish Haven PT 4 OF 14	Chart No. 1: K46.2	N 26 46' 56.940"	W 080 02' 36.270"	26.78248	-80.04341	LNM 18/17, 7th Dist	353	11459_1	5/11/2017
11459	Add	Dotted Fish Haven PT 5 OF 14	Chart No. 1: K46.2	N 26 46' 57.740"	W 080 02' 36.250"	26.78271	-80.0434	LNM 18/17, 7th Dist	353	11459_1	5/11/2017
11459	Add	Dotted Fish Haven PT 6 OF 14	Chart No. 1: K46.2	N 26 46' 57.740"	W 080 02' 35.390"	26.78271	-80.04317	LNM 18/17, 7th Dist	353	11459_1	5/11/2017
11459	Add	Dotted Fish Haven PT 7 OF 14	Chart No. 1: K46.2	N 26 46' 57.240"	W 080 02' 35.390"	26.78257	-80.04317	LNM 18/17, 7th Dist	353	11459_1	5/11/2017
11459	Add	Dotted Fish Haven PT 8 OF 14	Chart No. 1: K46.2	N 26 46' 57.230"	W 080 02' 34.660"	26.78256	-80.04296	LNM 18/17, 7th Dist	353	11459_1	5/11/2017
11459	Add	Dotted Fish Haven PT 9 OF 14	Chart No. 1: K46.2	N 26 46' 57.750"	W 080 02' 34.660"	26.78271	-80.04296	LNM 18/17, 7th Dist	353	11459_1	5/11/2017
11459	Add	Dotted Fish Haven PT 10 OF 14	Chart No. 1: K46.2	N 26 46' 57.750"	W 080 02' 33.590"	26.78271	-80.04266	LNM 18/17, 7th Dist	353	11459_1	5/11/2017
11459	Add	Dotted Fish Haven PT 12 OF 14	Chart No. 1: K46.2	N 26 46' 58.890"	W 080 02' 32.680"	26.78303	-80.04241	LNM 18/17, 7th Dist	353	11459_1	5/11/2017
11459	Add	Dotted Fish Haven PT 13 OF 14	Chart No. 1: K46.2	N 26 46' 57.750"	W 080 02' 32.600"	26.78271	-80.04239	LNM 18/17, 7th Dist	353	11459_1	5/11/2017
11459	Add	Dotted Fish Haven PT 14 OF 14	Chart No. 1: K46.2	N 26 46' 57.750"	W 080 02' 28.980"	26.78271	-80.04138	LNM 18/17, 7th Dist	353	11459_1	5/11/2017
11459	Add	Dotted Fish Haven Label	Obstn Fish Haven (auth min 6 ft)	N 26 45' 00.000"	W 080 02' 36.000"	26.75	-80.04333	LNM 18/17, 7th Dist	353	11459_1	5/11/2017
11459	Add	Dotted Fish Haven PT 11 OF 14	Chart No. 1: K46.2	N 26 46' 52.800"	W 080 02' 33.600"	26.78133	-80.04266	LNM 18/17, 7th Dist	353	11459_1	5/11/2017
11459	Change	tabulation - Lake Worth Inlet Channel Depths	tabulation - Lake Worth Inlet Channel Depths	N 26 50' 10.000"	W 080 02' 30.000"	26.83611	-80.04166	LNM 12/17, 7th Dist	353	11459_1	3/16/2017
11459	Add	Dotted Fish Haven PT 1 OF 4	Chart No. 1: K46.2	N 26 47' 53.000"	W 080 02' 48.000"	26.79806	-80.04667	LNM 12/17, 7th Dist	353	11459_1	3/16/2017
11459	Add	Dotted Fish Haven PT 2 OF 4	Chart No. 1: K46.2	N 26 47' 16.000"	W 080 02' 43.000"	26.78778	-80.04528	LNM 12/17, 7th Dist	353	11459_1	3/16/2017
11459	Add	Dotted Fish Haven PT 3 OF 4	Chart No. 1: K46.2	N 26 47' 53.000"	W 080 02' 38.000"	26.79806	-80.04389	LNM 12/17, 7th Dist	353	11459_1	3/16/2017
11459	Add	Dotted Fish Haven PT 4 OF 4	Chart No. 1: K46.2	N 26 47' 16.000"	W 080 02' 36.000"	26.78778	-80.04333	LNM 12/17, 7th Dist	353	11459_1	3/16/2017
11459	Add	Dotted Fish Haven Label	Obstn Fish Haven (auth min 6 ft)	N 26 47' 33.700"	W 080 02' 41.300"	26.79269	-80.04481	LNM 12/17, 7th Dist	353	11459_1	3/16/2017
11459	Delete	Sounding in Feet	6	N 26 47' 23.700"	W 080 02' 36.600"	26.78992	-80.0435	LNM 12/17, 7th Dist	353	11459_1	3/16/2017
11459	Relocate	Lake Worth North Daybeacon 43	G "43"	N 26 46' 19.841"	W 080 02' 58.395"	26.77218	-80.04955	LNM 06/17, 7th Dist	358	11459_2	3/16/2017
11459	Relocate	Lake Worth North Daybeacon 43	G "43"	N 26 46' 19.841"	W 080 02' 58.395"	26.77218	-80.04955	LNM 06/17, 7th Dist	353	11459_1	3/16/2017
11495	Delete	Lake George South End Range Rear Light	Iso 6s 40ft	N 29 12' 12.000"	W 081 34' 41.760"	29.20333	-81.57827	LNM 06/17, 7th Dist	276	11495_1	2/23/2017
11495	Add	Lake George Light 14	Fl R 2.5s 15ft 5M "14"	N 29 12' 41.368"	W 081 34' 49.590"	29.21149	-81.58044	LNM 05/17, 7th Dist	276	11495_1	2/9/2017
11495	Delete	Lake George South End Range Front Light	Q 15ft	N 29 12' 41.520"	W 081 34' 49.740"	29.21153	-81.58048	LNM 05/17, 7th Dist	276	11495_1	2/9/2017
11495	Delete	Lake George North End Range Rear Light	Iso 6s 33ft	N 29 22' 45.089"	W 081 37' 31.386"	29.37919	-81.62538	LNM 44/15, 7th Dist	275	11495_2	11/12/2015
11495	Relocate	Mount Royal Daybeacon 62	R "62"	N 29 25' 42.024"	W 081 39' 31.914"	29.42834	-81.65887	LNM 43/15, 7th Dist	275	11495_2	11/5/2015
11495	Delete	Mount Royal Daybeacon 62A	R "62A"	N 29 25' 42.024"	W 081 39' 31.914"	29.42834	-81.65887	LNM 43/15, 7th Dist	275	11495_2	11/5/2015
11495	Change	Norwalk Point Light 59	Fl G 4s 16ft 5M "59"	N 29 26' 02.450"	W 081 40' 58.394"	29.43401	-81.68288	LNM 40/15, 7th Dist	275	11495_2	10/15/2015
11495	Change	Horse Landing Light 37	Fl G 4s 12ft 5M "37"	N 29 32' 25.141"	W 081 42' 13.595"	29.54032	-81.70377	LNM 40/15, 7th Dist	275	11495_2	10/15/2015
11495	Change	Norwalk Point Light 58	Fl R 4s 16ft 5M "58"	N 29 26' 11.808"	W 081 41' 11.138"	29.43661	-81.68642	LNM 39/15, 7th Dist	275	11495_2	10/8/2015
11495	Change	Buffalo Bluff Light 29	Fl G 2.5s 12ft 5M "29"	N 29 35' 10.500"	W 081 40' 58.380"	29.58625	-81.68288	LNM 30/15, 7th Dist	275	11495_2	8/6/2015
11495	Change	Grand View Light 40A	Fl R 2.5s 16ft 5M "40A"	N 29 31' 19.728"	W 081 40' 49.644"	29.52215	-81.68046	LNM 30/15, 7th Dist	275	11495_2	8/6/2015
11495	Change	Little Lake George Light 53	Fl G 4s 16ft 5M "53"	N 29 27' 45.936"	W 081 41' 09.755"	29.46276	-81.68604	LNM 30/15, 7th Dist	275	11495_2	8/6/2015
11495	Change	Rat Island Light 15	Fl G 4s 12ft 5M "15"	N 29 35' 23.040"	W 081 37' 20.460"	29.58973	-81.62235	LNM 30/15, 7th Dist	275	11495_2	8/6/2015
11495	Change	Seven Sisters Island Light 30	Fl R 4s 16ft 5M "30"	N 29 34' 48.990"	W 081 41' 08.795"	29.58027	-81.68578	LNM 30/15, 7th Dist	275	11495_2	8/6/2015
11495	Change	Black Point Light 68	Fl R 4s 16ft 5M "68"	N 29 23' 31.260"	W 081 39' 27.120"	29.39202	-81.65753	LNM 30/15, 7th Dist	275	11495_2	8/6/2015
11495	Change	Georgetown Light 70	Fl R 4s 12ft 5M "70"	N 29 23' 11.460"	W 081 38' 37.560"	29.38652	-81.64377	LNM 30/15, 7th Dist	275	11495_2	8/6/2015
11495	Change	Mount Royal Light 61A	Fl G 4s 12ft 5M "61A"	N 29 25' 51.497"	W 081 40' 05.566"	29.43097	-81.66821	LNM 30/15, 7th Dist	275	11495_2	8/6/2015
11495	Change	Horse Landing Light 38	Fl R 4s 16ft 5M "38"	N 29 32' 08.220"	W 081 41' 52.020"	29.53562	-81.69778	LNM 30/15, 7th Dist	275	11495_2	8/6/2015
11495	Change	Nashua Light 42	Fl R 4s 16ft 5M "42"	N 29 30' 18.379"	W 081 40' 45.182"	29.50511	-81.67921	LNM 20/15, 7th Dist	275	11495_2	5/28/2015
11495	Change	Welaka Light 48	Fl R 4s 16ft 5M "48"	N 29 29' 05.400"	W 081 40' 34.920"	29.48483	-81.67637	LNM 20/15, 7th Dist	275	11495_2	5/28/2015
11495	Change	Possum Bluff Light 40	Fl R 4s 16ft 5M "40"	N 29 32' 11.192"	W 081 41' 32.193"	29.53644	-81.69228	LNM 20/15, 7th Dist	275	11495_2	5/28/2015
11495	Change	Murphy Island Light 23	Fl G 2.5s 16ft 5M "23"	N 29 35' 52.543"	W 081 39' 49.745"	29.59793	-81.66382	LNM 10/15, 7th Dist	275	11495_2	3/19/2015
11495	Change	Murphy Island Light 26	Fl R 4s 16ft 5M "26"	N 29 35' 31.987"	W 081 40' 22.947"	29.59222	-81.67304	LNM 10/15, 7th Dist	275	11495_2	3/19/2015
11495	Change	Crescent Lake Light 16	Fl R 4s 16ft 5M "16"	N 29 35' 30.900"	W 081 38' 03.720"	29.59192	-81.63437	LNM 04/15, 7th Dist	275	11495_2	2/5/2015
11495	Change	Idlewilde Light 16	Q R 16ft 4M "16"	N 29 05' 54.255"	W 081 30' 09.012"	29.0984	-81.5025	LNM 04/15, 7th Dist	276	11495_1	2/5/2015
11495	Change	Lake Dexter Light 12	Fl R 4s 17ft 5M "12"	N 29 06' 44.763"	W 081 30' 25.705"	29.11243	-81.50714	LNM 04/15, 7th Dist	276	11495_1	2/5/2015
11495	Change	Lake Dexter Light 15	Fl G 4s 12ft 5M "15"	N 29 06' 07.112"	W 081 29' 58.933"	29.10198	-81.4997	LNM 04/15, 7th Dist	276	11495_1	2/5/2015
11495	Change	Lake George Light 5	Fl G 4s 16ft 5M "5"	N 29 18' 30.000"	W 081 36' 21.960"	29.30833	-81.6061	LNM 03/15, 7th Dist	276	11495_1	1/22/2015
11495	Change	Lake George Light 7	Fl G 4s 12ft 5M "7"	N 29 16' 36.540"	W 081 35' 51.540"	29.27682	-81.59765	LNM 03/15, 7th Dist	276	11495_1	1/22/2015
11495	Change	Lungren Island Light 1	Fl G 4s 16ft 5M "1"	N 29 08' 45.230"	W 081 30' 59.055"	29.1459	-81.5164	LNM 03/15, 7th Dist	276	11495_1	1/22/2015
11495	Change	Manhatten Light 4	Fl R 4s 16ft 5M "4"	N 29 08' 12.091"	W 081 30' 50.396"	29.13669	-81.514	LNM 03/15, 7th Dist	276	11495_1	1/22/2015
11495	Change	Manhatten Light 5	Fl G 4s 17ft 5M "5"	N 29 08' 00.231"	W 081 30' 33.454"	29.1334	-81.50929	LNM 03/15, 7th Dist	276	11495_1	1/22/2015
11495	Change	Morrison Island Light 28	Fl R 4s 16ft 5M "28"	N 29 10' 42.526"	W 081 32' 20.259"	29.17848	-81.53896	LNM 03/15, 7th Dist	276	11495_1	1/22/2015
11495	Change	Volusia Light 19	Fl G 4s 16ft 5M "19"	N 29 12' 05.160"	W 081 33' 44.880"	29.20143	-81.56247	LNM 03/15, 7th Dist	276	11495_1	1/22/2015
11495	Change	Volusia Light 23	Fl G 4s 16ft 5M "23"	N 29 11' 39.600"	W 081 33' 25.140"	29.19433	-81.55698	LNM 03/15, 7th Dist	276	11495_1	1/22/2015
11495	Change	Bluffton Light 8	Fl R 4s 17ft 5M "8"	N 29 07' 24.843"	W 081 30' 18.663"	29.12357	-81.50518	LNM 38/14, 7th Dist	276	11495_1	10/2/2014
11495	Change	Lake George Light 10	Fl R 4s 12ft 5M "10"	N 29 14' 19.920"	W 081 35' 18.960"	29.23887	-81.5886	LNM 38/14, 7th Dist	276	11495_1	10/2/2014
11495	Change	Volusia Light 17	Fl G 4s 12ft 5M "17"	N 29 12' 22.860"	W 081 34' 39.060"	29.20635	-81.57751	LNM 38/14, 7th Dist	276	11495_1	10/2/2014
11495	Change	Volusia Light 21	Fl G 4s 16ft 5M "21"	N 29 11' 55.020"	W 081 33' 30.600"	29.19862	-81.5585	LNM 38/14, 7th Dist	276	11495_1	10/2/2014
11495	Change	Lake George Light 2	Fl R 4s 12ft 5M "2"	N 29 20' 42.504"	W 081 36' 58.692"	29.34514	-81.6163	LNM 31/14, 7th Dist	275	11495_2	8/14/2014
11495	Change	Lake George Light 2	Fl R 4s 12ft 5M "2"	N 29 20' 42.504"	W 081 36' 58.692"	29.34514	-81.6163	LNM 31/14, 7th Dist	276	11495_1	8/14/2014
11495	Relocate	Georgetown Light 73	Q G 15ft 4M "73"	N 29 22' 16.830"	W 081 37' 23.693"	29.37134	-81.62325	LNM 21/14, 7th Dist	275	11495_2	6/5/2014
11495	Relocate	Georgetown Light 73	Q G 15ft 4M "73"	N 29 22' 16.830"	W 081 37' 23.693"	29.37134	-81.62325	LNM 21/14, 7th Dist	276	11495_1	6/5/2014
11495	Change	Seven Sisters Island Light 31	Fl G 4s 16ft 5M "33"	N 29 34' 18.090"	W 081 41' 30.696"	29.57169	-81.69186	LNM 17/14, 7th Dist	275	11495_2	5/8/2014
11429	Relocate	Barron River Channel Daybeacon 37	G "37"	N 25 51' 13.860"	W 081 23' 19.348"	25.85385	-81.38871	LNM 21/17, 7th Dist	370	11429_3	6/1/2017
11452	Delete	Duck Key Channel Daybeacon 12	R "12" Priv	N 24 46' 27.500"	W 080 55' 27.000"	24.77431	-80.92416	LNM 11/16, 7th Dist	354	11452_1	3/24/2016
11452	Delete	Duck Key Channel Daybeacon 5	G "5" Priv	N 24 46' 04.100"	W 080 55' 27.300"	24.76781	-80.92425	LNM 11/16, 7th Dist	354	11452_1	3/24/2016
11452	Delete	Duck Key Channel Daybeacon 8	R "8" Priv	N 24 46' 17.600"	W 080 55' 22.400"	24.77155	-80.92289	LNM 11/16, 7th Dist	354	11452_1	3/24/2016
11452	Delete	Tennessee Reef East Lighted Buoy 18	R "18" Fl R 2.5s	N 24 47' 32.496"	W 080 41' 36.228"	24.79236	-80.6934	LNM 51/15, 7th Dist	354	11452_1	12/31/2015
11452	Delete	Crocker Reef Buoy 16	R N "16"	N 24 54' 29.771"	W 080 31' 28.335"	24.90827	-80.52454	LNM 51/15, 7th Dist	354	11452_1	12/31/2015
11452	Delete	Alligator Reef Light	Fl (4) 60s 136ft 13M RACON (__-)	N 24 51' 06.435"	W 080 37' 07.857"	24.85179	-80.61885	LNM 36/15, 7th Dist	354	11452_1	9/17/2015
11452	Add	Abandoned Light House	TOWER (ABAND LT HO)	N 24 51' 06.435"	W 080 37' 07.857"	24.85179	-80.61885	LNM 36/15, 7th Dist	354	11452_1	9/17/2015
11452	Add	Alligator Reef Light	Fl (4) 60s 16ft 7M	N 24 51' 04.754"	W 080 37' 03.754"	24.85132	-80.61771	LNM 36/15, 7th Dist	354	11452_1	9/17/2015
11452	Relocate	Sombrero Key Light	Fl (5) 60s 19ft 7M	N 24 37' 39.900"	W 081 06' 30.841"	24.62775	-81.10857	LNM 33/15, 7th Dist	354	11452_1	8/20/2015
11452	Delete	Sombrero Key Light	Fl (5) 60s 142ft 12M RACON (__)	N 24 37' 40.240"	W 081 06' 38.927"	24.62784	-81.11081	LNM 31/15, 7th Dist	354	11452_1	8/13/2015
11452	Add	Abandoned Light House	TOWER (ABAND LT HO)	N 24 37' 40.240"	W 081 06' 38.927"	24.62784	-81.11081	LNM 31/15, 7th Dist	354	11452_1	8/13/2015
11452	Add	Sombrero Key Light	Fl (5) 60s 19ft 7M	N 24 37' 40.080"	W 081 06' 31.260"	24.6278	-81.10868	LNM 31/15, 7th Dist	354	11452_1	8/13/2015
11452	Relocate	Bowlegs Cut Daybeacon 92	R "92"	N 24 54' 25.020"	W 080 43' 44.317"	24.90695	-80.72897	LNM 21/15, 7th Dist	354	11452_1	6/4/2015
11452	Change	Snake Creek Light 2	Fl R 4s 16ft 5M "2"	N 24 56' 28.948"	W 080 34' 51.876"	24.94137	-80.58108	LNM 17/15, 7th Dist	354	11452_1	5/7/2015
11452	Add	Sounding in Feet	27 Co Hd	N 24 40' 12.300"	W 081 01' 59.600"	24.67008	-81.03323	LNM 13/15, 7th Dist	354	11452_1	3/26/2015
11452	Change	Channel Five Light 2	Fl R 4s 16ft 5M "2"	N 24 48' 53.603"	W 080 46' 28.388"	24.81489	-80.77455	LNM 09/15, 7th Dist	354	11452_1	3/12/2015
11452	Change	Bamboo Key Light 13	Fl G 6s 16ft 5M "13"	N 24 46' 20.984"	W 081 01' 50.233"	24.7725	-81.03062	LNM 51/14, 7th Dist	354	11452_1	1/1/2015
11452	Change	East Turtle Shoal Light 45	Q G 20ft 4M "45"	N 24 43' 28.774"	W 080 55' 59.001"	24.72466	-80.93305	LNM 37/14, 7th Dist	354	11452_1	9/25/2014
11452	Change	Arsenic Bank Light 1	Fl G 4s 16ft 5M "1"	N 24 52' 15.285"	W 080 53' 02.339"	24.87091	-80.88398	LNM 36/14, 7th Dist	354	11452_1	9/18/2014
11478	Add	Depth Legend to:	33 FT NOV 2016	N 28 24' 33.370"	W 080 37' 02.620"	28.40927	-80.61739	LNM 22/17, 7th Dist	287	11478_1	5/25/2017
11478	Change	Depth Legend to:	32 FT NOV 2016	N 28 24' 32.010"	W 080 35' 53.920"	28.40889	-80.59831	LNM 22/17, 7th Dist	287	11478_1	5/25/2017
11478	Change	Depth Legend - Widener to:	41 FT NOV 2016	N 28 24' 30.500"	W 080 34' 31.800"	28.40847	-80.5755	LNM 22/17, 7th Dist	287	11478_1	5/25/2017
11478	Add	Depth Legend to:	12 FT NOV 2016	N 28 24' 33.400"	W 080 37' 35.000"	28.40928	-80.62639	LNM 22/17, 7th Dist	287	11478_1	5/25/2017
11478	Delete	Depth Legend to:	12 FT JAN 2015	N 28 24' 32.200"	W 080 37' 43.000"	28.40895	-80.62861	LNM 22/17, 7th Dist	287	11478_1	5/25/2017
11478	Add	magenta channel reach separation line PT 1 OF 2	magenta channel reach separation line	N 28 24' 33.720"	W 080 37' 54.580"	28.40937	-80.63183	LNM 22/17, 7th Dist	287	11478_1	5/25/2017
11478	Add	magenta channel reach separation line PT 2 OF 2	magenta channel reach separation line	N 28 24' 32.800"	W 080 37' 54.590"	28.40911	-80.63183	LNM 22/17, 7th Dist	287	11478_1	5/25/2017
11478	Change	tabulation - Port Canaveral Channel Depths	tabulation - Port Canaveral Channel Depths	N 28 25' 40.410"	W 080 34' 35.930"	28.42789	-80.57664	LNM 22/17, 7th Dist	287	11478_1	5/25/2017
11478	Relocate	Canaveral Harbor Entrance Channel Range Front Light	Q G 32ft	N 28 24' 35.790"	W 080 37' 36.820"	28.40994	-80.62689	LNM 45/16, 7th Dist	287	11478_1	11/17/2016
11478	Change	Canaveral Harbor Entrance Channel Range Front Light	Fl G 2.5s 28ft	N 28 24' 35.790"	W 080 37' 36.820"	28.40994	-80.62689	LNM 45/16, 7th Dist	287	11478_1	11/17/2016
11478	Relocate	Canaveral Harbor Entrance Channel Range Rear Light	Iso G 6s 64ft	N 28 24' 35.910"	W 080 38' 02.580"	28.40998	-80.63405	LNM 45/16, 7th Dist	287	11478_1	11/17/2016
11478	Change	Canaveral Harbor Entrance Channel Range Rear Light	Iso G 6s 65ft	N 28 24' 35.910"	W 080 38' 02.580"	28.40998	-80.63405	LNM 45/16, 7th Dist	287	11478_1	11/17/2016
11478	Change	tabulation - PORT CANAVERAL CHANNEL DEPTHS	tabulation - PORT CANAVERAL CHANNEL DEPTHS	N 28 25' 37.800"	W 080 34' 37.800"	28.42717	-80.57716	LNM 25/16, 7th Dist	287	11478_1	8/18/2016
11478	Change	Depth Legend - Inner Reach to:	30 FT JUN 2015	N 28 24' 32.000"	W 080 35' 54.000"	28.40889	-80.59834	LNM 25/16, 7th Dist	287	11478_1	6/16/2016
11478	Change	Depth Legend - East Basin to:	35 1/2 FT JUN 2015	N 28 25' 06.000"	W 080 35' 44.000"	28.41833	-80.59556	LNM 25/16, 7th Dist	287	11478_1	6/16/2016
11478	Change	Depth Legend - Widener to:	43 1/2 FT JUN 2015	N 28 24' 30.500"	W 080 34' 31.800"	28.40847	-80.5755	LNM 25/16, 7th Dist	287	11478_1	6/16/2016
11478	Change	Depth Legend - Middle Basin to:	15 1/2 FT MAY 2015	N 28 24' 54.000"	W 080 36' 30.000"	28.415	-80.60833	LNM 25/16, 7th Dist	287	11478_1	6/16/2016
11478	Change	Depth Legend - West Turning Basin to:	28 1/2 FT MAY 2015 (PROJECT DEPTH 35 FT)	N 28 24' 49.000"	W 080 37' 28.000"	28.41361	-80.62444	LNM 25/16, 7th Dist	287	11478_1	6/16/2016
11478	Change	Depth Legend - Middle Basin to:	31 1/2 FT MAY 2015	N 28 24' 51.000"	W 080 36' 30.000"	28.41417	-80.60833	LNM 25/16, 7th Dist	287	11478_1	6/16/2016
11478	Change	Depth Legend - Port Canaveral legend to:	25 FT MAY 2015	N 28 24' 33.000"	W 080 37' 05.000"	28.40917	-80.61806	LNM 25/16, 7th Dist	287	11478_1	6/16/2016
11478	Change	Depth Legend - Middle Basin to:	37 1/2 FT MAY 2015	N 28 24' 42.000"	W 080 36' 32.000"	28.41167	-80.60889	LNM 25/16, 7th Dist	287	11478_1	6/16/2016
11478	Delete	East Basin Light 2	Fl R 6s 12ft 5M "2"	N 28 24' 39.839"	W 080 35' 24.905"	28.41107	-80.59025	LNM 21/16, 7th Dist	287	11478_1	6/2/2016
11478	Relocate	Canaveral Harbor Approach Channel Lighted Buoy 9	G "9" Q G	N 28 24' 08.144"	W 080 33' 58.351"	28.40226	-80.56621	LNM 21/16, 7th Dist	287	11478_1	6/2/2016
11478	Change	Canaveral Harbor Approach Channel Lighted Buoy 9	G "9" Fl G 2.5s	N 28 24' 08.144"	W 080 33' 58.351"	28.40226	-80.56621	LNM 21/16, 7th Dist	287	11478_1	6/2/2016
11478	Relocate	Canaveral Harbor Entrance Channel Light 14	Fl R 2.5s 20ft 5M "14"	N 28 24' 38.820"	W 080 35' 36.984"	28.41078	-80.59361	LNM 21/16, 7th Dist	287	11478_1	6/2/2016
11478	Relocate	Canaveral Harbor Entrance Channel Lighted Buoy 11	G "11" Fl G 2.5s AIS	N 28 24' 21.185"	W 080 34' 20.712"	28.40588	-80.57242	LNM 21/16, 7th Dist	287	11478_1	6/2/2016
11478	Change	Canaveral Harbor Entrance Channel Lighted Buoy 11	G "11" Q G AIS	N 28 24' 21.185"	W 080 34' 20.712"	28.40588	-80.57242	LNM 21/16, 7th Dist	287	11478_1	6/2/2016
11478	Relocate	Canaveral Harbor Entrance Channel Lighted Buoy 12	R "12" Fl R 4s	N 28 24' 37.819"	W 080 35' 01.529"	28.41051	-80.58376	LNM 21/16, 7th Dist	287	11478_1	6/2/2016
11478	Relocate	Canaveral Harbor Entrance Channel Lighted Buoy 13	G "13" Fl G 4s	N 28 24' 29.396"	W 080 34' 46.001"	28.40816	-80.57944	LNM 21/16, 7th Dist	287	11478_1	6/2/2016
11478	Relocate	Canaveral Harbor Entrance Channel Lighted Buoy 14A	R "14A" Fl R 4s	N 28 24' 38.348"	W 080 36' 09.141"	28.41065	-80.60254	LNM 21/16, 7th Dist	287	11478_1	6/2/2016
11478	Add	Canaveral Harbor Entrance Channel Light 12A	Fl R 2.5s 12ft 5M "12A"	N 28 24' 38.720"	W 080 35' 21.704"	28.41076	-80.58936	LNM 21/16, 7th Dist	287	11478_1	6/2/2016
11478	Relocate	Canaveral Harbor Entrance Channel Lighted Buoy 19	G "19" Fl G 4s	N 28 24' 32.792"	W 080 37' 14.173"	28.40911	-80.62061	LNM 21/16, 7th Dist	287	11478_1	6/2/2016
11478	Change	Canaveral Harbor Entrance Channel Light 14	Fl R 4s 20ft 5M "14"	N 28 24' 38.820"	W 080 35' 36.984"	28.41078	-80.59361	LNM 21/16, 7th Dist	287	11478_1	6/2/2016
11478	Change	East Basin Light 5	Fl G 4s 12ft 5M "5"	N 28 24' 56.851"	W 080 35' 51.909"	28.41579	-80.59776	LNM 37/15, 7th Dist	287	11478_1	9/24/2015
11478	Change	tabulation - PORT CANAVERAL CHANNEL DEPTHS	tabulation - PORT CANAVERAL CHANNEL DEPTHS	N 28 25' 41.000"	W 080 34' 36.000"	28.42805	-80.57667	LNM 34/15, 7th Dist	287	11478_1	8/27/2015
11478	Change	Depth Legend - East Basin to:	35 1/2 FT JAN 2015	N 28 25' 06.000"	W 080 35' 44.000"	28.41833	-80.59556	LNM 33/15, 7th Dist	287	11478_1	8/20/2015
11478	Add	Sounding in Feet	10	N 28 24' 55.100"	W 080 36' 23.800"	28.41531	-80.60661	LNM 33/15, 7th Dist	287	11478_1	8/20/2015
11478	Change	Depth Legend - Middle Basin to:	38 FT JAN 2015	N 28 24' 42.000"	W 080 36' 32.000"	28.41167	-80.60889	LNM 33/15, 7th Dist	287	11478_1	8/20/2015
11478	Change	Depth Legend - Inner Reach to:	31 FT JAN 2015	N 28 24' 32.000"	W 080 35' 54.000"	28.40889	-80.59834	LNM 33/15, 7th Dist	287	11478_1	8/20/2015
11478	Change	Depth Legend - Middle Basin to:	17 FT JAN 2015	N 28 24' 54.000"	W 080 36' 30.000"	28.415	-80.60833	LNM 33/15, 7th Dist	287	11478_1	8/20/2015
11478	Change	Depth Legend - Widener to:	43 FT JAN 2015	N 28 24' 30.500"	W 080 34' 31.800"	28.40847	-80.5755	LNM 33/15, 7th Dist	287	11478_1	8/20/2015
11478	Change	Canaveral Barge Canal Light 5	Fl G 4s 16ft 5M "5"	N 28 24' 32.348"	W 080 38' 42.514"	28.40899	-80.64514	LNM 15/15, 7th Dist	287	11478_1	4/23/2015
11478	Change	Canaveral Barge Canal Light 5	Fl G 4s 16ft 5M "5"	N 28 24' 32.348"	W 080 38' 42.514"	28.40899	-80.64514	LNM 15/15, 7th Dist	288	11478_2	4/23/2015
11478	Change	Canaveral Barge Canal Light 8	Fl R 4s 12ft 5M "8"	N 28 24' 33.699"	W 080 39' 34.041"	28.40936	-80.65945	LNM 15/15, 7th Dist	288	11478_2	4/23/2015
11478	Change	Canaveral Barge Canal Light 12	Fl R 4s 16ft 5M "12"	N 28 24' 21.726"	W 080 43' 56.280"	28.40603	-80.7323	LNM 14/15, 7th Dist	288	11478_2	4/16/2015
11478	Change	Indian River (North Section) Light 67	Fl G 4s 12ft 5M "67"	N 28 24' 28.608"	W 080 44' 08.936"	28.40795	-80.73582	LNM 14/15, 7th Dist	288	11478_2	4/16/2015
11478	Change	Indian River (North Section) Light 68	Fl R 4s 16ft 5M "68"	N 28 23' 49.953"	W 080 44' 04.451"	28.39721	-80.73457	LNM 14/15, 7th Dist	288	11478_2	4/16/2015
11464	Relocate	Mosquito Bank Light 35	Fl G 4s 37ft 5M "35"	N 25 04' 22.931"	W 080 23' 34.184"	25.07304	-80.39283	LNM 21/17, 7th Dist	2929	11464_1	6/1/2017
11464	Add	Madeira Drive Canal Daybeacon 1	G "1" Priv	N 25 05' 10.680"	W 080 25' 58.140"	25.0863	-80.43282	LNM 05/17, 7th Dist	2929	11464_1	2/9/2017
11464	Add	Madeira Drive Canal Daybeacon 2	R "2" Priv	N 25 05' 10.740"	W 080 25' 06.940"	25.08632	-80.41859	LNM 05/17, 7th Dist	2929	11464_1	2/9/2017
11464	Add	Madeira Drive Canal Daybeacon 3	G "3" Priv	N 25 05' 12.060"	W 080 26' 00.120"	25.08668	-80.43336	LNM 05/17, 7th Dist	2929	11464_1	2/9/2017
11464	Change	Grouper Creek Light 54	Fl R 4s 16ft 5M "54"	N 25 07' 05.247"	W 080 26' 55.093"	25.11812	-80.44864	LNM 02/17, 7th Dist	2929	11464_1	1/12/2017
11464	Change	Baker Cut Light 58	Fl R 4s 16ft 5M "58"	N 25 04' 52.569"	W 080 28' 28.682"	25.08127	-80.47463	LNM 01/17, 7th Dist	2929	11464_1	1/5/2017
11464	Change	NOAA Life Support Lighted Buoy Aquarius characteristics to:	Y Fl (4) Y 20s Priv PA	N 24 57' 00.160"	W 080 27' 11.900"	24.95004	-80.45331	LNM 49/16, 7th Dist	2929	11464_1	12/1/2016
11464	Relocate	Jewfish Creek Light 29	Fl G 4s 16ft 4M "29"	N 25 12' 09.665"	W 080 22' 57.374"	25.20268	-80.38261	LNM 36/16, 7th Dist	2929	11464_1	9/15/2016
11464	Change	Jewfish Creek Light 29	Fl G 4s 16ft 5M "29"	N 25 12' 09.665"	W 080 22' 57.374"	25.20268	-80.38261	LNM 36/16, 7th Dist	2929	11464_1	9/15/2016
11464	Delete	Crocker Reef Buoy 16	R N "16"	N 24 54' 29.771"	W 080 31' 28.335"	24.90827	-80.52454	LNM 51/15, 7th Dist	2929	11464_1	12/31/2015
11464	Delete	Marvin D Adams Waterway Lighted Buoy 2	R "2" Fl R 6s	N 25 08' 12.292"	W 080 23' 40.571"	25.13675	-80.3946	LNM 49/15, 7th Dist	2929	11464_1	12/17/2015
11464	Change	Key Largo Light 32	Fl R 2.5s 16ft 5M "32"	N 25 10' 36.785"	W 080 20' 21.988"	25.17689	-80.33944	LNM 46/15, 7th Dist	2929	11464_1	11/26/2015
11464	Delete	Alligator Reef Light	Fl (4) 60s 136ft 13M RACON (__-)	N 24 51' 06.435"	W 080 37' 07.857"	24.85179	-80.61885	LNM 36/15, 7th Dist	2929	11464_1	9/17/2015
11464	Add	Abandoned Light House	TOWER (ABAND LT HO)	N 24 51' 06.435"	W 080 37' 07.857"	24.85179	-80.61885	LNM 36/15, 7th Dist	2929	11464_1	9/17/2015
11464	Add	Alligator Reef Light	Fl (4) 60s 16ft 7M	N 24 51' 04.754"	W 080 37' 03.754"	24.85132	-80.61771	LNM 36/15, 7th Dist	2929	11464_1	9/17/2015
11464	Delete	Conch Reef Buoy 12	R N "12"	N 24 56' 58.475"	W 080 27' 26.208"	24.94958	-80.45728	LNM 28/15, 7th Dist	2929	11464_1	7/23/2015
11464	Delete	Dixie Shoal Buoy 8	R N "8"	N 25 04' 39.563"	W 080 18' 43.110"	25.07766	-80.31197	LNM 28/15, 7th Dist	2929	11464_1	7/23/2015
11464	Change	Largo Sound Channel Light 2	Fl R 4s 16ft 5M "2"	N 25 05' 46.424"	W 080 23' 50.545"	25.09623	-80.39738	LNM 23/15, 7th Dist	2929	11464_1	6/18/2015
11464	Change	Mosquito Bank Light 2	Fl R 2.5s 16ft 5M "2"	N 25 04' 36.059"	W 080 25' 38.197"	25.07668	-80.42728	LNM 18/15, 7th Dist	2929	11464_1	5/14/2015
11464	Change	Tarpon Basin Light 46	Fl R 4s 12ft 5M "46"	N 25 07' 42.365"	W 080 25' 21.072"	25.12844	-80.42252	LNM 18/15, 7th Dist	2929	11464_1	5/14/2015
11464	Change	Snake Creek Light 2	Fl R 4s 16ft 5M "2"	N 24 56' 28.948"	W 080 34' 51.876"	24.94137	-80.58108	LNM 17/15, 7th Dist	2929	11464_1	5/7/2015
11464	Change	Cotton Key Light 81	Fl G 2.5s 16ft 5M "81"	N 24 57' 53.879"	W 080 37' 58.577"	24.96497	-80.63293	LNM 09/15, 7th Dist	2929	11464_1	3/12/2015
11464	Change	Tarpon Basin Light 50	Fl R 4s 16ft 5M "50"	N 25 07' 40.319"	W 080 26' 17.944"	25.12787	-80.43832	LNM 47/14, 7th Dist	2929	11464_1	12/4/2014
11474	Change	Depth Note - FORT PIERCE INLET to:	The project depth is 28 to 30 feet to Fort Pierce. For controlling depths see chart 11475.	N 27 28' 14.000"	W 080 23' 04.000"	27.47056	-80.38445	LNM 32/17, 7th Dist	307	11474_1	8/3/2017
11474	Delete	Capron Shoal Buoy 10A	R N "10A"	N 27 26' 36.216"	W 080 13' 19.168"	27.44339	-80.22199	LNM 15/17, 7th Dist	307	11474_1	4/27/2017
11474	Add	Dotted Fish Haven Label	Obstn Fish Haven (auth min 6 ft)	N 27 22' 31.150"	W 080 14' 58.960"	27.37532	-80.24971	LNM 47/15, 7th Dist	307	11474_1	11/19/2015
11474	Add	Dotted Fish Haven PT 1 OF 4	Chart No. 1: K46.2	N 27 22' 43.460"	W 080 15' 04.440"	27.37874	-80.25124	LNM 47/15, 7th Dist	307	11474_1	11/19/2015
11474	Add	Dotted Fish Haven PT 2 OF 4	Chart No. 1: K46.2	N 27 22' 18.670"	W 080 14' 51.650"	27.37185	-80.24768	LNM 47/15, 7th Dist	307	11474_1	11/19/2015
11474	Add	Dotted Fish Haven PT 3 OF 4	Chart No. 1: K46.2	N 27 22' 18.060"	W 080 14' 53.060"	27.37168	-80.24807	LNM 47/15, 7th Dist	307	11474_1	11/19/2015
11474	Add	Dotted Fish Haven PT 4 OF 4	Chart No. 1: K46.2	N 27 22' 42.850"	W 080 15' 05.850"	27.37857	-80.25163	LNM 47/15, 7th Dist	307	11474_1	11/19/2015
11474	Add	Dotted Fish Haven PT 1 OF 4	Chart No. 1: K46.2	N 27 19' 45.150"	W 080 13' 37.780"	27.32921	-80.22716	LNM 47/15, 7th Dist	307	11474_1	11/19/2015
11474	Add	Dotted Fish Haven PT 2 OF 4	Chart No. 1: K46.2	N 27 19' 36.740"	W 080 13' 34.750"	27.32687	-80.22632	LNM 47/15, 7th Dist	307	11474_1	11/19/2015
11474	Add	Dotted Fish Haven PT 3 OF 4	Chart No. 1: K46.2	N 27 19' 35.990"	W 080 13' 37.360"	27.32666	-80.22704	LNM 47/15, 7th Dist	307	11474_1	11/19/2015
11474	Add	Dotted Fish Haven PT 4 OF 4	Chart No. 1: K46.2	N 27 19' 44.400"	W 080 13' 40.400"	27.329	-80.22789	LNM 47/15, 7th Dist	307	11474_1	11/19/2015
11474	Add	Dotted Fish Haven Label	Obstn Fish Haven (auth min 6 ft)	N 27 19' 40.660"	W 080 13' 37.570"	27.32796	-80.2271	LNM 47/15, 7th Dist	307	11474_1	11/19/2015
11474	Change	Protected Area Note - NOTE C THE OCULINA BANK (protected area: 50 CFR 622.220-622.227) to:	NOTE C THE OCULINA BANK (protected area: 50 CFR 622.220-622.227) The following restrictions apply within the Oculina Bank protected area: Fishing with bottom longlines, traps, pots, dredges and bottom trawls is prohibited. Additional restrictions apply within the Experimental closed area: Fishing for or retaining South Atlantic snapper-grouper in or from the closed area is prohibited. Any fish taken incidentally by hook-and-line must be released immediately by cutting the line without removing the fish from the water.	N 27 31' 15.000"	W 080 24' 11.000"	27.52083	-80.40305	LNM 42/15, 7th Dist	307	11474_1	10/29/2015
11474	Change	Protected Area Label	THE OCULINA BANK (protected area: 50 CFR 622.220-622.227; see note C)	N 27 39' 32.500"	W 079 56' 52.500"	27.65903	-79.94791	LNM 42/15, 7th Dist	307	11474_1	10/29/2015
11474	Add	Dotted Fish Haven PT 1 OF 4	Chart No. 1: K46.2	N 27 32' 25.190"	W 080 10' 37.470"	27.54033	-80.17708	LNM 42/15, 7th Dist	307	11474_1	10/15/2015
11474	Add	Dotted Fish Haven PT 2 OF 4	Chart No. 1: K46.2	N 27 32' 06.150"	W 080 11' 44.110"	27.53504	-80.19559	LNM 42/15, 7th Dist	307	11474_1	10/15/2015
11474	Add	Dotted Fish Haven PT 3 OF 4	Chart No. 1: K46.2	N 27 31' 06.740"	W 080 11' 22.750"	27.51854	-80.18965	LNM 42/15, 7th Dist	307	11474_1	10/15/2015
11474	Add	Dotted Fish Haven PT 4 OF 4	Chart No. 1: K46.2	N 27 31' 25.780"	W 080 10' 16.120"	27.52383	-80.17114	LNM 42/15, 7th Dist	307	11474_1	10/15/2015
11474	Delete	Sounding in Feet	54	N 27 32' 08.290"	W 080 11' 01.070"	27.53564	-80.18363	LNM 42/15, 7th Dist	307	11474_1	10/15/2015
11474	Delete	Sounding in Feet	49	N 27 31' 49.590"	W 080 11' 15.280"	27.53044	-80.18758	LNM 42/15, 7th Dist	307	11474_1	10/15/2015
11474	Delete	Sounding in Feet	57	N 27 31' 37.130"	W 080 10' 37.080"	27.52698	-80.17696	LNM 42/15, 7th Dist	307	11474_1	10/15/2015
11474	Add	Obstruction in Feet	27 Obstn (Rep 2009)       Chart No. 1: K41	N 27 31' 11.220"	W 080 11' 06.420"	27.51978	-80.18512	LNM 42/15, 7th Dist	307	11474_1	10/15/2015
11474	Add	Dotted Fish Haven Label	Obstn Fish Haven (27 ft rep)	N 27 31' 46.800"	W 080 10' 59.600"	27.52967	-80.18322	LNM 42/15, 7th Dist	307	11474_1	10/15/2015
11474	Delete	Sounding in Feet	55	N 27 31' 23.620"	W 080 11' 23.320"	27.52323	-80.18981	LNM 42/15, 7th Dist	307	11474_1	10/15/2015
11474	Delete	Wreck in Feet with Basket and Danger Curve	59 Wk    (Chart No. 1: K27)	N 27 23' 30.430"	W 080 03' 42.180"	27.39179	-80.06171	LNM 41/15, 7th Dist	307	11474_1	10/8/2015
11474	Change	Dotted Fish Haven Label to:	Obstn Fish Haven (auth min 50 ft)	N 27 23' 49.060"	W 080 01' 54.010"	27.39696	-80.03167	LNM 41/15, 7th Dist	307	11474_1	10/8/2015
11474	Add	Dotted Fish Haven PT 1 OF 3	(Chart No. 1: K46.2)	N 27 24' 45.590"	W 080 00' 19.270"	27.41266	-80.00536	LNM 41/15, 7th Dist	307	11474_1	10/8/2015
11474	Add	Dotted Fish Haven PT 2 OF 3	(Chart No. 1: K46.2)	N 27 24' 50.980"	W 080 00' 01.800"	27.41416	-80.0005	LNM 41/15, 7th Dist	307	11474_1	10/8/2015
11474	Add	Dotted Fish Haven PT 3 OF 3	(Chart No. 1: K46.2)	N 27 23' 56.400"	W 080 00' 01.190"	27.399	-80.00033	LNM 41/15, 7th Dist	307	11474_1	10/8/2015
11474	Delete	Sounding in Feet	213	N 27 24' 20.870"	W 080 00' 01.690"	27.4058	-80.00047	LNM 41/15, 7th Dist	307	11474_1	10/8/2015
11474	Delete	Dotted Fish Haven PT 1 OF 2	(Chart No. 1 K46.2)	N 27 24' 45.590"	W 080 00' 19.270"	27.41266	-80.00536	LNM 41/15, 7th Dist	307	11474_1	10/8/2015
11474	Delete	Dotted Fish Haven PT 2 OF 2	(Chart No. 1 K46.2)	N 27 23' 56.400"	W 080 00' 01.190"	27.399	-80.00033	LNM 41/15, 7th Dist	307	11474_1	10/8/2015
11474	Add	St Lucie Entrance Lighted Buoy 2 Magenta Circle	R "2" Fl R 4s AIS	N 27 10' 01.178"	W 080 08' 23.008"	27.16699	-80.13972	LNM 08/15, 7th Dist	307	11474_1	3/5/2015
11474	Add	Fort Pierce Inlet Lighted Buoy 5 Magenta Circle	G "5" Fl G 4s AIS	N 27 28' 19.940"	W 080 17' 00.440"	27.47221	-80.28345	LNM 08/15, 7th Dist	307	11474_1	3/5/2015
11474	Add	Fort Pierce Inlet Lighted Buoy 6 Magenta Circle	R "6" Fl R 4s AIS	N 27 28' 24.591"	W 080 16' 55.743"	27.4735	-80.28215	LNM 08/15, 7th Dist	307	11474_1	3/5/2015
11474	Change	Minimum Size (2mm sq.) Dotted Fish Haven and Label	Obstn Fish Haven (auth min 35 ft), Chart No. 1 K46.2	N 27 05' 27.000"	W 080 01' 33.500"	27.09083	-80.02597	LNM 33/14, 7th Dist	307	11474_1	8/14/2014
11474	Add	Minimum Size (2mm sq.) Dashed Fish Haven and Label	Obstn Fish Haven (auth min 118 ft), Chart No. 1 K46.2	N 27 15' 58.320"	W 080 00' 59.460"	27.2662	-80.01652	LNM 02/14, 7th Dist	307	11474_1	1/16/2014
11474	Delete	Non Dangerous Wreck	PA      Chart No. 1: K29	N 27 15' 58.320"	W 080 00' 59.460"	27.2662	-80.01652	LNM 02/14, 7th Dist	307	11474_1	1/16/2014
11474	Change	Dotted Fish Haven Label	Obstn Fish Haven (auth min 20 ft)	N 26 57' 32.000"	W 080 03' 45.000"	26.95889	-80.0625	LNM 02/14, 7th Dist	307	11474_1	1/9/2014
11474	Change	Dotted Fish Haven label	Obstn Fish Haven (auth min 30 ft)	N 27 26' 19.240"	W 080 09' 50.090"	27.43868	-80.16392	LNM 48/13, 7th Dist	307	11474_1	11/18/2013
11474	Add	Low Water Area PT 1 OF 7	Low Water Area	N 27 10' 07.000"	W 080 09' 20.500"	27.16861	-80.15569	LNM 32/13, 7th Dist	307	11474_1	8/5/2013
11474	Add	Low Water Area PT 2 OF 7	Low Water Area	N 27 10' 04.300"	W 080 09' 16.000"	27.16786	-80.15444	LNM 32/13, 7th Dist	307	11474_1	8/5/2013
11474	Add	Low Water Area PT 3 OF 7	Low Water Area	N 27 10' 04.300"	W 080 09' 15.000"	27.16786	-80.15417	LNM 32/13, 7th Dist	307	11474_1	8/5/2013
11474	Add	Low Water Area PT 4 OF 7	Low Water Area	N 27 10' 07.200"	W 080 09' 11.700"	27.16867	-80.15325	LNM 32/13, 7th Dist	307	11474_1	8/5/2013
11474	Add	Low Water Area PT 5 OF 7	Low Water Area	N 27 10' 09.700"	W 080 09' 10.700"	27.16936	-80.15297	LNM 32/13, 7th Dist	307	11474_1	8/5/2013
11474	Add	Low Water Area PT 6 OF 7	Low Water Area	N 27 10' 10.300"	W 080 09' 11.000"	27.16953	-80.15305	LNM 32/13, 7th Dist	307	11474_1	8/5/2013
11474	Add	Low Water Area PT 7 OF 7	Low Water Area	N 27 10' 10.000"	W 080 09' 12.300"	27.16945	-80.15342	LNM 32/13, 7th Dist	307	11474_1	8/5/2013
11474	Delete	Navy Mooring Buoy	Y Strobe Navy	N 27 27' 58.000"	W 080 00' 02.000"	27.46611	-80.00056	WNM 08/13, NGA	307	11474_1	3/11/2013
11474	Add	Dotted Fish Haven PT 1 OF 4	Chart No. 1: K46.2	N 26 58' 00.000"	W 080 04' 02.000"	26.96667	-80.06722	LNM 43/12, 7th Dist	307	11474_1	10/17/2012
11474	Add	Dotted Fish Haven PT 2 OF 4	Chart No. 1: K46.2	N 26 58' 00.000"	W 080 03' 28.000"	26.96667	-80.05778	LNM 43/12, 7th Dist	307	11474_1	10/17/2012
11474	Add	Dotted Fish Haven PT 4 OF 4	Chart No. 1: K46.2	N 26 57' 04.000"	W 080 04' 02.000"	26.95111	-80.06722	LNM 43/12, 7th Dist	307	11474_1	10/17/2012
11474	Add	Dotted Fish Haven PT 3 OF 4	Chart No. 1: K46.2	N 26 57' 04.000"	W 080 03' 28.000"	26.95111	-80.05778	LNM 43/12, 7th Dist	307	11474_1	10/17/2012
11474	Add	Dotted Fish Haven Label	Obstn Fish Haven (20 ft rep)	N 26 57' 32.000"	W 080 03' 45.000"	26.95889	-80.0625	LNM 43/12, 7th Dist	307	11474_1	10/17/2012
11474	Relocate	St Lucie River Buoy 3	G C "3"	N 27 09' 57.744"	W 080 10' 55.528"	27.16604	-80.18209	LNM 22/11, 7th Dist	307	11474_1	6/8/2011
11474	Relocate	Fort Pierce Inlet Entrance RF Light	Q G 15ft	N 27 28' 09.743"	W 080 18' 12.363"	27.46937	-80.30344	LNM 10/11, 7th Dist	307	11474_1	3/16/2011
11474	Relocate	Fort Pierce Inlet Entrance RR Light	Iso G 6s 50ft	N 27 28' 02.771"	W 080 18' 54.789"	27.46744	-80.31522	LNM 10/11, 7th Dist	307	11474_1	3/16/2011
11474	Change	Fort Pierce Inlet Entrance RF Light	Q G 18ft	N 27 28' 09.743"	W 080 18' 12.363"	27.46937	-80.30344	LNM 10/11, 7th Dist	307	11474_1	3/16/2011
11491	Delete	Mile Point Lighted Buoy A	Y "A" Fl Y 2.5s	N 30 22' 50.751"	W 081 27' 28.261"	30.38076	-81.45785	LNM 30/17, 7th Dist	265	11491_1	8/24/2017
11491	Delete	Mile Point Lighted Buoy C	Y "C" Fl Y 2.5s	N 30 22' 43.033"	W 081 27' 05.234"	30.37862	-81.45145	LNM 30/17, 7th Dist	265	11491_1	8/24/2017
11491	Relocate	Mile Point Light B	Fl Y 2.5s 12ft 4M "B"	N 30 22' 45.887"	W 081 27' 17.193"	30.37941	-81.45477	LNM 30/17, 7th Dist	265	11491_1	8/24/2017
11491	Add	Mile Point Light A	Fl Y 2.5s 4M "A"	N 30 22' 43.534"	W 081 27' 03.311"	30.37876	-81.45092	LNM 30/17, 7th Dist	265	11491_1	8/24/2017
11491	Add	Mile Point Light C	Fl Y 2.5s 4M "C"	N 30 22' 50.254"	W 081 27' 27.508"	30.38063	-81.45764	LNM 30/17, 7th Dist	265	11491_1	8/24/2017
11491	Delete	Mile Point Lighted Buoy B	Y "B" Fl Y 2.5s	N 30 22' 44.854"	W 081 27' 15.953"	30.37913	-81.45443	LNM 29/17, 7th Dist	265	11491_1	8/3/2017
11491	Add	Mile Point Light B	Fl Y 2.5s 12ft 4M "B"	N 30 22' 43.554"	W 081 27' 03.336"	30.37877	-81.45093	LNM 29/17, 7th Dist	265	11491_1	8/3/2017
11491	Change	tabulation - ST. JOHNS RIVER CHANNEL DEPTHS	tabulation - ST. JOHNS RIVER CHANNEL DEPTHS	N 30 26' 09.000"	W 081 37' 34.000"	30.43583	-81.62611	LNM 26/17, 7th Dist	267	11491_3	6/22/2017
11491	Change	tabulation - ST. JOHNS RIVER CHANNEL DEPTHS	tabulation - ST. JOHNS RIVER CHANNEL DEPTHS	N 30 25' 15.000"	W 081 33' 20.000"	30.42083	-81.55556	LNM 25/17, 7th Dist	265	11491_1	6/15/2017
11491	Change	tabulation - ST. JOHNS RIVER CHANNEL DEPTHS	tabulation - ST. JOHNS RIVER CHANNEL DEPTHS	N 30 26' 10.000"	W 081 37' 37.000"	30.43611	-81.62695	LNM 25/17, 7th Dist	268	11491_4	6/15/2017
11491	Change	Depth Legend - Blount Island Widener, FL to:	32 1/2 FT JUL 2016	N 30 23' 11.500"	W 081 33' 19.000"	30.38653	-81.55527	LNM 25/17, 7th Dist	265	11491_1	6/15/2017
11491	Delete	Mile Point Jetty East Daybeacon	W Bn	N 30 22' 46.796"	W 081 27' 23.856"	30.37967	-81.45663	LNM 19/17, 7th Dist	265	11491_1	5/18/2017
11491	Delete	Mile Point Jetty West Daybeacon	W Bn	N 30 22' 49.584"	W 081 27' 28.166"	30.38044	-81.45782	LNM 19/17, 7th Dist	265	11491_1	5/18/2017
11491	Change	tabulation - ST. JOHNS RIVER CHANNEL DEPTHS	tabulation - ST. JOHNS RIVER CHANNEL DEPTHS	N 30 25' 15.000"	W 081 33' 20.000"	30.42083	-81.55556	LNM 08/17, 7th Dist	265	11491_1	2/16/2017
11491	Change	tabulation - ST. JOHNS RIVER CHANNEL DEPTHS	tabulation - ST. JOHNS RIVER CHANNEL DEPTHS	N 30 26' 10.000"	W 081 37' 37.000"	30.43611	-81.62695	LNM 08/17, 7th Dist	268	11491_4	2/16/2017
11491	Add	Pablo Creek Lighted Buoy 1	G "1" Fl G 4s	N 30 22' 52.998"	W 081 27' 32.562"	30.38139	-81.45905	LNM 06/17, 7th Dist	265	11491_1	2/16/2017
11491	Delete	Pablo Creek Light 1	Fl G 4s 18ft 5M "1"	N 30 22' 51.733"	W 081 27' 30.682"	30.38104	-81.45852	LNM 06/17, 7th Dist	265	11491_1	2/16/2017
11491	Change	Bridge Construction	Chart No. 1: D.d, with magenta screen extending 500 feet from bridge	N 30 23' 38.400"	W 081 27' 35.500"	30.394	-81.45986	LNM 07/17, 7th Dist	265	11491_1	2/16/2017
11491	Add	Bridge Construction Label	Bridge under construction (see note)	N 30 23' 38.400"	W 081 27' 35.500"	30.394	-81.45986	LNM 07/17, 7th Dist	265	11491_1	2/16/2017
11491	Add	Bridge Construction Note	CAUTION Fixed and floating obstructions, some submerged, may exist within the magenta tinted bridge construction area. Mariners are advised to proceed with caution.	N 30 25' 14.000"	W 081 31' 19.000"	30.42056	-81.52194	LNM 07/17, 7th Dist	265	11491_1	2/16/2017
11491	Delete	Bascule Bridge Label	BASCULE BRIDGE HOR CL 90 FT HOR CL 24 FT (CENTER)	N 30 23' 38.400"	W 081 27' 35.500"	30.394	-81.45986	LNM 07/17, 7th Dist	265	11491_1	2/16/2017
11491	Add	Channel Separation Line PT 1 OF 2	Channel Separation Line	N 30 23' 09.840"	W 081 33' 12.530"	30.38607	-81.55348	LNM 07/17, 7th Dist	265	11491_1	2/16/2017
11491	Add	Channel Separation Line PT 2 OF 2	Channel Separation Line	N 30 23' 20.270"	W 081 33' 08.820"	30.38896	-81.55245	LNM 07/17, 7th Dist	265	11491_1	2/16/2017
11491	Add	Channel Separation Line PT 1 OF 2	Channel Separation Line	N 30 23' 09.590"	W 081 33' 16.200"	30.386	-81.5545	LNM 07/17, 7th Dist	265	11491_1	2/16/2017
11491	Add	Channel Separation Line PT 2 OF 2	Channel Separation Line	N 30 23' 19.520"	W 081 33' 12.720"	30.38876	-81.55354	LNM 07/17, 7th Dist	265	11491_1	2/16/2017
11491	Add	Depth Legend - Blount Island Widener, FL to:	35 FT JUN 2015	N 30 23' 11.500"	W 081 33' 19.000"	30.38653	-81.55527	LNM 07/17, 7th Dist	265	11491_1	2/16/2017
11491	Add	Depth Legend - Blount Island Widener, FL to:	35 1/2 FT JUN 2015	N 30 23' 11.500"	W 081 33' 09.000"	30.38653	-81.5525	LNM 07/17, 7th Dist	265	11491_1	2/16/2017
11491	Add	Mile Point Lower Front Range Passing Light	Fl 4s 12ft 4M	N 30 22' 43.834"	W 081 27' 10.552"	30.37884	-81.45293	LNM 05/17, 7th Dist	265	11491_1	2/9/2017
11491	Add	Mile Point Lower Rear Range Passing Light	Fl 2.5s 12ft 4M	N 30 22' 42.391"	W 081 27' 14.184"	30.37844	-81.45394	LNM 05/17, 7th Dist	265	11491_1	2/9/2017
11491	Add	Mile Point Lighted Buoy A	Y "A" Fl Y 2.5s	N 30 22' 50.751"	W 081 27' 28.261"	30.38076	-81.45785	LNM 49/16, 7th Dist	265	11491_1	12/15/2016
11491	Add	Mile Point Lighted Buoy B	Y "B" Fl Y 2.5s	N 30 22' 44.854"	W 081 27' 15.953"	30.37913	-81.45443	LNM 49/16, 7th Dist	265	11491_1	12/15/2016
11491	Add	Mile Point Lighted Buoy C	Y "C" Fl Y 2.5s	N 30 22' 43.033"	W 081 27' 05.234"	30.37862	-81.45145	LNM 49/16, 7th Dist	265	11491_1	12/15/2016
11491	Delete	Overhead Power Cable Label	OVHD PWR CAB AUTH CL 45 FT	N 30 19' 19.100"	W 081 35' 59.300"	30.32197	-81.59981	LNM 31/16, 7th Dist	269	11491_5	7/28/2016
11491	Delete	Overhead Power Cable  PT 1 OF 2	Chart No. 1: D26  	N 30 19' 21.160"	W 081 36' 02.940"	30.32254	-81.60081	LNM 31/16, 7th Dist	269	11491_5	7/28/2016
11491	Delete	Overhead Power Cable  PT 2 OF 2	Chart No. 1: D26  	N 30 19' 16.210"	W 081 35' 55.440"	30.32117	-81.59873	LNM 31/16, 7th Dist	269	11491_5	7/28/2016
11491	Change	Fixed Bridge Label	FIXED BRIDGE HOR CL 70 FT VERT CL 18 FT	N 30 19' 19.200"	W 081 35' 58.500"	30.322	-81.59959	LNM 31/16, 7th Dist	269	11491_5	7/28/2016
11491	Add	JEA Drummond Point Outfall Light A	Fl 3s "A" Priv	N 30 24' 28.180"	W 081 36' 23.910"	30.40783	-81.60664	LNM 22/16, 7th Dist	267	11491_3	6/9/2016
11491	Add	JEA Drummond Point Outfall Light B	Fl 3s "B" Priv	N 30 24' 28.410"	W 081 36' 23.640"	30.40789	-81.60657	LNM 22/16, 7th Dist	267	11491_3	6/9/2016
11491	Add	JEA Drummond Point Outfall Light C	Fl 2.5s "C" Priv	N 30 24' 28.140"	W 081 36' 24.410"	30.40782	-81.60678	LNM 22/16, 7th Dist	267	11491_3	6/9/2016
11491	Relocate	Mile Point Lower Range Front Light	Q G 24ft	N 30 22' 43.834"	W 081 27' 10.552"	30.37884	-81.45293	LNM 17/16, 7th Dist	265	11491_1	5/5/2016
11491	Change	Mile Point Lower Range Front Light	Q G 25ft	N 30 22' 43.834"	W 081 27' 10.552"	30.37884	-81.45293	LNM 17/16, 7th Dist	265	11491_1	5/5/2016
11491	Relocate	Mile Point Lower Range Rear Light	Iso G 6s 41ft	N 30 22' 42.391"	W 081 27' 14.184"	30.37844	-81.45394	LNM 17/16, 7th Dist	265	11491_1	5/5/2016
11491	Change	Mile Point Lower Range Rear Light	Iso G 6s 35ft	N 30 22' 42.391"	W 081 27' 14.184"	30.37844	-81.45394	LNM 17/16, 7th Dist	265	11491_1	5/5/2016
11491	Relocate	Mile Point Upper Range Front Light	Q G 18ft	N 30 22' 43.834"	W 081 27' 10.552"	30.37884	-81.45293	LNM 16/16, 7th Dist	265	11491_1	4/28/2016
11491	Change	Mile Point Upper Range Front Light	Q G 25ft	N 30 22' 43.834"	W 081 27' 10.552"	30.37884	-81.45293	LNM 16/16, 7th Dist	265	11491_1	4/28/2016
11491	Add	Obstruction in Feet	15 Obstn       Chart No. 1: K41	N 30 18' 56.254"	W 081 40' 16.244"	30.31563	-81.67118	LNM 10/16, 7th Dist	267	11491_3	3/3/2016
11491	Add	Obstruction in Feet	15 Obstn       Chart No. 1: K41	N 30 18' 55.865"	W 081 40' 13.940"	30.31552	-81.67054	LNM 10/16, 7th Dist	267	11491_3	3/3/2016
11491	Add	Obstruction in Feet	15 Obstn       Chart No. 1: K41	N 30 18' 55.062"	W 081 40' 12.004"	30.31529	-81.67	LNM 10/16, 7th Dist	267	11491_3	3/3/2016
11491	Relocate	Mayport Basin Channel Lighted Buoy 4	R "4" Fl R 4s	N 30 23' 49.462"	W 081 24' 08.458"	30.39707	-81.40235	LNM 50/15, 7th Dist	265	11491_1	12/24/2015
11491	Add	Submarine Cable  PT 1 OF 7	Chart No. 1: L30.1	N 30 23' 28.430"	W 081 23' 39.420"	30.39123	-81.39429	LNM 43/15, 7th Dist	265	11491_1	10/22/2015
11491	Add	Submarine Cable  PT 7 OF 7	Chart No. 1: L30.1	N 30 22' 41.090"	W 081 19' 08.810"	30.37808	-81.31911	LNM 43/15, 7th Dist	265	11491_1	10/22/2015
11491	Add	Submarine Cable  PT 6 OF 7	Chart No. 1: L30.1	N 30 23' 02.790"	W 081 20' 49.150"	30.38411	-81.34698	LNM 43/15, 7th Dist	265	11491_1	10/22/2015
11491	Add	Submarine Cable  PT 5 OF 7	Chart No. 1: L30.1	N 30 23' 15.170"	W 081 21' 31.510"	30.38755	-81.35875	LNM 43/15, 7th Dist	265	11491_1	10/22/2015
11491	Add	Submarine Cable  PT 4 OF 7	Chart No. 1: L30.1	N 30 23' 21.480"	W 081 22' 05.970"	30.3893	-81.36832	LNM 43/15, 7th Dist	265	11491_1	10/22/2015
11491	Add	Submarine Cable  PT 3 OF 7	Chart No. 1: L30.1	N 30 23' 22.700"	W 081 22' 29.250"	30.38964	-81.37479	LNM 43/15, 7th Dist	265	11491_1	10/22/2015
11491	Add	Submarine Cable  PT 2 OF 7	Chart No. 1: L30.1	N 30 23' 22.040"	W 081 23' 00.850"	30.38946	-81.38357	LNM 43/15, 7th Dist	265	11491_1	10/22/2015
11491	Relocate	Trapac Turning Basin Buoy A	Y C "A"	N 30 23' 25.590"	W 081 34' 08.989"	30.39044	-81.56916	LNM 39/15, 7th Dist	265	11491_1	10/8/2015
11491	Relocate	Trapac Turning Basin Buoy A	Y C "A"	N 30 23' 25.590"	W 081 34' 08.989"	30.39044	-81.56916	LNM 39/15, 7th Dist	267	11491_3	10/8/2015
11491	Relocate	Blount Island Wharf Northeast Light	F R Priv	N 30 23' 51.411"	W 081 32' 55.500"	30.39761	-81.54875	LNM 35/15, 7th Dist	265	11491_1	9/10/2015
11491	Relocate	Blount Island Wharf Northwest Light	F R Priv	N 30 23' 49.001"	W 081 32' 57.311"	30.39694	-81.54926	LNM 35/15, 7th Dist	265	11491_1	9/10/2015
11491	Relocate	Blount Island Wharf Southeast Light	F R Priv	N 30 23' 42.000"	W 081 32' 58.010"	30.395	-81.54945	LNM 35/15, 7th Dist	265	11491_1	9/10/2015
11491	Relocate	Blount Island Wharf Southwest Light	F R Priv	N 30 23' 43.310"	W 081 32' 59.511"	30.39536	-81.54987	LNM 35/15, 7th Dist	265	11491_1	9/10/2015
11491	Add	chartlet - Back River Jacksonville, FL	chartlet - Back River Jacksonville, FL	N 30 23' 50.000"	W 081 30' 59.000"	30.39722	-81.51639	LNM 34/15, 7th Dist	265	11491_1	8/27/2015
11491	Change	Depth Legend - Terminal Channel, St. Johns River to:	15 FT 2015	N 30 19' 21.700"	W 081 37' 34.800"	30.32269	-81.62634	LNM 34/15, 7th Dist	267	11491_3	8/20/2015
11491	Change	Depth Legend - Terminal Channel, St. Johns River to:	24 FT 2015	N 30 21' 29.600"	W 081 37' 09.000"	30.35822	-81.61916	LNM 34/15, 7th Dist	267	11491_3	8/20/2015
11491	Change	Depth Legend - Chaseville Turn, St. Johns River to:	40 FT 2015	N 30 22' 41.700"	W 081 37' 49.300"	30.37825	-81.63036	LNM 34/15, 7th Dist	267	11491_3	8/20/2015
11491	Change	Depth Legend - Blount Island Channel, St. Johns River to:	32 FT FEB 2015	N 30 24' 18.000"	W 081 32' 48.000"	30.405	-81.54667	LNM 34/15, 7th Dist	265	11491_1	8/20/2015
11491	Add	Minimum Size (2mm sq.) Dotted Fish Haven and Label	Obstn Fish Haven (auth min 6 ft), Chart No. 1 K46.2	N 30 18' 28.950"	W 081 40' 01.500"	30.30804	-81.66708	LNM 34/15, 7th Dist	267	11491_3	8/20/2015
11491	Add	Dotted Fish Haven PT 1 OF 4	Chart No. 1: K46.2	N 30 18' 28.000"	W 081 40' 02.650"	30.30778	-81.6674	LNM 34/15, 7th Dist	267	11491_3	8/20/2015
11491	Add	Dotted Fish Haven PT 2 OF 4	Chart No. 1: K46.2	N 30 18' 29.900"	W 081 40' 02.650"	30.30831	-81.6674	LNM 34/15, 7th Dist	267	11491_3	8/20/2015
11491	Add	Dotted Fish Haven PT 3 OF 4	Chart No. 1: K46.2	N 30 18' 29.900"	W 081 40' 00.350"	30.30831	-81.66676	LNM 34/15, 7th Dist	267	11491_3	8/20/2015
11491	Add	Dotted Fish Haven PT 4 OF 4	Chart No. 1: K46.2	N 30 18' 28.000"	W 081 40' 00.350"	30.30778	-81.66676	LNM 34/15, 7th Dist	267	11491_3	8/20/2015
11491	Add	Dotted Fish Haven PT 1 OF 4	Chart No. 1: K46.2	N 30 17' 57.400"	W 081 40' 18.520"	30.29928	-81.67181	LNM 34/15, 7th Dist	267	11491_3	8/20/2015
11491	Add	Dotted Fish Haven PT 2 OF 4	Chart No. 1: K46.2	N 30 17' 59.300"	W 081 40' 18.520"	30.2998	-81.67181	LNM 34/15, 7th Dist	267	11491_3	8/20/2015
11491	Add	Dotted Fish Haven PT 3 OF 4	Chart No. 1: K46.2	N 30 17' 59.300"	W 081 40' 16.250"	30.2998	-81.67118	LNM 34/15, 7th Dist	267	11491_3	8/20/2015
11491	Add	Dotted Fish Haven PT 4 OF 4	Chart No. 1: K46.2	N 30 17' 57.400"	W 081 40' 16.250"	30.29928	-81.67118	LNM 34/15, 7th Dist	267	11491_3	8/20/2015
11491	Add	Dotted Fish Haven Label	Obstn Fish Haven (auth min 6 ft)	N 30 17' 58.350"	W 081 40' 17.390"	30.29954	-81.67149	LNM 34/15, 7th Dist	267	11491_3	8/20/2015
11491	Delete	Sounding in Feet	13	N 30 18' 28.000"	W 081 40' 00.700"	30.30778	-81.66686	LNM 34/15, 7th Dist	267	11491_3	8/20/2015
11491	Add	Dotted Fish Haven Label	Obstn Fish Haven (auth min 6 ft)	N 30 18' 28.950"	W 081 40' 01.500"	30.30804	-81.66708	LNM 34/15, 7th Dist	267	11491_3	8/20/2015
11491	Change	Christopher Point Light 5	Fl G 4s 16ft 5M "5"	N 30 15' 08.545"	W 081 39' 27.962"	30.25237	-81.65777	LNM 31/15, 7th Dist	267	11491_3	8/13/2015
11491	Change	tabulation - ST. JOHNS RIVER CHANNEL DEPTHS	tabulation - ST. JOHNS RIVER CHANNEL DEPTHS	N 30 25' 15.000"	W 081 33' 20.000"	30.42083	-81.55556	LNM 29/15, 7th Dist	265	11491_1	7/16/2015
11491	Change	tabulation - ST. JOHNS RIVER CHANNEL DEPTHS	tabulation - ST. JOHNS RIVER CHANNEL DEPTHS	N 30 26' 10.000"	W 081 37' 37.000"	30.43611	-81.62695	LNM 29/15, 7th Dist	268	11491_4	2/4/2016
11491	Change	tabulation - ST. JOHNS RIVER CHANNEL DEPTHS	tabulation - ST. JOHNS RIVER CHANNEL DEPTHS	N 30 25' 15.000"	W 081 33' 20.000"	30.42083	-81.55556	LNM 29/15, 7th Dist	265	11491_1	7/16/2015
11491	Relocate	Sisters Creek Light 83	Fl G 4s 16ft 4M "83"	N 30 24' 03.300"	W 081 27' 20.760"	30.40092	-81.45576	LNM 25/15, 7th Dist	265	11491_1	7/2/2015
11491	Change	Sisters Creek Light 83	Fl G 4s 16ft 5M "83"	N 30 24' 03.300"	W 081 27' 20.760"	30.40092	-81.45576	LNM 25/15, 7th Dist	265	11491_1	7/2/2015
11491	Change	Winter Point Light 2	Fl R 4s 16ft 5M "2"	N 30 17' 37.687"	W 081 40' 38.112"	30.2938	-81.67725	LNM 24/15, 7th Dist	267	11491_3	6/25/2015
11491	Change	Sisters Creek Light 82	Fl R 4s 16ft 5M "82"	N 30 24' 25.260"	W 081 27' 16.020"	30.40702	-81.45445	LNM 17/15, 7th Dist	265	11491_1	5/7/2015
11491	Change	Sisters Creek Light 85	Fl G 4s 16ft 5M "85"	N 30 23' 48.303"	W 081 27' 21.321"	30.39675	-81.45592	LNM 17/15, 7th Dist	265	11491_1	5/7/2015
11491	Change	Depth Curve Label	6	N 30 23' 37.100"	W 081 35' 13.400"	30.39364	-81.58706	LNM 18/15, 7th Dist	267	11491_3	4/30/2015
11491	Delete	Dolphin	Dol   Chart No. 1: F20	N 30 24' 27.650"	W 081 36' 23.440"	30.40768	-81.60651	LNM 18/15, 7th Dist	267	11491_3	4/30/2015
11491	Add	Piles	Piles     Chart No. 1: F22	N 30 24' 27.880"	W 081 36' 23.710"	30.40775	-81.60658	LNM 18/15, 7th Dist	267	11491_3	4/30/2015
11491	Add	Obstruction in Feet	17 Obstn       Chart No. 1: K41	N 30 23' 08.370"	W 081 28' 10.240"	30.38566	-81.46951	LNM 18/15, 7th Dist	265	11491_1	4/30/2015
11491	Delete	Visible Wreck	Wks     Chart No. 1: K24	N 30 23' 49.140"	W 081 33' 10.920"	30.39698	-81.55303	LNM 18/15, 7th Dist	265	11491_1	4/30/2015
11491	Delete	Visible Wreck	Wks PA     Chart No. 1: K24	N 30 24' 09.750"	W 081 33' 01.590"	30.40271	-81.55044	LNM 18/15, 7th Dist	265	11491_1	4/30/2015
11491	Add	Wreck in Feet	13 Wk      Chart No. 1: K26	N 30 23' 30.650"	W 081 28' 51.350"	30.39185	-81.48093	LNM 18/15, 7th Dist	265	11491_1	4/30/2015
11491	Delete	Visible Wreck	PA     Chart No. 1: K24	N 30 23' 17.310"	W 081 33' 08.520"	30.38814	-81.55237	LNM 18/15, 7th Dist	265	11491_1	4/30/2015
11491	Delete	Obstruction in Feet	11 Obstn       Chart No. 1: K41	N 30 24' 06.970"	W 081 33' 00.210"	30.40194	-81.55006	LNM 18/15, 7th Dist	265	11491_1	4/30/2015
11491	Add	Obstruction in Feet	13 Obstn       Chart No. 1: K41	N 30 24' 07.720"	W 081 33' 00.830"	30.40215	-81.55023	LNM 18/15, 7th Dist	265	11491_1	4/30/2015
11491	Delete	Mooring Buoy	Mooring Buoy, (use Chart No. 1: Q40) 	N 30 24' 14.200"	W 081 30' 37.530"	30.40394	-81.51042	LNM 18/15, 7th Dist	265	11491_1	4/30/2015
11491	Add	Restricted Area PT 1 OF 5	Chart No. 1: N2.1 or N2.2	N 30 23' 18.900"	W 081 26' 03.400"	30.38858	-81.43428	LNM 16/15, 7th Dist	265	11491_1	4/16/2015
11491	Add	Restricted Area PT 2 OF 5	Chart No. 1: N2.1 or N2.2	N 30 23' 19.600"	W 081 26' 04.300"	30.38878	-81.43452	LNM 16/15, 7th Dist	265	11491_1	4/16/2015
11491	Add	Restricted Area PT 3 OF 5	Chart No. 1: N2.1 or N2.2	N 30 23' 16.000"	W 081 26' 08.000"	30.38778	-81.43555	LNM 16/15, 7th Dist	265	11491_1	4/16/2015
11491	Add	Restricted Area PT 4 OF 5	Chart No. 1: N2.1 or N2.2	N 30 23' 12.900"	W 081 26' 07.700"	30.38692	-81.43547	LNM 16/15, 7th Dist	265	11491_1	4/16/2015
11491	Add	Restricted Area PT 5 OF 5	Chart No. 1: N2.1 or N2.2	N 30 23' 12.300"	W 081 26' 06.700"	30.38675	-81.4352	LNM 16/15, 7th Dist	265	11491_1	4/16/2015
11491	Add	Restricted Area Label	RESTRICTED AREA 334.505 (see note A)	N 30 23' 15.100"	W 081 26' 06.700"	30.38753	-81.4352	LNM 16/15, 7th Dist	265	11491_1	4/16/2015
11491	Add	Tidebox - St Johns River	Tidebox	N 30 20' 00.000"	W 081 41' 00.000"	30.33333	-81.68333	LNM 16/15, 7th Dist	267	11491_3	4/16/2015
11491	Change	Short Cut Light 26	Fl R 4s 16ft 5M "26"	N 30 23' 39.604"	W 081 28' 18.754"	30.39433	-81.47188	LNM 14/15, 7th Dist	265	11491_1	4/16/2015
11491	Change	St Johns Bluff Light 31	Fl G 4s 16ft 5M "31"	N 30 23' 18.681"	W 081 29' 30.459"	30.38852	-81.49179	LNM 14/15, 7th Dist	265	11491_1	4/16/2015
11491	Change	Blount Island Channel Light 1	Fl G 4s 12ft 5M "1"	N 30 23' 21.454"	W 081 33' 15.633"	30.38929	-81.55434	LNM 14/15, 7th Dist	265	11491_1	4/16/2015
11491	Change	Blount Island Turning Basin Light 45	Fl G 4s 16ft 5M "45"	N 30 23' 07.124"	W 081 32' 29.937"	30.38531	-81.54165	LNM 14/15, 7th Dist	265	11491_1	4/16/2015
11491	Relocate	Quarantine Island Upper Range Front Light	Q G 19ft	N 30 22' 58.739"	W 081 33' 40.026"	30.38298	-81.56112	LNM 13/15, 7th Dist	265	11491_1	4/9/2015
11491	Change	Quarantine Island Upper Range Front Light	Q G 20ft	N 30 22' 58.739"	W 081 33' 40.026"	30.38298	-81.56112	LNM 13/15, 7th Dist	265	11491_1	4/9/2015
11491	Change	Sisters Creek Light 88	Fl R 2.5s 12ft 5M "88"	N 30 23' 25.401"	W 081 27' 47.493"	30.39039	-81.4632	LNM 10/15, 7th Dist	265	11491_1	3/19/2015
11491	Change	Pablo Creek Light 10	Fl R 4s 13ft 5M "10"	N 30 21' 20.888"	W 081 26' 26.217"	30.3558	-81.44061	LNM 09/15, 7th Dist	265	11491_1	3/12/2015
11491	Add	St Johns Lighted Buoy STJ Magenta Circle	RW "STJ" Mo (A) AIS	N 30 23' 35.368"	W 081 19' 08.398"	30.39316	-81.319	LNM 08/15, 7th Dist	265	11491_1	3/5/2015
11491	Add	St Johns River Lighted Buoy 5 Magenta Circle	G "5" Q G AIS	N 30 23' 47.535"	W 081 22' 25.935"	30.39654	-81.37387	LNM 08/15, 7th Dist	265	11491_1	3/5/2015
11484	Add	Scripps Wave Data Lighted Buoy CDIP STA 228	Y "CDIP STA 228" Fl (5) Y 20s Priv	N 28 36' 52.610"	W 080 35' 40.930"	28.61461	-80.5947	LNM 33/17, 7th Dist	289	11484_1	8/31/2017
11484	Relocate	Canaveral Harbor Entrance Channel Range Front Light	Q G 32ft	N 28 24' 35.790"	W 080 37' 36.820"	28.40994	-80.62689	LNM 45/16, 7th Dist	289	11484_1	11/17/2016
11484	Change	Canaveral Harbor Entrance Channel Range Front Light	Fl G 2.5s 28ft	N 28 24' 35.790"	W 080 37' 36.820"	28.40994	-80.62689	LNM 45/16, 7th Dist	289	11484_1	11/17/2016
11484	Relocate	Canaveral Harbor Entrance Channel Range Rear Light	Iso G 6s 64ft	N 28 24' 35.910"	W 080 38' 02.580"	28.40998	-80.63405	LNM 45/16, 7th Dist	289	11484_1	11/17/2016
11484	Change	Canaveral Harbor Entrance Channel Range Rear Light	Iso G 6s 65ft	N 28 24' 35.910"	W 080 38' 02.580"	28.40998	-80.63405	LNM 45/16, 7th Dist	289	11484_1	11/17/2016
11484	Add	Submerged Pile	Subm pile PA	N 28 26' 15.900"	W 080 38' 26.610"	28.43775	-80.64072	LNM 43/16, 7th Dist	289	11484_1	11/3/2016
11484	Change	Depth Note - Note F CANAVERAL HARBOR CHANNEL to:	The project depths are 46 feet. For controlling depths use chart 11478.	N 28 28' 02.220"	W 080 33' 07.110"	28.46728	-80.55197	LNM 25/16, 7th Dist	289	11484_1	6/16/2016
11484	Delete	East Basin Light 2	Fl R 6s 12ft 5M "2"	N 28 24' 39.839"	W 080 35' 24.905"	28.41107	-80.59025	LNM 21/16, 7th Dist	289	11484_1	6/2/2016
11484	Relocate	Canaveral Harbor Approach Channel Lighted Buoy 9	G "9" Q G	N 28 24' 08.144"	W 080 33' 58.351"	28.40226	-80.56621	LNM 21/16, 7th Dist	289	11484_1	6/2/2016
11484	Change	Canaveral Harbor Approach Channel Lighted Buoy 9	G "9" Fl G 2.5s	N 28 24' 08.144"	W 080 33' 58.351"	28.40226	-80.56621	LNM 21/16, 7th Dist	289	11484_1	6/2/2016
11484	Relocate	Canaveral Harbor Entrance Channel Light 14	Fl R 2.5s 20ft 5M "14"	N 28 24' 38.820"	W 080 35' 36.984"	28.41078	-80.59361	LNM 21/16, 7th Dist	289	11484_1	6/2/2016
11484	Relocate	Canaveral Harbor Entrance Channel Lighted Buoy 11	G "11" Fl G 2.5s AIS	N 28 24' 21.185"	W 080 34' 20.712"	28.40588	-80.57242	LNM 21/16, 7th Dist	289	11484_1	6/2/2016
11484	Change	Canaveral Harbor Entrance Channel Lighted Buoy 11	G "11" Q G AIS	N 28 24' 21.185"	W 080 34' 20.712"	28.40588	-80.57242	LNM 21/16, 7th Dist	289	11484_1	6/2/2016
11484	Relocate	Canaveral Harbor Entrance Channel Lighted Buoy 12	R "12" Fl R 4s	N 28 24' 37.819"	W 080 35' 01.529"	28.41051	-80.58376	LNM 21/16, 7th Dist	289	11484_1	6/2/2016
11484	Relocate	Canaveral Harbor Entrance Channel Lighted Buoy 13	G "13" Fl G 4s	N 28 24' 29.396"	W 080 34' 46.001"	28.40816	-80.57944	LNM 21/16, 7th Dist	289	11484_1	6/2/2016
11484	Relocate	Canaveral Harbor Entrance Channel Lighted Buoy 14A	R "14A" Fl R 4s	N 28 24' 38.348"	W 080 36' 09.141"	28.41065	-80.60254	LNM 21/16, 7th Dist	289	11484_1	6/2/2016
11484	Add	Canaveral Harbor Entrance Channel Light 12A	Fl R 2.5s 12ft 5M "12A"	N 28 24' 38.720"	W 080 35' 21.704"	28.41076	-80.58936	LNM 21/16, 7th Dist	289	11484_1	6/2/2016
11484	Change	Canaveral Harbor Entrance Channel Light 14	Fl R 4s 20ft 5M "14"	N 28 24' 38.820"	W 080 35' 36.984"	28.41078	-80.59361	LNM 21/16, 7th Dist	289	11484_1	6/2/2016
11484	Relocate	Ponce De Leon Inlet Buoy 5	G C "5"	N 29 04' 39.221"	W 080 54' 05.404"	29.07756	-80.9015	LNM 50/15, 7th Dist	289	11484_1	12/24/2015
11484	Delete	Sounding in Feet	79	N 28 22' 52.960"	W 080 18' 10.550"	28.38138	-80.30293	LNM 43/15, 7th Dist	289	11484_1	10/22/2015
11484	Add	Dotted Fish Haven PT 1 OF 4	Chart No. 1: K46.2	N 28 24' 32.350"	W 080 18' 42.350"	28.40899	-80.31177	LNM 43/15, 7th Dist	289	11484_1	10/22/2015
11484	Add	Dotted Fish Haven PT 2 OF 4	Chart No. 1: K46.2	N 28 24' 30.400"	W 080 18' 56.700"	28.40845	-80.31575	LNM 43/15, 7th Dist	289	11484_1	10/22/2015
11484	Add	Dotted Fish Haven PT 3 OF 4	Chart No. 1: K46.2	N 28 22' 02.240"	W 080 17' 59.240"	28.36729	-80.29979	LNM 43/15, 7th Dist	289	11484_1	10/22/2015
11484	Add	Dotted Fish Haven PT 4 OF 4	Chart No. 1: K46.2	N 28 22' 45.190"	W 080 17' 59.720"	28.37922	-80.29992	LNM 43/15, 7th Dist	289	11484_1	10/22/2015
11484	Delete	Dotted Fish Haven PT 1 OF 2	Chart No. 1: K46.2	N 28 24' 32.350"	W 080 18' 42.350"	28.40899	-80.31177	LNM 43/15, 7th Dist	289	11484_1	10/22/2015
11484	Delete	Dotted Fish Haven PT 2 OF 2	Chart No. 1: K46.2	N 28 22' 45.190"	W 080 17' 59.720"	28.37922	-80.29992	LNM 43/15, 7th Dist	289	11484_1	10/22/2015
11484	Add	Dotted Fish Haven Label	Obstn Fish Haven (auth min 31 ft)	N 29 02' 35.400"	W 080 52' 54.700"	29.04317	-80.88186	LNM 40/15, 7th Dist	289	11484_1	10/8/2015
11484	Add	Obstruction in Feet	27 Obstn       Chart No. 1: K41	N 29 02' 27.420"	W 080 52' 57.600"	29.04095	-80.88267	LNM 40/15, 7th Dist	289	11484_1	10/8/2015
11484	Delete	Sounding in Feet	33	N 29 02' 36.200"	W 080 53' 01.400"	29.04339	-80.88372	LNM 40/15, 7th Dist	289	11484_1	10/8/2015
11484	Add	Obstruction in Feet	28 Obstn       Chart No. 1: K41	N 29 02' 33.960"	W 080 52' 49.920"	29.04277	-80.88053	LNM 40/15, 7th Dist	289	11484_1	10/8/2015
11484	Add	Obstruction in Feet	27 Obstn       Chart No. 1: K41	N 29 02' 38.940"	W 080 53' 03.960"	29.04415	-80.88443	LNM 40/15, 7th Dist	289	11484_1	10/8/2015
11484	Add	Dotted Fish Haven PT 1 OF 8	Chart No. 1: K46.2	N 29 02' 42.760"	W 080 52' 58.390"	29.04521	-80.88289	LNM 40/15, 7th Dist	289	11484_1	10/8/2015
11484	Add	Dotted Fish Haven PT 2 OF 8	Chart No. 1: K46.2	N 29 02' 37.670"	W 080 52' 55.470"	29.0438	-80.88207	LNM 40/15, 7th Dist	289	11484_1	10/8/2015
11484	Add	Dotted Fish Haven PT 3 OF 8	Chart No. 1: K46.2	N 29 02' 40.690"	W 080 52' 48.390"	29.04464	-80.88011	LNM 40/15, 7th Dist	289	11484_1	10/8/2015
11484	Add	Dotted Fish Haven PT 4 OF 8	Chart No. 1: K46.2	N 29 02' 34.910"	W 080 52' 45.080"	29.04303	-80.87919	LNM 40/15, 7th Dist	289	11484_1	10/8/2015
11484	Add	Dotted Fish Haven PT 5 OF 8	Chart No. 1: K46.2	N 29 02' 33.310"	W 080 52' 48.810"	29.04259	-80.88023	LNM 40/15, 7th Dist	289	11484_1	10/8/2015
11484	Add	Dotted Fish Haven PT 6 OF 8	Chart No. 1: K46.2	N 29 02' 30.790"	W 080 52' 47.360"	29.04189	-80.87982	LNM 40/15, 7th Dist	289	11484_1	10/8/2015
11484	Add	Dotted Fish Haven PT 7 OF 8	Chart No. 1: K46.2	N 29 02' 26.130"	W 080 52' 58.250"	29.04059	-80.88285	LNM 40/15, 7th Dist	289	11484_1	10/8/2015
11484	Add	Dotted Fish Haven PT 8 OF 8	Chart No. 1: K46.2	N 29 02' 39.540"	W 080 53' 05.930"	29.04432	-80.88498	LNM 40/15, 7th Dist	289	11484_1	10/8/2015
11484	Add	Accurate Landmark	STACK (CENTRAL OF THREE)    Chart No. 1: E1	N 28 28' 11.390"	W 080 45' 50.240"	28.46983	-80.76395	LNM 24/15, 7th Dist	289	11484_1	6/11/2015
11484	Change	Banana River North Light 19	Fl G 4s 16ft 5M "19"	N 28 26' 53.856"	W 080 38' 29.994"	28.44829	-80.64166	LNM 15/15, 7th Dist	289	11484_1	4/23/2015
11484	Change	Canaveral Barge Canal Light 5	Fl G 4s 16ft 5M "5"	N 28 24' 32.348"	W 080 38' 42.514"	28.40899	-80.64514	LNM 15/15, 7th Dist	289	11484_1	4/23/2015
11484	Change	Canaveral Barge Canal Light 8	Fl R 4s 12ft 5M "8"	N 28 24' 33.699"	W 080 39' 34.041"	28.40936	-80.65945	LNM 15/15, 7th Dist	289	11484_1	4/23/2015
11484	Change	Banana River North Channel A Turning Basin Light 11	Fl G 4s 16ft 5M "11"	N 28 29' 26.430"	W 080 35' 25.254"	28.49067	-80.59035	LNM 15/15, 7th Dist	289	11484_1	4/23/2015
11484	Change	Banana River North Light 29	Fl G 4s 16ft 5M "29"	N 28 29' 26.904"	W 080 37' 22.326"	28.49081	-80.62287	LNM 15/15, 7th Dist	289	11484_1	4/23/2015
11484	Change	Banana River North Light 35	Fl G 4s 16ft 5M "35"	N 28 30' 33.630"	W 080 36' 53.022"	28.50934	-80.61473	LNM 15/15, 7th Dist	289	11484_1	4/23/2015
11484	Change	Cape Canaveral South Jetty Light	Fl 2.5s 20ft 5M	N 28 24' 29.630"	W 080 35' 13.540"	28.40823	-80.5871	LNM 10/15, 7th Dist	289	11484_1	3/19/2015
11484	Relocate	Cape Canaveral South Jetty Light	Fl 2.5s 20ft 5M	N 28 24' 29.630"	W 080 35' 13.540"	28.40823	-80.5871	LNM 10/15, 7th Dist	289	11484_1	3/19/2015
11484	Add	Cape Canaveral Danger Zone Buoy A Magenta Circle	Y C "A" AIS	N 28 44' 42.000"	W 080 37' 51.000"	28.745	-80.63084	LNM 08/15, 7th Dist	289	11484_1	3/5/2015
11484	Add	Canaveral Harbor Entrance Channel Lighted Buoy 11 Magenta Circle	G "11" Fl G 2.5s AIS	N 28 24' 30.587"	W 080 34' 41.867"	28.4085	-80.57829	LNM 08/15, 7th Dist	289	11484_1	3/5/2015
11484	Change	Depth Legend - Canaveral Barge Canal to:	9 FT FOR MID 60 FT FEB 2014	N 28 24' 32.900"	W 080 40' 51.300"	28.40914	-80.68092	LNM 35/14, 7th Dist	289	11484_1	9/4/2014
11484	Add	Restricted Area PT 1 OF 4	Chart No. 1: N2.1 or N2.2	N 28 35' 00.480"	W 080 34' 26.880"	28.58347	-80.57413	LNM 23/14, 7th Dist	289	11484_1	6/12/2014
11484	Add	Restricted Area PT 2 OF 4	Chart No. 1: N2.1 or N2.2	N 28 35' 42.960"	W 080 32' 56.280"	28.59527	-80.54897	LNM 23/14, 7th Dist	289	11484_1	6/12/2014
11484	Add	Restricted Area PT 3 OF 4	Chart No. 1: N2.1 or N2.2	N 28 43' 33.960"	W 080 39' 05.640"	28.7261	-80.65157	LNM 23/14, 7th Dist	289	11484_1	6/12/2014
11484	Add	Restricted Area PT 4 OF 4	Chart No. 1: N2.1 or N2.2	N 28 43' 33.960"	W 080 41' 11.340"	28.7261	-80.68649	LNM 23/14, 7th Dist	289	11484_1	6/12/2014
11484	Add	Restricted Area Label	RESTRICTED AREA 334.525 (see note A)	N 28 39' 27.000"	W 080 37' 08.000"	28.6575	-80.61889	LNM 23/14, 7th Dist	289	11484_1	6/12/2014
11484	Add	Submarine Cable  PT 1 OF 2	Chart No. 1: L30.1	N 28 24' 19.730"	W 080 38' 40.640"	28.40548	-80.64462	LNM 02/14, 7th Dist	289	11484_1	1/9/2014
11484	Add	Submarine Cable  PT 2 OF 2	Chart No. 1: L30.1	N 28 24' 19.680"	W 080 38' 51.930"	28.40547	-80.64776	LNM 02/14, 7th Dist	289	11484_1	1/9/2014
11484	Relocate	Canaveral Harbor Approach Channel LB 9	G "9" Q G	N 28 24' 23.753"	W 080 34' 18.441"	28.4066	-80.57179	LNM 32/12, 7th Dist	289	11484_1	8/31/2012
11484	Relocate	Canaveral Harbor Approach Channel RF Light	Fl 2.5s 25ft	N 28 25' 00.430"	W 080 35' 03.808"	28.41679	-80.58439	LNM 21/12, 7th Dist	289	11484_1	6/11/2012
11484	Relocate	Canaveral Harbor Approach Channel RR Light	Iso 6s 86ft	N 28 25' 37.254"	W 080 35' 53.665"	28.42702	-80.59824	LNM 21/12, 7th Dist	289	11484_1	6/11/2012
11484	Relocate	Canaveral Harbor Entrance Channel RF Light	Q G 32ft	N 28 24' 34.544"	W 080 37' 52.094"	28.4096	-80.63113	LNM 21/12, 7th Dist	289	11484_1	6/11/2012
11484	Relocate	Canaveral Harbor Entrance Channel RR Light	Iso G 6s 64ft	N 28 24' 34.491"	W 080 38' 14.538"	28.40958	-80.63737	LNM 21/12, 7th Dist	289	11484_1	6/11/2012
11484	Change	Canaveral Harbor Entrance Channel RF Light	Q G 32ft	N 28 24' 34.544"	W 080 37' 52.094"	28.4096	-80.63113	LNM 21/12, 7th Dist	289	11484_1	6/11/2012
11484	Relocate	Canaveral Harbor Entrance Channel RR Light	Iso G 6s 64ft	N 28 24' 34.491"	W 080 38' 14.538"	28.40958	-80.63737	LNM 21/12, 7th Dist	289	11484_1	6/11/2012
11484	Change	Canaveral Harbor Approach Channel RR Light	Iso 6s 86ft	N 28 25' 37.254"	W 080 35' 53.665"	28.42702	-80.59824	LNM 21/12, 7th Dist	289	11484_1	6/11/2012
11484	Add	Scripps Wave Lighted Buoy C	Y "C" Fl (5) Y 20s Priv	N 28 24' 00.060"	W 080 32' 00.060"	28.40002	-80.53335	LNM 46/11, 7th Dist	289	11484_1	12/5/2011
11484	Relocate	Canaveral Harbor Entrance Channel LB 16	R "16" Fl R 2.5s	N 28 24' 39.184"	W 080 37' 02.106"	28.41088	-80.61725	LNM 37/11, 7th Dist	289	11484_1	9/26/2011
11484	Change	Canaveral Harbor Entrance Channel Light 14	Fl R 2.5s 20ft 5M "14"	N 28 24' 37.888"	W 080 35' 13.947"	28.41052	-80.5872	LNM 27/11, 7th Dist	289	11484_1	7/21/2011
11402	Change	Depth Legend - Bob Sikes Pass to:	3 FT FOR A MID-WIDTH OF 50-100 FT JAN 2017	N 29 36' 55.500"	W 084 57' 35.900"	29.61542	-84.95997	LNM 29/17, 8th Dist	143	11402_1	7/13/2017
11402	Delete	St George Island Range Rear Light	Iso G 6s 36ft	N 29 37' 46.802"	W 084 58' 03.741"	29.62967	-84.9677	LNM 20/17, 8th Dist	143	11402_1	6/1/2017
11402	Delete	St George Island Range Front Light	Q G 20ft	N 29 37' 28.773"	W 084 57' 53.942"	29.62466	-84.96498	LNM 20/17, 8th Dist	143	11402_1	6/1/2017
11402	Change	Depth Legend - Scipio Creek Turning Basin to:	7 1/2 FT AUG 2016	N 29 44' 02.000"	W 084 59' 42.500"	29.73389	-84.99514	LNM 05/17, 8th Dist	143	11402_1	2/2/2017
11402	Change	Depth Legend - Scipio Creek Channel to:	7 FT BY 80 FT AUG 2016	N 29 43' 56.000"	W 084 59' 16.000"	29.73222	-84.98778	LNM 05/17, 8th Dist	143	11402_1	2/2/2017
11402	Change	Depth Legend - Two Mile Extension and Parallel Channel to:	1 FT BY 100 FT AUG 2016	N 29 42' 44.900"	W 085 01' 01.500"	29.71247	-85.01708	LNM 05/17, 8th Dist	143	11402_1	2/2/2017
11402	Change	Depth Legend - Two Mile Extension and Parallel Channel to:	3 FT FOR MID 50 FT AUG 2016	N 29 42' 49.500"	W 084 59' 41.000"	29.71375	-84.99472	LNM 05/17, 8th Dist	143	11402_1	2/2/2017
11402	Change	Depth Note - APALACHICOLA BAY TWO MILE ENTRANCE CHANNEL to:	APALACHICOLA BAY TWO MILE ENTRANCE CHANNEL The controlling depth was 5 feet for a width of 100 feet from Lt. "1" to buoy "4", thence 2 feet to the apex. Aug 2016	N 29 43' 08.000"	W 085 00' 44.000"	29.71889	-85.01222	LNM 05/17, 8th Dist	143	11402_1	2/2/2017
11402	Delete	St George Island Daybeacon 3	G "3" Ra Ref	N 29 37' 17.483"	W 084 57' 49.263"	29.62152	-84.96368	LNM 15/16, 8th Dist	143	11402_1	4/21/2016
11402	Delete	St George Island Daybeacon 4	R "4" Ra Ref	N 29 37' 18.775"	W 084 57' 45.672"	29.62188	-84.96268	LNM 15/16, 8th Dist	143	11402_1	4/21/2016
11402	Add	ST GEORGE ISLAND LIGHTED BUOY 3	G "3" Fl G 2.5s	N 29 37' 07.222"	W 084 57' 44.027"	29.61867	-84.96223	LNM 15/16, 8th Dist	143	11402_1	4/21/2016
11402	Add	ST GEORGE ISLAND LIGHTED BUOY 4	R "4" Fl R 2.5s	N 29 37' 07.408"	W 084 57' 42.223"	29.61872	-84.96173	LNM 15/16, 8th Dist	143	11402_1	4/21/2016
11402	Add	ST GEORGE ISLAND LIGHTED BUOY 5	G "5" Fl G 4s	N 29 37' 19.710"	W 084 57' 50.007"	29.62214	-84.96389	LNM 15/16, 8th Dist	143	11402_1	4/21/2016
11402	Add	ST GEORGE ISLAND LIGHTED BUOY 6	R "6" Fl R 4s 	N 29 37' 20.193"	W 084 57' 48.114"	29.62228	-84.96336	LNM 15/16, 8th Dist	143	11402_1	4/21/2016
11402	Delete	Two Mile Channel Daybeacon 9	G "9"	N 29 42' 44.261"	W 085 00' 48.453"	29.7123	-85.01346	LNM 47/15, 8th Dist	143	11402_1	12/10/2015
11402	Add	Two Mile Channel Buoy 9	G C "9"	N 29 42' 44.264"	W 085 00' 48.508"	29.7123	-85.01347	LNM 47/15, 8th Dist	143	11402_1	12/10/2015
11402	Delete	Fixed Bridge	Chart No. 1: D22	N 29 43' 26.630"	W 084 58' 35.770"	29.72406	-84.9766	LNM 44/15, 8th Dist	143	11402_1	10/29/2015
11402	Add	Fixed Bridge PT 1 OF 8	Chart No. 1: D22	N 29 43' 25.550"	W 084 58' 50.700"	29.72376	-84.98075	LNM 44/15, 8th Dist	143	11402_1	10/29/2015
11402	Add	Fixed Bridge PT 2 OF 8	Chart No. 1: D22	N 29 43' 25.670"	W 084 58' 48.190"	29.7238	-84.98005	LNM 44/15, 8th Dist	143	11402_1	10/29/2015
11402	Add	Fixed Bridge PT 3 OF 8	Chart No. 1: D22	N 29 43' 28.610"	W 084 58' 37.870"	29.72461	-84.97719	LNM 44/15, 8th Dist	143	11402_1	10/29/2015
11402	Add	Fixed Bridge PT 4 OF 8	Chart No. 1: D22	N 29 43' 32.720"	W 084 58' 23.810"	29.72576	-84.97328	LNM 44/15, 8th Dist	143	11402_1	10/29/2015
11402	Add	Fixed Bridge PT 5 OF 8	Chart No. 1: D22	N 29 43' 32.100"	W 084 58' 23.610"	29.72558	-84.97323	LNM 44/15, 8th Dist	143	11402_1	10/29/2015
11402	Add	Fixed Bridge PT 6 OF 8	Chart No. 1: D22	N 29 43' 28.000"	W 084 58' 37.620"	29.72445	-84.97712	LNM 44/15, 8th Dist	143	11402_1	10/29/2015
11402	Add	Fixed Bridge PT 7 OF 8	Chart No. 1: D22	N 29 43' 25.020"	W 084 58' 48.020"	29.72362	-84.98	LNM 44/15, 8th Dist	143	11402_1	10/29/2015
11402	Add	Fixed Bridge PT 8 OF 8	Chart No. 1: D22	N 29 43' 24.870"	W 084 58' 50.470"	29.72358	-84.98068	LNM 44/15, 8th Dist	143	11402_1	10/29/2015
11402	Change	Depth Legend - SCIPIO CREEK to:	7 1/2 FT MID 40 FT AUG 2014	N 29 43' 56.000"	W 084 59' 16.000"	29.73222	-84.98778	LNM 41/15, 8th Dist	143	11402_1	10/29/2015
11402	Change	Depth Legend - BOAT BASIN to:	6 FT AUG 2014	N 29 44' 02.000"	W 084 59' 42.500"	29.73389	-84.99514	LNM 41/15, 8th Dist	143	11402_1	10/29/2015
11402	Change	Depth Legend - Two Mile Extension and Parallel Channel to:	1 FT BY 500 FT JUL 2015	N 29 42' 44.900"	W 085 01' 01.500"	29.71247	-85.01708	LNM 41/15, 8th Dist	143	11402_1	10/8/2015
11402	Change	Channel Reach Label	TURNING BASIN	N 29 44' 02.000"	W 084 59' 42.500"	29.73389	-84.99514	LNM 41/15, 8th Dist	143	11402_1	10/8/2015
11402	Add	Channel reach separation line PT 1 OF 2	magenta line	N 29 44' 05.100"	W 084 59' 39.400"	29.73475	-84.99428	LNM 41/15, 8th Dist	143	11402_1	10/8/2015
11402	Add	Channel reach separation line PT 2 OF 2	magenta line	N 29 44' 05.900"	W 084 59' 41.500"	29.73497	-84.99486	LNM 41/15, 8th Dist	143	11402_1	10/8/2015
11402	Change	Depth Legend - Scipio Creek Turning Basin to:	7 FT JUL 2015	N 29 44' 02.000"	W 084 59' 42.500"	29.73389	-84.99514	LNM 41/15, 8th Dist	143	11402_1	10/8/2015
11402	Change	Depth Legend - Two Mile Extension and Parallel Channels to:	1 FT BY 100 FT AUG 2014	N 29 42' 44.900"	W 085 01' 01.500"	29.71247	-85.01708	LNM 28/15, 8th Dist	143	11402_1	7/16/2015
11402	Change	Depth Note - APALACHICOLA BAY TWO MILE ENTRANCE CHANNEL to:	The controlling depth was 5 feet for a width of 100 feet from Lt. "1" to buoy "4", thence 2 feet to the apex.  Aug. 2014	N 29 43' 08.000"	W 085 00' 44.000"	29.71889	-85.01222	LNM 28/15, 8th Dist	143	11402_1	7/16/2015
11402	Change	Depth Legend - Bob Sikes Pass to:	2 FT FOR A MID-WIDTH OF 50-100 FT JAN 2015	N 29 36' 55.500"	W 084 57' 35.900"	29.61542	-84.95997	LNM 19/15, 8th Dist	143	11402_1	5/14/2015
11402	Delete	Dangerous Wreck	PA (Chart No 1: K-28) 	N 29 38' 03.000"	W 085 18' 00.000"	29.63417	-85.3	LNM 08/15, 8th Dist	143	11402_1	3/5/2015
11402	Add	Dangerous Wreck 	PA (Chart No 1: K-28) 	N 29 38' 03.000"	W 085 18' 00.000"	29.63417	-85.3	LNM 07/15, 8th Dist	143	11402_1	2/26/2015
11489	Relocate	St Marys River Daybeacon 6	R "6"	N 30 42' 57.720"	W 081 32' 05.100"	30.71603	-81.53475	LNM 35/17, 7th Dist	260	11489_1	Not Yet
11489	Add	Fernandina Beach Daybeacon 2	R "2"	N 30 38' 54.680"	W 081 29' 03.480"	30.64852	-81.4843	LNM 35/17, 7th Dist	260	11489_1	Not Yet
11489	Delete	Mile Point Lighted Buoy C	Y "C" Fl Y 2.5s	N 30 22' 43.033"	W 081 27' 05.234"	30.37862	-81.45145	LNM 30/17, 7th Dist	261	11489_2	8/24/2017
11489	Delete	Mile Point Lighted Buoy C	Y "C" Fl Y 2.5s	N 30 22' 43.033"	W 081 27' 05.234"	30.37862	-81.45145	LNM 30/17, 7th Dist	262	11489_3	8/24/2017
11489	Add	Mile Point Light A	Fl Y 2.5s 4M "A"	N 30 22' 43.534"	W 081 27' 03.311"	30.37876	-81.45092	LNM 30/17, 7th Dist	261	11489_2	8/24/2017
11489	Add	Mile Point Light A	Fl Y 2.5s 4M "A"	N 30 22' 43.534"	W 081 27' 03.311"	30.37876	-81.45092	LNM 30/17, 7th Dist	262	11489_3	8/24/2017
11489	Delete	Cumberland Sound Shoal Light A	Fl 4s "A" Priv	N 30 43' 39.000"	W 081 28' 52.200"	30.7275	-81.48116	LNM 23/17, 7th Dist	260	11489_1	6/22/2017
11489	Delete	Cumberland Sound Shoal Light B	Fl 4s "B" Priv	N 30 43' 56.400"	W 081 28' 59.400"	30.73233	-81.48317	LNM 23/17, 7th Dist	260	11489_1	6/22/2017
11489	Delete	Cumberland Sound Shoal Light C	Fl 4s "C" Priv	N 30 44' 13.200"	W 081 28' 59.400"	30.737	-81.48317	LNM 23/17, 7th Dist	260	11489_1	6/22/2017
11489	Delete	Cumberland Sound Shoal Light D	Fl 4s "D" Priv	N 30 44' 27.000"	W 081 29' 10.800"	30.74083	-81.48634	LNM 23/17, 7th Dist	260	11489_1	6/22/2017
11489	Delete	Cumberland Sound Shoal Light E	Fl 4s "E" Priv	N 30 44' 41.400"	W 081 28' 55.200"	30.74483	-81.482	LNM 23/17, 7th Dist	260	11489_1	6/22/2017
11489	Delete	Cumberland Sound Shoal Light F	Fl 4s "F" Priv	N 30 44' 43.200"	W 081 29' 09.000"	30.74533	-81.48583	LNM 23/17, 7th Dist	260	11489_1	6/22/2017
11489	Delete	Cumberland Sound Shoal Light G	Fl 4s "G" Priv	N 30 44' 55.200"	W 081 29' 13.000"	30.74867	-81.48695	LNM 23/17, 7th Dist	260	11489_1	6/22/2017
11489	Delete	Cumberland Sound Shoal Light H	Fl 4s "H" Priv	N 30 45' 10.800"	W 081 28' 56.400"	30.753	-81.48233	LNM 23/17, 7th Dist	260	11489_1	6/22/2017
11489	Delete	Cumberland Sound Shoal Light I	Fl 4s "I" Priv	N 30 46' 03.000"	W 081 29' 04.200"	30.7675	-81.4845	LNM 23/17, 7th Dist	260	11489_1	6/22/2017
11489	Relocate	Cumberland River Daybeacon 33A	G "33A"	N 30 58' 14.049"	W 081 25' 21.028"	30.97057	-81.42251	LNM 23/17, 7th Dist	260	11489_1	6/22/2017
11489	Add	Cumberland Sound Shoal Light A	Fl 4s 12ft 5M "A"	N 30 43' 38.979"	W 081 28' 52.160"	30.72749	-81.48116	LNM 23/17, 7th Dist	260	11489_1	6/22/2017
11489	Add	Cumberland Sound Shoal Light B	Fl 4s 12ft 5M "B"	N 30 43' 56.442"	W 081 28' 59.412"	30.73235	-81.48317	LNM 23/17, 7th Dist	260	11489_1	6/22/2017
11489	Add	Cumberland Sound Shoal Light C	Fl 4s 12ft 5M "C"	N 30 44' 13.181"	W 081 28' 59.339"	30.73699	-81.48315	LNM 23/17, 7th Dist	260	11489_1	6/22/2017
11489	Add	Cumberland Sound Shoal Light D	Fl 4s 12ft 5M "D"	N 30 44' 27.000"	W 081 29' 10.800"	30.74083	-81.48634	LNM 23/17, 7th Dist	260	11489_1	6/22/2017
11489	Add	Cumberland Sound Shoal Light E	Fl 4s 12ft 5M "E"	N 30 44' 43.804"	W 081 28' 52.582"	30.7455	-81.48127	LNM 23/17, 7th Dist	260	11489_1	6/22/2017
11489	Add	Cumberland Sound Shoal Light F	Fl 4s 12ft 5M "F"	N 30 44' 40.980"	W 081 29' 09.711"	30.74472	-81.48603	LNM 23/17, 7th Dist	260	11489_1	6/22/2017
11489	Add	Cumberland Sound Shoal Light G	Fl 4s 12ft 5M "G"	N 30 45' 09.909"	W 081 28' 55.678"	30.75275	-81.48213	LNM 23/17, 7th Dist	260	11489_1	6/22/2017
11489	Add	Cumberland Sound Shoal Light H	Fl 4s 12ft 5M "H"	N 30 45' 16.312"	W 081 29' 08.692"	30.75453	-81.48575	LNM 23/17, 7th Dist	260	11489_1	6/22/2017
11489	Add	Cumberland Sound Shoal Light I	Fl 4s 12ft 5M "I"	N 30 46' 00.138"	W 081 29' 03.919"	30.7667	-81.48442	LNM 23/17, 7th Dist	260	11489_1	6/22/2017
11489	Add	Visible Wreck	PA	N 30 59' 28.400"	W 081 27' 35.900"	30.99122	-81.45997	LNM 22/17, 7th Dist	260	11489_1	6/22/2017
11489	Change	Kings Bay Lower Range E Front Light	Q G 18ft	N 30 46' 23.362"	W 081 29' 08.993"	30.77316	-81.48583	LNM 20/17, 7th Dist	260	11489_1	6/1/2017
11489	Delete	Mile Point Jetty East Daybeacon	W Bn	N 30 22' 46.796"	W 081 27' 23.856"	30.37967	-81.45663	LNM 19/17, 7th Dist	261	11489_2	5/18/2017
11489	Delete	Mile Point Jetty East Daybeacon	W Bn	N 30 22' 46.796"	W 081 27' 23.856"	30.37967	-81.45663	LNM 19/17, 7th Dist	262	11489_3	5/18/2017
11489	Delete	Mile Point Jetty West Daybeacon	W Bn	N 30 22' 49.584"	W 081 27' 28.166"	30.38044	-81.45782	LNM 19/17, 7th Dist	261	11489_2	5/18/2017
11489	Delete	Mile Point Jetty West Daybeacon	W Bn	N 30 22' 49.584"	W 081 27' 28.166"	30.38044	-81.45782	LNM 19/17, 7th Dist	262	11489_3	5/18/2017
11489	Delete	Nassau Sound Approach Buoy 6A	R N "6A" AIS	N 30 29' 23.952"	W 081 22' 50.791"	30.48999	-81.38078	LNM 14/17, 7th Dist	261	11489_2	4/13/2017
11489	Change	Kingsley Creek Light 7	Fl G 4s 12ft 5M "7"	N 30 38' 30.734"	W 081 29' 15.601"	30.64187	-81.48766	LNM 13/17, 7th Dist	260	11489_1	4/13/2017
11489	Add	Pablo Creek Lighted Buoy 1	G "1" Fl G 4s	N 30 22' 52.998"	W 081 27' 32.562"	30.38139	-81.45905	LNM 06/17, 7th Dist	261	11489_2	2/23/2017
11489	Add	Pablo Creek Lighted Buoy 1	G "1" Fl G 4s	N 30 22' 52.998"	W 081 27' 32.562"	30.38139	-81.45905	LNM 06/17, 7th Dist	262	11489_3	2/23/2017
11489	Delete	Pablo Creek Light 1	Fl G 4s 18ft 5M "1"	N 30 22' 51.733"	W 081 27' 30.682"	30.38104	-81.45852	LNM 06/17, 7th Dist	261	11489_2	2/23/2017
11489	Delete	Pablo Creek Light 1	Fl G 4s 18ft 5M "1"	N 30 22' 51.733"	W 081 27' 30.682"	30.38104	-81.45852	LNM 06/17, 7th Dist	262	11489_3	2/23/2017
11489	Change	Bridge Construction	Chart No. 1: D.d, with magenta screen extending 500 feet from bridge	N 30 23' 38.400"	W 081 27' 35.500"	30.394	-81.45986	LNM 07/17, 7th Dist	261	11489_2	2/23/2017
11489	Add	Bridge Construction Label	Bridge under construction (see note)	N 30 23' 38.400"	W 081 27' 35.500"	30.394	-81.45986	LNM 07/17, 7th Dist	261	11489_2	2/23/2017
11489	Add	Bridge Construction Note	CAUTION Fixed and floating obstructions, some submerged, may exist within the magenta tinted bridge construction area. Mariners are advised to proceed with caution.	N 30 22' 53.500"	W 081 20' 25.000"	30.38153	-81.34028	LNM 07/17, 7th Dist	261	11489_2	2/23/2017
11489	Delete	Bascule Bridge Label	BASCULE BRIDGE HOR CL 90 FT HOR CL 24 FT (CENTER)	N 30 23' 38.400"	W 081 27' 35.500"	30.394	-81.45986	LNM 07/17, 7th Dist	261	11489_2	2/23/2017
11489	Add	Mile Point Lower Front Range Passing Light	Fl 4s 12ft 4M	N 30 22' 43.834"	W 081 27' 10.552"	30.37884	-81.45293	LNM 05/17, 7th Dist	261	11489_2	2/9/2017
11489	Add	Mile Point Lower Front Range Passing Light	Fl 4s 12ft 4M	N 30 22' 43.834"	W 081 27' 10.552"	30.37884	-81.45293	LNM 05/17, 7th Dist	262	11489_3	2/9/2017
11489	Add	Mile Point Lower Rear Range Passing Light	Fl 2.5s 12ft 4M	N 30 22' 42.391"	W 081 27' 14.184"	30.37844	-81.45394	LNM 05/17, 7th Dist	261	11489_2	2/9/2017
11489	Add	Mile Point Lower Rear Range Passing Light	Fl 2.5s 12ft 4M	N 30 22' 42.391"	W 081 27' 14.184"	30.37844	-81.45394	LNM 05/17, 7th Dist	262	11489_3	2/9/2017
11489	Add	Mile Point Lighted Buoy C	Y "C" Fl Y 2.5s	N 30 22' 43.033"	W 081 27' 05.234"	30.37862	-81.45145	LNM 49/16, 7th Dist	261	11489_2	12/15/2016
11489	Add	Mile Point Lighted Buoy C	Y "C" Fl Y 2.5s	N 30 22' 43.033"	W 081 27' 05.234"	30.37862	-81.45145	LNM 49/16, 7th Dist	262	11489_3	12/15/2016
11489	Add	Wreck in Feet	1 Wk      Chart No. 1: K26	N 31 07' 34.390"	W 081 25' 15.900"	31.12622	-81.42108	LNM 47/16, 7th Dist	260	11489_1	11/24/2016
11489	Add	Wreck in Feet	26 Wk      Chart No. 1: K26	N 30 58' 38.070"	W 081 25' 09.540"	30.97724	-81.41932	LNM 41/16, 7th Dist	260	11489_1	11/24/2016
11489	Change	Brunswick Harbor Range Front Light	Q R 14ft	N 31 09' 06.174"	W 081 30' 02.338"	31.15171	-81.50065	LNM 39/16, 7th Dist	260	11489_1	10/6/2016
11489	Relocate	Satilla River Light 6	Fl R 6s 16ft 5M "6"	N 30 59' 24.312"	W 081 27' 58.100"	30.99009	-81.46614	LNM 26/16, 7th Dist	260	11489_1	7/14/2016
11489	Delete	Kings Bay Lighted Buoy 44A	R "44A" Fl R 6s Navy	N 30 47' 07.200"	W 081 29' 31.200"	30.78533	-81.492	LNM 20/16, 7th Dist	260	11489_1	5/26/2016
11489	Delete	Kings Bay Lighted Buoy 45A	G "45A" Fl G 6s Navy	N 30 47' 04.200"	W 081 29' 41.400"	30.7845	-81.49483	LNM 20/16, 7th Dist	260	11489_1	5/26/2016
11489	Relocate	Mile Point Lower Range Front Light	Q G 24ft	N 30 22' 43.834"	W 081 27' 10.552"	30.37884	-81.45293	LNM 17/16, 7th Dist	261	11489_2	5/5/2016
11489	Relocate	Mile Point Lower Range Front Light	Q G 24ft	N 30 22' 43.834"	W 081 27' 10.552"	30.37884	-81.45293	LNM 17/16, 7th Dist	262	11489_3	5/5/2016
11489	Change	Mile Point Lower Range Front Light	Q G 25ft	N 30 22' 43.834"	W 081 27' 10.552"	30.37884	-81.45293	LNM 17/16, 7th Dist	261	11489_2	5/5/2016
11489	Change	Mile Point Lower Range Front Light	Q G 25ft	N 30 22' 43.834"	W 081 27' 10.552"	30.37884	-81.45293	LNM 17/16, 7th Dist	262	11489_3	5/5/2016
11489	Relocate	Mile Point Lower Range Rear Light	Iso G 6s 41ft	N 30 22' 42.391"	W 081 27' 14.184"	30.37844	-81.45394	LNM 17/16, 7th Dist	261	11489_2	5/5/2016
11489	Relocate	Mile Point Lower Range Rear Light	Iso G 6s 41ft	N 30 22' 42.391"	W 081 27' 14.184"	30.37844	-81.45394	LNM 17/16, 7th Dist	262	11489_3	5/5/2016
11489	Change	Mile Point Lower Range Rear Light	Iso G 6s 35ft	N 30 22' 42.391"	W 081 27' 14.184"	30.37844	-81.45394	LNM 17/16, 7th Dist	261	11489_2	5/5/2016
11489	Change	Mile Point Lower Range Rear Light	Iso G 6s 35ft	N 30 22' 42.391"	W 081 27' 14.184"	30.37844	-81.45394	LNM 17/16, 7th Dist	262	11489_3	5/5/2016
11489	Relocate	Mile Point Upper Range Front Light	Q G 18ft	N 30 22' 43.834"	W 081 27' 10.552"	30.37884	-81.45293	LNM 16/16, 7th Dist	261	11489_2	4/28/2016
11489	Relocate	Mile Point Upper Range Front Light	Q G 18ft	N 30 22' 43.834"	W 081 27' 10.552"	30.37884	-81.45293	LNM 16/16, 7th Dist	262	11489_3	4/28/2016
11489	Change	Mile Point Upper Range Front Light	Q G 25ft	N 30 22' 43.834"	W 081 27' 10.552"	30.37884	-81.45293	LNM 16/16, 7th Dist	261	11489_2	4/28/2016
11489	Change	Mile Point Upper Range Front Light	Q G 25ft	N 30 22' 43.834"	W 081 27' 10.552"	30.37884	-81.45293	LNM 16/16, 7th Dist	262	11489_3	4/28/2016
11489	Add	Sounding in Feet	3	N 30 42' 49.400"	W 081 32' 38.300"	30.71372	-81.54398	LNM 16/16, 7th Dist	260	11489_1	4/21/2016
11489	Add	Sounding in Feet	5	N 30 43' 16.000"	W 081 31' 15.000"	30.72111	-81.52084	LNM 16/16, 7th Dist	260	11489_1	4/21/2016
11489	Delete	Sounding in Feet	22	N 30 43' 15.946"	W 081 31' 11.573"	30.7211	-81.51988	LNM 16/16, 7th Dist	260	11489_1	4/21/2016
11489	Add	Obstruction	Obstn PA	N 30 53' 53.464"	W 081 29' 57.963"	30.89818	-81.49944	LNM 08/16, 7th Dist	260	11489_1	3/3/2016
11489	Relocate	Mayport Basin Channel Lighted Buoy 4	R "4" Fl R 4s	N 30 23' 49.462"	W 081 24' 08.458"	30.39707	-81.40235	LNM 50/15, 7th Dist	261	11489_2	12/24/2015
11489	Add	Submarine Cable  PT 1 OF 2	Chart No. 1: L30.1	N 30 23' 28.430"	W 081 23' 39.420"	30.39123	-81.39429	LNM 43/15, 7th Dist	262	11489_3	10/22/2015
11489	Add	Submarine Cable  PT 2 OF 2	Chart No. 1: L30.1	N 30 23' 24.620"	W 081 23' 16.410"	30.39017	-81.38789	LNM 43/15, 7th Dist	262	11489_3	10/22/2015
11489	Add	Submarine Cable  PT 1 OF 7	Chart No. 1: L30.1	N 30 23' 28.430"	W 081 23' 39.420"	30.39123	-81.39429	LNM 43/15, 7th Dist	261	11489_2	10/22/2015
11489	Add	Submarine Cable  PT 2 OF 7	Chart No. 1: L30.1	N 30 23' 22.040"	W 081 23' 00.850"	30.38946	-81.38357	LNM 43/15, 7th Dist	261	11489_2	10/22/2015
11489	Add	Submarine Cable  PT 3 OF 7	Chart No. 1: L30.1	N 30 23' 22.700"	W 081 22' 29.250"	30.38964	-81.37479	LNM 43/15, 7th Dist	261	11489_2	10/22/2015
11489	Add	Submarine Cable  PT 4 OF 7	Chart No. 1: L30.1	N 30 23' 21.480"	W 081 22' 05.970"	30.3893	-81.36832	LNM 43/15, 7th Dist	261	11489_2	10/22/2015
11489	Add	Submarine Cable  PT 5 OF 7	Chart No. 1: L30.1	N 30 23' 15.170"	W 081 21' 31.510"	30.38755	-81.35875	LNM 43/15, 7th Dist	261	11489_2	10/22/2015
11489	Add	Submarine Cable  PT 6 OF 7	Chart No. 1: L30.1	N 30 23' 02.790"	W 081 20' 49.150"	30.38411	-81.34698	LNM 43/15, 7th Dist	261	11489_2	10/22/2015
11489	Add	Submarine Cable  PT 7 OF 7	Chart No. 1: L30.1	N 30 22' 54.810"	W 081 20' 14.300"	30.38189	-81.3373	LNM 43/15, 7th Dist	261	11489_2	10/22/2015
11489	Change	Kings Bay Light 48	Fl R 4s 16ft 5M "48"	N 30 47' 48.289"	W 081 30' 17.885"	30.79675	-81.50497	LNM 41/15, 7th Dist	260	11489_1	10/22/2015
11489	Change	Kings Bay Light 50	Fl R 6s 16ft 5M "50"	N 30 48' 02.580"	W 081 30' 39.840"	30.80072	-81.51107	LNM 41/15, 7th Dist	260	11489_1	10/22/2015
11489	Change	Kings Bay Light 52	Fl R 4s 16ft 5M "52"	N 30 48' 09.814"	W 081 30' 53.490"	30.80273	-81.51486	LNM 41/15, 7th Dist	260	11489_1	10/22/2015
11489	Change	Kings Bay Light 58	Fl R 6s 16ft 5M "58"	N 30 48' 38.288"	W 081 31' 12.722"	30.81063	-81.5202	LNM 41/15, 7th Dist	260	11489_1	10/22/2015
11489	Change	Kings Bay Light 60	Fl R 2.5s 16ft 5M "60"	N 30 48' 42.939"	W 081 31' 17.551"	30.81193	-81.52155	LNM 41/15, 7th Dist	260	11489_1	10/22/2015
11489	Change	Kings Bay Light 62	Fl R 4s 16ft 5M "62"	N 30 48' 41.825"	W 081 31' 22.118"	30.81162	-81.52281	LNM 41/15, 7th Dist	260	11489_1	10/22/2015
11489	Add	Security barrier PT 1 OF 2	**dashed black line**	N 30 47' 43.900"	W 081 30' 09.200"	30.79553	-81.50256	LNM 42/15, 7th Dist	260	11489_1	10/15/2015
11489	Add	Security barrier PT 2 OF 2	**dashed black line**	N 30 47' 33.000"	W 081 30' 15.400"	30.7925	-81.50428	LNM 42/15, 7th Dist	260	11489_1	10/15/2015
11489	Add	Security barrier text	Security barrier	N 30 47' 39.100"	W 081 30' 11.900"	30.7942	-81.5033	LNM 42/15, 7th Dist	260	11489_1	10/15/2015
11489	Add	Security barrier PT 1 OF 2	**black dashed line**	N 30 48' 41.700"	W 081 31' 27.400"	30.81158	-81.52428	LNM 42/15, 7th Dist	260	11489_1	10/15/2015
11489	Add	Security barrier PT 2 OF 2	**black dashed line**	N 30 48' 51.400"	W 081 31' 06.000"	30.81428	-81.51833	LNM 42/15, 7th Dist	260	11489_1	10/15/2015
11489	Delete	Log boom PT 1 OF 2	Log boom	N 30 48' 41.700"	W 081 31' 27.400"	30.81158	-81.52428	LNM 42/15, 7th Dist	260	11489_1	10/15/2015
11489	Delete	Log boom PT 2 OF 2	Log boom	N 30 48' 51.400"	W 081 31' 06.000"	30.81428	-81.51833	LNM 42/15, 7th Dist	260	11489_1	10/15/2015
11489	Add	Security barrier text	Security Barrier	N 30 48' 44.800"	W 081 31' 20.600"	30.81244	-81.52239	LNM 42/15, 7th Dist	260	11489_1	10/15/2015
11489	Change	Kingsley Creek Light 14	Fl R 4s 12ft 5M "14"	N 30 37' 29.880"	W 081 28' 56.700"	30.62497	-81.48241	LNM 39/15, 7th Dist	261	11489_2	10/8/2015
11489	Change	Satilla River Light 6	Fl R 6s 16ft 5M "6"	N 30 59' 24.290"	W 081 27' 58.172"	30.99008	-81.46616	LNM 36/15, 7th Dist	260	11489_1	9/17/2015
11489	Change	Cumberland Sound Light B	Fl 2.5s 16ft 5M "B"	N 30 44' 25.440"	W 081 28' 53.040"	30.7404	-81.4814	LNM 35/15, 7th Dist	260	11489_1	9/10/2015
11489	Change	Kings Bay Light 46	Q R 16ft 4M "46"	N 30 47' 32.366"	W 081 29' 46.509"	30.79232	-81.49625	LNM 35/15, 7th Dist	260	11489_1	9/10/2015
11489	Change	Jekyll Creek Jetty Warning Light 4	Fl R 2.5s 12ft 5M "4"	N 31 05' 40.240"	W 081 26' 28.244"	31.09451	-81.44118	LNM 32/15, 7th Dist	260	11489_1	8/13/2015
11489	Change	Jekyll Creek Light 17	Fl G 4s 12ft 5M "17"	N 31 04' 16.327"	W 081 25' 44.119"	31.0712	-81.42892	LNM 32/15, 7th Dist	260	11489_1	8/13/2015
11489	Change	Kings Bay Light 44	Fl R 4s 16ft 5M "44"	N 30 47' 02.880"	W 081 29' 27.840"	30.78413	-81.49107	LNM 32/15, 7th Dist	260	11489_1	8/13/2015
11489	Change	Amelia River Light 12	Fl R 4s 12ft 5M "12"	N 30 40' 12.480"	W 081 28' 06.300"	30.67013	-81.46841	LNM 30/15, 7th Dist	260	11489_1	8/6/2015
11489	Change	Plantation Creek Light 2	Fl R 2.5s 16ft 5M "2"	N 31 07' 15.360"	W 081 28' 47.520"	31.12093	-81.47987	LNM 28/15, 7th Dist	260	11489_1	7/23/2015
11489	Change	Umbrella Cut Light A5	Fl G 4s 18ft 5M "A5"	N 31 01' 41.211"	W 081 28' 40.752"	31.02811	-81.47799	LNM 27/15, 7th Dist	260	11489_1	7/16/2015
11489	Change	Raccoon Key Split Light 2	Fl R 2.5s 16ft 4M "2"	N 31 00' 20.290"	W 081 26' 12.723"	31.00564	-81.43687	LNM 26/15, 7th Dist	260	11489_1	7/9/2015
11489	Relocate	Sisters Creek Light 83	Fl G 4s 16ft 4M "83"	N 30 24' 03.300"	W 081 27' 20.760"	30.40092	-81.45576	LNM 25/15, 7th Dist	261	11489_2	6/25/2015
11489	Change	Sisters Creek Light 83	Fl G 4s 16ft 5M "83"	N 30 24' 03.300"	W 081 27' 20.760"	30.40092	-81.45576	LNM 25/15, 7th Dist	261	11489_2	6/25/2015
11489	Change	Depth Note - St. Johns River to:	ST. JOHNS RIVER The project depth is 30-50 feet to Jacksonville. The depths and channel markers are not shown hereon, use chart 11491.	N 30 24' 50.000"	W 081 25' 48.000"	30.41389	-81.43	LNM 26/15, 7th Dist	261	11489_2	7/9/2015
11489	Add	chartlet - Fernandina Harbor, FL	chartlet - Fernandina Harbor, FL	N 30 40' 00.000"	W 081 28' 00.000"	30.66667	-81.46667	LNM 26/15, 7th Dist	260	11489_1	7/9/2015
11489	Change	Brunswick Harbor Channel Light 2	Fl R 4s 12ft 5M "2"	N 31 07' 29.160"	W 081 29' 25.380"	31.12477	-81.49039	LNM 24/15, 7th Dist	260	11489_1	6/25/2015
11489	Change	TANK	TANK (R LT)	N 31 05' 55.914"	W 081 24' 28.480"	31.09887	-81.40791	LNM 23/15, 7th Dist	260	11489_1	6/11/2015
11489	Change	TANK	TOWER AERO LT ROT WG	N 31 05' 08.995"	W 081 24' 40.046"	31.08583	-81.41113	LNM 23/15, 7th Dist	260	11489_1	6/11/2015
11489	Change	Depth Legend - Kings Bay to:	PROJECT DEPTH 44-46 FT (use chart 11503)	N 30 42' 54.300"	W 081 28' 08.400"	30.71508	-81.469	LNM 23/15, 7th Dist	260	11489_1	6/11/2015
11489	Change	Depth Legend - Kings Bay to:	PROJECT DEPTH 44-46 FT (use chart 11503)	N 30 47' 50.800"	W 081 30' 33.700"	30.79745	-81.50936	LNM 23/15, 7th Dist	260	11489_1	6/11/2015
11489	Change	St Marys River Light 10	Fl R 4s 16ft 5M "10"	N 30 42' 31.560"	W 081 32' 07.080"	30.70877	-81.5353	LNM 20/15, 7th Dist	260	11489_1	5/28/2015
11489	Change	Mackay River Light 245A	Fl G 4s 12ft 5M "245A"	N 31 08' 59.700"	W 081 25' 41.280"	31.14992	-81.42813	LNM 19/15, 7th Dist	260	11489_1	5/21/2015
11489	Change	Mackay River Light 249	Fl G 2.5s 16ft 5M "249"	N 31 08' 15.118"	W 081 24' 58.178"	31.13753	-81.41616	LNM 19/15, 7th Dist	260	11489_1	5/21/2015
11489	Change	Mackay River Light 250	Fl R 2.5s 12ft 5M "250"	N 31 07' 55.294"	W 081 25' 22.316"	31.13203	-81.42287	LNM 19/15, 7th Dist	260	11489_1	5/21/2015
11489	Relocate	Cumberland Sound Range B Range Rear Light	Iso G 6s 30ft	N 30 44' 36.980"	W 081 29' 14.600"	30.7436	-81.48739	LNM 18/15, 7th Dist	260	11489_1	5/14/2015
11489	Delete	Magenta Course Line PT 1 OF 3	Magenta Course Line	N 30 39' 49.400"	W 081 28' 38.700"	30.66372	-81.47742	LNM 19/15, 7th Dist	260	11489_1	5/7/2015
11489	Delete	Magenta Course Line PT 2 OF 3	Magenta Course Line	N 30 39' 54.000"	W 081 29' 01.900"	30.665	-81.48386	LNM 19/15, 7th Dist	260	11489_1	5/7/2015
11489	Delete	Magenta Course Line PT 3 OF 3	Magenta Course Line	N 30 39' 47.400"	W 081 29' 05.000"	30.66317	-81.48473	LNM 19/15, 7th Dist	260	11489_1	5/7/2015
11489	Add	Shoaling Label	SHOALING TO 3 FT JULY 2014	N 30 39' 54.300"	W 081 28' 53.100"	30.66508	-81.48141	LNM 19/15, 7th Dist	260	11489_1	5/7/2015
11489	Change	Gunnison Cut Light 53	Fl G 4s 16ft 5M "53"	N 30 29' 32.220"	W 081 27' 38.340"	30.49228	-81.46065	LNM 17/15, 7th Dist	261	11489_2	5/7/2015
11489	Change	Gunnison Cut Light 69	Fl G 4s 16ft 5M "69"	N 30 27' 26.712"	W 081 26' 52.645"	30.45742	-81.44796	LNM 17/15, 7th Dist	261	11489_2	5/7/2015
11489	Change	Sawpit Creek Light 49	Fl G 4s 16ft 5M "49"	N 30 30' 16.808"	W 081 28' 14.992"	30.50467	-81.47083	LNM 17/15, 7th Dist	261	11489_2	5/7/2015
11489	Change	Sisters Creek Light 75	Fl G 4s 12ft 5M "75"	N 30 26' 18.540"	W 081 27' 14.400"	30.43848	-81.454	LNM 17/15, 7th Dist	261	11489_2	5/7/2015
11489	Change	Sisters Creek Light 82	Fl R 4s 16ft 5M "82"	N 30 24' 25.260"	W 081 27' 16.020"	30.40702	-81.45445	LNM 17/15, 7th Dist	261	11489_2	5/7/2015
11489	Change	Sisters Creek Light 85	Fl G 4s 16ft 5M "85"	N 30 23' 48.303"	W 081 27' 21.321"	30.39675	-81.45592	LNM 17/15, 7th Dist	261	11489_2	5/7/2015
11489	Change	Intracoastal Waterway Distance Notation 	St M 730	N 30 30' 56.800"	W 081 27' 56.200"	30.51578	-81.46561	LNM 18/15, 7th Dist	261	11489_2	4/30/2015
11489	Add	Obstruction in Feet	17 Obstn       Chart No. 1: K41	N 30 23' 08.370"	W 081 28' 10.240"	30.38566	-81.46951	LNM 18/15, 7th Dist	261	11489_2	4/30/2015
11489	Add	Wreck in Feet	13 Wk      Chart No. 1: K26	N 30 23' 30.650"	W 081 28' 51.350"	30.39185	-81.48093	LNM 18/15, 7th Dist	261	11489_2	4/30/2015
11489	Add	Restricted Area PT 1 OF 5	Chart No. 1: N2.1 or N2.2	N 30 23' 18.900"	W 081 26' 03.400"	30.38858	-81.43428	LNM 16/15, 7th Dist	261	11489_2	4/16/2015
11489	Add	Restricted Area PT 2 OF 5	Chart No. 1: N2.1 or N2.2	N 30 23' 19.600"	W 081 26' 04.300"	30.38878	-81.43452	LNM 16/15, 7th Dist	261	11489_2	4/16/2015
11489	Add	Restricted Area PT 3 OF 5	Chart No. 1: N2.1 or N2.2	N 30 23' 16.000"	W 081 26' 08.000"	30.38778	-81.43555	LNM 16/15, 7th Dist	261	11489_2	4/16/2015
11489	Add	Restricted Area PT 4 OF 5	Chart No. 1: N2.1 or N2.2	N 30 23' 12.900"	W 081 26' 07.700"	30.38692	-81.43547	LNM 16/15, 7th Dist	261	11489_2	4/16/2015
11489	Add	Restricted Area PT 5 OF 5	Chart No. 1: N2.1 or N2.2	N 30 23' 12.300"	W 081 26' 06.700"	30.38675	-81.4352	LNM 16/15, 7th Dist	261	11489_2	4/16/2015
11489	Add	Restricted Area Label	RESTRICTED AREA 334.505 (see note A)	N 30 23' 15.100"	W 081 26' 06.700"	30.38753	-81.4352	LNM 16/15, 7th Dist	261	11489_2	4/16/2015
11489	Change	Short Cut Light 26	Fl R 4s 16ft 5M "26"	N 30 23' 39.604"	W 081 28' 18.754"	30.39433	-81.47188	LNM 14/15, 7th Dist	261	11489_2	4/16/2015
11489	Change	St Johns Bluff Light 31	Fl G 4s 16ft 5M "31"	N 30 23' 18.681"	W 081 29' 30.459"	30.38852	-81.49179	LNM 14/15, 7th Dist	261	11489_2	4/16/2015
11489	Change	Pablo Creek Light 17	Fl G 4s 16ft 5M "17"	N 30 19' 59.800"	W 081 26' 14.436"	30.33328	-81.43734	LNM 11/15, 7th Dist	262	11489_3	3/19/2015
11489	Change	Tolomato River Light 38	Fl R 4s 16ft 5M "38"	N 30 00' 06.144"	W 081 20' 37.314"	30.00171	-81.3437	LNM 10/15, 7th Dist	263	11489_4	3/19/2015
11489	Change	Cumberland River Light 45A	Fl G 4s 16ft 5M "45A"	N 30 53' 53.396"	W 081 29' 57.105"	30.89816	-81.4992	LNM 10/15, 7th Dist	260	11489_1	3/19/2015
11489	Change	Cumberland River Light 51A	Fl G 4s 16ft 5M "51A"	N 30 52' 50.171"	W 081 30' 40.815"	30.8806	-81.51134	LNM 10/15, 7th Dist	260	11489_1	3/19/2015
11489	Change	Cumberland River Light 55	Fl G 4s 16ft 5M "55"	N 30 52' 12.300"	W 081 29' 56.100"	30.87008	-81.49892	LNM 10/15, 7th Dist	260	11489_1	3/19/2015
11489	Change	Cumberland Sound Light 69	Fl G 4s 16ft 5M "69"	N 30 49' 37.262"	W 081 29' 26.797"	30.82702	-81.49078	LNM 10/15, 7th Dist	260	11489_1	3/19/2015
11489	Change	Pablo Creek Light 39	Fl G 4s 16ft 5M "39"	N 30 16' 06.862"	W 081 25' 19.105"	30.26857	-81.42197	LNM 10/15, 7th Dist	262	11489_3	3/19/2015
11489	Change	Pablo Creek Light 44	Fl R 4s 16ft 5M "44"	N 30 15' 32.101"	W 081 25' 41.343"	30.25892	-81.42815	LNM 10/15, 7th Dist	262	11489_3	3/19/2015
11489	Change	Pablo Creek Light 46	Fl R 2.5s 16ft 5M "46"	N 30 15' 07.729"	W 081 25' 50.105"	30.25215	-81.43059	LNM 10/15, 7th Dist	262	11489_3	3/19/2015
11489	Change	Pablo Creek Light 49	Q G 4M "49"	N 30 14' 26.998"	W 081 25' 18.371"	30.24083	-81.42177	LNM 10/15, 7th Dist	262	11489_3	3/19/2015
11489	Change	Sisters Creek Light 77	Fl G 4s 12ft 5M "77"	N 30 25' 57.677"	W 081 27' 23.692"	30.43269	-81.45658	LNM 10/15, 7th Dist	261	11489_2	3/19/2015
11489	Change	Sisters Creek Light 79	Fl G 4s 12ft 5M "79"	N 30 25' 32.971"	W 081 27' 21.491"	30.42583	-81.45597	LNM 10/15, 7th Dist	261	11489_2	3/19/2015
11489	Change	Sisters Creek Light 88	Fl R 2.5s 12ft 5M "88"	N 30 23' 25.401"	W 081 27' 47.493"	30.39039	-81.4632	LNM 10/15, 7th Dist	261	11489_2	3/19/2015
11489	Change	Tolomato River Light 15	Fl G 4s 16ft 5M "15"	N 30 04' 28.184"	W 081 21' 49.816"	30.0745	-81.36384	LNM 10/15, 7th Dist	263	11489_4	3/19/2015
11489	Change	Tolomato River Light 20	Fl R 4s 16ft 5M "20"	N 30 04' 03.060"	W 081 22' 14.820"	30.06752	-81.37078	LNM 10/15, 7th Dist	263	11489_4	3/19/2015
11489	Change	Tolomato River Light 27	Fl G 4s 16ft 5M "27"	N 30 02' 38.700"	W 081 21' 57.180"	30.04408	-81.36588	LNM 10/15, 7th Dist	263	11489_4	3/19/2015
11489	Change	Tolomato River Light 32	Fl R 4s 12ft 5M "32"	N 30 01' 38.940"	W 081 21' 43.080"	30.02748	-81.36197	LNM 10/15, 7th Dist	263	11489_4	3/19/2015
11489	Change	Cumberland River Light 35	Fl G 4s 16ft 5M "35"	N 30 57' 28.020"	W 081 25' 41.760"	30.95778	-81.42827	LNM 09/15, 7th Dist	260	11489_1	3/12/2015
11489	Change	Cumberland River Light 37	Fl G 6s 16ft 5M "37"	N 30 56' 28.676"	W 081 26' 07.904"	30.9413	-81.43553	LNM 09/15, 7th Dist	260	11489_1	3/12/2015
11489	Change	Pablo Creek Light 10	Fl R 4s 13ft 5M "10"	N 30 21' 20.888"	W 081 26' 26.217"	30.3558	-81.44061	LNM 09/15, 7th Dist	262	11489_3	3/12/2015
11489	Add	Nassau Sound Approach Buoy 6A Magenta Circle	R N "6A" AIS	N 30 29' 23.952"	W 081 22' 50.791"	30.48999	-81.38078	LNM 08/15, 7th Dist	261	11489_2	3/5/2015
11489	Add	St Johns River Lighted Buoy 5 Magenta Circle	G "5" Q G AIS	N 30 23' 47.535"	W 081 22' 25.935"	30.39654	-81.37387	LNM 08/15, 7th Dist	261	11489_2	3/5/2015
11489	Add	St Marys Entrance Lighted Buoy 16 Magenta Circle	R "16" Fl R 2.5s AIS	N 30 42' 38.867"	W 081 23' 59.360"	30.7108	-81.39982	LNM 08/15, 7th Dist	260	11489_1	3/5/2015
11430	Relocate	Barron River Channel Daybeacon 37	G "37"	N 25 51' 13.860"	W 081 23' 19.348"	25.85385	-81.38871	LNM 21/17, 7th Dist	359	11430_1	6/1/2017
11430	Delete	Gordon Pass Shoal Light	Q 3M	N 26 05' 29.905"	W 081 48' 26.427"	26.09164	-81.80734	LNM 46/16, 7th Dist	361	11430_3	11/24/2016
11430	Relocate	Gordon Pass Channel Daybeacon 1	G "1"	N 26 05' 30.032"	W 081 48' 26.432"	26.09167	-81.80734	LNM 42/16, 7th Dist	361	11430_3	10/27/2016
11430	Relocate	Gordon Pass Channel Light 2	Fl R 4s 4M "2"	N 26 05' 27.524"	W 081 48' 26.558"	26.09098	-81.80738	LNM 42/16, 7th Dist	361	11430_3	10/27/2016
11430	Change	Capri Pass Light 3	Fl G 4s 16ft 5M "3"	N 25 58' 33.487"	W 081 45' 22.549"	25.97597	-81.75626	LNM 26/16, 7th Dist	361	11430_3	7/14/2016
11430	Relocate	Gordon Pass Channel Daybeacon 5	G "5"	N 26 05' 34.669"	W 081 47' 58.890"	26.09296	-81.79969	LNM 25/16, 7th Dist	361	11430_3	6/30/2016
11430	Relocate	Gordon Pass Channel Light 9	Fl G 4s 16ft 4M "9"	N 26 05' 48.197"	W 081 47' 54.304"	26.09672	-81.79842	LNM 25/16, 7th Dist	361	11430_3	6/30/2016
11430	Relocate	Naples Bay Channel Light 34	Fl R 2.5s16ft 3M "34"	N 26 07' 51.573"	W 081 47' 29.370"	26.13099	-81.79149	LNM 25/16, 7th Dist	361	11430_3	6/30/2016
11430	Change	Capri Pass Light 9	Q G 16ft 5M "9"	N 25 58' 19.254"	W 081 44' 36.073"	25.97202	-81.74335	LNM 25/16, 7th Dist	361	11430_3	6/30/2016
11430	Change	Gordon Pass Channel Light 6	Fl R 4s 16ft 5M "6"	N 26 05' 33.790"	W 081 47' 54.987"	26.09272	-81.79861	LNM 25/16, 7th Dist	361	11430_3	6/30/2016
11430	Change	Naples Bay Channel Light 20	Fl R 4s 16ft 5M "20"	N 26 06' 05.295"	W 081 47' 11.485"	26.10147	-81.78652	LNM 25/16, 7th Dist	361	11430_3	6/30/2016
11430	Change	Naples Bay Channel Light 24	Fl R 4s 16ft 5M "24"	N 26 06' 45.994"	W 081 47' 11.322"	26.11278	-81.78648	LNM 25/16, 7th Dist	361	11430_3	6/30/2016
11430	Change	Naples Bay Channel Light 32	Fl R 4s 16ft 5M "32"	N 26 07' 45.096"	W 081 47' 25.594"	26.12919	-81.79044	LNM 25/16, 7th Dist	361	11430_3	6/30/2016
11430	Change	Gordon Pass Channel Light 9	Fl G 4s 16ft 5M "9"	N 26 05' 48.197"	W 081 47' 54.304"	26.09672	-81.79842	LNM 25/16, 7th Dist	361	11430_3	6/30/2016
11430	Change	Naples Bay Channel Light 34	Fl R 2.5s 16ft 5M "34"	N 26 07' 51.573"	W 081 47' 29.370"	26.13099	-81.79149	LNM 25/16, 7th Dist	361	11430_3	6/30/2016
11430	Relocate	Big Marco Pass - Gordon Pass Daybeacon 51	G "51"	N 26 03' 07.530"	W 081 46' 47.455"	26.05209	-81.77985	LNM 17/16, 7th Dist	361	11430_3	5/5/2016
11445	Change	Bahia Honda Key Light 49A	Fl G 6s 20ft 5M "49A"	N 24 37' 29.946"	W 081 14' 08.442"	24.62498	-81.23568	LNM 42/15, 7th Dist	329	11445_1	10/29/2015
11445	Delete	American Shoal Light	Fl (3) 15s 109ft 10M RACON (_-__)	N 24 31' 30.422"	W 081 31' 09.898"	24.52512	-81.51942	LNM 36/15, 7th Dist	329	11445_1	9/17/2015
11445	Add	Abandoned Light House	TOWER (ABAND LT HO)	N 24 31' 30.422"	W 081 31' 09.898"	24.52512	-81.51942	LNM 36/15, 7th Dist	329	11445_1	9/17/2015
11445	Add	American Shoal Light	Fl (4) 60s 19ft 7M	N 24 31' 32.493"	W 081 31' 02.576"	24.52569	-81.51738	LNM 36/15, 7th Dist	329	11445_1	9/17/2015
11445	Change	Nine-Foot Shoal Light	Fl 2.5s 18ft 5M	N 24 34' 09.069"	W 081 33' 06.768"	24.56919	-81.55188	LNM 06/15, 7th Dist	329	11445_1	2/19/2015
11445	Change	Big Pine Shoal Light 22	Q R 18ft 4M "22"	N 24 34' 06.078"	W 081 19' 32.338"	24.56836	-81.32565	LNM 29/14, 7th Dist	329	11445_1	7/24/2014
11445	Relocate	Big Pine Shoal Light 22	Q R 18ft 6M "22"	N 24 34' 06.078"	W 081 19' 32.338"	24.56836	-81.32565	LNM 33/13, 7th Dist	329	11445_1	8/22/2013
11445	Relocate	Newfound Harbor Keys Light 50	Fl R 2.5s 16ft 5M "50"	N 24 36' 47.377"	W 081 23' 38.483"	24.61316	-81.39402	LNM 33/13, 7th Dist	329	11445_1	8/22/2013
11445	Change	Newfound Harbor Keys Light 50	Fl R 2.5s 16ft 5M "50"	N 24 36' 47.520"	W 081 23' 38.285"	24.6132	-81.39397	LNM 31/13, 7th Dist	329	11445_1	8/19/2013
11445	Change	Loggerhead Key Light 50A	Fl R 6s 16ft 5M "50A"	N 24 35' 50.592"	W 081 27' 17.130"	24.59739	-81.45476	LNM 10/13, 7th Dist	329	11445_1	4/2/2013
11445	Change	Newfound Harbor Channel Entrance Light 2	Fl R 4s 16ft 5M "2"	N 24 37' 08.229"	W 081 24' 25.525"	24.61895	-81.40709	LNM 10/13, 7th Dist	329	11445_1	4/2/2013
11445	Delete	Visible Wreck	PA     Chart No. 1: K24	N 24 39' 27.700"	W 081 26' 12.400"	24.65769	-81.43678	LNM 40/12, 7th Dist	329	11445_1	10/1/2012
11445	Delete	Visible Wreck	PA     Chart No. 1: K24	N 24 39' 14.700"	W 081 25' 20.800"	24.65408	-81.42245	LNM 40/12, 7th Dist	329	11445_1	10/1/2012
11445	Delete	Newfound Harbor Channel Lighted Buoy A	W Or "A" Fl 2.5s Priv	N 24 39' 01.080"	W 081 22' 57.540"	24.6503	-81.38265	LNM 22/12, 7th Dist	329	11445_1	6/13/2012
11445	Delete	Newfound Harbor Channel Lighted Buoy B	W Or "B" Fl 4s Priv	N 24 39' 03.420"	W 081 22' 39.360"	24.65095	-81.3776	LNM 22/12, 7th Dist	329	11445_1	6/13/2012
11449	Delete	Duck Key Channel Daybeacon 1	G "1" Priv	N 24 45' 46.108"	W 080 55' 27.500"	24.76281	-80.92431	LNM 11/16, 7th Dist	324	11449_1	3/24/2016
11449	Delete	Duck Key Channel Daybeacon 11	G "11" Priv	N 24 46' 29.000"	W 080 55' 30.000"	24.77472	-80.925	LNM 11/16, 7th Dist	324	11449_1	3/24/2016
11449	Delete	Duck Key Channel Daybeacon 12	R "12" Priv	N 24 46' 27.500"	W 080 55' 27.000"	24.77431	-80.92416	LNM 11/16, 7th Dist	324	11449_1	3/24/2016
11449	Delete	Duck Key Channel Daybeacon 13	G "13" Priv	N 24 46' 29.000"	W 080 55' 19.000"	24.77472	-80.92194	LNM 11/16, 7th Dist	324	11449_1	3/24/2016
11449	Delete	Duck Key Channel Daybeacon 14	R "14" Priv	N 24 46' 28.500"	W 080 55' 19.000"	24.77458	-80.92194	LNM 11/16, 7th Dist	324	11449_1	3/24/2016
11449	Delete	Duck Key Channel Daybeacon 16	R "16" Priv	N 24 46' 26.000"	W 080 55' 06.500"	24.77389	-80.91847	LNM 11/16, 7th Dist	324	11449_1	3/24/2016
11449	Delete	Duck Key Channel Daybeacon 3	G "3" Priv	N 24 45' 54.100"	W 080 55' 28.000"	24.76503	-80.92445	LNM 11/16, 7th Dist	324	11449_1	3/24/2016
11449	Delete	Duck Key Channel Daybeacon 5	G "5" Priv	N 24 46' 04.100"	W 080 55' 27.300"	24.76781	-80.92425	LNM 11/16, 7th Dist	324	11449_1	3/24/2016
11449	Delete	Duck Key Channel Daybeacon 6	R "6" Priv	N 24 46' 04.000"	W 080 55' 22.500"	24.76778	-80.92292	LNM 11/16, 7th Dist	324	11449_1	3/24/2016
11449	Delete	Duck Key Channel Daybeacon 7	G "7" Priv	N 24 46' 16.500"	W 080 55' 25.800"	24.77125	-80.92384	LNM 11/16, 7th Dist	324	11449_1	3/24/2016
11449	Delete	Duck Key Channel Daybeacon 8	R "8" Priv	N 24 46' 17.600"	W 080 55' 22.400"	24.77155	-80.92289	LNM 11/16, 7th Dist	324	11449_1	3/24/2016
11449	Delete	Tennessee Reef East Lighted Buoy 18	R "18" Fl R 2.5s	N 24 47' 32.496"	W 080 41' 36.228"	24.79236	-80.6934	LNM 51/15, 7th Dist	324	11449_1	12/31/2015
11449	Delete	Alligator Reef Light	Fl (4) 60s 136ft 13M RACON (__-)	N 24 51' 06.435"	W 080 37' 07.857"	24.85179	-80.61885	LNM 36/15, 7th Dist	324	11449_1	9/17/2015
11449	Add	Abandoned Light House	TOWER (ABAND LT HO)	N 24 51' 06.435"	W 080 37' 07.857"	24.85179	-80.61885	LNM 36/15, 7th Dist	324	11449_1	9/17/2015
11449	Add	Alligator Reef Light	Fl (4) 60s 16ft 7M	N 24 51' 04.754"	W 080 37' 03.754"	24.85132	-80.61771	LNM 36/15, 7th Dist	324	11449_1	9/17/2015
11449	Relocate	Bowlegs Cut Daybeacon 92	R "92"	N 24 54' 25.020"	W 080 43' 44.317"	24.90695	-80.72897	LNM 21/15, 7th Dist	324	11449_1	6/4/2015
11449	Change	Channel Five Light 2	Fl R 4s 16ft 5M "2"	N 24 48' 53.603"	W 080 46' 28.388"	24.81489	-80.77455	LNM 09/15, 7th Dist	324	11449_1	3/12/2015
11449	Change	East Turtle Shoal Light 45	Q G 20ft 4M "45"	N 24 43' 28.774"	W 080 55' 59.001"	24.72466	-80.93305	LNM 37/14, 7th Dist	324	11449_1	9/25/2014
11449	Change	Arsenic Bank Light 1	Fl G 4s 16ft 5M "1"	N 24 52' 15.285"	W 080 53' 02.339"	24.87091	-80.88398	LNM 36/14, 7th Dist	324	11449_1	9/18/2014
11449	Change	Lower Matecumbe Light 2	Fl R 4s 12ft 5M "2"	N 24 51' 25.804"	W 080 44' 45.891"	24.85717	-80.74608	LNM 17/14, 7th Dist	324	11449_1	5/8/2014
11449	Change	Arsenic Bank Light 2	Fl R 4s 16ft 5M "2"	N 24 52' 17.629"	W 080 53' 11.059"	24.87156	-80.88641	LNM 18/13, 7th Dist	324	11449_1	5/23/2013
11449	Change	Bowlegs Cut Light 98	Fl R 2.5s 16ft 5M "98"	N 24 54' 08.843"	W 080 43' 58.013"	24.90246	-80.73278	LNM 15/13, 7th Dist	324	11449_1	4/30/2013
11449	Change	Long Key Light 44	Fl R 6s 5M "44"	N 24 47' 48.252"	W 080 47' 00.652"	24.79674	-80.78352	LNM 11/13, 7th Dist	324	11449_1	4/2/2013
11449	Change	Shell Key Light 90	Fl R 4s 16ft 5M "90"	N 24 56' 23.524"	W 080 40' 03.754"	24.93987	-80.66771	LNM 50/12, 7th Dist	324	11449_1	1/23/2013
11449	Change	Long Key Light 1	Fl G 4s 12ft 5M "1"	N 24 51' 01.689"	W 080 49' 57.255"	24.85047	-80.83257	LNM 31/12, 7th Dist	324	11449_1	8/29/2012
11449	Change	Bowlegs Cut Light 93	Fl G 4s 16ft 5M "93"	N 24 54' 24.157"	W 080 43' 43.565"	24.90671	-80.72877	LNM 15/12, 7th Dist	324	11449_1	4/24/2012
11449	Change	Channel Key Light 5	Fl G 4s 16ft 5M "5"	N 24 48' 43.420"	W 080 54' 36.834"	24.81206	-80.91023	LNM 32/11, 7th Dist	324	11449_1	8/17/2011
11449	Change	Bowlegs Cut Light 93	Q G "93"	N 24 54' 24.157"	W 080 43' 43.565"	24.90671	-80.72877	LNM 32/11, 7th Dist	324	11449_1	8/17/2011
11449	Change	Shell Key Light 87	Fl G 4s 16ft 5M "87"	N 24 56' 25.852"	W 080 39' 50.832"	24.94051	-80.66412	LNM 32/11, 7th Dist	324	11449_1	8/17/2011
11449	Change	Channel Key Light 9	Fl G 4s 16ft 5M "9"	N 24 47' 44.202"	W 080 55' 40.476"	24.79561	-80.92791	LNM 31/11, 7th Dist	324	11449_1	8/15/2011
11449	Add	Bridge Fenders PT 1 OF 2	** Bridge Fenders **	N 24 50' 15.370"	W 080 46' 23.620"	24.8376	-80.77323	LNM 14/11, 7th Dist	324	11449_1	4/4/2011
11449	Add	Bridge Fenders PT 2 OF 2	** Bridge Fenders **	N 24 50' 17.020"	W 080 46' 23.240"	24.83806	-80.77312	LNM 14/11, 7th Dist	324	11449_1	4/4/2011
11449	Delete	Double Line Pier PT 1 OF 2	Chart No. 1 F14	N 24 50' 17.700"	W 080 46' 26.400"	24.83825	-80.774	LNM 14/11, 7th Dist	324	11449_1	4/4/2011
11449	Delete	Double Line Pier PT 2 OF 2	Chart No. 1 F14	N 24 50' 17.400"	W 080 46' 25.000"	24.83817	-80.77361	LNM 14/11, 7th Dist	324	11449_1	4/4/2011
11449	Add	Bridge Fenders PT 1 OF 2	** Bridge Fenders **	N 24 50' 15.730"	W 080 46' 24.970"	24.8377	-80.77361	LNM 14/11, 7th Dist	324	11449_1	4/4/2011
11449	Add	Bridge Fenders PT 2 OF 2	** Bridge Fenders **	N 24 50' 17.330"	W 080 46' 24.600"	24.83815	-80.7735	LNM 14/11, 7th Dist	324	11449_1	4/4/2011
11449	Delete	Double Line Pier PT 1 OF 2	Chart No. 1 F14	N 24 50' 16.800"	W 080 46' 22.500"	24.838	-80.77292	LNM 14/11, 7th Dist	324	11449_1	4/4/2011
11449	Delete	Double Line Pier PT 2 OF 2	Chart No. 1 F14	N 24 50' 15.400"	W 080 46' 16.200"	24.83761	-80.77116	LNM 14/11, 7th Dist	324	11449_1	4/4/2011
11449	Relocate	Shell Key Daybeacon 89	G "89"	N 24 56' 23.798"	W 080 39' 58.294"	24.93994	-80.66619	LNM 31/10, 7th Dist	324	11449_1	8/18/2010
11449	Add	Fixed Bridge PT 1 OF 2	Chart No. 1: D22	N 24 50' 15.670"	W 080 46' 17.520"	24.83769	-80.77153	LNM 33/10, 7th Dist	324	11449_1	8/18/2010
11449	Add	Fixed Bridge PT 2 OF 2	Chart No. 1: D22	N 24 50' 15.120"	W 080 46' 15.130"	24.83753	-80.77087	LNM 33/10, 7th Dist	324	11449_1	8/18/2010
11449	Delete	Fixed Bridge Portion PT 1 OF 2	Chart No. 1: D22	N 24 50' 17.320"	W 080 46' 24.930"	24.83814	-80.77359	LNM 33/10, 7th Dist	324	11449_1	8/18/2010
11449	Delete	Fixed Bridge Portion PT 2 OF 2	Chart No. 1: D22	N 24 50' 16.740"	W 080 46' 22.610"	24.83798	-80.77295	LNM 33/10, 7th Dist	324	11449_1	8/18/2010
11449	Relocate	Shell Key Daybeacon 88	R "88"	N 24 56' 26.111"	W 080 39' 54.771"	24.94059	-80.66521	LNM 29/10, 7th Dist	324	11449_1	7/27/2010
11449	Add	Dangerous Wreck	PA	N 24 50' 09.480"	W 080 47' 00.000"	24.83597	-80.78333	LNM 10/10, 7th Dist	324	11449_1	3/17/2010
11449	Relocate	Channel Five Daybeacon 4	R "4"	N 24 49' 38.587"	W 080 46' 22.312"	24.82738	-80.77287	LNM 06/09, 7th Dist	324	11449_1	2/19/2009
11449	Relocate	East Turtle Shoal Light 45	Fl G 4s 27ft 5M "45"	N 24 43' 28.774"	W 080 55' 59.001"	24.72466	-80.93305	LNM 25/08, 7th Dist	324	11449_1	9/26/2008
11449	Change	East Turtle Shoal Light 45	Q G 20ft 5M "45"	N 24 43' 28.774"	W 080 55' 59.001"	24.72466	-80.93305	LNM 25/08, 7th Dist	324	11449_1	9/26/2008
11449	Relocate	Channel Key Daybeacon 4	R "4"	N 24 49' 16.180"	W 080 53' 49.345"	24.82116	-80.89704	LNM 19/06, 7th Dist	324	11449_1	2/13/2008
11465	Change	Channel Reach Name	SOUTH SHIP CHANNEL	N 25 45' 55.000"	W 080 09' 17.000"	25.76528	-80.15472	Not Yet Published	310	11465_1	8/31/2017
11465	Change	Depth Legend - Fisher Island Turning Basin, FL to:	48 FT OCT 2016	N 25 45' 56.500"	W 080 08' 31.600"	25.76569	-80.14211	Not Yet Published	310	11465_1	8/31/2017
11465	Delete	Sounding in Feet	49	N 25 45' 55.600"	W 080 08' 18.500"	25.76544	-80.13847	Not Yet Published	310	11465_1	8/31/2017
11465	Add	Channel Reach Separation Line PT 1 OF 3	Channel Reach Separation Line	N 25 45' 53.090"	W 080 08' 17.900"	25.76475	-80.13831	Not Yet Published	310	11465_1	8/31/2017
11465	Add	Channel Reach Separation Line PT 2 OF 3	Channel Reach Separation Line	N 25 45' 53.160"	W 080 08' 15.160"	25.76477	-80.13754	Not Yet Published	310	11465_1	8/31/2017
11465	Add	Channel Reach Separation Line PT 3 OF 3	Channel Reach Separation Line	N 25 45' 50.560"	W 080 08' 08.400"	25.76404	-80.13567	Not Yet Published	310	11465_1	8/31/2017
11465	Add	Channel Reach Separation Line PT 1 OF 2	Channel Reach Separation Line	N 25 45' 53.160"	W 080 08' 15.160"	25.76477	-80.13754	Not Yet Published	310	11465_1	8/31/2017
11465	Add	Channel Reach Separation Line PT 2 OF 2	Channel Reach Separation Line	N 25 45' 57.690"	W 080 08' 13.040"	25.76603	-80.13696	Not Yet Published	310	11465_1	8/31/2017
11465	Delete	Channel Reach Separation Line PT 1 OF 2	Channel Reach Separation Line	N 25 46' 23.340"	W 080 10' 34.190"	25.77315	-80.17616	Not Yet Published	310	11465_1	8/31/2017
11465	Delete	Channel Reach Separation Line PT 2 OF 2	Channel Reach Separation Line	N 25 46' 19.780"	W 080 10' 36.060"	25.77216	-80.17668	Not Yet Published	310	11465_1	8/31/2017
11465	Add	Sounding in Feet	37	N 25 45' 52.600"	W 080 09' 06.400"	25.76461	-80.15178	Not Yet Published	310	11465_1	8/31/2017
11465	Add	Depth Legend - Widener Miami Harbor, FL to:	33 FT	N 25 45' 52.700"	W 080 08' 15.200"	25.76464	-80.13756	Not Yet Published	310	11465_1	8/31/2017
11465	Delete	Channel Reach Separation Line PT 1 OF 2	Channel Reach Separation Line	N 25 45' 53.090"	W 080 08' 17.900"	25.76475	-80.13831	Not Yet Published	310	11465_1	8/31/2017
11465	Delete	Channel Reach Separation Line PT 2 OF 2	Channel Reach Separation Line	N 25 45' 58.580"	W 080 08' 15.310"	25.76627	-80.13759	Not Yet Published	310	11465_1	8/31/2017
11465	Add	Channel Limits PT 1 OF 2	Chart No. 1: I20	N 25 46' 25.120"	W 080 10' 48.470"	25.77364	-80.18013	Not Yet Published	310	11465_1	8/31/2017
11465	Add	Channel Limits PT 2 OF 2	Chart No. 1: I20	N 25 46' 19.780"	W 080 10' 36.060"	25.77216	-80.17668	Not Yet Published	310	11465_1	8/31/2017
11465	Change	tabulation - MIAMI HARBOR CHANNEL	tabulation - MIAMI HARBOR CHANNEL	N 25 45' 36.000"	W 080 04' 12.000"	25.76	-80.07	LNM 35/17, 7th Dist	310	11465_1	8/24/2017
11465	Delete	Dinner Key Mooring Field 4 Lighted Buoy AA	Y "AA" Fl 4s Priv	N 25 43' 00.135"	W 080 13' 00.849"	25.7167	-80.2169	LNM 30/17, 7th Dist	310	11465_1	8/24/2017
11465	Add	Dinner Key Mooring Field 4 Buoy BB	Y C "BB" Priv	N 25 43' 04.980"	W 080 13' 49.330"	25.71805	-80.23037	LNM 30/17, 7th Dist	310	11465_1	8/24/2017
11465	Delete	Dinner Key Mooring Field 4 Lighted Buoy DD	Y "DD" Fl 2.5s Priv	N 25 42' 00.979"	W 080 13' 00.768"	25.70027	-80.21688	LNM 30/17, 7th Dist	310	11465_1	8/24/2017
11465	Add	Dinner Key Mooring Field 4 Lighted Buoy DD	Y "DD" Fl 2.5s Priv	N 25 42' 58.750"	W 080 13' 46.090"	25.71632	-80.22947	LNM 30/17, 7th Dist	310	11465_1	8/24/2017
11465	Relocate	Deering Channel Daybeacon 6	R "6" Priv	N 25 44' 15.400"	W 080 12' 14.700"	25.73761	-80.20409	LNM 27/17, 7th Dist	310	11465_1	7/13/2017
11465	Relocate	Lummus Island Turning Basin Light E	Fl Y 4s 16ft 4M "E"	N 25 46' 02.589"	W 080 10' 14.014"	25.76739	-80.17056	LNM 25/17, 7th Dist	310	11465_1	6/29/2017
11465	Relocate	Lummus Island Turning Basin Light E	Fl Y 4s 16ft 4M "E"	N 25 46' 02.554"	W 080 10' 13.523"	25.76738	-80.17043	LNM 22/17, 7th Dist	310	11465_1	6/22/2017
11465	Relocate	Biscayne Flats Daybeacon 3	G "3"	N 25 39' 49.911"	W 080 11' 01.169"	25.66386	-80.18365	LNM 17/17, 7th Dist	310	11465_1	5/4/2017
11465	Relocate	Lummus Island Turning Basin Light B	Fl Y 4s 16ft 4M "B"	N 25 45' 53.860"	W 080 09' 58.338"	25.76496	-80.16621	LNM 13/17, 7th Dist	310	11465_1	4/13/2017
11465	Add	Bent Light	Fl 4s 25ft Priv	N 25 45' 11.048"	W 080 06' 28.821"	25.75307	-80.10801	LNM 13/17, 7th Dist	310	11465_1	4/13/2017
11465	Change	Miami Main Channel Lighted Buoy 10	R "10" Fl R 2.5s	N 25 45' 34.904"	W 080 07' 16.078"	25.7597	-80.12113	LNM 04/17, 7th Dist	310	11465_1	2/2/2017
11465	Change	Miami Main Channel Lighted Buoy 12	R "12" Q R	N 25 45' 39.563"	W 080 07' 28.837"	25.76099	-80.12468	LNM 04/17, 7th Dist	310	11465_1	2/2/2017
11465	Change	Miami Main Channel Lighted Buoy 8	R "8" Q R	N 25 45' 30.958"	W 080 06' 58.262"	25.7586	-80.11618	LNM 04/17, 7th Dist	310	11465_1	2/2/2017
11431	Change	Pavilion Key Light 10	Fl R 4s 18ft 5M "10"	N 25 40' 55.259"	W 081 21' 23.592"	25.68202	-81.35655	LNM 50/16, 7th Dist	367	11431_1	12/22/2016
11431	Change	Northwest Cape Light 4	Fl R 2.5s 16ft 5M "4"	N 25 12' 49.763"	W 081 11' 45.445"	25.21382	-81.19595	LNM 50/16, 7th Dist	367	11431_1	12/22/2016
11431	Change	Lostmans River Light 8	Fl R 2.5s 18ft 5M "8"	N 25 32' 33.510"	W 081 14' 59.048"	25.54264	-81.24973	LNM 50/16, 7th Dist	367	11431_1	12/22/2016
11431	Change	Broad Creek Light 6	Fl R 6s 18ft 5M "6"	N 25 26' 19.414"	W 081 12' 12.279"	25.43873	-81.20341	LNM 50/16, 7th Dist	367	11431_1	12/22/2016
11431	Change	Little Shark River Entrance Light 1	Fl G 4s 16ft 5M "1"	N 25 19' 21.164"	W 081 09' 14.380"	25.32255	-81.15399	LNM 50/16, 7th Dist	367	11431_1	12/22/2016
11431	Relocate	Cape Romano Shoals Light	Fl 4s 18ft 6M	N 25 41' 25.175"	W 081 38' 46.509"	25.69033	-81.64626	LNM 17/10, 7th Dist	367	11431_1	5/13/2010
